
dpr_test.elf:     file format elf32-littlearm


Disassembly of section .text:

00100000 <_vector_table>:
  100000:	ea000049 	b	10012c <_boot>
  100004:	ea000025 	b	1000a0 <Undefined>
  100008:	ea00002b 	b	1000bc <SVCHandler>
  10000c:	ea00003b 	b	100100 <PrefetchAbortHandler>
  100010:	ea000032 	b	1000e0 <DataAbortHandler>
  100014:	e320f000 	nop	{0}
  100018:	ea000000 	b	100020 <IRQHandler>
  10001c:	ea00000f 	b	100060 <FIQHandler>

00100020 <IRQHandler>:
  100020:	e92d500f 	push	{r0, r1, r2, r3, ip, lr}
  100024:	ed2d0b10 	vpush	{d0-d7}
  100028:	ed6d0b20 	vpush	{d16-d31}
  10002c:	eef11a10 	vmrs	r1, fpscr
  100030:	e52d1004 	push	{r1}		; (str r1, [sp, #-4]!)
  100034:	eef81a10 	vmrs	r1, fpexc
  100038:	e52d1004 	push	{r1}		; (str r1, [sp, #-4]!)
  10003c:	eb000d61 	bl	1035c8 <IRQInterrupt>
  100040:	e49d1004 	pop	{r1}		; (ldr r1, [sp], #4)
  100044:	eee81a10 	vmsr	fpexc, r1
  100048:	e49d1004 	pop	{r1}		; (ldr r1, [sp], #4)
  10004c:	eee11a10 	vmsr	fpscr, r1
  100050:	ecfd0b20 	vpop	{d16-d31}
  100054:	ecbd0b10 	vpop	{d0-d7}
  100058:	e8bd500f 	pop	{r0, r1, r2, r3, ip, lr}
  10005c:	e25ef004 	subs	pc, lr, #4

00100060 <FIQHandler>:
  100060:	e92d500f 	push	{r0, r1, r2, r3, ip, lr}
  100064:	ed2d0b10 	vpush	{d0-d7}
  100068:	ed6d0b20 	vpush	{d16-d31}
  10006c:	eef11a10 	vmrs	r1, fpscr
  100070:	e52d1004 	push	{r1}		; (str r1, [sp, #-4]!)
  100074:	eef81a10 	vmrs	r1, fpexc
  100078:	e52d1004 	push	{r1}		; (str r1, [sp, #-4]!)

0010007c <FIQLoop>:
  10007c:	eb000d4c 	bl	1035b4 <FIQInterrupt>
  100080:	e49d1004 	pop	{r1}		; (ldr r1, [sp], #4)
  100084:	eee81a10 	vmsr	fpexc, r1
  100088:	e49d1004 	pop	{r1}		; (ldr r1, [sp], #4)
  10008c:	eee11a10 	vmsr	fpscr, r1
  100090:	ecfd0b20 	vpop	{d16-d31}
  100094:	ecbd0b10 	vpop	{d0-d7}
  100098:	e8bd500f 	pop	{r0, r1, r2, r3, ip, lr}
  10009c:	e25ef004 	subs	pc, lr, #4

001000a0 <Undefined>:
  1000a0:	e92d500f 	push	{r0, r1, r2, r3, ip, lr}
  1000a4:	e59f0074 	ldr	r0, [pc, #116]	; 100120 <PrefetchAbortHandler+0x20>
  1000a8:	e24e1004 	sub	r1, lr, #4
  1000ac:	e5801000 	str	r1, [r0]
  1000b0:	eb000d3a 	bl	1035a0 <UndefinedException>
  1000b4:	e8bd500f 	pop	{r0, r1, r2, r3, ip, lr}
  1000b8:	e1b0f00e 	movs	pc, lr

001000bc <SVCHandler>:
  1000bc:	e92d500f 	push	{r0, r1, r2, r3, ip, lr}
  1000c0:	e3100020 	tst	r0, #32
  1000c4:	115e00b2 	ldrhne	r0, [lr, #-2]
  1000c8:	13c00cff 	bicne	r0, r0, #65280	; 0xff00
  1000cc:	051e0004 	ldreq	r0, [lr, #-4]
  1000d0:	03c004ff 	biceq	r0, r0, #-16777216	; 0xff000000
  1000d4:	eb000d40 	bl	1035dc <SWInterrupt>
  1000d8:	e8bd500f 	pop	{r0, r1, r2, r3, ip, lr}
  1000dc:	e1b0f00e 	movs	pc, lr

001000e0 <DataAbortHandler>:
  1000e0:	f57ff04f 	dsb	sy
  1000e4:	e92d500f 	push	{r0, r1, r2, r3, ip, lr}
  1000e8:	e59f0034 	ldr	r0, [pc, #52]	; 100124 <PrefetchAbortHandler+0x24>
  1000ec:	e24e1008 	sub	r1, lr, #8
  1000f0:	e5801000 	str	r1, [r0]
  1000f4:	eb000d3d 	bl	1035f0 <DataAbortInterrupt>
  1000f8:	e8bd500f 	pop	{r0, r1, r2, r3, ip, lr}
  1000fc:	e25ef008 	subs	pc, lr, #8

00100100 <PrefetchAbortHandler>:
  100100:	f57ff04f 	dsb	sy
  100104:	e92d500f 	push	{r0, r1, r2, r3, ip, lr}
  100108:	e59f0018 	ldr	r0, [pc, #24]	; 100128 <PrefetchAbortHandler+0x28>
  10010c:	e24e1004 	sub	r1, lr, #4
  100110:	e5801000 	str	r1, [r0]
  100114:	eb000d3a 	bl	103604 <PrefetchAbortInterrupt>
  100118:	e8bd500f 	pop	{r0, r1, r2, r3, ip, lr}
  10011c:	e25ef004 	subs	pc, lr, #4
  100120:	0012caf0 	.word	0x0012caf0
  100124:	0012caf8 	.word	0x0012caf8
  100128:	0012caf4 	.word	0x0012caf4

0010012c <_boot>:
  10012c:	ee101fb0 	mrc	15, 0, r1, cr0, cr0, {5}
  100130:	e201100f 	and	r1, r1, #15
  100134:	e3510000 	cmp	r1, #0
  100138:	0a000001 	beq	100144 <OKToRun>

0010013c <EndlessLoop0>:
  10013c:	e320f002 	wfe
  100140:	eafffffd 	b	10013c <EndlessLoop0>

00100144 <OKToRun>:
  100144:	ee100f10 	mrc	15, 0, r0, cr0, cr0, {0}
  100148:	e200560f 	and	r5, r0, #15728640	; 0xf00000
  10014c:	e200600f 	and	r6, r0, #15
  100150:	e1866825 	orr	r6, r6, r5, lsr #16
  100154:	e3560022 	cmp	r6, #34	; 0x22
  100158:	de1faf30 	mrcle	15, 0, sl, cr15, cr0, {1}
  10015c:	d38aa010 	orrle	sl, sl, #16
  100160:	de0faf30 	mcrle	15, 0, sl, cr15, cr0, {1}
  100164:	e3350602 	teq	r5, #2097152	; 0x200000
  100168:	0e1faf30 	mrceq	15, 0, sl, cr15, cr0, {1}
  10016c:	038aa040 	orreq	sl, sl, #64	; 0x40
  100170:	0e0faf30 	mcreq	15, 0, sl, cr15, cr0, {1}
  100174:	e59f02a4 	ldr	r0, [pc, #676]	; 100420 <finished+0x14>
  100178:	ee0c0f10 	mcr	15, 0, r0, cr12, cr0, {0}
  10017c:	e59f72a0 	ldr	r7, [pc, #672]	; 100424 <finished+0x18>
  100180:	e59f62a0 	ldr	r6, [pc, #672]	; 100428 <finished+0x1c>
  100184:	e5876000 	str	r6, [r7]
  100188:	e3a00000 	mov	r0, #0
  10018c:	ee080f17 	mcr	15, 0, r0, cr8, cr7, {0}
  100190:	ee070f15 	mcr	15, 0, r0, cr7, cr5, {0}
  100194:	ee070fd5 	mcr	15, 0, r0, cr7, cr5, {6}
  100198:	eb00007c 	bl	100390 <invalidate_dcache>
  10019c:	ee110f10 	mrc	15, 0, r0, cr1, cr0, {0}
  1001a0:	e3c00001 	bic	r0, r0, #1
  1001a4:	ee010f10 	mcr	15, 0, r0, cr1, cr0, {0}
  1001a8:	e10f0000 	mrs	r0, CPSR
  1001ac:	e3e0101f 	mvn	r1, #31
  1001b0:	e0012000 	and	r2, r1, r0
  1001b4:	e3822012 	orr	r2, r2, #18
  1001b8:	e129f002 	msr	CPSR_fc, r2
  1001bc:	e59fd268 	ldr	sp, [pc, #616]	; 10042c <finished+0x20>
  1001c0:	e3c22c02 	bic	r2, r2, #512	; 0x200
  1001c4:	e16ff002 	msr	SPSR_fsxc, r2
  1001c8:	e10f0000 	mrs	r0, CPSR
  1001cc:	e3e0101f 	mvn	r1, #31
  1001d0:	e0012000 	and	r2, r1, r0
  1001d4:	e3822013 	orr	r2, r2, #19
  1001d8:	e129f002 	msr	CPSR_fc, r2
  1001dc:	e59fd24c 	ldr	sp, [pc, #588]	; 100430 <finished+0x24>
  1001e0:	e3c22c02 	bic	r2, r2, #512	; 0x200
  1001e4:	e16ff002 	msr	SPSR_fsxc, r2
  1001e8:	e10f0000 	mrs	r0, CPSR
  1001ec:	e3e0101f 	mvn	r1, #31
  1001f0:	e0012000 	and	r2, r1, r0
  1001f4:	e3822017 	orr	r2, r2, #23
  1001f8:	e129f002 	msr	CPSR_fc, r2
  1001fc:	e59fd230 	ldr	sp, [pc, #560]	; 100434 <finished+0x28>
  100200:	e3c22c02 	bic	r2, r2, #512	; 0x200
  100204:	e16ff002 	msr	SPSR_fsxc, r2
  100208:	e10f0000 	mrs	r0, CPSR
  10020c:	e3e0101f 	mvn	r1, #31
  100210:	e0012000 	and	r2, r1, r0
  100214:	e3822011 	orr	r2, r2, #17
  100218:	e129f002 	msr	CPSR_fc, r2
  10021c:	e59fd214 	ldr	sp, [pc, #532]	; 100438 <finished+0x2c>
  100220:	e3c22c02 	bic	r2, r2, #512	; 0x200
  100224:	e16ff002 	msr	SPSR_fsxc, r2
  100228:	e10f0000 	mrs	r0, CPSR
  10022c:	e3e0101f 	mvn	r1, #31
  100230:	e0012000 	and	r2, r1, r0
  100234:	e382201b 	orr	r2, r2, #27
  100238:	e129f002 	msr	CPSR_fc, r2
  10023c:	e59fd1f8 	ldr	sp, [pc, #504]	; 10043c <finished+0x30>
  100240:	e3c22c02 	bic	r2, r2, #512	; 0x200
  100244:	e16ff002 	msr	SPSR_fsxc, r2
  100248:	e10f0000 	mrs	r0, CPSR
  10024c:	e3e0101f 	mvn	r1, #31
  100250:	e0012000 	and	r2, r1, r0
  100254:	e382201f 	orr	r2, r2, #31
  100258:	e129f002 	msr	CPSR_fc, r2
  10025c:	e59fd1dc 	ldr	sp, [pc, #476]	; 100440 <finished+0x34>
  100260:	e59f71dc 	ldr	r7, [pc, #476]	; 100444 <finished+0x38>
  100264:	e5970000 	ldr	r0, [r7]
  100268:	e3800001 	orr	r0, r0, #1
  10026c:	e5870000 	str	r0, [r7]
  100270:	e59f01d0 	ldr	r0, [pc, #464]	; 100448 <finished+0x3c>
  100274:	e380005b 	orr	r0, r0, #91	; 0x5b
  100278:	ee020f10 	mcr	15, 0, r0, cr2, cr0, {0}
  10027c:	e3e00000 	mvn	r0, #0
  100280:	ee030f10 	mcr	15, 0, r0, cr3, cr0, {0}
  100284:	e59f01c0 	ldr	r0, [pc, #448]	; 10044c <finished+0x40>
  100288:	ee010f10 	mcr	15, 0, r0, cr1, cr0, {0}
  10028c:	f57ff04f 	dsb	sy
  100290:	f57ff06f 	isb	sy
  100294:	ee110f30 	mrc	15, 0, r0, cr1, cr0, {1}
  100298:	e3800040 	orr	r0, r0, #64	; 0x40
  10029c:	e3800001 	orr	r0, r0, #1
  1002a0:	ee010f30 	mcr	15, 0, r0, cr1, cr0, {1}
  1002a4:	e59f01a4 	ldr	r0, [pc, #420]	; 100450 <finished+0x44>
  1002a8:	e3a01000 	mov	r1, #0
  1002ac:	e5801000 	str	r1, [r0]
  1002b0:	e59f019c 	ldr	r0, [pc, #412]	; 100454 <finished+0x48>
  1002b4:	e5901000 	ldr	r1, [r0]
  1002b8:	e59f2198 	ldr	r2, [pc, #408]	; 100458 <finished+0x4c>
  1002bc:	e1811002 	orr	r1, r1, r2
  1002c0:	e5801000 	str	r1, [r0]
  1002c4:	e59f0190 	ldr	r0, [pc, #400]	; 10045c <finished+0x50>
  1002c8:	e59f1190 	ldr	r1, [pc, #400]	; 100460 <finished+0x54>
  1002cc:	e5801000 	str	r1, [r0]
  1002d0:	e59f018c 	ldr	r0, [pc, #396]	; 100464 <finished+0x58>
  1002d4:	e59f118c 	ldr	r1, [pc, #396]	; 100468 <finished+0x5c>
  1002d8:	e5801000 	str	r1, [r0]
  1002dc:	e59f0188 	ldr	r0, [pc, #392]	; 10046c <finished+0x60>
  1002e0:	e59f2140 	ldr	r2, [pc, #320]	; 100428 <finished+0x1c>
  1002e4:	e5802000 	str	r2, [r0]
  1002e8:	e59f0180 	ldr	r0, [pc, #384]	; 100470 <finished+0x64>

001002ec <Sync>:
  1002ec:	e5901000 	ldr	r1, [r0]
  1002f0:	e3510000 	cmp	r1, #0
  1002f4:	1afffffc 	bne	1002ec <Sync>
  1002f8:	e59f0174 	ldr	r0, [pc, #372]	; 100474 <finished+0x68>
  1002fc:	e5901000 	ldr	r1, [r0]
  100300:	e59f0170 	ldr	r0, [pc, #368]	; 100478 <finished+0x6c>
  100304:	e5801000 	str	r1, [r0]
  100308:	e59f016c 	ldr	r0, [pc, #364]	; 10047c <finished+0x70>
  10030c:	e59f116c 	ldr	r1, [pc, #364]	; 100480 <finished+0x74>
  100310:	e5801000 	str	r1, [r0]
  100314:	e59f0168 	ldr	r0, [pc, #360]	; 100484 <finished+0x78>
  100318:	e59f1168 	ldr	r1, [pc, #360]	; 100488 <finished+0x7c>
  10031c:	e5801000 	str	r1, [r0]
  100320:	e59f0164 	ldr	r0, [pc, #356]	; 10048c <finished+0x80>
  100324:	e59f1164 	ldr	r1, [pc, #356]	; 100490 <finished+0x84>
  100328:	e5801000 	str	r1, [r0]
  10032c:	e59f011c 	ldr	r0, [pc, #284]	; 100450 <finished+0x44>
  100330:	e5901000 	ldr	r1, [r0]
  100334:	e3a02001 	mov	r2, #1
  100338:	e1811002 	orr	r1, r1, r2
  10033c:	e5801000 	str	r1, [r0]
  100340:	e1a00000 	nop			; (mov r0, r0)
  100344:	ee111f50 	mrc	15, 0, r1, cr1, cr0, {2}
  100348:	e381160f 	orr	r1, r1, #15728640	; 0xf00000
  10034c:	ee011f50 	mcr	15, 0, r1, cr1, cr0, {2}
  100350:	eef81a10 	vmrs	r1, fpexc
  100354:	e3811101 	orr	r1, r1, #1073741824	; 0x40000000
  100358:	eee81a10 	vmsr	fpexc, r1
  10035c:	ee110f10 	mrc	15, 0, r0, cr1, cr0, {0}
  100360:	e3800b02 	orr	r0, r0, #2048	; 0x800
  100364:	ee010f10 	mcr	15, 0, r0, cr1, cr0, {0}
  100368:	ee110f30 	mrc	15, 0, r0, cr1, cr0, {1}
  10036c:	e3800004 	orr	r0, r0, #4
  100370:	e3800002 	orr	r0, r0, #2
  100374:	ee010f30 	mcr	15, 0, r0, cr1, cr0, {1}
  100378:	e10f0000 	mrs	r0, CPSR
  10037c:	e3c00c01 	bic	r0, r0, #256	; 0x100
  100380:	e12ef000 	msr	CPSR_fsx, r0
  100384:	ea000ca8 	b	10362c <_start>
  100388:	e0000000 	and	r0, r0, r0
  10038c:	eafffffe 	b	10038c <Sync+0xa0>

00100390 <invalidate_dcache>:
  100390:	ee300f30 	mrc	15, 1, r0, cr0, cr0, {1}
  100394:	e2103407 	ands	r3, r0, #117440512	; 0x7000000
  100398:	e1a03ba3 	lsr	r3, r3, #23
  10039c:	0a00001a 	beq	10040c <finished>
  1003a0:	e3a0a000 	mov	sl, #0

001003a4 <loop1>:
  1003a4:	e08a20aa 	add	r2, sl, sl, lsr #1
  1003a8:	e1a01230 	lsr	r1, r0, r2
  1003ac:	e2011007 	and	r1, r1, #7
  1003b0:	e3510002 	cmp	r1, #2
  1003b4:	ba000011 	blt	100400 <skip>
  1003b8:	ee40af10 	mcr	15, 2, sl, cr0, cr0, {0}
  1003bc:	f57ff06f 	isb	sy
  1003c0:	ee301f10 	mrc	15, 1, r1, cr0, cr0, {0}
  1003c4:	e2012007 	and	r2, r1, #7
  1003c8:	e2822004 	add	r2, r2, #4
  1003cc:	e59f40c0 	ldr	r4, [pc, #192]	; 100494 <finished+0x88>
  1003d0:	e01441a1 	ands	r4, r4, r1, lsr #3
  1003d4:	e16f5f14 	clz	r5, r4
  1003d8:	e59f70b8 	ldr	r7, [pc, #184]	; 100498 <finished+0x8c>
  1003dc:	e01776a1 	ands	r7, r7, r1, lsr #13

001003e0 <loop2>:
  1003e0:	e1a09004 	mov	r9, r4

001003e4 <loop3>:
  1003e4:	e18ab519 	orr	fp, sl, r9, lsl r5
  1003e8:	e18bb217 	orr	fp, fp, r7, lsl r2
  1003ec:	ee07bf56 	mcr	15, 0, fp, cr7, cr6, {2}
  1003f0:	e2599001 	subs	r9, r9, #1
  1003f4:	aafffffa 	bge	1003e4 <loop3>
  1003f8:	e2577001 	subs	r7, r7, #1
  1003fc:	aafffff7 	bge	1003e0 <loop2>

00100400 <skip>:
  100400:	e28aa002 	add	sl, sl, #2
  100404:	e153000a 	cmp	r3, sl
  100408:	caffffe5 	bgt	1003a4 <loop1>

0010040c <finished>:
  10040c:	e3a0a000 	mov	sl, #0
  100410:	ee40af10 	mcr	15, 2, sl, cr0, cr0, {0}
  100414:	f57ff04f 	dsb	sy
  100418:	f57ff06f 	isb	sy
  10041c:	e12fff1e 	bx	lr
  100420:	00100000 	.word	0x00100000
  100424:	f8f0000c 	.word	0xf8f0000c
  100428:	0000ffff 	.word	0x0000ffff
  10042c:	07622580 	.word	0x07622580
  100430:	07622d80 	.word	0x07622d80
  100434:	07623180 	.word	0x07623180
  100438:	07623580 	.word	0x07623580
  10043c:	07623980 	.word	0x07623980
  100440:	07622180 	.word	0x07622180
  100444:	f8f00000 	.word	0xf8f00000
  100448:	00128000 	.word	0x00128000
  10044c:	00001005 	.word	0x00001005
  100450:	f8f02100 	.word	0xf8f02100
  100454:	f8f02104 	.word	0xf8f02104
  100458:	72360000 	.word	0x72360000
  10045c:	f8f02108 	.word	0xf8f02108
  100460:	00000111 	.word	0x00000111
  100464:	f8f0210c 	.word	0xf8f0210c
  100468:	00000121 	.word	0x00000121
  10046c:	f8f0277c 	.word	0xf8f0277c
  100470:	f8f02730 	.word	0xf8f02730
  100474:	f8f0221c 	.word	0xf8f0221c
  100478:	f8f02220 	.word	0xf8f02220
  10047c:	f8000008 	.word	0xf8000008
  100480:	0000df0d 	.word	0x0000df0d
  100484:	f8000a1c 	.word	0xf8000a1c
  100488:	00020202 	.word	0x00020202
  10048c:	f8000004 	.word	0xf8000004
  100490:	0000767b 	.word	0x0000767b
  100494:	000003ff 	.word	0x000003ff
  100498:	00007fff 	.word	0x00007fff

0010049c <deregister_tm_clones>:
  10049c:	e59f3024 	ldr	r3, [pc, #36]	; 1004c8 <deregister_tm_clones+0x2c>
  1004a0:	e3050038 	movw	r0, #20536	; 0x5038
  1004a4:	e3400012 	movt	r0, #18
  1004a8:	e0603003 	rsb	r3, r0, r3
  1004ac:	e3530006 	cmp	r3, #6
  1004b0:	912fff1e 	bxls	lr
  1004b4:	e3003000 	movw	r3, #0
  1004b8:	e3403000 	movt	r3, #0
  1004bc:	e3530000 	cmp	r3, #0
  1004c0:	012fff1e 	bxeq	lr
  1004c4:	e12fff13 	bx	r3
  1004c8:	0012503b 	.word	0x0012503b

001004cc <register_tm_clones>:
  1004cc:	e3053038 	movw	r3, #20536	; 0x5038
  1004d0:	e3050038 	movw	r0, #20536	; 0x5038
  1004d4:	e3403012 	movt	r3, #18
  1004d8:	e3400012 	movt	r0, #18
  1004dc:	e0601003 	rsb	r1, r0, r3
  1004e0:	e1a01141 	asr	r1, r1, #2
  1004e4:	e0811fa1 	add	r1, r1, r1, lsr #31
  1004e8:	e1b010c1 	asrs	r1, r1, #1
  1004ec:	012fff1e 	bxeq	lr
  1004f0:	e3003000 	movw	r3, #0
  1004f4:	e3403000 	movt	r3, #0
  1004f8:	e3530000 	cmp	r3, #0
  1004fc:	012fff1e 	bxeq	lr
  100500:	e12fff13 	bx	r3

00100504 <__do_global_dtors_aux>:
  100504:	e92d4010 	push	{r4, lr}
  100508:	e30c4020 	movw	r4, #49184	; 0xc020
  10050c:	e3404012 	movt	r4, #18
  100510:	e5d43000 	ldrb	r3, [r4]
  100514:	e3530000 	cmp	r3, #0
  100518:	18bd8010 	popne	{r4, pc}
  10051c:	ebffffde 	bl	10049c <deregister_tm_clones>
  100520:	e3003000 	movw	r3, #0
  100524:	e3403000 	movt	r3, #0
  100528:	e3530000 	cmp	r3, #0
  10052c:	0a000002 	beq	10053c <__do_global_dtors_aux+0x38>
  100530:	e3050038 	movw	r0, #20536	; 0x5038
  100534:	e3400012 	movt	r0, #18
  100538:	e320f000 	nop	{0}
  10053c:	e3a03001 	mov	r3, #1
  100540:	e5c43000 	strb	r3, [r4]
  100544:	e8bd8010 	pop	{r4, pc}

00100548 <frame_dummy>:
  100548:	e3003000 	movw	r3, #0
  10054c:	e3403000 	movt	r3, #0
  100550:	e3530000 	cmp	r3, #0
  100554:	e92d4010 	push	{r4, lr}
  100558:	0a000004 	beq	100570 <frame_dummy+0x28>
  10055c:	e30c1024 	movw	r1, #49188	; 0xc024
  100560:	e3050038 	movw	r0, #20536	; 0x5038
  100564:	e3401012 	movt	r1, #18
  100568:	e3400012 	movt	r0, #18
  10056c:	e320f000 	nop	{0}
  100570:	e3050034 	movw	r0, #20532	; 0x5034
  100574:	e3400012 	movt	r0, #18
  100578:	e5903000 	ldr	r3, [r0]
  10057c:	e3530000 	cmp	r3, #0
  100580:	1a000001 	bne	10058c <frame_dummy+0x44>
  100584:	e8bd4010 	pop	{r4, lr}
  100588:	eaffffcf 	b	1004cc <register_tm_clones>
  10058c:	e3003000 	movw	r3, #0
  100590:	e3403000 	movt	r3, #0
  100594:	e3530000 	cmp	r3, #0
  100598:	0afffff9 	beq	100584 <frame_dummy+0x3c>
  10059c:	e12fff33 	blx	r3
  1005a0:	eafffff7 	b	100584 <frame_dummy+0x3c>

001005a4 <main>:
volatile int FpgaProgrammed=FALSE;



int main()
{
  1005a4:	e92d4800 	push	{fp, lr}
  1005a8:	e28db004 	add	fp, sp, #4
  1005ac:	e24dd0a0 	sub	sp, sp, #160	; 0xa0
	char * const in_file[] = { "isin1.bin\0", "icos1.bin\0", "iatan1.bin\0", "imod1.bin\0","isin2.bin\0", "icos2.bin\0", "iatan2.bin\0", "imod2.bin\0","isin3.bin\0", "icos3.bin\0", "iatan3.bin\0", "imod3.bin\0" };
  1005b0:	e3003010 	movw	r3, #16
  1005b4:	e3403012 	movt	r3, #18
  1005b8:	e24bc058 	sub	ip, fp, #88	; 0x58
  1005bc:	e1a0e003 	mov	lr, r3
  1005c0:	e8be000f 	ldm	lr!, {r0, r1, r2, r3}
  1005c4:	e8ac000f 	stmia	ip!, {r0, r1, r2, r3}
  1005c8:	e8be000f 	ldm	lr!, {r0, r1, r2, r3}
  1005cc:	e8ac000f 	stmia	ip!, {r0, r1, r2, r3}
  1005d0:	e89e000f 	ldm	lr, {r0, r1, r2, r3}
  1005d4:	e88c000f 	stm	ip, {r0, r1, r2, r3}
	char * const out_file[] = { "osin1.bin\0", "ocos1.bin\0", "oatan1.bin\0", "omod1.bin\0","osin2.bin\0", "ocos2.bin\0", "oatan2.bin\0", "omod2.bin\0","osin3.bin\0", "ocos3.bin\0", "oatan3.bin\0", "omod3.bin\0" };
  1005d8:	e30030d0 	movw	r3, #208	; 0xd0
  1005dc:	e3403012 	movt	r3, #18
  1005e0:	e24bc088 	sub	ip, fp, #136	; 0x88
  1005e4:	e1a0e003 	mov	lr, r3
  1005e8:	e8be000f 	ldm	lr!, {r0, r1, r2, r3}
  1005ec:	e8ac000f 	stmia	ip!, {r0, r1, r2, r3}
  1005f0:	e8be000f 	ldm	lr!, {r0, r1, r2, r3}
  1005f4:	e8ac000f 	stmia	ip!, {r0, r1, r2, r3}
  1005f8:	e89e000f 	ldm	lr, {r0, r1, r2, r3}
  1005fc:	e88c000f 	stm	ip, {r0, r1, r2, r3}
	int dpr_index;
	int funct_index;
	char str1[20];


    init_platform();
  100600:	eb000275 	bl	100fdc <init_platform>
    Xil_DCacheDisable();
  100604:	eb000e07 	bl	103e28 <Xil_DCacheDisable>
    Xil_ICacheDisable();
  100608:	eb000e0d 	bl	103e44 <Xil_ICacheDisable>
    print("Hello World\n\r");
  10060c:	e30f0c88 	movw	r0, #64648	; 0xfc88
  100610:	e3400011 	movt	r0, #17
  100614:	eb000bd7 	bl	103578 <print>


//**** Memory Allocation ***///
	char *par_bitstream_1b = (char *)malloc(300000);
  100618:	e30903e0 	movw	r0, #37856	; 0x93e0
  10061c:	e3400004 	movt	r0, #4
  100620:	eb0011bd 	bl	104d1c <malloc>
  100624:	e1a03000 	mov	r3, r0
  100628:	e50b3010 	str	r3, [fp, #-16]
	if (par_bitstream_1b==NULL ){
  10062c:	e51b3010 	ldr	r3, [fp, #-16]
  100630:	e3530000 	cmp	r3, #0
  100634:	1a000003 	bne	100648 <main+0xa4>
		xil_printf("Failed to allocate memory for par_bitstream_1 buffer");
  100638:	e30f0c98 	movw	r0, #64664	; 0xfc98
  10063c:	e3400011 	movt	r0, #17
  100640:	eb000f5a 	bl	1043b0 <xil_printf>
  100644:	ea000003 	b	100658 <main+0xb4>
	} else {
		xil_printf("Successfully allocated memory for par_bitstream_1 buffer 0x%08x \r\n",  par_bitstream_1b);
  100648:	e51b1010 	ldr	r1, [fp, #-16]
  10064c:	e30f0cd0 	movw	r0, #64720	; 0xfcd0
  100650:	e3400011 	movt	r0, #17
  100654:	eb000f55 	bl	1043b0 <xil_printf>
	}
	char *par_bitstream_2b = (char *)malloc(300000);
  100658:	e30903e0 	movw	r0, #37856	; 0x93e0
  10065c:	e3400004 	movt	r0, #4
  100660:	eb0011ad 	bl	104d1c <malloc>
  100664:	e1a03000 	mov	r3, r0
  100668:	e50b3014 	str	r3, [fp, #-20]	; 0xffffffec
	if (par_bitstream_2b==NULL ){
  10066c:	e51b3014 	ldr	r3, [fp, #-20]	; 0xffffffec
  100670:	e3530000 	cmp	r3, #0
  100674:	1a000003 	bne	100688 <main+0xe4>
		xil_printf("Failed to allocate memory for par_bitstream_2 buffer");
  100678:	e30f0d14 	movw	r0, #64788	; 0xfd14
  10067c:	e3400011 	movt	r0, #17
  100680:	eb000f4a 	bl	1043b0 <xil_printf>
  100684:	ea000003 	b	100698 <main+0xf4>
	} else {
		xil_printf("Successfully allocated memory for par_bitstream_2 buffer 0x%08x \r\n",  par_bitstream_2b);
  100688:	e51b1014 	ldr	r1, [fp, #-20]	; 0xffffffec
  10068c:	e30f0d4c 	movw	r0, #64844	; 0xfd4c
  100690:	e3400011 	movt	r0, #17
  100694:	eb000f45 	bl	1043b0 <xil_printf>
	}
	char *par_bitstream_3b = (char *)malloc(300000);
  100698:	e30903e0 	movw	r0, #37856	; 0x93e0
  10069c:	e3400004 	movt	r0, #4
  1006a0:	eb00119d 	bl	104d1c <malloc>
  1006a4:	e1a03000 	mov	r3, r0
  1006a8:	e50b3018 	str	r3, [fp, #-24]	; 0xffffffe8
	if (par_bitstream_3b==NULL ){
  1006ac:	e51b3018 	ldr	r3, [fp, #-24]	; 0xffffffe8
  1006b0:	e3530000 	cmp	r3, #0
  1006b4:	1a000003 	bne	1006c8 <main+0x124>
		xil_printf("Failed to allocate memory for par_bitstream_3 buffer");
  1006b8:	e30f0d90 	movw	r0, #64912	; 0xfd90
  1006bc:	e3400011 	movt	r0, #17
  1006c0:	eb000f3a 	bl	1043b0 <xil_printf>
  1006c4:	ea000003 	b	1006d8 <main+0x134>
	} else {
		xil_printf("Successfully allocated memory for par_bitstream_3 buffer 0x%08x \r\n",  par_bitstream_3b);
  1006c8:	e51b1018 	ldr	r1, [fp, #-24]	; 0xffffffe8
  1006cc:	e30f0dc8 	movw	r0, #64968	; 0xfdc8
  1006d0:	e3400011 	movt	r0, #17
  1006d4:	eb000f35 	bl	1043b0 <xil_printf>
	}
	u32 *input_vec = (char *)malloc(sizeof(u32)*200);
  1006d8:	e3a00e32 	mov	r0, #800	; 0x320
  1006dc:	eb00118e 	bl	104d1c <malloc>
  1006e0:	e1a03000 	mov	r3, r0
  1006e4:	e50b301c 	str	r3, [fp, #-28]	; 0xffffffe4
	if (input_vec==NULL){
  1006e8:	e51b301c 	ldr	r3, [fp, #-28]	; 0xffffffe4
  1006ec:	e3530000 	cmp	r3, #0
  1006f0:	1a000003 	bne	100704 <main+0x160>
		xil_printf("Failed to allocate memory for input_vec buffer");
  1006f4:	e30f0e0c 	movw	r0, #65036	; 0xfe0c
  1006f8:	e3400011 	movt	r0, #17
  1006fc:	eb000f2b 	bl	1043b0 <xil_printf>
  100700:	ea000003 	b	100714 <main+0x170>
	} else {
		xil_printf("Successfully allocated memory for input_vec buffer 0x%08x \r\n",  input_vec);
  100704:	e51b101c 	ldr	r1, [fp, #-28]	; 0xffffffe4
  100708:	e30f0e3c 	movw	r0, #65084	; 0xfe3c
  10070c:	e3400011 	movt	r0, #17
  100710:	eb000f26 	bl	1043b0 <xil_printf>
	}
	u32 *output_vec = (char *)malloc(sizeof(u32)*200);
  100714:	e3a00e32 	mov	r0, #800	; 0x320
  100718:	eb00117f 	bl	104d1c <malloc>
  10071c:	e1a03000 	mov	r3, r0
  100720:	e50b3020 	str	r3, [fp, #-32]	; 0xffffffe0
	if (output_vec==NULL){
  100724:	e51b3020 	ldr	r3, [fp, #-32]	; 0xffffffe0
  100728:	e3530000 	cmp	r3, #0
  10072c:	1a000003 	bne	100740 <main+0x19c>
		xil_printf("Failed to allocate memory for input_vec buffer");
  100730:	e30f0e0c 	movw	r0, #65036	; 0xfe0c
  100734:	e3400011 	movt	r0, #17
  100738:	eb000f1c 	bl	1043b0 <xil_printf>
  10073c:	ea000003 	b	100750 <main+0x1ac>
	} else {
		xil_printf("Successfully allocated memory for output_vec buffer 0x%08x \r\n",  output_vec);
  100740:	e51b1020 	ldr	r1, [fp, #-32]	; 0xffffffe0
  100744:	e30f0e7c 	movw	r0, #65148	; 0xfe7c
  100748:	e3400011 	movt	r0, #17
  10074c:	eb000f17 	bl	1043b0 <xil_printf>
	}
	//**** End Memory Allocation ***///



	 printf("Enter name: ");
  100750:	e30f0ebc 	movw	r0, #65212	; 0xfebc
  100754:	e3400011 	movt	r0, #17
  100758:	eb0014e7 	bl	105afc <printf>
	   scanf("%s", str1);
  10075c:	e24b309c 	sub	r3, fp, #156	; 0x9c
  100760:	e1a01003 	mov	r1, r3
  100764:	e30f0ecc 	movw	r0, #65228	; 0xfecc
  100768:	e3400011 	movt	r0, #17
  10076c:	eb001528 	bl	105c14 <scanf>
	//**** Drive Mount ***///
	myres= f_mount(&FatFs, "0:/", 1);
  100770:	e3a02001 	mov	r2, #1
  100774:	e30f1ed0 	movw	r1, #65232	; 0xfed0
  100778:	e3401011 	movt	r1, #17
  10077c:	e30c0880 	movw	r0, #51328	; 0xc880
  100780:	e3400012 	movt	r0, #18
  100784:	eb006d08 	bl	11bbac <f_mount>
  100788:	e1a03000 	mov	r3, r0
  10078c:	e54b3021 	strb	r3, [fp, #-33]	; 0xffffffdf
	 if (myres == FR_OK)  {
  100790:	e55b3021 	ldrb	r3, [fp, #-33]	; 0xffffffdf
  100794:	e3530000 	cmp	r3, #0
  100798:	1a000003 	bne	1007ac <main+0x208>
		 xil_printf("Drive was mounted successfully \r\n");
  10079c:	e30f0ed4 	movw	r0, #65236	; 0xfed4
  1007a0:	e3400011 	movt	r0, #17
  1007a4:	eb000f01 	bl	1043b0 <xil_printf>
  1007a8:	ea000002 	b	1007b8 <main+0x214>
	 }else{
		 xil_printf("Fail to mount driver\r\n");
  1007ac:	e30f0ef8 	movw	r0, #65272	; 0xfef8
  1007b0:	e3400011 	movt	r0, #17
  1007b4:	eb000efd 	bl	1043b0 <xil_printf>
	 }
	 //**** Partial bistreamst -->> RAM ***///

    ReadBitstream( filename1,  par_bitstream_1b, 0);
  1007b8:	e3a02000 	mov	r2, #0
  1007bc:	e51b1010 	ldr	r1, [fp, #-16]
  1007c0:	e3030fbc 	movw	r0, #16316	; 0x3fbc
  1007c4:	e3400012 	movt	r0, #18
  1007c8:	eb00021e 	bl	101048 <ReadBitstream>
    ReadBitstream( filename2,  par_bitstream_2b, 0);
  1007cc:	e3a02000 	mov	r2, #0
  1007d0:	e51b1014 	ldr	r1, [fp, #-20]	; 0xffffffec
  1007d4:	e3030fcc 	movw	r0, #16332	; 0x3fcc
  1007d8:	e3400012 	movt	r0, #18
  1007dc:	eb000219 	bl	101048 <ReadBitstream>
    ReadBitstream( filename3,  par_bitstream_3b, 0);
  1007e0:	e3a02000 	mov	r2, #0
  1007e4:	e51b1018 	ldr	r1, [fp, #-24]	; 0xffffffe8
  1007e8:	e3030fdc 	movw	r0, #16348	; 0x3fdc
  1007ec:	e3400012 	movt	r0, #18
  1007f0:	eb000214 	bl	101048 <ReadBitstream>
    /**** Generic Interrupt Controller Intialization ***///
    Status = ScuGic_initialization(INTC_DEVICE_ID);
  1007f4:	e3a00000 	mov	r0, #0
  1007f8:	eb000268 	bl	1011a0 <ScuGic_initialization>
  1007fc:	e50b0028 	str	r0, [fp, #-40]	; 0xffffffd8
    if(Status!=XST_SUCCESS){
  100800:	e51b3028 	ldr	r3, [fp, #-40]	; 0xffffffd8
  100804:	e3530000 	cmp	r3, #0
  100808:	0a000004 	beq	100820 <main+0x27c>
    	xil_printf("GIC Example Test Failed \r\n");
  10080c:	e30f0f10 	movw	r0, #65296	; 0xff10
  100810:	e3400011 	movt	r0, #17
  100814:	eb000ee5 	bl	1043b0 <xil_printf>
    	return XST_FAILURE;
  100818:	e3a03001 	mov	r3, #1
  10081c:	ea000071 	b	1009e8 <main+0x444>
    	}
    xil_printf("GIC Successfully Configuration\r\n");
  100820:	e30f0f2c 	movw	r0, #65324	; 0xff2c
  100824:	e3400011 	movt	r0, #17
  100828:	eb000ee0 	bl	1043b0 <xil_printf>
    /**** DPR with random partial ***///
    Do_DPR2(3, par_bitstream_1b, par_bitstream_2b, par_bitstream_3b);
  10082c:	e51b3018 	ldr	r3, [fp, #-24]	; 0xffffffe8
  100830:	e51b2014 	ldr	r2, [fp, #-20]	; 0xffffffec
  100834:	e51b1010 	ldr	r1, [fp, #-16]
  100838:	e3a00003 	mov	r0, #3
  10083c:	eb0003c7 	bl	101760 <Do_DPR2>

    /**** MAIN TESTING LOOP (3 partials, 4 function/ivector(200) for each) ***///
 for (dpr_index=1; dpr_index<4; dpr_index++){
  100840:	e3a03001 	mov	r3, #1
  100844:	e50b3008 	str	r3, [fp, #-8]
  100848:	ea000054 	b	1009a0 <main+0x3fc>
	 Do_DPR2(dpr_index, par_bitstream_1b, par_bitstream_2b, par_bitstream_3b);
  10084c:	e51b3018 	ldr	r3, [fp, #-24]	; 0xffffffe8
  100850:	e51b2014 	ldr	r2, [fp, #-20]	; 0xffffffec
  100854:	e51b1010 	ldr	r1, [fp, #-16]
  100858:	e51b0008 	ldr	r0, [fp, #-8]
  10085c:	eb0003bf 	bl	101760 <Do_DPR2>

	 for (funct_index=1; funct_index<5; funct_index++){
  100860:	e3a03001 	mov	r3, #1
  100864:	e50b300c 	str	r3, [fp, #-12]
  100868:	ea000046 	b	100988 <main+0x3e4>
		 read_inputs(input_vec,in_file[dpr_index*4 +funct_index-5] );
  10086c:	e51b3008 	ldr	r3, [fp, #-8]
  100870:	e1a02103 	lsl	r2, r3, #2
  100874:	e51b300c 	ldr	r3, [fp, #-12]
  100878:	e0823003 	add	r3, r2, r3
  10087c:	e2433005 	sub	r3, r3, #5
  100880:	e1a03103 	lsl	r3, r3, #2
  100884:	e24b2004 	sub	r2, fp, #4
  100888:	e0823003 	add	r3, r2, r3
  10088c:	e5133054 	ldr	r3, [r3, #-84]	; 0xffffffac
  100890:	e1a01003 	mov	r1, r3
  100894:	e51b001c 	ldr	r0, [fp, #-28]	; 0xffffffe4
  100898:	eb000168 	bl	100e40 <read_inputs>
		 if (funct_index==1){
  10089c:	e51b300c 	ldr	r3, [fp, #-12]
  1008a0:	e3530001 	cmp	r3, #1
  1008a4:	1a00000a 	bne	1008d4 <main+0x330>
		     cordic_highlevel(1, input_vec , output_vec, 200, SCALING_P0_25, DFX_1_P0_25  );
  1008a8:	e3a03402 	mov	r3, #33554432	; 0x2000000
  1008ac:	e58d3004 	str	r3, [sp, #4]
  1008b0:	e30734ed 	movw	r3, #29933	; 0x74ed
  1008b4:	e340309b 	movt	r3, #155	; 0x9b
  1008b8:	e58d3000 	str	r3, [sp]
  1008bc:	e3a030c8 	mov	r3, #200	; 0xc8
  1008c0:	e51b2020 	ldr	r2, [fp, #-32]	; 0xffffffe0
  1008c4:	e51b101c 	ldr	r1, [fp, #-28]	; 0xffffffe4
  1008c8:	e3a00001 	mov	r0, #1
  1008cc:	eb000048 	bl	1009f4 <cordic_highlevel>
  1008d0:	ea00001d 	b	10094c <main+0x3a8>
		 } else if (funct_index==2) {
  1008d4:	e51b300c 	ldr	r3, [fp, #-12]
  1008d8:	e3530002 	cmp	r3, #2
  1008dc:	1a00000a 	bne	10090c <main+0x368>
		 	cordic_highlevel(1, input_vec , output_vec, 200, SCALING_P0_18, DFX_1_P0_18  );
  1008e0:	e3a03701 	mov	r3, #262144	; 0x40000
  1008e4:	e58d3004 	str	r3, [sp, #4]
  1008e8:	e30336e9 	movw	r3, #14057	; 0x36e9
  1008ec:	e3403001 	movt	r3, #1
  1008f0:	e58d3000 	str	r3, [sp]
  1008f4:	e3a030c8 	mov	r3, #200	; 0xc8
  1008f8:	e51b2020 	ldr	r2, [fp, #-32]	; 0xffffffe0
  1008fc:	e51b101c 	ldr	r1, [fp, #-28]	; 0xffffffe4
  100900:	e3a00001 	mov	r0, #1
  100904:	eb00003a 	bl	1009f4 <cordic_highlevel>
  100908:	ea00000f 	b	10094c <main+0x3a8>
		 } else if (funct_index==3){
  10090c:	e51b300c 	ldr	r3, [fp, #-12]
  100910:	e3530003 	cmp	r3, #3
  100914:	1a000009 	bne	100940 <main+0x39c>
		 	cordic_highlevel(1, input_vec , output_vec, 200, SCALING_P0_12, DFX_1_P0_12  );
  100918:	e3a03a01 	mov	r3, #4096	; 0x1000
  10091c:	e58d3004 	str	r3, [sp, #4]
  100920:	e30034db 	movw	r3, #1243	; 0x4db
  100924:	e58d3000 	str	r3, [sp]
  100928:	e3a030c8 	mov	r3, #200	; 0xc8
  10092c:	e51b2020 	ldr	r2, [fp, #-32]	; 0xffffffe0
  100930:	e51b101c 	ldr	r1, [fp, #-28]	; 0xffffffe4
  100934:	e3a00001 	mov	r0, #1
  100938:	eb00002d 	bl	1009f4 <cordic_highlevel>
  10093c:	ea000002 	b	10094c <main+0x3a8>
		 } else {
			xil_printf("Error not a valid configuration \r\n");
  100940:	e30f0f50 	movw	r0, #65360	; 0xff50
  100944:	e3400011 	movt	r0, #17
  100948:	eb000e98 	bl	1043b0 <xil_printf>
		 }
		 Write_outfile(output_vec,out_file[dpr_index*4 +funct_index-5]);
  10094c:	e51b3008 	ldr	r3, [fp, #-8]
  100950:	e1a02103 	lsl	r2, r3, #2
  100954:	e51b300c 	ldr	r3, [fp, #-12]
  100958:	e0823003 	add	r3, r2, r3
  10095c:	e2433005 	sub	r3, r3, #5
  100960:	e1a03103 	lsl	r3, r3, #2
  100964:	e24b2004 	sub	r2, fp, #4
  100968:	e0823003 	add	r3, r2, r3
  10096c:	e5133084 	ldr	r3, [r3, #-132]	; 0xffffff7c
  100970:	e1a01003 	mov	r1, r3
  100974:	e51b0020 	ldr	r0, [fp, #-32]	; 0xffffffe0
  100978:	eb0000f4 	bl	100d50 <Write_outfile>

    /**** MAIN TESTING LOOP (3 partials, 4 function/ivector(200) for each) ***///
 for (dpr_index=1; dpr_index<4; dpr_index++){
	 Do_DPR2(dpr_index, par_bitstream_1b, par_bitstream_2b, par_bitstream_3b);

	 for (funct_index=1; funct_index<5; funct_index++){
  10097c:	e51b300c 	ldr	r3, [fp, #-12]
  100980:	e2833001 	add	r3, r3, #1
  100984:	e50b300c 	str	r3, [fp, #-12]
  100988:	e51b300c 	ldr	r3, [fp, #-12]
  10098c:	e3530004 	cmp	r3, #4
  100990:	daffffb5 	ble	10086c <main+0x2c8>
    xil_printf("GIC Successfully Configuration\r\n");
    /**** DPR with random partial ***///
    Do_DPR2(3, par_bitstream_1b, par_bitstream_2b, par_bitstream_3b);

    /**** MAIN TESTING LOOP (3 partials, 4 function/ivector(200) for each) ***///
 for (dpr_index=1; dpr_index<4; dpr_index++){
  100994:	e51b3008 	ldr	r3, [fp, #-8]
  100998:	e2833001 	add	r3, r3, #1
  10099c:	e50b3008 	str	r3, [fp, #-8]
  1009a0:	e51b3008 	ldr	r3, [fp, #-8]
  1009a4:	e3530003 	cmp	r3, #3
  1009a8:	daffffa7 	ble	10084c <main+0x2a8>
		 Write_outfile(output_vec,out_file[dpr_index*4 +funct_index-5]);
	 }
 }


    free(par_bitstream_1b);
  1009ac:	e51b0010 	ldr	r0, [fp, #-16]
  1009b0:	eb0010de 	bl	104d30 <free>
    free(par_bitstream_2b);
  1009b4:	e51b0014 	ldr	r0, [fp, #-20]	; 0xffffffec
  1009b8:	eb0010dc 	bl	104d30 <free>
    free(par_bitstream_3b);
  1009bc:	e51b0018 	ldr	r0, [fp, #-24]	; 0xffffffe8
  1009c0:	eb0010da 	bl	104d30 <free>
    free(input_vec);
  1009c4:	e51b001c 	ldr	r0, [fp, #-28]	; 0xffffffe4
  1009c8:	eb0010d8 	bl	104d30 <free>
    free(output_vec);
  1009cc:	e51b0020 	ldr	r0, [fp, #-32]	; 0xffffffe0
  1009d0:	eb0010d6 	bl	104d30 <free>
    xil_printf("goodbye \r\n");
  1009d4:	e30f0f74 	movw	r0, #65396	; 0xff74
  1009d8:	e3400011 	movt	r0, #17
  1009dc:	eb000e73 	bl	1043b0 <xil_printf>
    cleanup_platform();
  1009e0:	eb000182 	bl	100ff0 <cleanup_platform>
    return 0;
  1009e4:	e3a03000 	mov	r3, #0
}
  1009e8:	e1a00003 	mov	r0, r3
  1009ec:	e24bd004 	sub	sp, fp, #4
  1009f0:	e8bd8800 	pop	{fp, pc}

001009f4 <cordic_highlevel>:
 *  2. Cos
 *  3. Atan
 *  4. Module
 */

void cordic_highlevel(int function, u32 *ibuffer,u32 *obuffer, int n_words, u32 scaling_factor, u32 dfx_one  ){
  1009f4:	e92d4800 	push	{fp, lr}
  1009f8:	e28db004 	add	fp, sp, #4
  1009fc:	e24dd018 	sub	sp, sp, #24
  100a00:	e50b0010 	str	r0, [fp, #-16]
  100a04:	e50b1014 	str	r1, [fp, #-20]	; 0xffffffec
  100a08:	e50b2018 	str	r2, [fp, #-24]	; 0xffffffe8
  100a0c:	e50b301c 	str	r3, [fp, #-28]	; 0xffffffe4
	int lk;

    for (lk=0; lk<n_words; lk++){
  100a10:	e3a03000 	mov	r3, #0
  100a14:	e50b3008 	str	r3, [fp, #-8]
  100a18:	ea0000c6 	b	100d38 <cordic_highlevel+0x344>

	    	Interrupt_flag=0;
  100a1c:	e30c3040 	movw	r3, #49216	; 0xc040
  100a20:	e3403012 	movt	r3, #18
  100a24:	e3a02000 	mov	r2, #0
  100a28:	e5832000 	str	r2, [r3]


	    	data2= MY_CORDIC_mReadReg( XPAR_MY_CORDIC_0_S00_AXI_BASEADDR, MY_CORDIC_S00_AXI_SLV_REG1_OFFSET );
  100a2c:	e3a00004 	mov	r0, #4
  100a30:	e34403c0 	movt	r0, #17344	; 0x43c0
  100a34:	eb000dbb 	bl	104128 <Xil_In32>
  100a38:	e1a02000 	mov	r2, r0
  100a3c:	e30c3864 	movw	r3, #51300	; 0xc864
  100a40:	e3403012 	movt	r3, #18
  100a44:	e5832000 	str	r2, [r3]
	    	while( ((data2&0x2)==0x2) ){ //check if cordic is busy
  100a48:	ea000009 	b	100a74 <cordic_highlevel+0x80>
	        	data2= MY_CORDIC_mReadReg( XPAR_MY_CORDIC_0_S00_AXI_BASEADDR, MY_CORDIC_S00_AXI_SLV_REG1_OFFSET );
  100a4c:	e3a00004 	mov	r0, #4
  100a50:	e34403c0 	movt	r0, #17344	; 0x43c0
  100a54:	eb000db3 	bl	104128 <Xil_In32>
  100a58:	e1a02000 	mov	r2, r0
  100a5c:	e30c3864 	movw	r3, #51300	; 0xc864
  100a60:	e3403012 	movt	r3, #18
  100a64:	e5832000 	str	r2, [r3]
	        	printf("inside\r\n");
  100a68:	e3000100 	movw	r0, #256	; 0x100
  100a6c:	e3400012 	movt	r0, #18
  100a70:	eb001454 	bl	105bc8 <puts>

	    	Interrupt_flag=0;


	    	data2= MY_CORDIC_mReadReg( XPAR_MY_CORDIC_0_S00_AXI_BASEADDR, MY_CORDIC_S00_AXI_SLV_REG1_OFFSET );
	    	while( ((data2&0x2)==0x2) ){ //check if cordic is busy
  100a74:	e30c3864 	movw	r3, #51300	; 0xc864
  100a78:	e3403012 	movt	r3, #18
  100a7c:	e5933000 	ldr	r3, [r3]
  100a80:	e2033002 	and	r3, r3, #2
  100a84:	e3530000 	cmp	r3, #0
  100a88:	1affffef 	bne	100a4c <cordic_highlevel+0x58>
	        	data2= MY_CORDIC_mReadReg( XPAR_MY_CORDIC_0_S00_AXI_BASEADDR, MY_CORDIC_S00_AXI_SLV_REG1_OFFSET );
	        	printf("inside\r\n");
	    	}
	    	if (function==1){// Sine
  100a8c:	e51b3010 	ldr	r3, [fp, #-16]
  100a90:	e3530001 	cmp	r3, #1
  100a94:	1a000014 	bne	100aec <cordic_highlevel+0xf8>
		    	MY_CORDIC_mWriteReg(XPAR_MY_CORDIC_0_S00_AXI_BASEADDR, MY_CORDIC_S00_AXI_SLV_REG2_OFFSET,scaling_factor   );
  100a98:	e59b1004 	ldr	r1, [fp, #4]
  100a9c:	e3a00008 	mov	r0, #8
  100aa0:	e34403c0 	movt	r0, #17344	; 0x43c0
  100aa4:	eb000da5 	bl	104140 <Xil_Out32>
		    	MY_CORDIC_mWriteReg(XPAR_MY_CORDIC_0_S00_AXI_BASEADDR, MY_CORDIC_S00_AXI_SLV_REG3_OFFSET,0x00000000   );
  100aa8:	e3a01000 	mov	r1, #0
  100aac:	e3a0000c 	mov	r0, #12
  100ab0:	e34403c0 	movt	r0, #17344	; 0x43c0
  100ab4:	eb000da1 	bl	104140 <Xil_Out32>
		    	MY_CORDIC_mWriteReg(XPAR_MY_CORDIC_0_S00_AXI_BASEADDR, MY_CORDIC_S00_AXI_SLV_REG4_OFFSET, *ibuffer++   );
  100ab8:	e51b3014 	ldr	r3, [fp, #-20]	; 0xffffffec
  100abc:	e2832004 	add	r2, r3, #4
  100ac0:	e50b2014 	str	r2, [fp, #-20]	; 0xffffffec
  100ac4:	e5933000 	ldr	r3, [r3]
  100ac8:	e1a01003 	mov	r1, r3
  100acc:	e3a00010 	mov	r0, #16
  100ad0:	e34403c0 	movt	r0, #17344	; 0x43c0
  100ad4:	eb000d99 	bl	104140 <Xil_Out32>
		    	MY_CORDIC_mWriteReg(XPAR_MY_CORDIC_0_S00_AXI_BASEADDR, MY_CORDIC_S00_AXI_SLV_REG0_OFFSET,0x00000001   );
  100ad8:	e3a01001 	mov	r1, #1
  100adc:	e3a00000 	mov	r0, #0
  100ae0:	e34403c0 	movt	r0, #17344	; 0x43c0
  100ae4:	eb000d95 	bl	104140 <Xil_Out32>
  100ae8:	ea000045 	b	100c04 <cordic_highlevel+0x210>

	    	} else if (function==2){ //Cos
  100aec:	e51b3010 	ldr	r3, [fp, #-16]
  100af0:	e3530002 	cmp	r3, #2
  100af4:	1a000014 	bne	100b4c <cordic_highlevel+0x158>
		    	MY_CORDIC_mWriteReg(XPAR_MY_CORDIC_0_S00_AXI_BASEADDR, MY_CORDIC_S00_AXI_SLV_REG2_OFFSET,0x00000000);
  100af8:	e3a01000 	mov	r1, #0
  100afc:	e3a00008 	mov	r0, #8
  100b00:	e34403c0 	movt	r0, #17344	; 0x43c0
  100b04:	eb000d8d 	bl	104140 <Xil_Out32>
		    	MY_CORDIC_mWriteReg(XPAR_MY_CORDIC_0_S00_AXI_BASEADDR, MY_CORDIC_S00_AXI_SLV_REG3_OFFSET,scaling_factor);
  100b08:	e59b1004 	ldr	r1, [fp, #4]
  100b0c:	e3a0000c 	mov	r0, #12
  100b10:	e34403c0 	movt	r0, #17344	; 0x43c0
  100b14:	eb000d89 	bl	104140 <Xil_Out32>
		    	MY_CORDIC_mWriteReg(XPAR_MY_CORDIC_0_S00_AXI_BASEADDR, MY_CORDIC_S00_AXI_SLV_REG4_OFFSET, *ibuffer++   );
  100b18:	e51b3014 	ldr	r3, [fp, #-20]	; 0xffffffec
  100b1c:	e2832004 	add	r2, r3, #4
  100b20:	e50b2014 	str	r2, [fp, #-20]	; 0xffffffec
  100b24:	e5933000 	ldr	r3, [r3]
  100b28:	e1a01003 	mov	r1, r3
  100b2c:	e3a00010 	mov	r0, #16
  100b30:	e34403c0 	movt	r0, #17344	; 0x43c0
  100b34:	eb000d81 	bl	104140 <Xil_Out32>
		    	MY_CORDIC_mWriteReg(XPAR_MY_CORDIC_0_S00_AXI_BASEADDR, MY_CORDIC_S00_AXI_SLV_REG0_OFFSET,0x00000001   );
  100b38:	e3a01001 	mov	r1, #1
  100b3c:	e3a00000 	mov	r0, #0
  100b40:	e34403c0 	movt	r0, #17344	; 0x43c0
  100b44:	eb000d7d 	bl	104140 <Xil_Out32>
  100b48:	ea00002d 	b	100c04 <cordic_highlevel+0x210>

	    	} else if (function==3){ //Atan
  100b4c:	e51b3010 	ldr	r3, [fp, #-16]
  100b50:	e3530003 	cmp	r3, #3
  100b54:	1a000014 	bne	100bac <cordic_highlevel+0x1b8>
	    		MY_CORDIC_mWriteReg(XPAR_MY_CORDIC_0_S00_AXI_BASEADDR, MY_CORDIC_S00_AXI_SLV_REG2_OFFSET,*ibuffer++);
  100b58:	e51b3014 	ldr	r3, [fp, #-20]	; 0xffffffec
  100b5c:	e2832004 	add	r2, r3, #4
  100b60:	e50b2014 	str	r2, [fp, #-20]	; 0xffffffec
  100b64:	e5933000 	ldr	r3, [r3]
  100b68:	e1a01003 	mov	r1, r3
  100b6c:	e3a00008 	mov	r0, #8
  100b70:	e34403c0 	movt	r0, #17344	; 0x43c0
  100b74:	eb000d71 	bl	104140 <Xil_Out32>
	    		MY_CORDIC_mWriteReg(XPAR_MY_CORDIC_0_S00_AXI_BASEADDR, MY_CORDIC_S00_AXI_SLV_REG3_OFFSET,dfx_one);
  100b78:	e59b1008 	ldr	r1, [fp, #8]
  100b7c:	e3a0000c 	mov	r0, #12
  100b80:	e34403c0 	movt	r0, #17344	; 0x43c0
  100b84:	eb000d6d 	bl	104140 <Xil_Out32>
	    		MY_CORDIC_mWriteReg(XPAR_MY_CORDIC_0_S00_AXI_BASEADDR, MY_CORDIC_S00_AXI_SLV_REG4_OFFSET, 0x00000000  );
  100b88:	e3a01000 	mov	r1, #0
  100b8c:	e3a00010 	mov	r0, #16
  100b90:	e34403c0 	movt	r0, #17344	; 0x43c0
  100b94:	eb000d69 	bl	104140 <Xil_Out32>
	    		MY_CORDIC_mWriteReg(XPAR_MY_CORDIC_0_S00_AXI_BASEADDR, MY_CORDIC_S00_AXI_SLV_REG0_OFFSET,0x00000003   );
  100b98:	e3a01003 	mov	r1, #3
  100b9c:	e3a00000 	mov	r0, #0
  100ba0:	e34403c0 	movt	r0, #17344	; 0x43c0
  100ba4:	eb000d65 	bl	104140 <Xil_Out32>
  100ba8:	ea000015 	b	100c04 <cordic_highlevel+0x210>
	    	} else { //Module
	    		MY_CORDIC_mWriteReg(XPAR_MY_CORDIC_0_S00_AXI_BASEADDR, MY_CORDIC_S00_AXI_SLV_REG2_OFFSET,*ibuffer);
  100bac:	e51b3014 	ldr	r3, [fp, #-20]	; 0xffffffec
  100bb0:	e5933000 	ldr	r3, [r3]
  100bb4:	e1a01003 	mov	r1, r3
  100bb8:	e3a00008 	mov	r0, #8
  100bbc:	e34403c0 	movt	r0, #17344	; 0x43c0
  100bc0:	eb000d5e 	bl	104140 <Xil_Out32>
	    		MY_CORDIC_mWriteReg(XPAR_MY_CORDIC_0_S00_AXI_BASEADDR, MY_CORDIC_S00_AXI_SLV_REG3_OFFSET,*ibuffer++);
  100bc4:	e51b3014 	ldr	r3, [fp, #-20]	; 0xffffffec
  100bc8:	e2832004 	add	r2, r3, #4
  100bcc:	e50b2014 	str	r2, [fp, #-20]	; 0xffffffec
  100bd0:	e5933000 	ldr	r3, [r3]
  100bd4:	e1a01003 	mov	r1, r3
  100bd8:	e3a0000c 	mov	r0, #12
  100bdc:	e34403c0 	movt	r0, #17344	; 0x43c0
  100be0:	eb000d56 	bl	104140 <Xil_Out32>
	    		MY_CORDIC_mWriteReg(XPAR_MY_CORDIC_0_S00_AXI_BASEADDR, MY_CORDIC_S00_AXI_SLV_REG4_OFFSET, 0x00000000  );
  100be4:	e3a01000 	mov	r1, #0
  100be8:	e3a00010 	mov	r0, #16
  100bec:	e34403c0 	movt	r0, #17344	; 0x43c0
  100bf0:	eb000d52 	bl	104140 <Xil_Out32>
	    		MY_CORDIC_mWriteReg(XPAR_MY_CORDIC_0_S00_AXI_BASEADDR, MY_CORDIC_S00_AXI_SLV_REG0_OFFSET,0x00000003   );
  100bf4:	e3a01003 	mov	r1, #3
  100bf8:	e3a00000 	mov	r0, #0
  100bfc:	e34403c0 	movt	r0, #17344	; 0x43c0
  100c00:	eb000d4e 	bl	104140 <Xil_Out32>


	    	}
	    	while(Interrupt_flag==0); //while for cordic's interruption
  100c04:	e1a00000 	nop			; (mov r0, r0)
  100c08:	e30c3040 	movw	r3, #49216	; 0xc040
  100c0c:	e3403012 	movt	r3, #18
  100c10:	e5933000 	ldr	r3, [r3]
  100c14:	e3530000 	cmp	r3, #0
  100c18:	0afffffa 	beq	100c08 <cordic_highlevel+0x214>
	    	if (function==1){// Sine
  100c1c:	e51b3010 	ldr	r3, [fp, #-16]
  100c20:	e3530001 	cmp	r3, #1
  100c24:	1a00000e 	bne	100c64 <cordic_highlevel+0x270>
	    		*obuffer=(unsigned int)yout_data;
  100c28:	e30c3ad8 	movw	r3, #51928	; 0xcad8
  100c2c:	e3403012 	movt	r3, #18
  100c30:	e5932000 	ldr	r2, [r3]
  100c34:	e51b3018 	ldr	r3, [fp, #-24]	; 0xffffffe8
  100c38:	e5832000 	str	r2, [r3]
	    		printf("Word output_vec %d: 0x%08x\n",lk, (unsigned int)*obuffer++ );
  100c3c:	e51b3018 	ldr	r3, [fp, #-24]	; 0xffffffe8
  100c40:	e2832004 	add	r2, r3, #4
  100c44:	e50b2018 	str	r2, [fp, #-24]	; 0xffffffe8
  100c48:	e5933000 	ldr	r3, [r3]
  100c4c:	e1a02003 	mov	r2, r3
  100c50:	e51b1008 	ldr	r1, [fp, #-8]
  100c54:	e3000108 	movw	r0, #264	; 0x108
  100c58:	e3400012 	movt	r0, #18
  100c5c:	eb0013a6 	bl	105afc <printf>
  100c60:	ea000031 	b	100d2c <cordic_highlevel+0x338>

	    	} else if (function==2){ //Cos
  100c64:	e51b3010 	ldr	r3, [fp, #-16]
  100c68:	e3530002 	cmp	r3, #2
  100c6c:	1a00000e 	bne	100cac <cordic_highlevel+0x2b8>
	    		*obuffer=(unsigned int)yout_data;
  100c70:	e30c3ad8 	movw	r3, #51928	; 0xcad8
  100c74:	e3403012 	movt	r3, #18
  100c78:	e5932000 	ldr	r2, [r3]
  100c7c:	e51b3018 	ldr	r3, [fp, #-24]	; 0xffffffe8
  100c80:	e5832000 	str	r2, [r3]
	    		printf("Word output_vec %d: 0x%08x\n",lk, (unsigned int)*obuffer++ );
  100c84:	e51b3018 	ldr	r3, [fp, #-24]	; 0xffffffe8
  100c88:	e2832004 	add	r2, r3, #4
  100c8c:	e50b2018 	str	r2, [fp, #-24]	; 0xffffffe8
  100c90:	e5933000 	ldr	r3, [r3]
  100c94:	e1a02003 	mov	r2, r3
  100c98:	e51b1008 	ldr	r1, [fp, #-8]
  100c9c:	e3000108 	movw	r0, #264	; 0x108
  100ca0:	e3400012 	movt	r0, #18
  100ca4:	eb001394 	bl	105afc <printf>
  100ca8:	ea00001f 	b	100d2c <cordic_highlevel+0x338>

	    	} else if (function==3){ //Atan
  100cac:	e51b3010 	ldr	r3, [fp, #-16]
  100cb0:	e3530003 	cmp	r3, #3
  100cb4:	1a00000e 	bne	100cf4 <cordic_highlevel+0x300>
	    		*obuffer=(unsigned int)zout_data;
  100cb8:	e30c3860 	movw	r3, #51296	; 0xc860
  100cbc:	e3403012 	movt	r3, #18
  100cc0:	e5932000 	ldr	r2, [r3]
  100cc4:	e51b3018 	ldr	r3, [fp, #-24]	; 0xffffffe8
  100cc8:	e5832000 	str	r2, [r3]
	    		printf("Word output_vec %d: 0x%08x\n",lk, (unsigned int)*obuffer++ );
  100ccc:	e51b3018 	ldr	r3, [fp, #-24]	; 0xffffffe8
  100cd0:	e2832004 	add	r2, r3, #4
  100cd4:	e50b2018 	str	r2, [fp, #-24]	; 0xffffffe8
  100cd8:	e5933000 	ldr	r3, [r3]
  100cdc:	e1a02003 	mov	r2, r3
  100ce0:	e51b1008 	ldr	r1, [fp, #-8]
  100ce4:	e3000108 	movw	r0, #264	; 0x108
  100ce8:	e3400012 	movt	r0, #18
  100cec:	eb001382 	bl	105afc <printf>
  100cf0:	ea00000d 	b	100d2c <cordic_highlevel+0x338>

	    	} else { //Module
	    		*obuffer=(unsigned int)xout_data;
  100cf4:	e30c3ae8 	movw	r3, #51944	; 0xcae8
  100cf8:	e3403012 	movt	r3, #18
  100cfc:	e5932000 	ldr	r2, [r3]
  100d00:	e51b3018 	ldr	r3, [fp, #-24]	; 0xffffffe8
  100d04:	e5832000 	str	r2, [r3]
	    		printf("Word output_vec %d: 0x%08x\n",lk, (unsigned int)*obuffer++ );
  100d08:	e51b3018 	ldr	r3, [fp, #-24]	; 0xffffffe8
  100d0c:	e2832004 	add	r2, r3, #4
  100d10:	e50b2018 	str	r2, [fp, #-24]	; 0xffffffe8
  100d14:	e5933000 	ldr	r3, [r3]
  100d18:	e1a02003 	mov	r2, r3
  100d1c:	e51b1008 	ldr	r1, [fp, #-8]
  100d20:	e3000108 	movw	r0, #264	; 0x108
  100d24:	e3400012 	movt	r0, #18
  100d28:	eb001373 	bl	105afc <printf>
 */

void cordic_highlevel(int function, u32 *ibuffer,u32 *obuffer, int n_words, u32 scaling_factor, u32 dfx_one  ){
	int lk;

    for (lk=0; lk<n_words; lk++){
  100d2c:	e51b3008 	ldr	r3, [fp, #-8]
  100d30:	e2833001 	add	r3, r3, #1
  100d34:	e50b3008 	str	r3, [fp, #-8]
  100d38:	e51b2008 	ldr	r2, [fp, #-8]
  100d3c:	e51b301c 	ldr	r3, [fp, #-28]	; 0xffffffe4
  100d40:	e1520003 	cmp	r2, r3
  100d44:	baffff34 	blt	100a1c <cordic_highlevel+0x28>
	    		printf("Word output_vec %d: 0x%08x\n",lk, (unsigned int)*obuffer++ );

	    	}
    }

}
  100d48:	e24bd004 	sub	sp, fp, #4
  100d4c:	e8bd8800 	pop	{fp, pc}

00100d50 <Write_outfile>:



void Write_outfile(u32 *out_buff, char *filename){
  100d50:	e92d4810 	push	{r4, fp, lr}
  100d54:	e28db008 	add	fp, sp, #8
  100d58:	e24dd014 	sub	sp, sp, #20
  100d5c:	e50b0018 	str	r0, [fp, #-24]	; 0xffffffe8
  100d60:	e50b101c 	str	r1, [fp, #-28]	; 0xffffffe4
  100d64:	e24dde26 	sub	sp, sp, #608	; 0x260
  100d68:	e1a0300d 	mov	r3, sp
  100d6c:	e283301f 	add	r3, r3, #31
  100d70:	e1a032a3 	lsr	r3, r3, #5
  100d74:	e1a04283 	lsl	r4, r3, #5
	FIL fil;
	FRESULT myres;
	UINT NumBytesWritten;

		   myres = f_open(&fil, filename , FA_CREATE_ALWAYS | FA_WRITE | FA_READ);
  100d78:	e3a0200b 	mov	r2, #11
  100d7c:	e51b101c 	ldr	r1, [fp, #-28]	; 0xffffffe4
  100d80:	e1a00004 	mov	r0, r4
  100d84:	eb006bad 	bl	11bc40 <f_open>
  100d88:	e1a03000 	mov	r3, r0
  100d8c:	e54b300d 	strb	r3, [fp, #-13]
		   	   if(myres== FR_OK){
  100d90:	e55b300d 	ldrb	r3, [fp, #-13]
  100d94:	e3530000 	cmp	r3, #0
  100d98:	1a000019 	bne	100e04 <Write_outfile+0xb4>
		   		   xil_printf("file created\n\r");
  100d9c:	e3000124 	movw	r0, #292	; 0x124
  100da0:	e3400012 	movt	r0, #18
  100da4:	eb000d81 	bl	1043b0 <xil_printf>
		   		   myres = f_lseek(&fil, 0);
  100da8:	e3a01000 	mov	r1, #0
  100dac:	e1a00004 	mov	r0, r4
  100db0:	eb006df0 	bl	11c578 <f_lseek>
  100db4:	e1a03000 	mov	r3, r0
  100db8:	e54b300d 	strb	r3, [fp, #-13]
		   		   myres = f_write(&fil, (const void*)out_buff,( sizeof(*out_buff)*200),&NumBytesWritten);
  100dbc:	e24b3014 	sub	r3, fp, #20
  100dc0:	e3a02e32 	mov	r2, #800	; 0x320
  100dc4:	e51b1018 	ldr	r1, [fp, #-24]	; 0xffffffe8
  100dc8:	e1a00004 	mov	r0, r4
  100dcc:	eb006ce3 	bl	11c160 <f_write>
  100dd0:	e1a03000 	mov	r3, r0
  100dd4:	e54b300d 	strb	r3, [fp, #-13]
		   			 	 if (myres== FR_OK) {
  100dd8:	e55b300d 	ldrb	r3, [fp, #-13]
  100ddc:	e3530000 	cmp	r3, #0
  100de0:	1a000003 	bne	100df4 <Write_outfile+0xa4>
		   			 		 xil_printf("data written\n\r");
  100de4:	e3000134 	movw	r0, #308	; 0x134
  100de8:	e3400012 	movt	r0, #18
  100dec:	eb000d6f 	bl	1043b0 <xil_printf>
  100df0:	ea000006 	b	100e10 <Write_outfile+0xc0>
		   			 	 }else {
		   			 		 xil_printf("failed to write data\n\r");
  100df4:	e3000144 	movw	r0, #324	; 0x144
  100df8:	e3400012 	movt	r0, #18
  100dfc:	eb000d6b 	bl	1043b0 <xil_printf>
  100e00:	ea000002 	b	100e10 <Write_outfile+0xc0>
		   			 	 }

		   	   } else {
		   		   xil_printf("failed to create file\n\r");
  100e04:	e300015c 	movw	r0, #348	; 0x15c
  100e08:	e3400012 	movt	r0, #18
  100e0c:	eb000d67 	bl	1043b0 <xil_printf>
		   	   }
		    myres = f_close(&fil);
  100e10:	e1a00004 	mov	r0, r4
  100e14:	eb006dcd 	bl	11c550 <f_close>
  100e18:	e1a03000 	mov	r3, r0
  100e1c:	e54b300d 	strb	r3, [fp, #-13]
		   	if (myres == FR_OK){
  100e20:	e55b300d 	ldrb	r3, [fp, #-13]
  100e24:	e3530000 	cmp	r3, #0
  100e28:	1a000002 	bne	100e38 <Write_outfile+0xe8>
		   		xil_printf("file closed\n\r");
  100e2c:	e3000174 	movw	r0, #372	; 0x174
  100e30:	e3400012 	movt	r0, #18
  100e34:	eb000d5d 	bl	1043b0 <xil_printf>
		   	 }
}
  100e38:	e24bd008 	sub	sp, fp, #8
  100e3c:	e8bd8810 	pop	{r4, fp, pc}

00100e40 <read_inputs>:



void read_inputs(u32 *buff, char *filename) {
  100e40:	e92d4810 	push	{r4, fp, lr}
  100e44:	e28db008 	add	fp, sp, #8
  100e48:	e24dd024 	sub	sp, sp, #36	; 0x24
  100e4c:	e50b0028 	str	r0, [fp, #-40]	; 0xffffffd8
  100e50:	e50b102c 	str	r1, [fp, #-44]	; 0xffffffd4
  100e54:	e24dde26 	sub	sp, sp, #608	; 0x260
  100e58:	e1a0300d 	mov	r3, sp
  100e5c:	e283301f 	add	r3, r3, #31
  100e60:	e1a032a3 	lsr	r3, r3, #5
  100e64:	e1a04283 	lsl	r4, r3, #5
	unsigned int jl=0;
  100e68:	e3a03000 	mov	r3, #0
  100e6c:	e50b3010 	str	r3, [fp, #-16]
	FIL fil;
	char line[4];
	FRESULT myres;
	char temp1;
	u32 filesize=0;
  100e70:	e3a03000 	mov	r3, #0
  100e74:	e50b3014 	str	r3, [fp, #-20]	; 0xffffffec
	 FATFS *fs;
	 UINT br;
		 myres = f_open(&fil, filename, FA_READ);
  100e78:	e3a02001 	mov	r2, #1
  100e7c:	e51b102c 	ldr	r1, [fp, #-44]	; 0xffffffd4
  100e80:	e1a00004 	mov	r0, r4
  100e84:	eb006b6d 	bl	11bc40 <f_open>
  100e88:	e1a03000 	mov	r3, r0
  100e8c:	e54b3015 	strb	r3, [fp, #-21]	; 0xffffffeb
		 	 if (myres == FR_OK) {
  100e90:	e55b3015 	ldrb	r3, [fp, #-21]	; 0xffffffeb
  100e94:	e3530000 	cmp	r3, #0
  100e98:	1a00003a 	bne	100f88 <read_inputs+0x148>
		 		 printf("f_open \r\n");
  100e9c:	e3000184 	movw	r0, #388	; 0x184
  100ea0:	e3400012 	movt	r0, #18
  100ea4:	eb001347 	bl	105bc8 <puts>
		 		 filesize= file_size(&fil);
  100ea8:	e594300c 	ldr	r3, [r4, #12]
  100eac:	e50b3014 	str	r3, [fp, #-20]	; 0xffffffec
		 		 printf("File: input_sin_conf1.txt opened successfully \r\n" );
  100eb0:	e3000190 	movw	r0, #400	; 0x190
  100eb4:	e3400012 	movt	r0, #18
  100eb8:	eb001342 	bl	105bc8 <puts>

		 		 myres = f_lseek(&fil, 0 );
  100ebc:	e3a01000 	mov	r1, #0
  100ec0:	e1a00004 	mov	r0, r4
  100ec4:	eb006dab 	bl	11c578 <f_lseek>
  100ec8:	e1a03000 	mov	r3, r0
  100ecc:	e54b3015 	strb	r3, [fp, #-21]	; 0xffffffeb

		 		 for (jl=0;jl<200; jl++ ){
  100ed0:	e3a03000 	mov	r3, #0
  100ed4:	e50b3010 	str	r3, [fp, #-16]
  100ed8:	ea000027 	b	100f7c <read_inputs+0x13c>
		 			 myres =  f_read(&fil, (void *)line, 4, &br);
  100edc:	e24b3020 	sub	r3, fp, #32
  100ee0:	e24b101c 	sub	r1, fp, #28
  100ee4:	e3a02004 	mov	r2, #4
  100ee8:	e1a00004 	mov	r0, r4
  100eec:	eb006bfa 	bl	11bedc <f_read>
  100ef0:	e1a03000 	mov	r3, r0
  100ef4:	e54b3015 	strb	r3, [fp, #-21]	; 0xffffffeb
		 			temp1=line[0];
  100ef8:	e55b301c 	ldrb	r3, [fp, #-28]	; 0xffffffe4
  100efc:	e54b3016 	strb	r3, [fp, #-22]	; 0xffffffea
		 			line[0]=line[3];
  100f00:	e55b3019 	ldrb	r3, [fp, #-25]	; 0xffffffe7
  100f04:	e54b301c 	strb	r3, [fp, #-28]	; 0xffffffe4
		 			line[3]=temp1;
  100f08:	e55b3016 	ldrb	r3, [fp, #-22]	; 0xffffffea
  100f0c:	e54b3019 	strb	r3, [fp, #-25]	; 0xffffffe7
		 			temp1=line[1];
  100f10:	e55b301b 	ldrb	r3, [fp, #-27]	; 0xffffffe5
  100f14:	e54b3016 	strb	r3, [fp, #-22]	; 0xffffffea
		 			line[1]=line[2];
  100f18:	e55b301a 	ldrb	r3, [fp, #-26]	; 0xffffffe6
  100f1c:	e54b301b 	strb	r3, [fp, #-27]	; 0xffffffe5
		 			line[2]=temp1;
  100f20:	e55b3016 	ldrb	r3, [fp, #-22]	; 0xffffffea
  100f24:	e54b301a 	strb	r3, [fp, #-26]	; 0xffffffe6
		 			memcpy ( &buff[jl], &line[0], 4 );
  100f28:	e51b3010 	ldr	r3, [fp, #-16]
  100f2c:	e1a03103 	lsl	r3, r3, #2
  100f30:	e51b2028 	ldr	r2, [fp, #-40]	; 0xffffffd8
  100f34:	e0823003 	add	r3, r2, r3
  100f38:	e24b101c 	sub	r1, fp, #28
  100f3c:	e3a02004 	mov	r2, #4
  100f40:	e1a00003 	mov	r0, r3
  100f44:	eb00115d 	bl	1054c0 <memcpy>
		 			printf("Word %d: 0x%08x\n",jl, (unsigned int)buff[jl] );
  100f48:	e51b3010 	ldr	r3, [fp, #-16]
  100f4c:	e1a03103 	lsl	r3, r3, #2
  100f50:	e51b2028 	ldr	r2, [fp, #-40]	; 0xffffffd8
  100f54:	e0823003 	add	r3, r2, r3
  100f58:	e5933000 	ldr	r3, [r3]
  100f5c:	e1a02003 	mov	r2, r3
  100f60:	e51b1010 	ldr	r1, [fp, #-16]
  100f64:	e30001c0 	movw	r0, #448	; 0x1c0
  100f68:	e3400012 	movt	r0, #18
  100f6c:	eb0012e2 	bl	105afc <printf>
		 		 filesize= file_size(&fil);
		 		 printf("File: input_sin_conf1.txt opened successfully \r\n" );

		 		 myres = f_lseek(&fil, 0 );

		 		 for (jl=0;jl<200; jl++ ){
  100f70:	e51b3010 	ldr	r3, [fp, #-16]
  100f74:	e2833001 	add	r3, r3, #1
  100f78:	e50b3010 	str	r3, [fp, #-16]
  100f7c:	e51b3010 	ldr	r3, [fp, #-16]
  100f80:	e35300c7 	cmp	r3, #199	; 0xc7
  100f84:	9affffd4 	bls	100edc <read_inputs+0x9c>
		 			memcpy ( &buff[jl], &line[0], 4 );
		 			printf("Word %d: 0x%08x\n",jl, (unsigned int)buff[jl] );
		 		 }
		 	 }
	// }
	 myres = f_close(&fil);
  100f88:	e1a00004 	mov	r0, r4
  100f8c:	eb006d6f 	bl	11c550 <f_close>
  100f90:	e1a03000 	mov	r3, r0
  100f94:	e54b3015 	strb	r3, [fp, #-21]	; 0xffffffeb

}
  100f98:	e24bd008 	sub	sp, fp, #8
  100f9c:	e8bd8810 	pop	{r4, fp, pc}

00100fa0 <enable_caches>:
 #define UART_BAUD 9600
#endif

void
enable_caches()
{
  100fa0:	e52db004 	push	{fp}		; (str fp, [sp, #-4]!)
  100fa4:	e28db000 	add	fp, sp, #0
#endif
#ifdef XPAR_MICROBLAZE_USE_DCACHE
    Xil_DCacheEnable();
#endif
#endif
}
  100fa8:	e24bd000 	sub	sp, fp, #0
  100fac:	e49db004 	pop	{fp}		; (ldr fp, [sp], #4)
  100fb0:	e12fff1e 	bx	lr

00100fb4 <disable_caches>:

void
disable_caches()
{
  100fb4:	e92d4800 	push	{fp, lr}
  100fb8:	e28db004 	add	fp, sp, #4
    Xil_DCacheDisable();
  100fbc:	eb000b99 	bl	103e28 <Xil_DCacheDisable>
    Xil_ICacheDisable();
  100fc0:	eb000b9f 	bl	103e44 <Xil_ICacheDisable>
}
  100fc4:	e8bd8800 	pop	{fp, pc}

00100fc8 <init_uart>:

void
init_uart()
{
  100fc8:	e52db004 	push	{fp}		; (str fp, [sp, #-4]!)
  100fcc:	e28db000 	add	fp, sp, #0
#ifdef STDOUT_IS_16550
    XUartNs550_SetBaud(STDOUT_BASEADDR, XPAR_XUARTNS550_CLOCK_HZ, UART_BAUD);
    XUartNs550_SetLineControlReg(STDOUT_BASEADDR, XUN_LCR_8_DATA_BITS);
#endif
    /* Bootrom/BSP configures PS7/PSU UART to 115200 bps */
}
  100fd0:	e24bd000 	sub	sp, fp, #0
  100fd4:	e49db004 	pop	{fp}		; (ldr fp, [sp], #4)
  100fd8:	e12fff1e 	bx	lr

00100fdc <init_platform>:

void
init_platform()
{
  100fdc:	e92d4800 	push	{fp, lr}
  100fe0:	e28db004 	add	fp, sp, #4
     * Make sure that the ps7/psu_init.c and ps7/psu_init.h files are included
     * along with this example source files for compilation.
     */
    /* ps7_init();*/
    /* psu_init();*/
    enable_caches();
  100fe4:	ebffffed 	bl	100fa0 <enable_caches>
    init_uart();
  100fe8:	ebfffff6 	bl	100fc8 <init_uart>
}
  100fec:	e8bd8800 	pop	{fp, pc}

00100ff0 <cleanup_platform>:

void
cleanup_platform()
{
  100ff0:	e92d4800 	push	{fp, lr}
  100ff4:	e28db004 	add	fp, sp, #4
    disable_caches();
  100ff8:	ebffffed 	bl	100fb4 <disable_caches>
}
  100ffc:	e8bd8800 	pop	{fp, pc}

00101000 <SetUpInterruptSystem>:
 *      Author: llamocca
 */

#include "support.h"

int SetUpInterruptSystem(XScuGic *XScuGicInstancePtr){
  101000:	e92d4800 	push	{fp, lr}
  101004:	e28db004 	add	fp, sp, #4
  101008:	e24dd010 	sub	sp, sp, #16
  10100c:	e50b0010 	str	r0, [fp, #-16]

	Xil_ExceptionRegisterHandler(XIL_EXCEPTION_ID_INT,
  101010:	e51b2010 	ldr	r2, [fp, #-16]
  101014:	e3031410 	movw	r1, #13328	; 0x3410
  101018:	e3401010 	movt	r1, #16
  10101c:	e3a00005 	mov	r0, #5
  101020:	eb000c2d 	bl	1040dc <Xil_ExceptionRegisterHandler>
			(Xil_ExceptionHandler)XScuGic_InterruptHandler,
			XScuGicInstancePtr);


	Xil_ExceptionEnable();
  101024:	e10f3000 	mrs	r3, CPSR
  101028:	e50b3008 	str	r3, [fp, #-8]
  10102c:	e51b3008 	ldr	r3, [fp, #-8]
  101030:	e3c33080 	bic	r3, r3, #128	; 0x80
  101034:	e129f003 	msr	CPSR_fc, r3
	return XST_SUCCESS;
  101038:	e3a03000 	mov	r3, #0

}
  10103c:	e1a00003 	mov	r0, r3
  101040:	e24bd004 	sub	sp, fp, #4
  101044:	e8bd8800 	pop	{fp, pc}

00101048 <ReadBitstream>:
int ReadBitstream(char *file_name,  char *buffer, int verbose){
  101048:	e92d4810 	push	{r4, fp, lr}
  10104c:	e28db008 	add	fp, sp, #8
  101050:	e24dd044 	sub	sp, sp, #68	; 0x44
  101054:	e50b0040 	str	r0, [fp, #-64]	; 0xffffffc0
  101058:	e50b1044 	str	r1, [fp, #-68]	; 0xffffffbc
  10105c:	e50b2048 	str	r2, [fp, #-72]	; 0xffffffb8
  101060:	e24dde26 	sub	sp, sp, #608	; 0x260
  101064:	e1a0300d 	mov	r3, sp
  101068:	e283301f 	add	r3, r3, #31
  10106c:	e1a032a3 	lsr	r3, r3, #5
  101070:	e1a04283 	lsl	r4, r3, #5
	unsigned int jl=0;
  101074:	e3a03000 	mov	r3, #0
  101078:	e50b3010 	str	r3, [fp, #-16]
	FIL fil;
	char line[11];
	FRESULT myres;
	DWORD fre_clust, fre_sect, tot_sect;
	char vol_str[24];
	u32 filesize=0;
  10107c:	e3a03000 	mov	r3, #0
  101080:	e50b3014 	str	r3, [fp, #-20]	; 0xffffffec
	 UINT br;


	// myres= f_mount(&FatFs, "0:/", 1);
	 myres == FR_OK;
	 if (myres == FR_OK)  {
  101084:	e55b3015 	ldrb	r3, [fp, #-21]	; 0xffffffeb
  101088:	e3530000 	cmp	r3, #0
  10108c:	1a000038 	bne	101174 <ReadBitstream+0x12c>
		// fre_sect = fre_clust * fs->csize;

		// printf("%10lu KiB Total Drive Capacity.\n%10lu KiB Available.\n",
		// tot_sect / 2, fre_sect / 2);
		 }
		 myres = f_open(&fil, file_name, FA_READ);
  101090:	e3a02001 	mov	r2, #1
  101094:	e51b1040 	ldr	r1, [fp, #-64]	; 0xffffffc0
  101098:	e1a00004 	mov	r0, r4
  10109c:	eb006ae7 	bl	11bc40 <f_open>
  1010a0:	e1a03000 	mov	r3, r0
  1010a4:	e54b3015 	strb	r3, [fp, #-21]	; 0xffffffeb
		 	 if (myres == FR_OK) {
  1010a8:	e55b3015 	ldrb	r3, [fp, #-21]	; 0xffffffeb
  1010ac:	e3530000 	cmp	r3, #0
  1010b0:	1a00002b 	bne	101164 <ReadBitstream+0x11c>
		 		 filesize= file_size(&fil);
  1010b4:	e594300c 	ldr	r3, [r4, #12]
  1010b8:	e50b3014 	str	r3, [fp, #-20]	; 0xffffffec
		 		 printf("File: %s opened successfully \\r\n File Size: %d bytes \r\n", file_name,filesize );
  1010bc:	e51b2014 	ldr	r2, [fp, #-20]	; 0xffffffec
  1010c0:	e51b1040 	ldr	r1, [fp, #-64]	; 0xffffffc0
  1010c4:	e30001d4 	movw	r0, #468	; 0x1d4
  1010c8:	e3400012 	movt	r0, #18
  1010cc:	eb00128a 	bl	105afc <printf>

		 		 myres = f_lseek(&fil, 0 );
  1010d0:	e3a01000 	mov	r1, #0
  1010d4:	e1a00004 	mov	r0, r4
  1010d8:	eb006d26 	bl	11c578 <f_lseek>
  1010dc:	e1a03000 	mov	r3, r0
  1010e0:	e54b3015 	strb	r3, [fp, #-21]	; 0xffffffeb

		 		 for (jl=0;jl<(filesize/8); jl++ ){
  1010e4:	e3a03000 	mov	r3, #0
  1010e8:	e50b3010 	str	r3, [fp, #-16]
  1010ec:	ea000011 	b	101138 <ReadBitstream+0xf0>
		 			 myres =  f_read(&fil, (void *)line, 8, &br);
  1010f0:	e24b303c 	sub	r3, fp, #60	; 0x3c
  1010f4:	e24b1020 	sub	r1, fp, #32
  1010f8:	e3a02008 	mov	r2, #8
  1010fc:	e1a00004 	mov	r0, r4
  101100:	eb006b75 	bl	11bedc <f_read>
  101104:	e1a03000 	mov	r3, r0
  101108:	e54b3015 	strb	r3, [fp, #-21]	; 0xffffffeb
		 			 memcpy ( &buffer[jl*8], &line[0], 8 );
  10110c:	e51b2044 	ldr	r2, [fp, #-68]	; 0xffffffbc
  101110:	e51b3010 	ldr	r3, [fp, #-16]
  101114:	e1a03183 	lsl	r3, r3, #3
  101118:	e0823003 	add	r3, r2, r3
  10111c:	e24b1020 	sub	r1, fp, #32
  101120:	e3a02008 	mov	r2, #8
  101124:	e1a00003 	mov	r0, r3
  101128:	eb0010e4 	bl	1054c0 <memcpy>
		 		 filesize= file_size(&fil);
		 		 printf("File: %s opened successfully \\r\n File Size: %d bytes \r\n", file_name,filesize );

		 		 myres = f_lseek(&fil, 0 );

		 		 for (jl=0;jl<(filesize/8); jl++ ){
  10112c:	e51b3010 	ldr	r3, [fp, #-16]
  101130:	e2833001 	add	r3, r3, #1
  101134:	e50b3010 	str	r3, [fp, #-16]
  101138:	e51b3014 	ldr	r3, [fp, #-20]	; 0xffffffec
  10113c:	e1a021a3 	lsr	r2, r3, #3
  101140:	e51b3010 	ldr	r3, [fp, #-16]
  101144:	e1520003 	cmp	r2, r3
  101148:	8affffe8 	bhi	1010f0 <ReadBitstream+0xa8>
		 			 myres =  f_read(&fil, (void *)line, 8, &br);
		 			 memcpy ( &buffer[jl*8], &line[0], 8 );

		 		}

	  			 xil_printf("Bitstream mapped in mem address: 0x%08x\r\n", &buffer);
  10114c:	e24b3044 	sub	r3, fp, #68	; 0x44
  101150:	e1a01003 	mov	r1, r3
  101154:	e300020c 	movw	r0, #524	; 0x20c
  101158:	e3400012 	movt	r0, #18
  10115c:	eb000c93 	bl	1043b0 <xil_printf>
  101160:	ea000006 	b	101180 <ReadBitstream+0x138>


		 	 } else {
		 		 printf("Fail to open file");
  101164:	e3000238 	movw	r0, #568	; 0x238
  101168:	e3400012 	movt	r0, #18
  10116c:	eb001262 	bl	105afc <printf>
  101170:	ea000002 	b	101180 <ReadBitstream+0x138>
		 	 }


	 } else {
		 printf("Fail to mount media");
  101174:	e300024c 	movw	r0, #588	; 0x24c
  101178:	e3400012 	movt	r0, #18
  10117c:	eb00125e 	bl	105afc <printf>
	 }

	 myres = f_close(&fil);
  101180:	e1a00004 	mov	r0, r4
  101184:	eb006cf1 	bl	11c550 <f_close>
  101188:	e1a03000 	mov	r3, r0
  10118c:	e54b3015 	strb	r3, [fp, #-21]	; 0xffffffeb


return XST_SUCCESS;
  101190:	e3a03000 	mov	r3, #0
}
  101194:	e1a00003 	mov	r0, r3
  101198:	e24bd008 	sub	sp, fp, #8
  10119c:	e8bd8810 	pop	{r4, fp, pc}

001011a0 <ScuGic_initialization>:

int ScuGic_initialization(u16 DeviceID){
  1011a0:	e92d4800 	push	{fp, lr}
  1011a4:	e28db004 	add	fp, sp, #4
  1011a8:	e24dd010 	sub	sp, sp, #16
  1011ac:	e1a03000 	mov	r3, r0
  1011b0:	e14b30be 	strh	r3, [fp, #-14]
	int Status;

	GicConfig = XScuGic_LookupConfig(DeviceID);
  1011b4:	e15b30be 	ldrh	r3, [fp, #-14]
  1011b8:	e1a00003 	mov	r0, r3
  1011bc:	eb0008e6 	bl	10355c <XScuGic_LookupConfig>
  1011c0:	e1a02000 	mov	r2, r0
  1011c4:	e30c3050 	movw	r3, #49232	; 0xc050
  1011c8:	e3403012 	movt	r3, #18
  1011cc:	e5832000 	str	r2, [r3]
	if (NULL== GicConfig){
  1011d0:	e30c3050 	movw	r3, #49232	; 0xc050
  1011d4:	e3403012 	movt	r3, #18
  1011d8:	e5933000 	ldr	r3, [r3]
  1011dc:	e3530000 	cmp	r3, #0
  1011e0:	1a000001 	bne	1011ec <ScuGic_initialization+0x4c>
		return XST_FAILURE;
  1011e4:	e3a03001 	mov	r3, #1
  1011e8:	ea000046 	b	101308 <ScuGic_initialization+0x168>
	}

	Status = XScuGic_CfgInitialize(&InterruptController, GicConfig,
  1011ec:	e30c3050 	movw	r3, #49232	; 0xc050
  1011f0:	e3403012 	movt	r3, #18
  1011f4:	e5931000 	ldr	r1, [r3]
				GicConfig->CpuBaseAddress);
  1011f8:	e30c3050 	movw	r3, #49232	; 0xc050
  1011fc:	e3403012 	movt	r3, #18
  101200:	e5933000 	ldr	r3, [r3]
	GicConfig = XScuGic_LookupConfig(DeviceID);
	if (NULL== GicConfig){
		return XST_FAILURE;
	}

	Status = XScuGic_CfgInitialize(&InterruptController, GicConfig,
  101204:	e5933004 	ldr	r3, [r3, #4]
  101208:	e1a02003 	mov	r2, r3
  10120c:	e30c0adc 	movw	r0, #51932	; 0xcadc
  101210:	e3400012 	movt	r0, #18
  101214:	eb000645 	bl	102b30 <XScuGic_CfgInitialize>
  101218:	e50b0008 	str	r0, [fp, #-8]
				GicConfig->CpuBaseAddress);
	if (Status != XST_SUCCESS){
  10121c:	e51b3008 	ldr	r3, [fp, #-8]
  101220:	e3530000 	cmp	r3, #0
  101224:	0a000001 	beq	101230 <ScuGic_initialization+0x90>
		return XST_FAILURE;
  101228:	e3a03001 	mov	r3, #1
  10122c:	ea000035 	b	101308 <ScuGic_initialization+0x168>
	}

	Status = XScuGic_SelfTest(&InterruptController);
  101230:	e30c0adc 	movw	r0, #51932	; 0xcadc
  101234:	e3400012 	movt	r0, #18
  101238:	eb000899 	bl	1034a4 <XScuGic_SelfTest>
  10123c:	e50b0008 	str	r0, [fp, #-8]
	if (Status != XST_SUCCESS){
  101240:	e51b3008 	ldr	r3, [fp, #-8]
  101244:	e3530000 	cmp	r3, #0
  101248:	0a000001 	beq	101254 <ScuGic_initialization+0xb4>
		return XST_FAILURE;
  10124c:	e3a03001 	mov	r3, #1
  101250:	ea00002c 	b	101308 <ScuGic_initialization+0x168>
	}
	XScuGic_CPUWriteReg(&InterruptController, XSCUGIC_EOI_OFFSET, INTC_DEVICE_INT_ID);
  101254:	e30c3adc 	movw	r3, #51932	; 0xcadc
  101258:	e3403012 	movt	r3, #18
  10125c:	e5933000 	ldr	r3, [r3]
  101260:	e5933004 	ldr	r3, [r3, #4]
  101264:	e2833010 	add	r3, r3, #16
  101268:	e3a0103d 	mov	r1, #61	; 0x3d
  10126c:	e1a00003 	mov	r0, r3
  101270:	eb000bb2 	bl	104140 <Xil_Out32>

	Status = SetUpInterruptSystem(&InterruptController);
  101274:	e30c0adc 	movw	r0, #51932	; 0xcadc
  101278:	e3400012 	movt	r0, #18
  10127c:	ebffff5f 	bl	101000 <SetUpInterruptSystem>
  101280:	e50b0008 	str	r0, [fp, #-8]
	if (Status != XST_SUCCESS){
  101284:	e51b3008 	ldr	r3, [fp, #-8]
  101288:	e3530000 	cmp	r3, #0
  10128c:	0a000001 	beq	101298 <ScuGic_initialization+0xf8>
		return XST_FAILURE;
  101290:	e3a03001 	mov	r3, #1
  101294:	ea00001b 	b	101308 <ScuGic_initialization+0x168>
	}
	Status = XScuGic_Connect(&InterruptController, INTC_DEVICE_INT_ID,
  101298:	e30c3adc 	movw	r3, #51932	; 0xcadc
  10129c:	e3403012 	movt	r3, #18
  1012a0:	e30128a8 	movw	r2, #6312	; 0x18a8
  1012a4:	e3402010 	movt	r2, #16
  1012a8:	e3a0103d 	mov	r1, #61	; 0x3d
  1012ac:	e30c0adc 	movw	r0, #51932	; 0xcadc
  1012b0:	e3400012 	movt	r0, #18
  1012b4:	eb00068b 	bl	102ce8 <XScuGic_Connect>
  1012b8:	e50b0008 	str	r0, [fp, #-8]
			(Xil_ExceptionHandler)DeviceDriverHandler,
			(void *)&InterruptController  );

	if (Status != XST_SUCCESS){
  1012bc:	e51b3008 	ldr	r3, [fp, #-8]
  1012c0:	e3530000 	cmp	r3, #0
  1012c4:	0a000001 	beq	1012d0 <ScuGic_initialization+0x130>
		return XST_FAILURE;
  1012c8:	e3a03001 	mov	r3, #1
  1012cc:	ea00000d 	b	101308 <ScuGic_initialization+0x168>
	}
	Status = XScuGic_Connect(&InterruptController, DCFG_INTR_ID,
  1012d0:	e30c3adc 	movw	r3, #51932	; 0xcadc
  1012d4:	e3403012 	movt	r3, #18
  1012d8:	e3012314 	movw	r2, #4884	; 0x1314
  1012dc:	e3402010 	movt	r2, #16
  1012e0:	e3a01028 	mov	r1, #40	; 0x28
  1012e4:	e30c0adc 	movw	r0, #51932	; 0xcadc
  1012e8:	e3400012 	movt	r0, #18
  1012ec:	eb00067d 	bl	102ce8 <XScuGic_Connect>
  1012f0:	e50b0008 	str	r0, [fp, #-8]
			(Xil_ExceptionHandler)DcfgIntrHandler,
			(void *)&InterruptController  );


	XScuGic_Enable(&InterruptController, INTC_DEVICE_INT_ID);
  1012f4:	e3a0103d 	mov	r1, #61	; 0x3d
  1012f8:	e30c0adc 	movw	r0, #51932	; 0xcadc
  1012fc:	e3400012 	movt	r0, #18
  101300:	eb0006e4 	bl	102e98 <XScuGic_Enable>


	return XST_SUCCESS;
  101304:	e3a03000 	mov	r3, #0

}
  101308:	e1a00003 	mov	r0, r3
  10130c:	e24bd004 	sub	sp, fp, #4
  101310:	e8bd8800 	pop	{fp, pc}

00101314 <DcfgIntrHandler>:


 static void DcfgIntrHandler(void *CallBackRef, u32 IntrStatus)
{
  101314:	e92d4800 	push	{fp, lr}
  101318:	e28db004 	add	fp, sp, #4
  10131c:	e24dd008 	sub	sp, sp, #8
  101320:	e50b0008 	str	r0, [fp, #-8]
  101324:	e50b100c 	str	r1, [fp, #-12]

	if (IntrStatus & XDCFG_IXR_DMA_DONE_MASK) {
  101328:	e51b300c 	ldr	r3, [fp, #-12]
  10132c:	e2033a02 	and	r3, r3, #8192	; 0x2000
  101330:	e3530000 	cmp	r3, #0
  101334:	0a000003 	beq	101348 <DcfgIntrHandler+0x34>
		DmaDone = TRUE;
  101338:	e30c3044 	movw	r3, #49220	; 0xc044
  10133c:	e3403012 	movt	r3, #18
  101340:	e3a02001 	mov	r2, #1
  101344:	e5832000 	str	r2, [r3]
	}

	if (IntrStatus & XDCFG_IXR_D_P_DONE_MASK) {
  101348:	e51b300c 	ldr	r3, [fp, #-12]
  10134c:	e2033a01 	and	r3, r3, #4096	; 0x1000
  101350:	e3530000 	cmp	r3, #0
  101354:	0a000003 	beq	101368 <DcfgIntrHandler+0x54>
		//CntValue2 = XScuTimer_GetCounterValue(TimerInstancePtr);

		DmaPcapDone = TRUE;
  101358:	e30c3048 	movw	r3, #49224	; 0xc048
  10135c:	e3403012 	movt	r3, #18
  101360:	e3a02001 	mov	r2, #1
  101364:	e5832000 	str	r2, [r3]
	}

	if (IntrStatus & XDCFG_IXR_PCFG_DONE_MASK) {
  101368:	e51b300c 	ldr	r3, [fp, #-12]
  10136c:	e2033004 	and	r3, r3, #4
  101370:	e3530000 	cmp	r3, #0
  101374:	0a000007 	beq	101398 <DcfgIntrHandler+0x84>
		/*
		 * Disable PCFG DONE interrupt as this bit will remain set and will
		 * cause continuous interrupts.
		 */
		XDcfg_IntrDisable(&DcfgInstance, XDCFG_IXR_PCFG_DONE_MASK);
  101378:	e3a01004 	mov	r1, #4
  10137c:	e30c0ac0 	movw	r0, #51904	; 0xcac0
  101380:	e3400012 	movt	r0, #18
  101384:	eb0004c1 	bl	102690 <XDcfg_IntrDisable>
		FpgaProgrammed = TRUE;
  101388:	e30c304c 	movw	r3, #49228	; 0xc04c
  10138c:	e3403012 	movt	r3, #18
  101390:	e3a02001 	mov	r2, #1
  101394:	e5832000 	str	r2, [r3]

		//xil_printf("Partial programmed \r\n");
	}
}
  101398:	e24bd004 	sub	sp, fp, #4
  10139c:	e8bd8800 	pop	{fp, pc}

001013a0 <XDcfg_Setup_Transfer>:
int XDcfg_Setup_Transfer(XScuGic *IntcInstPtr, XDcfg * DcfgInstPtr,
				u16 DeviceId, u16 DcfgIntrId, u32 *bitstream)
{
  1013a0:	e92d4800 	push	{fp, lr}
  1013a4:	e28db004 	add	fp, sp, #4
  1013a8:	e24dd030 	sub	sp, sp, #48	; 0x30
  1013ac:	e50b0020 	str	r0, [fp, #-32]	; 0xffffffe0
  1013b0:	e50b1024 	str	r1, [fp, #-36]	; 0xffffffdc
  1013b4:	e14b22b6 	strh	r2, [fp, #-38]	; 0xffffffda
  1013b8:	e14b32b8 	strh	r3, [fp, #-40]	; 0xffffffd8
	int Status;
	u32 IntrStsReg = 0;
  1013bc:	e3a03000 	mov	r3, #0
  1013c0:	e50b3008 	str	r3, [fp, #-8]
	u32 StatusReg;
	u32 PartialCfg = 0;
  1013c4:	e3a03000 	mov	r3, #0
  1013c8:	e50b300c 	str	r3, [fp, #-12]

	XDcfg_Config *ConfigPtr;

	xil_printf("XDcfg_Setup_Transfer par_bitstream_1 buffer 0x%08x \r\n",   (u32 *)bitstream);
  1013cc:	e59b1004 	ldr	r1, [fp, #4]
  1013d0:	e3000260 	movw	r0, #608	; 0x260
  1013d4:	e3400012 	movt	r0, #18
  1013d8:	eb000bf4 	bl	1043b0 <xil_printf>


	  //
	 // Initialize the Device Configuration Interface driver.
	 //
	ConfigPtr = XDcfg_LookupConfig(DeviceId);
  1013dc:	e15b32b6 	ldrh	r3, [fp, #-38]	; 0xffffffda
  1013e0:	e1a00003 	mov	r0, r3
  1013e4:	eb0005b6 	bl	102ac4 <XDcfg_LookupConfig>
  1013e8:	e50b0010 	str	r0, [fp, #-16]

	  //
	 // This is where the virtual address would be used, this example
	 // uses physical address.
	 //
	xil_printf("1 \r\n");
  1013ec:	e3000298 	movw	r0, #664	; 0x298
  1013f0:	e3400012 	movt	r0, #18
  1013f4:	eb000bed 	bl	1043b0 <xil_printf>
	Status = XDcfg_CfgInitialize(DcfgInstPtr, ConfigPtr,
  1013f8:	e51b3010 	ldr	r3, [fp, #-16]
  1013fc:	e5933004 	ldr	r3, [r3, #4]
  101400:	e1a02003 	mov	r2, r3
  101404:	e51b1010 	ldr	r1, [fp, #-16]
  101408:	e51b0024 	ldr	r0, [fp, #-36]	; 0xffffffdc
  10140c:	eb00016a 	bl	1019bc <XDcfg_CfgInitialize>
  101410:	e50b0014 	str	r0, [fp, #-20]	; 0xffffffec
					ConfigPtr->BaseAddr);
	if (Status != XST_SUCCESS) {
  101414:	e51b3014 	ldr	r3, [fp, #-20]	; 0xffffffec
  101418:	e3530000 	cmp	r3, #0
  10141c:	0a000001 	beq	101428 <XDcfg_Setup_Transfer+0x88>
		return XST_FAILURE;
  101420:	e3a03001 	mov	r3, #1
  101424:	ea0000ca 	b	101754 <XDcfg_Setup_Transfer+0x3b4>
	}
	xil_printf("2 \r\n");
  101428:	e30002a0 	movw	r0, #672	; 0x2a0
  10142c:	e3400012 	movt	r0, #18
  101430:	eb000bde 	bl	1043b0 <xil_printf>
	Status = XDcfg_SelfTest(DcfgInstPtr);
  101434:	e51b0024 	ldr	r0, [fp, #-36]	; 0xffffffdc
  101438:	eb000575 	bl	102a14 <XDcfg_SelfTest>
  10143c:	e50b0014 	str	r0, [fp, #-20]	; 0xffffffec
	if (Status != XST_SUCCESS) {
  101440:	e51b3014 	ldr	r3, [fp, #-20]	; 0xffffffec
  101444:	e3530000 	cmp	r3, #0
  101448:	0a000001 	beq	101454 <XDcfg_Setup_Transfer+0xb4>
		return XST_FAILURE;
  10144c:	e3a03001 	mov	r3, #1
  101450:	ea0000bf 	b	101754 <XDcfg_Setup_Transfer+0x3b4>
	 //
    //Status = SetupInterruptSystem(IntcInstPtr, DcfgInstPtr, DcfgIntrId);
	//if (Status != XST_SUCCESS) {
	//	return XST_FAILURE;
	//}
	xil_printf("3 \r\n");
  101454:	e30002a8 	movw	r0, #680	; 0x2a8
  101458:	e3400012 	movt	r0, #18
  10145c:	eb000bd3 	bl	1043b0 <xil_printf>
	XScuGic_Enable(&InterruptController, DCFG_INTR_ID);
  101460:	e3a01028 	mov	r1, #40	; 0x28
  101464:	e30c0adc 	movw	r0, #51932	; 0xcadc
  101468:	e3400012 	movt	r0, #18
  10146c:	eb000689 	bl	102e98 <XScuGic_Enable>

	//XDcfg_SetHandler(DcfgInstPtr, (void *)DcfgIntrHandler, DcfgInstPtr);

	DmaDone = FALSE;
  101470:	e30c3044 	movw	r3, #49220	; 0xc044
  101474:	e3403012 	movt	r3, #18
  101478:	e3a02000 	mov	r2, #0
  10147c:	e5832000 	str	r2, [r3]
	DmaPcapDone = FALSE;
  101480:	e30c3048 	movw	r3, #49224	; 0xc048
  101484:	e3403012 	movt	r3, #18
  101488:	e3a02000 	mov	r2, #0
  10148c:	e5832000 	str	r2, [r3]
	FpgaProgrammed = FALSE;
  101490:	e30c304c 	movw	r3, #49228	; 0xc04c
  101494:	e3403012 	movt	r3, #18
  101498:	e3a02000 	mov	r2, #0
  10149c:	e5832000 	str	r2, [r3]

	//
	 // Check first time configuration or partial reconfiguration
	 //
	xil_printf("4 \r\n");
  1014a0:	e30002b0 	movw	r0, #688	; 0x2b0
  1014a4:	e3400012 	movt	r0, #18
  1014a8:	eb000bc0 	bl	1043b0 <xil_printf>
	IntrStsReg = XDcfg_IntrGetStatus(DcfgInstPtr);
  1014ac:	e51b0024 	ldr	r0, [fp, #-36]	; 0xffffffdc
  1014b0:	eb0004c5 	bl	1027cc <XDcfg_IntrGetStatus>
  1014b4:	e50b0008 	str	r0, [fp, #-8]
	if (IntrStsReg & XDCFG_IXR_DMA_DONE_MASK) {
  1014b8:	e51b3008 	ldr	r3, [fp, #-8]
  1014bc:	e2033a02 	and	r3, r3, #8192	; 0x2000
  1014c0:	e3530000 	cmp	r3, #0
  1014c4:	0a000001 	beq	1014d0 <XDcfg_Setup_Transfer+0x130>
		PartialCfg = 1;
  1014c8:	e3a03001 	mov	r3, #1
  1014cc:	e50b300c 	str	r3, [fp, #-12]
	}
	PartialCfg = 1;
  1014d0:	e3a03001 	mov	r3, #1
  1014d4:	e50b300c 	str	r3, [fp, #-12]
	if (PartialCfg==1){
  1014d8:	e51b300c 	ldr	r3, [fp, #-12]
  1014dc:	e3530001 	cmp	r3, #1
  1014e0:	1a000003 	bne	1014f4 <XDcfg_Setup_Transfer+0x154>
		xil_printf("IS PARTIAL \r\n");
  1014e4:	e30002b8 	movw	r0, #696	; 0x2b8
  1014e8:	e3400012 	movt	r0, #18
  1014ec:	eb000baf 	bl	1043b0 <xil_printf>
  1014f0:	ea000002 	b	101500 <XDcfg_Setup_Transfer+0x160>
	} else {
		xil_printf("NOT Partial \r\n");
  1014f4:	e30002c8 	movw	r0, #712	; 0x2c8
  1014f8:	e3400012 	movt	r0, #18
  1014fc:	eb000bab 	bl	1043b0 <xil_printf>
	}
	//
	 // Enable the pcap clock.
	 //
	xil_printf("5 \r\n");
  101500:	e30002d8 	movw	r0, #728	; 0x2d8
  101504:	e3400012 	movt	r0, #18
  101508:	eb000ba8 	bl	1043b0 <xil_printf>
	StatusReg = Xil_In32(SLCR_PCAP_CLK_CTRL);
  10150c:	e3a00f5a 	mov	r0, #360	; 0x168
  101510:	e34f0800 	movt	r0, #63488	; 0xf800
  101514:	eb000b03 	bl	104128 <Xil_In32>
  101518:	e50b0018 	str	r0, [fp, #-24]	; 0xffffffe8
	if (!(StatusReg & SLCR_PCAP_CLK_CTRL_EN_MASK)) {
  10151c:	e51b3018 	ldr	r3, [fp, #-24]	; 0xffffffe8
  101520:	e2033001 	and	r3, r3, #1
  101524:	e3530000 	cmp	r3, #0
  101528:	1a00000d 	bne	101564 <XDcfg_Setup_Transfer+0x1c4>
		Xil_Out32(SLCR_UNLOCK, SLCR_UNLOCK_VAL);
  10152c:	e30d1f0d 	movw	r1, #57101	; 0xdf0d
  101530:	e3a00008 	mov	r0, #8
  101534:	e34f0800 	movt	r0, #63488	; 0xf800
  101538:	eb000b00 	bl	104140 <Xil_Out32>
		Xil_Out32(SLCR_PCAP_CLK_CTRL,
  10153c:	e51b3018 	ldr	r3, [fp, #-24]	; 0xffffffe8
  101540:	e3833001 	orr	r3, r3, #1
  101544:	e1a01003 	mov	r1, r3
  101548:	e3a00f5a 	mov	r0, #360	; 0x168
  10154c:	e34f0800 	movt	r0, #63488	; 0xf800
  101550:	eb000afa 	bl	104140 <Xil_Out32>
				(StatusReg | SLCR_PCAP_CLK_CTRL_EN_MASK));
		Xil_Out32(SLCR_UNLOCK, SLCR_LOCK_VAL);
  101554:	e307167b 	movw	r1, #30331	; 0x767b
  101558:	e3a00008 	mov	r0, #8
  10155c:	e34f0800 	movt	r0, #63488	; 0xf800
  101560:	eb000af6 	bl	104140 <Xil_Out32>
	}

	//
	 // Disable the level-shifters from PS to PL.
	 //
	xil_printf("6 \r\n");
  101564:	e30002e0 	movw	r0, #736	; 0x2e0
  101568:	e3400012 	movt	r0, #18
  10156c:	eb000b8f 	bl	1043b0 <xil_printf>
	if (!PartialCfg) {
  101570:	e51b300c 	ldr	r3, [fp, #-12]
  101574:	e3530000 	cmp	r3, #0
  101578:	1a00000b 	bne	1015ac <XDcfg_Setup_Transfer+0x20c>
		Xil_Out32(SLCR_UNLOCK, SLCR_UNLOCK_VAL);
  10157c:	e30d1f0d 	movw	r1, #57101	; 0xdf0d
  101580:	e3a00008 	mov	r0, #8
  101584:	e34f0800 	movt	r0, #63488	; 0xf800
  101588:	eb000aec 	bl	104140 <Xil_Out32>
		Xil_Out32(SLCR_LVL_SHFTR_EN, 0xA);
  10158c:	e3a0100a 	mov	r1, #10
  101590:	e3a00c09 	mov	r0, #2304	; 0x900
  101594:	e34f0800 	movt	r0, #63488	; 0xf800
  101598:	eb000ae8 	bl	104140 <Xil_Out32>
		Xil_Out32(SLCR_LOCK, SLCR_LOCK_VAL);
  10159c:	e307167b 	movw	r1, #30331	; 0x767b
  1015a0:	e3a00004 	mov	r0, #4
  1015a4:	e34f0800 	movt	r0, #63488	; 0xf800
  1015a8:	eb000ae4 	bl	104140 <Xil_Out32>
	}

	//
	 // Select PCAP interface for partial reconfiguration
	 //
	xil_printf("7 \r\n");
  1015ac:	e30002e8 	movw	r0, #744	; 0x2e8
  1015b0:	e3400012 	movt	r0, #18
  1015b4:	eb000b7d 	bl	1043b0 <xil_printf>
	if (PartialCfg) {
  1015b8:	e51b300c 	ldr	r3, [fp, #-12]
  1015bc:	e3530000 	cmp	r3, #0
  1015c0:	0a000004 	beq	1015d8 <XDcfg_Setup_Transfer+0x238>
		XDcfg_EnablePCAP(DcfgInstPtr);
  1015c4:	e51b0024 	ldr	r0, [fp, #-36]	; 0xffffffdc
  1015c8:	eb00012b 	bl	101a7c <XDcfg_EnablePCAP>
		XDcfg_SetControlRegister(DcfgInstPtr, XDCFG_CTRL_PCAP_PR_MASK);
  1015cc:	e3a01302 	mov	r1, #134217728	; 0x8000000
  1015d0:	e51b0024 	ldr	r0, [fp, #-36]	; 0xffffffdc
  1015d4:	eb00016c 	bl	101b8c <XDcfg_SetControlRegister>
	}

	//
	 //Clear the interrupt status bits
	//
	xil_printf("8 \r\n");
  1015d8:	e30002f0 	movw	r0, #752	; 0x2f0
  1015dc:	e3400012 	movt	r0, #18
  1015e0:	eb000b72 	bl	1043b0 <xil_printf>
	XDcfg_IntrClear(DcfgInstPtr, (XDCFG_IXR_PCFG_DONE_MASK |
  1015e4:	e3031004 	movw	r1, #12292	; 0x3004
  1015e8:	e51b0024 	ldr	r0, [fp, #-36]	; 0xffffffdc
  1015ec:	eb000497 	bl	102850 <XDcfg_IntrClear>
					XDCFG_IXR_D_P_DONE_MASK |
					XDCFG_IXR_DMA_DONE_MASK));

	// Check if DMA command queue is full */
	StatusReg = XDcfg_ReadReg(DcfgInstPtr->Config.BaseAddr,
  1015f0:	e51b3024 	ldr	r3, [fp, #-36]	; 0xffffffdc
  1015f4:	e5933004 	ldr	r3, [r3, #4]
  1015f8:	e2833014 	add	r3, r3, #20
  1015fc:	e1a00003 	mov	r0, r3
  101600:	eb000ac8 	bl	104128 <Xil_In32>
  101604:	e50b0018 	str	r0, [fp, #-24]	; 0xffffffe8
				XDCFG_STATUS_OFFSET);
	xil_printf("9 \r\n");
  101608:	e30002f8 	movw	r0, #760	; 0x2f8
  10160c:	e3400012 	movt	r0, #18
  101610:	eb000b66 	bl	1043b0 <xil_printf>
	if ((StatusReg & XDCFG_STATUS_DMA_CMD_Q_F_MASK) ==
  101614:	e51b3018 	ldr	r3, [fp, #-24]	; 0xffffffe8
  101618:	e3530000 	cmp	r3, #0
  10161c:	aa000001 	bge	101628 <XDcfg_Setup_Transfer+0x288>
			XDCFG_STATUS_DMA_CMD_Q_F_MASK) {
		return XST_FAILURE;
  101620:	e3a03001 	mov	r3, #1
  101624:	ea00004a 	b	101754 <XDcfg_Setup_Transfer+0x3b4>
	}
	xil_printf("10 \r\n");
  101628:	e3000300 	movw	r0, #768	; 0x300
  10162c:	e3400012 	movt	r0, #18
  101630:	eb000b5e 	bl	1043b0 <xil_printf>
	///
	// Enable the DMA done, DMA_PCAP Done and PCFG Done interrupts.
	 //
	XDcfg_IntrEnable(DcfgInstPtr, (XDCFG_IXR_DMA_DONE_MASK |
  101634:	e3031004 	movw	r1, #12292	; 0x3004
  101638:	e51b0024 	ldr	r0, [fp, #-36]	; 0xffffffdc
  10163c:	eb0003e7 	bl	1025e0 <XDcfg_IntrEnable>
					XDCFG_IXR_PCFG_DONE_MASK));




	xil_printf("11 \r\n");
  101640:	e3000308 	movw	r0, #776	; 0x308
  101644:	e3400012 	movt	r0, #18
  101648:	eb000b58 	bl	1043b0 <xil_printf>

	//
	//Download bitstream in non secure mode
	 ///
	XDcfg_Transfer(DcfgInstPtr, (u32 *)(bitstream),
  10164c:	e3a03001 	mov	r3, #1
  101650:	e58d3004 	str	r3, [sp, #4]
  101654:	e3a03000 	mov	r3, #0
  101658:	e58d3000 	str	r3, [sp]
  10165c:	e3e03000 	mvn	r3, #0
  101660:	e3002b0c 	movw	r2, #2828	; 0xb0c
  101664:	e3402001 	movt	r2, #1
  101668:	e59b1004 	ldr	r1, [fp, #4]
  10166c:	e51b0024 	ldr	r0, [fp, #-36]	; 0xffffffdc
  101670:	eb00033a 	bl	102360 <XDcfg_Transfer>
			BIT_STREAM_SIZE_WORDS,
			(u8 *)XDCFG_DMA_INVALID_ADDRESS,
			0, XDCFG_NON_SECURE_PCAP_WRITE);

	while (!DmaDone);
  101674:	e1a00000 	nop			; (mov r0, r0)
  101678:	e30c3044 	movw	r3, #49220	; 0xc044
  10167c:	e3403012 	movt	r3, #18
  101680:	e5933000 	ldr	r3, [r3]
  101684:	e3530000 	cmp	r3, #0
  101688:	0afffffa 	beq	101678 <XDcfg_Setup_Transfer+0x2d8>
	//xil_printf("12 \r\n");
	if (PartialCfg) {
  10168c:	e51b300c 	ldr	r3, [fp, #-12]
  101690:	e3530000 	cmp	r3, #0
  101694:	0a000006 	beq	1016b4 <XDcfg_Setup_Transfer+0x314>
		while (!DmaPcapDone);
  101698:	e1a00000 	nop			; (mov r0, r0)
  10169c:	e30c3048 	movw	r3, #49224	; 0xc048
  1016a0:	e3403012 	movt	r3, #18
  1016a4:	e5933000 	ldr	r3, [r3]
  1016a8:	e3530000 	cmp	r3, #0
  1016ac:	0afffffa 	beq	10169c <XDcfg_Setup_Transfer+0x2fc>
  1016b0:	ea000014 	b	101708 <XDcfg_Setup_Transfer+0x368>



	} else {
		while (!FpgaProgrammed);
  1016b4:	e1a00000 	nop			; (mov r0, r0)
  1016b8:	e30c304c 	movw	r3, #49228	; 0xc04c
  1016bc:	e3403012 	movt	r3, #18
  1016c0:	e5933000 	ldr	r3, [r3]
  1016c4:	e3530000 	cmp	r3, #0
  1016c8:	0afffffa 	beq	1016b8 <XDcfg_Setup_Transfer+0x318>
		//
		//  Enable the level-shifters from PS to PL.
		 //
		xil_printf("13 \r\n");
  1016cc:	e3000310 	movw	r0, #784	; 0x310
  1016d0:	e3400012 	movt	r0, #18
  1016d4:	eb000b35 	bl	1043b0 <xil_printf>
		Xil_Out32(SLCR_UNLOCK, SLCR_UNLOCK_VAL);
  1016d8:	e30d1f0d 	movw	r1, #57101	; 0xdf0d
  1016dc:	e3a00008 	mov	r0, #8
  1016e0:	e34f0800 	movt	r0, #63488	; 0xf800
  1016e4:	eb000a95 	bl	104140 <Xil_Out32>
		Xil_Out32(SLCR_LVL_SHFTR_EN, 0xF);
  1016e8:	e3a0100f 	mov	r1, #15
  1016ec:	e3a00c09 	mov	r0, #2304	; 0x900
  1016f0:	e34f0800 	movt	r0, #63488	; 0xf800
  1016f4:	eb000a91 	bl	104140 <Xil_Out32>
		Xil_Out32(SLCR_LOCK, SLCR_LOCK_VAL);
  1016f8:	e307167b 	movw	r1, #30331	; 0x767b
  1016fc:	e3a00004 	mov	r0, #4
  101700:	e34f0800 	movt	r0, #63488	; 0xf800
  101704:	eb000a8d 	bl	104140 <Xil_Out32>
	}

	Status = XST_SUCCESS;
  101708:	e3a03000 	mov	r3, #0
  10170c:	e50b3014 	str	r3, [fp, #-20]	; 0xffffffec
	xil_printf("14 \r\n");
  101710:	e3000318 	movw	r0, #792	; 0x318
  101714:	e3400012 	movt	r0, #18
  101718:	eb000b24 	bl	1043b0 <xil_printf>
	XDcfg_IntrDisable(DcfgInstPtr, (XDCFG_IXR_DMA_DONE_MASK |
  10171c:	e3031004 	movw	r1, #12292	; 0x3004
  101720:	e51b0024 	ldr	r0, [fp, #-36]	; 0xffffffdc
  101724:	eb0003d9 	bl	102690 <XDcfg_IntrDisable>
					XDCFG_IXR_D_P_DONE_MASK |
					XDCFG_IXR_PCFG_DONE_MASK));

	xil_printf("15 \r\n");
  101728:	e3000320 	movw	r0, #800	; 0x320
  10172c:	e3400012 	movt	r0, #18
  101730:	eb000b1e 	bl	1043b0 <xil_printf>
	XScuGic_Disable(IntcInstPtr, DcfgIntrId);
  101734:	e15b32b8 	ldrh	r3, [fp, #-40]	; 0xffffffd8
  101738:	e1a01003 	mov	r1, r3
  10173c:	e51b0020 	ldr	r0, [fp, #-32]	; 0xffffffe0
  101740:	eb000603 	bl	102f54 <XScuGic_Disable>
	xil_printf("16 \r\n");
  101744:	e3000328 	movw	r0, #808	; 0x328
  101748:	e3400012 	movt	r0, #18
  10174c:	eb000b17 	bl	1043b0 <xil_printf>
	//XScuGic_Disconnect(IntcInstPtr, DcfgIntrId);

	return Status;
  101750:	e51b3014 	ldr	r3, [fp, #-20]	; 0xffffffec
}
  101754:	e1a00003 	mov	r0, r3
  101758:	e24bd004 	sub	sp, fp, #4
  10175c:	e8bd8800 	pop	{fp, pc}

00101760 <Do_DPR2>:


int Do_DPR2(int config, char *bitstream_1, char *bitstream_2, char *bitstream_3){
  101760:	e92d4800 	push	{fp, lr}
  101764:	e28db004 	add	fp, sp, #4
  101768:	e24dd020 	sub	sp, sp, #32
  10176c:	e50b0010 	str	r0, [fp, #-16]
  101770:	e50b1014 	str	r1, [fp, #-20]	; 0xffffffec
  101774:	e50b2018 	str	r2, [fp, #-24]	; 0xffffffe8
  101778:	e50b301c 	str	r3, [fp, #-28]	; 0xffffffe4
	int Status=0;
  10177c:	e3a03000 	mov	r3, #0
  101780:	e50b3008 	str	r3, [fp, #-8]


	xil_printf("Do_DPR par_bitstream_1 buffer 0x%08x \r\n",   (u32 *)bitstream_1);
  101784:	e51b1014 	ldr	r1, [fp, #-20]	; 0xffffffec
  101788:	e3000330 	movw	r0, #816	; 0x330
  10178c:	e3400012 	movt	r0, #18
  101790:	eb000b06 	bl	1043b0 <xil_printf>
	xil_printf("Do_DPR par_bitstream_2 buffer 0x%08x \r\n",   (u32 *)bitstream_2);
  101794:	e51b1018 	ldr	r1, [fp, #-24]	; 0xffffffe8
  101798:	e3000358 	movw	r0, #856	; 0x358
  10179c:	e3400012 	movt	r0, #18
  1017a0:	eb000b02 	bl	1043b0 <xil_printf>
	xil_printf("Do_DPR par_bitstream_3 buffer 0x%08x \r\n",   (u32 *)bitstream_3);
  1017a4:	e51b101c 	ldr	r1, [fp, #-28]	; 0xffffffe4
  1017a8:	e3000380 	movw	r0, #896	; 0x380
  1017ac:	e3400012 	movt	r0, #18
  1017b0:	eb000afe 	bl	1043b0 <xil_printf>

	if (config==1){
  1017b4:	e51b3010 	ldr	r3, [fp, #-16]
  1017b8:	e3530001 	cmp	r3, #1
  1017bc:	1a00000e 	bne	1017fc <Do_DPR2+0x9c>
	  Status =  XDcfg_Setup_Transfer(&InterruptController, &DcfgInstance,DCFG_DEVICE_ID, DCFG_INTR_ID,   (u32 *) bitstream_1);
  1017c0:	e51b3014 	ldr	r3, [fp, #-20]	; 0xffffffec
  1017c4:	e58d3000 	str	r3, [sp]
  1017c8:	e3a03028 	mov	r3, #40	; 0x28
  1017cc:	e3a02000 	mov	r2, #0
  1017d0:	e30c1ac0 	movw	r1, #51904	; 0xcac0
  1017d4:	e3401012 	movt	r1, #18
  1017d8:	e30c0adc 	movw	r0, #51932	; 0xcadc
  1017dc:	e3400012 	movt	r0, #18
  1017e0:	ebfffeee 	bl	1013a0 <XDcfg_Setup_Transfer>
  1017e4:	e50b0008 	str	r0, [fp, #-8]
	  current_partial=1;
  1017e8:	e3033fec 	movw	r3, #16364	; 0x3fec
  1017ec:	e3403012 	movt	r3, #18
  1017f0:	e3a02001 	mov	r2, #1
  1017f4:	e5832000 	str	r2, [r3]
  1017f8:	ea000026 	b	101898 <Do_DPR2+0x138>
	} else if (config==2){
  1017fc:	e51b3010 	ldr	r3, [fp, #-16]
  101800:	e3530002 	cmp	r3, #2
  101804:	1a00000e 	bne	101844 <Do_DPR2+0xe4>
     Status =  XDcfg_Setup_Transfer(&InterruptController, &DcfgInstance,DCFG_DEVICE_ID, DCFG_INTR_ID,   (u32 *)bitstream_2);
  101808:	e51b3018 	ldr	r3, [fp, #-24]	; 0xffffffe8
  10180c:	e58d3000 	str	r3, [sp]
  101810:	e3a03028 	mov	r3, #40	; 0x28
  101814:	e3a02000 	mov	r2, #0
  101818:	e30c1ac0 	movw	r1, #51904	; 0xcac0
  10181c:	e3401012 	movt	r1, #18
  101820:	e30c0adc 	movw	r0, #51932	; 0xcadc
  101824:	e3400012 	movt	r0, #18
  101828:	ebfffedc 	bl	1013a0 <XDcfg_Setup_Transfer>
  10182c:	e50b0008 	str	r0, [fp, #-8]
     current_partial=2;
  101830:	e3033fec 	movw	r3, #16364	; 0x3fec
  101834:	e3403012 	movt	r3, #18
  101838:	e3a02002 	mov	r2, #2
  10183c:	e5832000 	str	r2, [r3]
  101840:	ea000014 	b	101898 <Do_DPR2+0x138>
	} else if (config==3) {
  101844:	e51b3010 	ldr	r3, [fp, #-16]
  101848:	e3530003 	cmp	r3, #3
  10184c:	1a00000e 	bne	10188c <Do_DPR2+0x12c>
     Status =  XDcfg_Setup_Transfer(&InterruptController, &DcfgInstance,DCFG_DEVICE_ID, DCFG_INTR_ID,   (u32 *) bitstream_3);
  101850:	e51b301c 	ldr	r3, [fp, #-28]	; 0xffffffe4
  101854:	e58d3000 	str	r3, [sp]
  101858:	e3a03028 	mov	r3, #40	; 0x28
  10185c:	e3a02000 	mov	r2, #0
  101860:	e30c1ac0 	movw	r1, #51904	; 0xcac0
  101864:	e3401012 	movt	r1, #18
  101868:	e30c0adc 	movw	r0, #51932	; 0xcadc
  10186c:	e3400012 	movt	r0, #18
  101870:	ebfffeca 	bl	1013a0 <XDcfg_Setup_Transfer>
  101874:	e50b0008 	str	r0, [fp, #-8]
     current_partial=3;
  101878:	e3033fec 	movw	r3, #16364	; 0x3fec
  10187c:	e3403012 	movt	r3, #18
  101880:	e3a02003 	mov	r2, #3
  101884:	e5832000 	str	r2, [r3]
  101888:	ea000002 	b	101898 <Do_DPR2+0x138>
	} else {
	xil_printf("Not conf available\r\n");
  10188c:	e30003a8 	movw	r0, #936	; 0x3a8
  101890:	e3400012 	movt	r0, #18
  101894:	eb000ac5 	bl	1043b0 <xil_printf>
	}

	return Status;
  101898:	e51b3008 	ldr	r3, [fp, #-8]
}
  10189c:	e1a00003 	mov	r0, r3
  1018a0:	e24bd004 	sub	sp, fp, #4
  1018a4:	e8bd8800 	pop	{fp, pc}

001018a8 <DeviceDriverHandler>:

void DeviceDriverHandler(void *CallbackRef){
  1018a8:	e92d4800 	push	{fp, lr}
  1018ac:	e28db004 	add	fp, sp, #4
  1018b0:	e24dd008 	sub	sp, sp, #8
  1018b4:	e50b0008 	str	r0, [fp, #-8]
	xil_printf("ISR:\r\n");
  1018b8:	e30003c0 	movw	r0, #960	; 0x3c0
  1018bc:	e3400012 	movt	r0, #18
  1018c0:	eb000aba 	bl	1043b0 <xil_printf>

	xout_data = MY_CORDIC_mReadReg( XPAR_MY_CORDIC_0_S00_AXI_BASEADDR, MY_CORDIC_S00_AXI_SLV_REG1_OFFSET );
  1018c4:	e3a00004 	mov	r0, #4
  1018c8:	e34403c0 	movt	r0, #17344	; 0x43c0
  1018cc:	eb000a15 	bl	104128 <Xil_In32>
  1018d0:	e1a02000 	mov	r2, r0
  1018d4:	e30c3ae8 	movw	r3, #51944	; 0xcae8
  1018d8:	e3403012 	movt	r3, #18
  1018dc:	e5832000 	str	r2, [r3]
	//xil_printf("	Reg1 Status: 0x%08x\n", data);
	xout_data= xout_data&(~0x1);
  1018e0:	e30c3ae8 	movw	r3, #51944	; 0xcae8
  1018e4:	e3403012 	movt	r3, #18
  1018e8:	e5933000 	ldr	r3, [r3]
  1018ec:	e3c32001 	bic	r2, r3, #1
  1018f0:	e30c3ae8 	movw	r3, #51944	; 0xcae8
  1018f4:	e3403012 	movt	r3, #18
  1018f8:	e5832000 	str	r2, [r3]
    MY_CORDIC_mWriteReg(XPAR_MY_CORDIC_0_S00_AXI_BASEADDR, MY_CORDIC_S00_AXI_SLV_REG1_OFFSET,xout_data   );
  1018fc:	e30c3ae8 	movw	r3, #51944	; 0xcae8
  101900:	e3403012 	movt	r3, #18
  101904:	e5933000 	ldr	r3, [r3]
  101908:	e1a01003 	mov	r1, r3
  10190c:	e3a00004 	mov	r0, #4
  101910:	e34403c0 	movt	r0, #17344	; 0x43c0
  101914:	eb000a09 	bl	104140 <Xil_Out32>

    xout_data = MY_CORDIC_mReadReg( XPAR_MY_CORDIC_0_S00_AXI_BASEADDR, MY_CORDIC_S00_AXI_SLV_REG1_OFFSET );
  101918:	e3a00004 	mov	r0, #4
  10191c:	e34403c0 	movt	r0, #17344	; 0x43c0
  101920:	eb000a00 	bl	104128 <Xil_In32>
  101924:	e1a02000 	mov	r2, r0
  101928:	e30c3ae8 	movw	r3, #51944	; 0xcae8
  10192c:	e3403012 	movt	r3, #18
  101930:	e5832000 	str	r2, [r3]
    xil_printf("ISR-Cleared- Reg1 Status: 0x%08x\n", xout_data);
  101934:	e30c3ae8 	movw	r3, #51944	; 0xcae8
  101938:	e3403012 	movt	r3, #18
  10193c:	e5933000 	ldr	r3, [r3]
  101940:	e1a01003 	mov	r1, r3
  101944:	e30003c8 	movw	r0, #968	; 0x3c8
  101948:	e3400012 	movt	r0, #18
  10194c:	eb000a97 	bl	1043b0 <xil_printf>

    xout_data = MY_CORDIC_mReadReg( XPAR_MY_CORDIC_0_S00_AXI_BASEADDR, MY_CORDIC_S00_AXI_SLV_REG5_OFFSET );
  101950:	e3a00014 	mov	r0, #20
  101954:	e34403c0 	movt	r0, #17344	; 0x43c0
  101958:	eb0009f2 	bl	104128 <Xil_In32>
  10195c:	e1a02000 	mov	r2, r0
  101960:	e30c3ae8 	movw	r3, #51944	; 0xcae8
  101964:	e3403012 	movt	r3, #18
  101968:	e5832000 	str	r2, [r3]
    yout_data = MY_CORDIC_mReadReg( XPAR_MY_CORDIC_0_S00_AXI_BASEADDR, MY_CORDIC_S00_AXI_SLV_REG6_OFFSET );
  10196c:	e3a00018 	mov	r0, #24
  101970:	e34403c0 	movt	r0, #17344	; 0x43c0
  101974:	eb0009eb 	bl	104128 <Xil_In32>
  101978:	e1a02000 	mov	r2, r0
  10197c:	e30c3ad8 	movw	r3, #51928	; 0xcad8
  101980:	e3403012 	movt	r3, #18
  101984:	e5832000 	str	r2, [r3]
    zout_data = MY_CORDIC_mReadReg( XPAR_MY_CORDIC_0_S00_AXI_BASEADDR, MY_CORDIC_S00_AXI_SLV_REG7_OFFSET );
  101988:	e3a0001c 	mov	r0, #28
  10198c:	e34403c0 	movt	r0, #17344	; 0x43c0
  101990:	eb0009e4 	bl	104128 <Xil_In32>
  101994:	e1a02000 	mov	r2, r0
  101998:	e30c3860 	movw	r3, #51296	; 0xc860
  10199c:	e3403012 	movt	r3, #18
  1019a0:	e5832000 	str	r2, [r3]
	//InterruptProcessed = TRUE;
	Interrupt_flag =1;
  1019a4:	e30c3040 	movw	r3, #49216	; 0xc040
  1019a8:	e3403012 	movt	r3, #18
  1019ac:	e3a02001 	mov	r2, #1
  1019b0:	e5832000 	str	r2, [r3]



}
  1019b4:	e24bd004 	sub	sp, fp, #4
  1019b8:	e8bd8800 	pop	{fp, pc}

001019bc <XDcfg_CfgInitialize>:
  1019bc:	e92d41f0 	push	{r4, r5, r6, r7, r8, lr}
  1019c0:	e2506000 	subs	r6, r0, #0
  1019c4:	0a00001a 	beq	101a34 <XDcfg_CfgInitialize+0x78>
  1019c8:	e30c5aec 	movw	r5, #51948	; 0xcaec
  1019cc:	e3510000 	cmp	r1, #0
  1019d0:	e3405012 	movt	r5, #18
  1019d4:	e3a04000 	mov	r4, #0
  1019d8:	e1a07001 	mov	r7, r1
  1019dc:	e5854000 	str	r4, [r5]
  1019e0:	0a00001d 	beq	101a5c <XDcfg_CfgInitialize+0xa0>
  1019e4:	e596100c 	ldr	r1, [r6, #12]
  1019e8:	e3023222 	movw	r3, #8738	; 0x2222
  1019ec:	e3423222 	movt	r3, #8738	; 0x2222
  1019f0:	e1510003 	cmp	r1, r3
  1019f4:	1a000001 	bne	101a00 <XDcfg_CfgInitialize+0x44>
  1019f8:	e3a00005 	mov	r0, #5
  1019fc:	e8bd81f0 	pop	{r4, r5, r6, r7, r8, pc}
  101a00:	e1d730b0 	ldrh	r3, [r7]
  101a04:	e30d1f0d 	movw	r1, #57101	; 0xdf0d
  101a08:	e2820034 	add	r0, r2, #52	; 0x34
  101a0c:	e5862004 	str	r2, [r6, #4]
  101a10:	e586400c 	str	r4, [r6, #12]
  101a14:	e347157b 	movt	r1, #30075	; 0x757b
  101a18:	e1c630b0 	strh	r3, [r6]
  101a1c:	eb0009c7 	bl	104140 <Xil_Out32>
  101a20:	e3013111 	movw	r3, #4369	; 0x1111
  101a24:	e1a00004 	mov	r0, r4
  101a28:	e7df3813 	bfi	r3, r3, #16, #16
  101a2c:	e5863008 	str	r3, [r6, #8]
  101a30:	e8bd81f0 	pop	{r4, r5, r6, r7, r8, pc}
  101a34:	e3030d90 	movw	r0, #15760	; 0x3d90
  101a38:	e3a01089 	mov	r1, #137	; 0x89
  101a3c:	e3400012 	movt	r0, #18
  101a40:	eb000712 	bl	103690 <Xil_Assert>
  101a44:	e30c3aec 	movw	r3, #51948	; 0xcaec
  101a48:	e3a02001 	mov	r2, #1
  101a4c:	e3403012 	movt	r3, #18
  101a50:	e1a00006 	mov	r0, r6
  101a54:	e5832000 	str	r2, [r3]
  101a58:	e8bd81f0 	pop	{r4, r5, r6, r7, r8, pc}
  101a5c:	e3030d90 	movw	r0, #15760	; 0x3d90
  101a60:	e3a0108a 	mov	r1, #138	; 0x8a
  101a64:	e3400012 	movt	r0, #18
  101a68:	eb000708 	bl	103690 <Xil_Assert>
  101a6c:	e3a03001 	mov	r3, #1
  101a70:	e1a00007 	mov	r0, r7
  101a74:	e5853000 	str	r3, [r5]
  101a78:	e8bd81f0 	pop	{r4, r5, r6, r7, r8, pc}

00101a7c <XDcfg_EnablePCAP>:
  101a7c:	e92d4070 	push	{r4, r5, r6, lr}
  101a80:	e2505000 	subs	r5, r0, #0
  101a84:	0a000015 	beq	101ae0 <XDcfg_EnablePCAP+0x64>
  101a88:	e5951008 	ldr	r1, [r5, #8]
  101a8c:	e3013111 	movw	r3, #4369	; 0x1111
  101a90:	e3413111 	movt	r3, #4369	; 0x1111
  101a94:	e30c4aec 	movw	r4, #51948	; 0xcaec
  101a98:	e3404012 	movt	r4, #18
  101a9c:	e3a02000 	mov	r2, #0
  101aa0:	e1510003 	cmp	r1, r3
  101aa4:	e5842000 	str	r2, [r4]
  101aa8:	0a000006 	beq	101ac8 <XDcfg_EnablePCAP+0x4c>
  101aac:	e3030d90 	movw	r0, #15760	; 0x3d90
  101ab0:	e3a010c5 	mov	r1, #197	; 0xc5
  101ab4:	e3400012 	movt	r0, #18
  101ab8:	eb0006f4 	bl	103690 <Xil_Assert>
  101abc:	e3a03001 	mov	r3, #1
  101ac0:	e5843000 	str	r3, [r4]
  101ac4:	e8bd8070 	pop	{r4, r5, r6, pc}
  101ac8:	e5950004 	ldr	r0, [r5, #4]
  101acc:	eb000995 	bl	104128 <Xil_In32>
  101ad0:	e3801301 	orr	r1, r0, #67108864	; 0x4000000
  101ad4:	e5950004 	ldr	r0, [r5, #4]
  101ad8:	e8bd4070 	pop	{r4, r5, r6, lr}
  101adc:	ea000997 	b	104140 <Xil_Out32>
  101ae0:	e3030d90 	movw	r0, #15760	; 0x3d90
  101ae4:	e3a010c4 	mov	r1, #196	; 0xc4
  101ae8:	e3400012 	movt	r0, #18
  101aec:	eb0006e7 	bl	103690 <Xil_Assert>
  101af0:	e30c3aec 	movw	r3, #51948	; 0xcaec
  101af4:	e3a02001 	mov	r2, #1
  101af8:	e3403012 	movt	r3, #18
  101afc:	e5832000 	str	r2, [r3]
  101b00:	e8bd8070 	pop	{r4, r5, r6, pc}

00101b04 <XDcfg_DisablePCAP>:
  101b04:	e92d4070 	push	{r4, r5, r6, lr}
  101b08:	e2505000 	subs	r5, r0, #0
  101b0c:	0a000015 	beq	101b68 <XDcfg_DisablePCAP+0x64>
  101b10:	e5951008 	ldr	r1, [r5, #8]
  101b14:	e3013111 	movw	r3, #4369	; 0x1111
  101b18:	e3413111 	movt	r3, #4369	; 0x1111
  101b1c:	e30c4aec 	movw	r4, #51948	; 0xcaec
  101b20:	e3404012 	movt	r4, #18
  101b24:	e3a02000 	mov	r2, #0
  101b28:	e1510003 	cmp	r1, r3
  101b2c:	e5842000 	str	r2, [r4]
  101b30:	0a000006 	beq	101b50 <XDcfg_DisablePCAP+0x4c>
  101b34:	e3030d90 	movw	r0, #15760	; 0x3d90
  101b38:	e3a010e4 	mov	r1, #228	; 0xe4
  101b3c:	e3400012 	movt	r0, #18
  101b40:	eb0006d2 	bl	103690 <Xil_Assert>
  101b44:	e3a03001 	mov	r3, #1
  101b48:	e5843000 	str	r3, [r4]
  101b4c:	e8bd8070 	pop	{r4, r5, r6, pc}
  101b50:	e5950004 	ldr	r0, [r5, #4]
  101b54:	eb000973 	bl	104128 <Xil_In32>
  101b58:	e3c01301 	bic	r1, r0, #67108864	; 0x4000000
  101b5c:	e5950004 	ldr	r0, [r5, #4]
  101b60:	e8bd4070 	pop	{r4, r5, r6, lr}
  101b64:	ea000975 	b	104140 <Xil_Out32>
  101b68:	e3030d90 	movw	r0, #15760	; 0x3d90
  101b6c:	e3a010e3 	mov	r1, #227	; 0xe3
  101b70:	e3400012 	movt	r0, #18
  101b74:	eb0006c5 	bl	103690 <Xil_Assert>
  101b78:	e30c3aec 	movw	r3, #51948	; 0xcaec
  101b7c:	e3a02001 	mov	r2, #1
  101b80:	e3403012 	movt	r3, #18
  101b84:	e5832000 	str	r2, [r3]
  101b88:	e8bd8070 	pop	{r4, r5, r6, pc}

00101b8c <XDcfg_SetControlRegister>:
  101b8c:	e92d4030 	push	{r4, r5, lr}
  101b90:	e2505000 	subs	r5, r0, #0
  101b94:	e24dd00c 	sub	sp, sp, #12
  101b98:	0a000019 	beq	101c04 <XDcfg_SetControlRegister+0x78>
  101b9c:	e5950008 	ldr	r0, [r5, #8]
  101ba0:	e3013111 	movw	r3, #4369	; 0x1111
  101ba4:	e3413111 	movt	r3, #4369	; 0x1111
  101ba8:	e30c4aec 	movw	r4, #51948	; 0xcaec
  101bac:	e3404012 	movt	r4, #18
  101bb0:	e3a02000 	mov	r2, #0
  101bb4:	e1500003 	cmp	r0, r3
  101bb8:	e5842000 	str	r2, [r4]
  101bbc:	0a000007 	beq	101be0 <XDcfg_SetControlRegister+0x54>
  101bc0:	e3030d90 	movw	r0, #15760	; 0x3d90
  101bc4:	e3a01f41 	mov	r1, #260	; 0x104
  101bc8:	e3400012 	movt	r0, #18
  101bcc:	eb0006af 	bl	103690 <Xil_Assert>
  101bd0:	e3a03001 	mov	r3, #1
  101bd4:	e5843000 	str	r3, [r4]
  101bd8:	e28dd00c 	add	sp, sp, #12
  101bdc:	e8bd8030 	pop	{r4, r5, pc}
  101be0:	e5950004 	ldr	r0, [r5, #4]
  101be4:	e58d1004 	str	r1, [sp, #4]
  101be8:	eb00094e 	bl	104128 <Xil_In32>
  101bec:	e59d1004 	ldr	r1, [sp, #4]
  101bf0:	e1801001 	orr	r1, r0, r1
  101bf4:	e5950004 	ldr	r0, [r5, #4]
  101bf8:	e28dd00c 	add	sp, sp, #12
  101bfc:	e8bd4030 	pop	{r4, r5, lr}
  101c00:	ea00094e 	b	104140 <Xil_Out32>
  101c04:	e3030d90 	movw	r0, #15760	; 0x3d90
  101c08:	e3001103 	movw	r1, #259	; 0x103
  101c0c:	e3400012 	movt	r0, #18
  101c10:	eb00069e 	bl	103690 <Xil_Assert>
  101c14:	e30c3aec 	movw	r3, #51948	; 0xcaec
  101c18:	e3a02001 	mov	r2, #1
  101c1c:	e3403012 	movt	r3, #18
  101c20:	e5832000 	str	r2, [r3]
  101c24:	eaffffeb 	b	101bd8 <XDcfg_SetControlRegister+0x4c>

00101c28 <XDcfg_ClearControlRegister>:
  101c28:	e92d4030 	push	{r4, r5, lr}
  101c2c:	e2505000 	subs	r5, r0, #0
  101c30:	e24dd00c 	sub	sp, sp, #12
  101c34:	0a000019 	beq	101ca0 <XDcfg_ClearControlRegister+0x78>
  101c38:	e5950008 	ldr	r0, [r5, #8]
  101c3c:	e3013111 	movw	r3, #4369	; 0x1111
  101c40:	e3413111 	movt	r3, #4369	; 0x1111
  101c44:	e30c4aec 	movw	r4, #51948	; 0xcaec
  101c48:	e3404012 	movt	r4, #18
  101c4c:	e3a02000 	mov	r2, #0
  101c50:	e1500003 	cmp	r0, r3
  101c54:	e5842000 	str	r2, [r4]
  101c58:	0a000007 	beq	101c7c <XDcfg_ClearControlRegister+0x54>
  101c5c:	e3030d90 	movw	r0, #15760	; 0x3d90
  101c60:	e3001123 	movw	r1, #291	; 0x123
  101c64:	e3400012 	movt	r0, #18
  101c68:	eb000688 	bl	103690 <Xil_Assert>
  101c6c:	e3a03001 	mov	r3, #1
  101c70:	e5843000 	str	r3, [r4]
  101c74:	e28dd00c 	add	sp, sp, #12
  101c78:	e8bd8030 	pop	{r4, r5, pc}
  101c7c:	e5950004 	ldr	r0, [r5, #4]
  101c80:	e58d1004 	str	r1, [sp, #4]
  101c84:	eb000927 	bl	104128 <Xil_In32>
  101c88:	e59d1004 	ldr	r1, [sp, #4]
  101c8c:	e1c01001 	bic	r1, r0, r1
  101c90:	e5950004 	ldr	r0, [r5, #4]
  101c94:	e28dd00c 	add	sp, sp, #12
  101c98:	e8bd4030 	pop	{r4, r5, lr}
  101c9c:	ea000927 	b	104140 <Xil_Out32>
  101ca0:	e3030d90 	movw	r0, #15760	; 0x3d90
  101ca4:	e3001122 	movw	r1, #290	; 0x122
  101ca8:	e3400012 	movt	r0, #18
  101cac:	eb000677 	bl	103690 <Xil_Assert>
  101cb0:	e30c3aec 	movw	r3, #51948	; 0xcaec
  101cb4:	e3a02001 	mov	r2, #1
  101cb8:	e3403012 	movt	r3, #18
  101cbc:	e5832000 	str	r2, [r3]
  101cc0:	eaffffeb 	b	101c74 <XDcfg_ClearControlRegister+0x4c>

00101cc4 <XDcfg_GetControlRegister>:
  101cc4:	e3500000 	cmp	r0, #0
  101cc8:	e92d4010 	push	{r4, lr}
  101ccc:	0a000013 	beq	101d20 <XDcfg_GetControlRegister+0x5c>
  101cd0:	e5901008 	ldr	r1, [r0, #8]
  101cd4:	e3013111 	movw	r3, #4369	; 0x1111
  101cd8:	e3413111 	movt	r3, #4369	; 0x1111
  101cdc:	e30c4aec 	movw	r4, #51948	; 0xcaec
  101ce0:	e3404012 	movt	r4, #18
  101ce4:	e3a02000 	mov	r2, #0
  101ce8:	e1510003 	cmp	r1, r3
  101cec:	e5842000 	str	r2, [r4]
  101cf0:	0a000007 	beq	101d14 <XDcfg_GetControlRegister+0x50>
  101cf4:	e3030d90 	movw	r0, #15760	; 0x3d90
  101cf8:	e3001143 	movw	r1, #323	; 0x143
  101cfc:	e3400012 	movt	r0, #18
  101d00:	eb000662 	bl	103690 <Xil_Assert>
  101d04:	e3a03001 	mov	r3, #1
  101d08:	e5843000 	str	r3, [r4]
  101d0c:	e3a00000 	mov	r0, #0
  101d10:	e8bd8010 	pop	{r4, pc}
  101d14:	e5900004 	ldr	r0, [r0, #4]
  101d18:	e8bd4010 	pop	{r4, lr}
  101d1c:	ea000901 	b	104128 <Xil_In32>
  101d20:	e3030d90 	movw	r0, #15760	; 0x3d90
  101d24:	e3001142 	movw	r1, #322	; 0x142
  101d28:	e3400012 	movt	r0, #18
  101d2c:	eb000657 	bl	103690 <Xil_Assert>
  101d30:	e30c3aec 	movw	r3, #51948	; 0xcaec
  101d34:	e3a02001 	mov	r2, #1
  101d38:	e3403012 	movt	r3, #18
  101d3c:	e5832000 	str	r2, [r3]
  101d40:	eafffff1 	b	101d0c <XDcfg_GetControlRegister+0x48>

00101d44 <XDcfg_SetLockRegister>:
  101d44:	e3500000 	cmp	r0, #0
  101d48:	e92d4010 	push	{r4, lr}
  101d4c:	0a000013 	beq	101da0 <XDcfg_SetLockRegister+0x5c>
  101d50:	e590c008 	ldr	ip, [r0, #8]
  101d54:	e3013111 	movw	r3, #4369	; 0x1111
  101d58:	e3413111 	movt	r3, #4369	; 0x1111
  101d5c:	e30c4aec 	movw	r4, #51948	; 0xcaec
  101d60:	e3404012 	movt	r4, #18
  101d64:	e3a02000 	mov	r2, #0
  101d68:	e15c0003 	cmp	ip, r3
  101d6c:	e5842000 	str	r2, [r4]
  101d70:	0a000006 	beq	101d90 <XDcfg_SetLockRegister+0x4c>
  101d74:	e3030d90 	movw	r0, #15760	; 0x3d90
  101d78:	e300115f 	movw	r1, #351	; 0x15f
  101d7c:	e3400012 	movt	r0, #18
  101d80:	eb000642 	bl	103690 <Xil_Assert>
  101d84:	e3a03001 	mov	r3, #1
  101d88:	e5843000 	str	r3, [r4]
  101d8c:	e8bd8010 	pop	{r4, pc}
  101d90:	e5900004 	ldr	r0, [r0, #4]
  101d94:	e8bd4010 	pop	{r4, lr}
  101d98:	e2800004 	add	r0, r0, #4
  101d9c:	ea0008e7 	b	104140 <Xil_Out32>
  101da0:	e3030d90 	movw	r0, #15760	; 0x3d90
  101da4:	e300115e 	movw	r1, #350	; 0x15e
  101da8:	e3400012 	movt	r0, #18
  101dac:	eb000637 	bl	103690 <Xil_Assert>
  101db0:	e30c3aec 	movw	r3, #51948	; 0xcaec
  101db4:	e3a02001 	mov	r2, #1
  101db8:	e3403012 	movt	r3, #18
  101dbc:	e5832000 	str	r2, [r3]
  101dc0:	e8bd8010 	pop	{r4, pc}

00101dc4 <XDcfg_GetLockRegister>:
  101dc4:	e3500000 	cmp	r0, #0
  101dc8:	e92d4010 	push	{r4, lr}
  101dcc:	0a000014 	beq	101e24 <XDcfg_GetLockRegister+0x60>
  101dd0:	e5901008 	ldr	r1, [r0, #8]
  101dd4:	e3013111 	movw	r3, #4369	; 0x1111
  101dd8:	e3413111 	movt	r3, #4369	; 0x1111
  101ddc:	e30c4aec 	movw	r4, #51948	; 0xcaec
  101de0:	e3404012 	movt	r4, #18
  101de4:	e3a02000 	mov	r2, #0
  101de8:	e1510003 	cmp	r1, r3
  101dec:	e5842000 	str	r2, [r4]
  101df0:	0a000007 	beq	101e14 <XDcfg_GetLockRegister+0x50>
  101df4:	e3030d90 	movw	r0, #15760	; 0x3d90
  101df8:	e300117a 	movw	r1, #378	; 0x17a
  101dfc:	e3400012 	movt	r0, #18
  101e00:	eb000622 	bl	103690 <Xil_Assert>
  101e04:	e3a03001 	mov	r3, #1
  101e08:	e5843000 	str	r3, [r4]
  101e0c:	e3a00000 	mov	r0, #0
  101e10:	e8bd8010 	pop	{r4, pc}
  101e14:	e5900004 	ldr	r0, [r0, #4]
  101e18:	e8bd4010 	pop	{r4, lr}
  101e1c:	e2800004 	add	r0, r0, #4
  101e20:	ea0008c0 	b	104128 <Xil_In32>
  101e24:	e3030d90 	movw	r0, #15760	; 0x3d90
  101e28:	e3001179 	movw	r1, #377	; 0x179
  101e2c:	e3400012 	movt	r0, #18
  101e30:	eb000616 	bl	103690 <Xil_Assert>
  101e34:	e30c3aec 	movw	r3, #51948	; 0xcaec
  101e38:	e3a02001 	mov	r2, #1
  101e3c:	e3403012 	movt	r3, #18
  101e40:	e5832000 	str	r2, [r3]
  101e44:	eafffff0 	b	101e0c <XDcfg_GetLockRegister+0x48>

00101e48 <XDcfg_SetConfigRegister>:
  101e48:	e3500000 	cmp	r0, #0
  101e4c:	e92d4010 	push	{r4, lr}
  101e50:	0a000013 	beq	101ea4 <XDcfg_SetConfigRegister+0x5c>
  101e54:	e590c008 	ldr	ip, [r0, #8]
  101e58:	e3013111 	movw	r3, #4369	; 0x1111
  101e5c:	e3413111 	movt	r3, #4369	; 0x1111
  101e60:	e30c4aec 	movw	r4, #51948	; 0xcaec
  101e64:	e3404012 	movt	r4, #18
  101e68:	e3a02000 	mov	r2, #0
  101e6c:	e15c0003 	cmp	ip, r3
  101e70:	e5842000 	str	r2, [r4]
  101e74:	0a000006 	beq	101e94 <XDcfg_SetConfigRegister+0x4c>
  101e78:	e3030d90 	movw	r0, #15760	; 0x3d90
  101e7c:	e3001196 	movw	r1, #406	; 0x196
  101e80:	e3400012 	movt	r0, #18
  101e84:	eb000601 	bl	103690 <Xil_Assert>
  101e88:	e3a03001 	mov	r3, #1
  101e8c:	e5843000 	str	r3, [r4]
  101e90:	e8bd8010 	pop	{r4, pc}
  101e94:	e5900004 	ldr	r0, [r0, #4]
  101e98:	e8bd4010 	pop	{r4, lr}
  101e9c:	e2800008 	add	r0, r0, #8
  101ea0:	ea0008a6 	b	104140 <Xil_Out32>
  101ea4:	e3030d90 	movw	r0, #15760	; 0x3d90
  101ea8:	e3001195 	movw	r1, #405	; 0x195
  101eac:	e3400012 	movt	r0, #18
  101eb0:	eb0005f6 	bl	103690 <Xil_Assert>
  101eb4:	e30c3aec 	movw	r3, #51948	; 0xcaec
  101eb8:	e3a02001 	mov	r2, #1
  101ebc:	e3403012 	movt	r3, #18
  101ec0:	e5832000 	str	r2, [r3]
  101ec4:	e8bd8010 	pop	{r4, pc}

00101ec8 <XDcfg_GetConfigRegister>:
  101ec8:	e3500000 	cmp	r0, #0
  101ecc:	e92d4010 	push	{r4, lr}
  101ed0:	0a000014 	beq	101f28 <XDcfg_GetConfigRegister+0x60>
  101ed4:	e5901008 	ldr	r1, [r0, #8]
  101ed8:	e3013111 	movw	r3, #4369	; 0x1111
  101edc:	e3413111 	movt	r3, #4369	; 0x1111
  101ee0:	e30c4aec 	movw	r4, #51948	; 0xcaec
  101ee4:	e3404012 	movt	r4, #18
  101ee8:	e3a02000 	mov	r2, #0
  101eec:	e1510003 	cmp	r1, r3
  101ef0:	e5842000 	str	r2, [r4]
  101ef4:	0a000007 	beq	101f18 <XDcfg_GetConfigRegister+0x50>
  101ef8:	e3030d90 	movw	r0, #15760	; 0x3d90
  101efc:	e30011b2 	movw	r1, #434	; 0x1b2
  101f00:	e3400012 	movt	r0, #18
  101f04:	eb0005e1 	bl	103690 <Xil_Assert>
  101f08:	e3a03001 	mov	r3, #1
  101f0c:	e5843000 	str	r3, [r4]
  101f10:	e3a00000 	mov	r0, #0
  101f14:	e8bd8010 	pop	{r4, pc}
  101f18:	e5900004 	ldr	r0, [r0, #4]
  101f1c:	e8bd4010 	pop	{r4, lr}
  101f20:	e2800008 	add	r0, r0, #8
  101f24:	ea00087f 	b	104128 <Xil_In32>
  101f28:	e3030d90 	movw	r0, #15760	; 0x3d90
  101f2c:	e30011b1 	movw	r1, #433	; 0x1b1
  101f30:	e3400012 	movt	r0, #18
  101f34:	eb0005d5 	bl	103690 <Xil_Assert>
  101f38:	e30c3aec 	movw	r3, #51948	; 0xcaec
  101f3c:	e3a02001 	mov	r2, #1
  101f40:	e3403012 	movt	r3, #18
  101f44:	e5832000 	str	r2, [r3]
  101f48:	eafffff0 	b	101f10 <XDcfg_GetConfigRegister+0x48>

00101f4c <XDcfg_SetStatusRegister>:
  101f4c:	e3500000 	cmp	r0, #0
  101f50:	e92d4010 	push	{r4, lr}
  101f54:	0a000013 	beq	101fa8 <XDcfg_SetStatusRegister+0x5c>
  101f58:	e590c008 	ldr	ip, [r0, #8]
  101f5c:	e3013111 	movw	r3, #4369	; 0x1111
  101f60:	e3413111 	movt	r3, #4369	; 0x1111
  101f64:	e30c4aec 	movw	r4, #51948	; 0xcaec
  101f68:	e3404012 	movt	r4, #18
  101f6c:	e3a02000 	mov	r2, #0
  101f70:	e15c0003 	cmp	ip, r3
  101f74:	e5842000 	str	r2, [r4]
  101f78:	0a000006 	beq	101f98 <XDcfg_SetStatusRegister+0x4c>
  101f7c:	e3030d90 	movw	r0, #15760	; 0x3d90
  101f80:	e30011cb 	movw	r1, #459	; 0x1cb
  101f84:	e3400012 	movt	r0, #18
  101f88:	eb0005c0 	bl	103690 <Xil_Assert>
  101f8c:	e3a03001 	mov	r3, #1
  101f90:	e5843000 	str	r3, [r4]
  101f94:	e8bd8010 	pop	{r4, pc}
  101f98:	e5900004 	ldr	r0, [r0, #4]
  101f9c:	e8bd4010 	pop	{r4, lr}
  101fa0:	e2800014 	add	r0, r0, #20
  101fa4:	ea000865 	b	104140 <Xil_Out32>
  101fa8:	e3030d90 	movw	r0, #15760	; 0x3d90
  101fac:	e30011ca 	movw	r1, #458	; 0x1ca
  101fb0:	e3400012 	movt	r0, #18
  101fb4:	eb0005b5 	bl	103690 <Xil_Assert>
  101fb8:	e30c3aec 	movw	r3, #51948	; 0xcaec
  101fbc:	e3a02001 	mov	r2, #1
  101fc0:	e3403012 	movt	r3, #18
  101fc4:	e5832000 	str	r2, [r3]
  101fc8:	e8bd8010 	pop	{r4, pc}

00101fcc <XDcfg_GetStatusRegister>:
  101fcc:	e3500000 	cmp	r0, #0
  101fd0:	e92d4010 	push	{r4, lr}
  101fd4:	0a000014 	beq	10202c <XDcfg_GetStatusRegister+0x60>
  101fd8:	e5901008 	ldr	r1, [r0, #8]
  101fdc:	e3013111 	movw	r3, #4369	; 0x1111
  101fe0:	e3413111 	movt	r3, #4369	; 0x1111
  101fe4:	e30c4aec 	movw	r4, #51948	; 0xcaec
  101fe8:	e3404012 	movt	r4, #18
  101fec:	e3a02000 	mov	r2, #0
  101ff0:	e1510003 	cmp	r1, r3
  101ff4:	e5842000 	str	r2, [r4]
  101ff8:	0a000007 	beq	10201c <XDcfg_GetStatusRegister+0x50>
  101ffc:	e3030d90 	movw	r0, #15760	; 0x3d90
  102000:	e30011e6 	movw	r1, #486	; 0x1e6
  102004:	e3400012 	movt	r0, #18
  102008:	eb0005a0 	bl	103690 <Xil_Assert>
  10200c:	e3a03001 	mov	r3, #1
  102010:	e5843000 	str	r3, [r4]
  102014:	e3a00000 	mov	r0, #0
  102018:	e8bd8010 	pop	{r4, pc}
  10201c:	e5900004 	ldr	r0, [r0, #4]
  102020:	e8bd4010 	pop	{r4, lr}
  102024:	e2800014 	add	r0, r0, #20
  102028:	ea00083e 	b	104128 <Xil_In32>
  10202c:	e3030d90 	movw	r0, #15760	; 0x3d90
  102030:	e30011e5 	movw	r1, #485	; 0x1e5
  102034:	e3400012 	movt	r0, #18
  102038:	eb000594 	bl	103690 <Xil_Assert>
  10203c:	e30c3aec 	movw	r3, #51948	; 0xcaec
  102040:	e3a02001 	mov	r2, #1
  102044:	e3403012 	movt	r3, #18
  102048:	e5832000 	str	r2, [r3]
  10204c:	eafffff0 	b	102014 <XDcfg_GetStatusRegister+0x48>

00102050 <XDcfg_SetRomShadowRegister>:
  102050:	e3500000 	cmp	r0, #0
  102054:	e92d4010 	push	{r4, lr}
  102058:	0a000013 	beq	1020ac <XDcfg_SetRomShadowRegister+0x5c>
  10205c:	e590c008 	ldr	ip, [r0, #8]
  102060:	e3013111 	movw	r3, #4369	; 0x1111
  102064:	e3413111 	movt	r3, #4369	; 0x1111
  102068:	e30c4aec 	movw	r4, #51948	; 0xcaec
  10206c:	e3404012 	movt	r4, #18
  102070:	e3a02000 	mov	r2, #0
  102074:	e15c0003 	cmp	ip, r3
  102078:	e5842000 	str	r2, [r4]
  10207c:	0a000006 	beq	10209c <XDcfg_SetRomShadowRegister+0x4c>
  102080:	e3030d90 	movw	r0, #15760	; 0x3d90
  102084:	e3001202 	movw	r1, #514	; 0x202
  102088:	e3400012 	movt	r0, #18
  10208c:	eb00057f 	bl	103690 <Xil_Assert>
  102090:	e3a03001 	mov	r3, #1
  102094:	e5843000 	str	r3, [r4]
  102098:	e8bd8010 	pop	{r4, pc}
  10209c:	e5900004 	ldr	r0, [r0, #4]
  1020a0:	e8bd4010 	pop	{r4, lr}
  1020a4:	e2800028 	add	r0, r0, #40	; 0x28
  1020a8:	ea000824 	b	104140 <Xil_Out32>
  1020ac:	e3030d90 	movw	r0, #15760	; 0x3d90
  1020b0:	e3001201 	movw	r1, #513	; 0x201
  1020b4:	e3400012 	movt	r0, #18
  1020b8:	eb000574 	bl	103690 <Xil_Assert>
  1020bc:	e30c3aec 	movw	r3, #51948	; 0xcaec
  1020c0:	e3a02001 	mov	r2, #1
  1020c4:	e3403012 	movt	r3, #18
  1020c8:	e5832000 	str	r2, [r3]
  1020cc:	e8bd8010 	pop	{r4, pc}

001020d0 <XDcfg_GetSoftwareIdRegister>:
  1020d0:	e3500000 	cmp	r0, #0
  1020d4:	e92d4010 	push	{r4, lr}
  1020d8:	0a000014 	beq	102130 <XDcfg_GetSoftwareIdRegister+0x60>
  1020dc:	e5901008 	ldr	r1, [r0, #8]
  1020e0:	e3013111 	movw	r3, #4369	; 0x1111
  1020e4:	e3413111 	movt	r3, #4369	; 0x1111
  1020e8:	e30c4aec 	movw	r4, #51948	; 0xcaec
  1020ec:	e3404012 	movt	r4, #18
  1020f0:	e3a02000 	mov	r2, #0
  1020f4:	e1510003 	cmp	r1, r3
  1020f8:	e5842000 	str	r2, [r4]
  1020fc:	0a000007 	beq	102120 <XDcfg_GetSoftwareIdRegister+0x50>
  102100:	e3030d90 	movw	r0, #15760	; 0x3d90
  102104:	e3a01f87 	mov	r1, #540	; 0x21c
  102108:	e3400012 	movt	r0, #18
  10210c:	eb00055f 	bl	103690 <Xil_Assert>
  102110:	e3a03001 	mov	r3, #1
  102114:	e5843000 	str	r3, [r4]
  102118:	e3a00000 	mov	r0, #0
  10211c:	e8bd8010 	pop	{r4, pc}
  102120:	e5900004 	ldr	r0, [r0, #4]
  102124:	e8bd4010 	pop	{r4, lr}
  102128:	e2800030 	add	r0, r0, #48	; 0x30
  10212c:	ea0007fd 	b	104128 <Xil_In32>
  102130:	e3030d90 	movw	r0, #15760	; 0x3d90
  102134:	e300121b 	movw	r1, #539	; 0x21b
  102138:	e3400012 	movt	r0, #18
  10213c:	eb000553 	bl	103690 <Xil_Assert>
  102140:	e30c3aec 	movw	r3, #51948	; 0xcaec
  102144:	e3a02001 	mov	r2, #1
  102148:	e3403012 	movt	r3, #18
  10214c:	e5832000 	str	r2, [r3]
  102150:	eafffff0 	b	102118 <XDcfg_GetSoftwareIdRegister+0x48>

00102154 <XDcfg_SetMiscControlRegister>:
  102154:	e92d4030 	push	{r4, r5, lr}
  102158:	e2505000 	subs	r5, r0, #0
  10215c:	e24dd00c 	sub	sp, sp, #12
  102160:	0a00001b 	beq	1021d4 <XDcfg_SetMiscControlRegister+0x80>
  102164:	e5950008 	ldr	r0, [r5, #8]
  102168:	e3013111 	movw	r3, #4369	; 0x1111
  10216c:	e3413111 	movt	r3, #4369	; 0x1111
  102170:	e30c4aec 	movw	r4, #51948	; 0xcaec
  102174:	e3404012 	movt	r4, #18
  102178:	e3a02000 	mov	r2, #0
  10217c:	e1500003 	cmp	r0, r3
  102180:	e5842000 	str	r2, [r4]
  102184:	0a000007 	beq	1021a8 <XDcfg_SetMiscControlRegister+0x54>
  102188:	e3030d90 	movw	r0, #15760	; 0x3d90
  10218c:	e300123a 	movw	r1, #570	; 0x23a
  102190:	e3400012 	movt	r0, #18
  102194:	eb00053d 	bl	103690 <Xil_Assert>
  102198:	e3a03001 	mov	r3, #1
  10219c:	e5843000 	str	r3, [r4]
  1021a0:	e28dd00c 	add	sp, sp, #12
  1021a4:	e8bd8030 	pop	{r4, r5, pc}
  1021a8:	e5950004 	ldr	r0, [r5, #4]
  1021ac:	e58d1004 	str	r1, [sp, #4]
  1021b0:	e2800080 	add	r0, r0, #128	; 0x80
  1021b4:	eb0007db 	bl	104128 <Xil_In32>
  1021b8:	e5953004 	ldr	r3, [r5, #4]
  1021bc:	e59d1004 	ldr	r1, [sp, #4]
  1021c0:	e1801001 	orr	r1, r0, r1
  1021c4:	e2830080 	add	r0, r3, #128	; 0x80
  1021c8:	e28dd00c 	add	sp, sp, #12
  1021cc:	e8bd4030 	pop	{r4, r5, lr}
  1021d0:	ea0007da 	b	104140 <Xil_Out32>
  1021d4:	e3030d90 	movw	r0, #15760	; 0x3d90
  1021d8:	e3001239 	movw	r1, #569	; 0x239
  1021dc:	e3400012 	movt	r0, #18
  1021e0:	eb00052a 	bl	103690 <Xil_Assert>
  1021e4:	e30c3aec 	movw	r3, #51948	; 0xcaec
  1021e8:	e3a02001 	mov	r2, #1
  1021ec:	e3403012 	movt	r3, #18
  1021f0:	e5832000 	str	r2, [r3]
  1021f4:	eaffffe9 	b	1021a0 <XDcfg_SetMiscControlRegister+0x4c>

001021f8 <XDcfg_GetMiscControlRegister>:
  1021f8:	e3500000 	cmp	r0, #0
  1021fc:	e92d4010 	push	{r4, lr}
  102200:	0a000014 	beq	102258 <XDcfg_GetMiscControlRegister+0x60>
  102204:	e5901008 	ldr	r1, [r0, #8]
  102208:	e3013111 	movw	r3, #4369	; 0x1111
  10220c:	e3413111 	movt	r3, #4369	; 0x1111
  102210:	e30c4aec 	movw	r4, #51948	; 0xcaec
  102214:	e3404012 	movt	r4, #18
  102218:	e3a02000 	mov	r2, #0
  10221c:	e1510003 	cmp	r1, r3
  102220:	e5842000 	str	r2, [r4]
  102224:	0a000007 	beq	102248 <XDcfg_GetMiscControlRegister+0x50>
  102228:	e3030d90 	movw	r0, #15760	; 0x3d90
  10222c:	e3001257 	movw	r1, #599	; 0x257
  102230:	e3400012 	movt	r0, #18
  102234:	eb000515 	bl	103690 <Xil_Assert>
  102238:	e3a03001 	mov	r3, #1
  10223c:	e5843000 	str	r3, [r4]
  102240:	e3a00000 	mov	r0, #0
  102244:	e8bd8010 	pop	{r4, pc}
  102248:	e5900004 	ldr	r0, [r0, #4]
  10224c:	e8bd4010 	pop	{r4, lr}
  102250:	e2800080 	add	r0, r0, #128	; 0x80
  102254:	ea0007b3 	b	104128 <Xil_In32>
  102258:	e3030d90 	movw	r0, #15760	; 0x3d90
  10225c:	e3001256 	movw	r1, #598	; 0x256
  102260:	e3400012 	movt	r0, #18
  102264:	eb000509 	bl	103690 <Xil_Assert>
  102268:	e30c3aec 	movw	r3, #51948	; 0xcaec
  10226c:	e3a02001 	mov	r2, #1
  102270:	e3403012 	movt	r3, #18
  102274:	e5832000 	str	r2, [r3]
  102278:	eafffff0 	b	102240 <XDcfg_GetMiscControlRegister+0x48>

0010227c <XDcfg_IsDmaBusy>:
  10227c:	e92d4070 	push	{r4, r5, r6, lr}
  102280:	e2506000 	subs	r6, r0, #0
  102284:	0a000016 	beq	1022e4 <XDcfg_IsDmaBusy+0x68>
  102288:	e5962008 	ldr	r2, [r6, #8]
  10228c:	e3013111 	movw	r3, #4369	; 0x1111
  102290:	e3413111 	movt	r3, #4369	; 0x1111
  102294:	e30c5aec 	movw	r5, #51948	; 0xcaec
  102298:	e3405012 	movt	r5, #18
  10229c:	e3a04000 	mov	r4, #0
  1022a0:	e1520003 	cmp	r2, r3
  1022a4:	e5854000 	str	r4, [r5]
  1022a8:	0a000007 	beq	1022cc <XDcfg_IsDmaBusy+0x50>
  1022ac:	e3030d90 	movw	r0, #15760	; 0x3d90
  1022b0:	e3001272 	movw	r1, #626	; 0x272
  1022b4:	e3400012 	movt	r0, #18
  1022b8:	eb0004f4 	bl	103690 <Xil_Assert>
  1022bc:	e3a03001 	mov	r3, #1
  1022c0:	e1a00004 	mov	r0, r4
  1022c4:	e5853000 	str	r3, [r5]
  1022c8:	e8bd8070 	pop	{r4, r5, r6, pc}
  1022cc:	e5960004 	ldr	r0, [r6, #4]
  1022d0:	e2800014 	add	r0, r0, #20
  1022d4:	eb000793 	bl	104128 <Xil_In32>
  1022d8:	e1e00000 	mvn	r0, r0
  1022dc:	e1a00fa0 	lsr	r0, r0, #31
  1022e0:	e8bd8070 	pop	{r4, r5, r6, pc}
  1022e4:	e3030d90 	movw	r0, #15760	; 0x3d90
  1022e8:	e3001271 	movw	r1, #625	; 0x271
  1022ec:	e3400012 	movt	r0, #18
  1022f0:	eb0004e6 	bl	103690 <Xil_Assert>
  1022f4:	e30c3aec 	movw	r3, #51948	; 0xcaec
  1022f8:	e3a02001 	mov	r2, #1
  1022fc:	e3403012 	movt	r3, #18
  102300:	e1a00006 	mov	r0, r6
  102304:	e5832000 	str	r2, [r3]
  102308:	e8bd8070 	pop	{r4, r5, r6, pc}

0010230c <XDcfg_InitiateDma>:
  10230c:	e92d41f0 	push	{r4, r5, r6, r7, r8, lr}
  102310:	e1a04000 	mov	r4, r0
  102314:	e5900004 	ldr	r0, [r0, #4]
  102318:	e1a07002 	mov	r7, r2
  10231c:	e1a06003 	mov	r6, r3
  102320:	e59d5018 	ldr	r5, [sp, #24]
  102324:	e2800018 	add	r0, r0, #24
  102328:	eb000784 	bl	104140 <Xil_Out32>
  10232c:	e5940004 	ldr	r0, [r4, #4]
  102330:	e1a01007 	mov	r1, r7
  102334:	e280001c 	add	r0, r0, #28
  102338:	eb000780 	bl	104140 <Xil_Out32>
  10233c:	e5940004 	ldr	r0, [r4, #4]
  102340:	e1a01006 	mov	r1, r6
  102344:	e2800020 	add	r0, r0, #32
  102348:	eb00077c 	bl	104140 <Xil_Out32>
  10234c:	e5940004 	ldr	r0, [r4, #4]
  102350:	e1a01005 	mov	r1, r5
  102354:	e8bd41f0 	pop	{r4, r5, r6, r7, r8, lr}
  102358:	e2800024 	add	r0, r0, #36	; 0x24
  10235c:	ea000777 	b	104140 <Xil_Out32>

00102360 <XDcfg_Transfer>:
  102360:	e92d43f0 	push	{r4, r5, r6, r7, r8, r9, lr}
  102364:	e2506000 	subs	r6, r0, #0
  102368:	e24dd00c 	sub	sp, sp, #12
  10236c:	0a00002f 	beq	102430 <XDcfg_Transfer+0xd0>
  102370:	e596e008 	ldr	lr, [r6, #8]
  102374:	e301c111 	movw	ip, #4369	; 0x1111
  102378:	e341c111 	movt	ip, #4369	; 0x1111
  10237c:	e30c5aec 	movw	r5, #51948	; 0xcaec
  102380:	e3405012 	movt	r5, #18
  102384:	e3a04000 	mov	r4, #0
  102388:	e15e000c 	cmp	lr, ip
  10238c:	e5854000 	str	r4, [r5]
  102390:	0a000008 	beq	1023b8 <XDcfg_Transfer+0x58>
  102394:	e3030d90 	movw	r0, #15760	; 0x3d90
  102398:	e300131f 	movw	r1, #799	; 0x31f
  10239c:	e3400012 	movt	r0, #18
  1023a0:	eb0004ba 	bl	103690 <Xil_Assert>
  1023a4:	e1a00004 	mov	r0, r4
  1023a8:	e3a03001 	mov	r3, #1
  1023ac:	e5853000 	str	r3, [r5]
  1023b0:	e28dd00c 	add	sp, sp, #12
  1023b4:	e8bd83f0 	pop	{r4, r5, r6, r7, r8, r9, pc}
  1023b8:	e1a08001 	mov	r8, r1
  1023bc:	e1a09002 	mov	r9, r2
  1023c0:	e1a07003 	mov	r7, r3
  1023c4:	ebffffac 	bl	10227c <XDcfg_IsDmaBusy>
  1023c8:	e3500000 	cmp	r0, #0
  1023cc:	03a00015 	moveq	r0, #21
  1023d0:	0afffff6 	beq	1023b0 <XDcfg_Transfer+0x50>
  1023d4:	e5960004 	ldr	r0, [r6, #4]
  1023d8:	e2800014 	add	r0, r0, #20
  1023dc:	eb000751 	bl	104128 <Xil_In32>
  1023e0:	e59d302c 	ldr	r3, [sp, #44]	; 0x2c
  1023e4:	e2200010 	eor	r0, r0, #16
  1023e8:	e2533005 	subs	r3, r3, #5
  1023ec:	13a03001 	movne	r3, #1
  1023f0:	e0133220 	ands	r3, r3, r0, lsr #4
  1023f4:	13a00001 	movne	r0, #1
  1023f8:	1affffec 	bne	1023b0 <XDcfg_Transfer+0x50>
  1023fc:	e59d302c 	ldr	r3, [sp, #44]	; 0x2c
  102400:	e2433001 	sub	r3, r3, #1
  102404:	e3530001 	cmp	r3, #1
  102408:	9a000012 	bls	102458 <XDcfg_Transfer+0xf8>
  10240c:	e59d302c 	ldr	r3, [sp, #44]	; 0x2c
  102410:	e3530003 	cmp	r3, #3
  102414:	0a000014 	beq	10246c <XDcfg_Transfer+0x10c>
  102418:	e59d302c 	ldr	r3, [sp, #44]	; 0x2c
  10241c:	e2433004 	sub	r3, r3, #4
  102420:	e3530001 	cmp	r3, #1
  102424:	9a00003b 	bls	102518 <XDcfg_Transfer+0x1b8>
  102428:	e3a00000 	mov	r0, #0
  10242c:	eaffffdf 	b	1023b0 <XDcfg_Transfer+0x50>
  102430:	e3030d90 	movw	r0, #15760	; 0x3d90
  102434:	e300131e 	movw	r1, #798	; 0x31e
  102438:	e3400012 	movt	r0, #18
  10243c:	eb000493 	bl	103690 <Xil_Assert>
  102440:	e30c3aec 	movw	r3, #51948	; 0xcaec
  102444:	e3a02001 	mov	r2, #1
  102448:	e3403012 	movt	r3, #18
  10244c:	e1a00006 	mov	r0, r6
  102450:	e5832000 	str	r2, [r3]
  102454:	eaffffd5 	b	1023b0 <XDcfg_Transfer+0x50>
  102458:	e3590000 	cmp	r9, #0
  10245c:	13580000 	cmpne	r8, #0
  102460:	1a000048 	bne	102588 <XDcfg_Transfer+0x228>
  102464:	e3a0000f 	mov	r0, #15
  102468:	eaffffd0 	b	1023b0 <XDcfg_Transfer+0x50>
  10246c:	e59d3028 	ldr	r3, [sp, #40]	; 0x28
  102470:	e3530000 	cmp	r3, #0
  102474:	13570000 	cmpne	r7, #0
  102478:	03a04001 	moveq	r4, #1
  10247c:	13a04000 	movne	r4, #0
  102480:	0afffff7 	beq	102464 <XDcfg_Transfer+0x104>
  102484:	e5960004 	ldr	r0, [r6, #4]
  102488:	e2800080 	add	r0, r0, #128	; 0x80
  10248c:	eb000725 	bl	104128 <Xil_In32>
  102490:	e5963004 	ldr	r3, [r6, #4]
  102494:	e3c01010 	bic	r1, r0, #16
  102498:	e2830080 	add	r0, r3, #128	; 0x80
  10249c:	eb000727 	bl	104140 <Xil_Out32>
  1024a0:	e1a01008 	mov	r1, r8
  1024a4:	e58d4000 	str	r4, [sp]
  1024a8:	e1a03009 	mov	r3, r9
  1024ac:	e3e02000 	mvn	r2, #0
  1024b0:	e1a00006 	mov	r0, r6
  1024b4:	ebffff94 	bl	10230c <XDcfg_InitiateDma>
  1024b8:	e1a00006 	mov	r0, r6
  1024bc:	eb00009f 	bl	102740 <XDcfg_IntrGetEnabled>
  1024c0:	e30f18ef 	movw	r1, #63727	; 0xf8ef
  1024c4:	e1a04000 	mov	r4, r0
  1024c8:	e34010f7 	movt	r1, #247	; 0xf7
  1024cc:	e1a00006 	mov	r0, r6
  1024d0:	eb00006e 	bl	102690 <XDcfg_IntrDisable>
  1024d4:	e5960004 	ldr	r0, [r6, #4]
  1024d8:	e280000c 	add	r0, r0, #12
  1024dc:	eb000711 	bl	104128 <Xil_In32>
  1024e0:	e3100a01 	tst	r0, #4096	; 0x1000
  1024e4:	0afffffa 	beq	1024d4 <XDcfg_Transfer+0x174>
  1024e8:	e1a01004 	mov	r1, r4
  1024ec:	e1a00006 	mov	r0, r6
  1024f0:	eb00003a 	bl	1025e0 <XDcfg_IntrEnable>
  1024f4:	e59d3028 	ldr	r3, [sp, #40]	; 0x28
  1024f8:	e1a00006 	mov	r0, r6
  1024fc:	e1a02007 	mov	r2, r7
  102500:	e3e01000 	mvn	r1, #0
  102504:	e58d3000 	str	r3, [sp]
  102508:	e3a03000 	mov	r3, #0
  10250c:	ebffff7e 	bl	10230c <XDcfg_InitiateDma>
  102510:	e3a00000 	mov	r0, #0
  102514:	eaffffa5 	b	1023b0 <XDcfg_Transfer+0x50>
  102518:	e3590000 	cmp	r9, #0
  10251c:	13580000 	cmpne	r8, #0
  102520:	0affffcf 	beq	102464 <XDcfg_Transfer+0x104>
  102524:	e59d3028 	ldr	r3, [sp, #40]	; 0x28
  102528:	e3530000 	cmp	r3, #0
  10252c:	13570000 	cmpne	r7, #0
  102530:	0affffcb 	beq	102464 <XDcfg_Transfer+0x104>
  102534:	e59d302c 	ldr	r3, [sp, #44]	; 0x2c
  102538:	e5960004 	ldr	r0, [r6, #4]
  10253c:	e3530005 	cmp	r3, #5
  102540:	e2800080 	add	r0, r0, #128	; 0x80
  102544:	0a00001f 	beq	1025c8 <XDcfg_Transfer+0x268>
  102548:	eb0006f6 	bl	104128 <Xil_In32>
  10254c:	e5963004 	ldr	r3, [r6, #4]
  102550:	e3c01010 	bic	r1, r0, #16
  102554:	e2830080 	add	r0, r3, #128	; 0x80
  102558:	eb0006f8 	bl	104140 <Xil_Out32>
  10255c:	e3a01402 	mov	r1, #33554432	; 0x2000000
  102560:	e1a00006 	mov	r0, r6
  102564:	ebfffd88 	bl	101b8c <XDcfg_SetControlRegister>
  102568:	e59d3028 	ldr	r3, [sp, #40]	; 0x28
  10256c:	e1a02007 	mov	r2, r7
  102570:	e1a01008 	mov	r1, r8
  102574:	e1a00006 	mov	r0, r6
  102578:	e58d3000 	str	r3, [sp]
  10257c:	e1a03009 	mov	r3, r9
  102580:	ebffff61 	bl	10230c <XDcfg_InitiateDma>
  102584:	eaffffa7 	b	102428 <XDcfg_Transfer+0xc8>
  102588:	e5960004 	ldr	r0, [r6, #4]
  10258c:	e2800080 	add	r0, r0, #128	; 0x80
  102590:	eb0006e4 	bl	104128 <Xil_In32>
  102594:	e5963004 	ldr	r3, [r6, #4]
  102598:	e3c01010 	bic	r1, r0, #16
  10259c:	e2830080 	add	r0, r3, #128	; 0x80
  1025a0:	eb0006e6 	bl	104140 <Xil_Out32>
  1025a4:	e59d302c 	ldr	r3, [sp, #44]	; 0x2c
  1025a8:	e3530001 	cmp	r3, #1
  1025ac:	1affffea 	bne	10255c <XDcfg_Transfer+0x1fc>
  1025b0:	e5960004 	ldr	r0, [r6, #4]
  1025b4:	eb0006db 	bl	104128 <Xil_In32>
  1025b8:	e3c01402 	bic	r1, r0, #33554432	; 0x2000000
  1025bc:	e5960004 	ldr	r0, [r6, #4]
  1025c0:	eb0006de 	bl	104140 <Xil_Out32>
  1025c4:	eaffffe7 	b	102568 <XDcfg_Transfer+0x208>
  1025c8:	eb0006d6 	bl	104128 <Xil_In32>
  1025cc:	e5963004 	ldr	r3, [r6, #4]
  1025d0:	e3801010 	orr	r1, r0, #16
  1025d4:	e2830080 	add	r0, r3, #128	; 0x80
  1025d8:	eb0006d8 	bl	104140 <Xil_Out32>
  1025dc:	eafffff3 	b	1025b0 <XDcfg_Transfer+0x250>

001025e0 <XDcfg_IntrEnable>:
  1025e0:	e92d4030 	push	{r4, r5, lr}
  1025e4:	e2505000 	subs	r5, r0, #0
  1025e8:	e24dd00c 	sub	sp, sp, #12
  1025ec:	0a00001e 	beq	10266c <XDcfg_IntrEnable+0x8c>
  1025f0:	e5950008 	ldr	r0, [r5, #8]
  1025f4:	e3013111 	movw	r3, #4369	; 0x1111
  1025f8:	e3413111 	movt	r3, #4369	; 0x1111
  1025fc:	e30c4aec 	movw	r4, #51948	; 0xcaec
  102600:	e3404012 	movt	r4, #18
  102604:	e3a02000 	mov	r2, #0
  102608:	e1500003 	cmp	r0, r3
  10260c:	e5842000 	str	r2, [r4]
  102610:	0a000007 	beq	102634 <XDcfg_IntrEnable+0x54>
  102614:	e3030d9c 	movw	r0, #15772	; 0x3d9c
  102618:	e3a0105d 	mov	r1, #93	; 0x5d
  10261c:	e3400012 	movt	r0, #18
  102620:	eb00041a 	bl	103690 <Xil_Assert>
  102624:	e3a03001 	mov	r3, #1
  102628:	e5843000 	str	r3, [r4]
  10262c:	e28dd00c 	add	sp, sp, #12
  102630:	e8bd8030 	pop	{r4, r5, pc}
  102634:	e5950004 	ldr	r0, [r5, #4]
  102638:	e58d1004 	str	r1, [sp, #4]
  10263c:	e2800010 	add	r0, r0, #16
  102640:	eb0006b8 	bl	104128 <Xil_In32>
  102644:	e59d1004 	ldr	r1, [sp, #4]
  102648:	e30f38ef 	movw	r3, #63727	; 0xf8ef
  10264c:	e5952004 	ldr	r2, [r5, #4]
  102650:	e34030f7 	movt	r3, #247	; 0xf7
  102654:	e0033001 	and	r3, r3, r1
  102658:	e1c01003 	bic	r1, r0, r3
  10265c:	e2820010 	add	r0, r2, #16
  102660:	e28dd00c 	add	sp, sp, #12
  102664:	e8bd4030 	pop	{r4, r5, lr}
  102668:	ea0006b4 	b	104140 <Xil_Out32>
  10266c:	e3030d9c 	movw	r0, #15772	; 0x3d9c
  102670:	e3a0105c 	mov	r1, #92	; 0x5c
  102674:	e3400012 	movt	r0, #18
  102678:	eb000404 	bl	103690 <Xil_Assert>
  10267c:	e30c3aec 	movw	r3, #51948	; 0xcaec
  102680:	e3a02001 	mov	r2, #1
  102684:	e3403012 	movt	r3, #18
  102688:	e5832000 	str	r2, [r3]
  10268c:	eaffffe6 	b	10262c <XDcfg_IntrEnable+0x4c>

00102690 <XDcfg_IntrDisable>:
  102690:	e92d4030 	push	{r4, r5, lr}
  102694:	e2505000 	subs	r5, r0, #0
  102698:	e24dd00c 	sub	sp, sp, #12
  10269c:	0a00001e 	beq	10271c <XDcfg_IntrDisable+0x8c>
  1026a0:	e5950008 	ldr	r0, [r5, #8]
  1026a4:	e3013111 	movw	r3, #4369	; 0x1111
  1026a8:	e3413111 	movt	r3, #4369	; 0x1111
  1026ac:	e30c4aec 	movw	r4, #51948	; 0xcaec
  1026b0:	e3404012 	movt	r4, #18
  1026b4:	e3a02000 	mov	r2, #0
  1026b8:	e1500003 	cmp	r0, r3
  1026bc:	e5842000 	str	r2, [r4]
  1026c0:	0a000007 	beq	1026e4 <XDcfg_IntrDisable+0x54>
  1026c4:	e3030d9c 	movw	r0, #15772	; 0x3d9c
  1026c8:	e3a01083 	mov	r1, #131	; 0x83
  1026cc:	e3400012 	movt	r0, #18
  1026d0:	eb0003ee 	bl	103690 <Xil_Assert>
  1026d4:	e3a03001 	mov	r3, #1
  1026d8:	e5843000 	str	r3, [r4]
  1026dc:	e28dd00c 	add	sp, sp, #12
  1026e0:	e8bd8030 	pop	{r4, r5, pc}
  1026e4:	e5950004 	ldr	r0, [r5, #4]
  1026e8:	e58d1004 	str	r1, [sp, #4]
  1026ec:	e2800010 	add	r0, r0, #16
  1026f0:	eb00068c 	bl	104128 <Xil_In32>
  1026f4:	e59d1004 	ldr	r1, [sp, #4]
  1026f8:	e30f38ef 	movw	r3, #63727	; 0xf8ef
  1026fc:	e5952004 	ldr	r2, [r5, #4]
  102700:	e34030f7 	movt	r3, #247	; 0xf7
  102704:	e0033001 	and	r3, r3, r1
  102708:	e1801003 	orr	r1, r0, r3
  10270c:	e2820010 	add	r0, r2, #16
  102710:	e28dd00c 	add	sp, sp, #12
  102714:	e8bd4030 	pop	{r4, r5, lr}
  102718:	ea000688 	b	104140 <Xil_Out32>
  10271c:	e3030d9c 	movw	r0, #15772	; 0x3d9c
  102720:	e3a01082 	mov	r1, #130	; 0x82
  102724:	e3400012 	movt	r0, #18
  102728:	eb0003d8 	bl	103690 <Xil_Assert>
  10272c:	e30c3aec 	movw	r3, #51948	; 0xcaec
  102730:	e3a02001 	mov	r2, #1
  102734:	e3403012 	movt	r3, #18
  102738:	e5832000 	str	r2, [r3]
  10273c:	eaffffe6 	b	1026dc <XDcfg_IntrDisable+0x4c>

00102740 <XDcfg_IntrGetEnabled>:
  102740:	e92d4070 	push	{r4, r5, r6, lr}
  102744:	e2506000 	subs	r6, r0, #0
  102748:	0a000015 	beq	1027a4 <XDcfg_IntrGetEnabled+0x64>
  10274c:	e5962008 	ldr	r2, [r6, #8]
  102750:	e3013111 	movw	r3, #4369	; 0x1111
  102754:	e3413111 	movt	r3, #4369	; 0x1111
  102758:	e30c5aec 	movw	r5, #51948	; 0xcaec
  10275c:	e3405012 	movt	r5, #18
  102760:	e3a04000 	mov	r4, #0
  102764:	e1520003 	cmp	r2, r3
  102768:	e5854000 	str	r4, [r5]
  10276c:	0a000007 	beq	102790 <XDcfg_IntrGetEnabled+0x50>
  102770:	e3030d9c 	movw	r0, #15772	; 0x3d9c
  102774:	e3a010a3 	mov	r1, #163	; 0xa3
  102778:	e3400012 	movt	r0, #18
  10277c:	eb0003c3 	bl	103690 <Xil_Assert>
  102780:	e3a03001 	mov	r3, #1
  102784:	e1a00004 	mov	r0, r4
  102788:	e5853000 	str	r3, [r5]
  10278c:	e8bd8070 	pop	{r4, r5, r6, pc}
  102790:	e5960004 	ldr	r0, [r6, #4]
  102794:	e2800010 	add	r0, r0, #16
  102798:	eb000662 	bl	104128 <Xil_In32>
  10279c:	e1e00000 	mvn	r0, r0
  1027a0:	e8bd8070 	pop	{r4, r5, r6, pc}
  1027a4:	e3030d9c 	movw	r0, #15772	; 0x3d9c
  1027a8:	e3a010a2 	mov	r1, #162	; 0xa2
  1027ac:	e3400012 	movt	r0, #18
  1027b0:	eb0003b6 	bl	103690 <Xil_Assert>
  1027b4:	e30c3aec 	movw	r3, #51948	; 0xcaec
  1027b8:	e3a02001 	mov	r2, #1
  1027bc:	e3403012 	movt	r3, #18
  1027c0:	e1a00006 	mov	r0, r6
  1027c4:	e5832000 	str	r2, [r3]
  1027c8:	e8bd8070 	pop	{r4, r5, r6, pc}

001027cc <XDcfg_IntrGetStatus>:
  1027cc:	e3500000 	cmp	r0, #0
  1027d0:	e92d4010 	push	{r4, lr}
  1027d4:	0a000014 	beq	10282c <XDcfg_IntrGetStatus+0x60>
  1027d8:	e5901008 	ldr	r1, [r0, #8]
  1027dc:	e3013111 	movw	r3, #4369	; 0x1111
  1027e0:	e3413111 	movt	r3, #4369	; 0x1111
  1027e4:	e30c4aec 	movw	r4, #51948	; 0xcaec
  1027e8:	e3404012 	movt	r4, #18
  1027ec:	e3a02000 	mov	r2, #0
  1027f0:	e1510003 	cmp	r1, r3
  1027f4:	e5842000 	str	r2, [r4]
  1027f8:	0a000007 	beq	10281c <XDcfg_IntrGetStatus+0x50>
  1027fc:	e3030d9c 	movw	r0, #15772	; 0x3d9c
  102800:	e3a010c1 	mov	r1, #193	; 0xc1
  102804:	e3400012 	movt	r0, #18
  102808:	eb0003a0 	bl	103690 <Xil_Assert>
  10280c:	e3a03001 	mov	r3, #1
  102810:	e5843000 	str	r3, [r4]
  102814:	e3a00000 	mov	r0, #0
  102818:	e8bd8010 	pop	{r4, pc}
  10281c:	e5900004 	ldr	r0, [r0, #4]
  102820:	e8bd4010 	pop	{r4, lr}
  102824:	e280000c 	add	r0, r0, #12
  102828:	ea00063e 	b	104128 <Xil_In32>
  10282c:	e3030d9c 	movw	r0, #15772	; 0x3d9c
  102830:	e3a010c0 	mov	r1, #192	; 0xc0
  102834:	e3400012 	movt	r0, #18
  102838:	eb000394 	bl	103690 <Xil_Assert>
  10283c:	e30c3aec 	movw	r3, #51948	; 0xcaec
  102840:	e3a02001 	mov	r2, #1
  102844:	e3403012 	movt	r3, #18
  102848:	e5832000 	str	r2, [r3]
  10284c:	eafffff0 	b	102814 <XDcfg_IntrGetStatus+0x48>

00102850 <XDcfg_IntrClear>:
  102850:	e3500000 	cmp	r0, #0
  102854:	e92d4010 	push	{r4, lr}
  102858:	0a000013 	beq	1028ac <XDcfg_IntrClear+0x5c>
  10285c:	e590c008 	ldr	ip, [r0, #8]
  102860:	e3013111 	movw	r3, #4369	; 0x1111
  102864:	e3413111 	movt	r3, #4369	; 0x1111
  102868:	e30c4aec 	movw	r4, #51948	; 0xcaec
  10286c:	e3404012 	movt	r4, #18
  102870:	e3a02000 	mov	r2, #0
  102874:	e15c0003 	cmp	ip, r3
  102878:	e5842000 	str	r2, [r4]
  10287c:	0a000006 	beq	10289c <XDcfg_IntrClear+0x4c>
  102880:	e3030d9c 	movw	r0, #15772	; 0x3d9c
  102884:	e3a010e1 	mov	r1, #225	; 0xe1
  102888:	e3400012 	movt	r0, #18
  10288c:	eb00037f 	bl	103690 <Xil_Assert>
  102890:	e3a03001 	mov	r3, #1
  102894:	e5843000 	str	r3, [r4]
  102898:	e8bd8010 	pop	{r4, pc}
  10289c:	e5900004 	ldr	r0, [r0, #4]
  1028a0:	e8bd4010 	pop	{r4, lr}
  1028a4:	e280000c 	add	r0, r0, #12
  1028a8:	ea000624 	b	104140 <Xil_Out32>
  1028ac:	e3030d9c 	movw	r0, #15772	; 0x3d9c
  1028b0:	e3a010e0 	mov	r1, #224	; 0xe0
  1028b4:	e3400012 	movt	r0, #18
  1028b8:	eb000374 	bl	103690 <Xil_Assert>
  1028bc:	e30c3aec 	movw	r3, #51948	; 0xcaec
  1028c0:	e3a02001 	mov	r2, #1
  1028c4:	e3403012 	movt	r3, #18
  1028c8:	e5832000 	str	r2, [r3]
  1028cc:	e8bd8010 	pop	{r4, pc}

001028d0 <XDcfg_InterruptHandler>:
  1028d0:	e92d4070 	push	{r4, r5, r6, lr}
  1028d4:	e2505000 	subs	r5, r0, #0
  1028d8:	0a00001c 	beq	102950 <XDcfg_InterruptHandler+0x80>
  1028dc:	e5951008 	ldr	r1, [r5, #8]
  1028e0:	e3013111 	movw	r3, #4369	; 0x1111
  1028e4:	e3413111 	movt	r3, #4369	; 0x1111
  1028e8:	e30c4aec 	movw	r4, #51948	; 0xcaec
  1028ec:	e3404012 	movt	r4, #18
  1028f0:	e3a02000 	mov	r2, #0
  1028f4:	e1510003 	cmp	r1, r3
  1028f8:	e5842000 	str	r2, [r4]
  1028fc:	0a000006 	beq	10291c <XDcfg_InterruptHandler+0x4c>
  102900:	e3030d9c 	movw	r0, #15772	; 0x3d9c
  102904:	e3a010ff 	mov	r1, #255	; 0xff
  102908:	e3400012 	movt	r0, #18
  10290c:	eb00035f 	bl	103690 <Xil_Assert>
  102910:	e3a03001 	mov	r3, #1
  102914:	e5843000 	str	r3, [r4]
  102918:	e8bd8070 	pop	{r4, r5, r6, pc}
  10291c:	e5950004 	ldr	r0, [r5, #4]
  102920:	e280000c 	add	r0, r0, #12
  102924:	eb0005ff 	bl	104128 <Xil_In32>
  102928:	e1a04000 	mov	r4, r0
  10292c:	e5950004 	ldr	r0, [r5, #4]
  102930:	e1a01004 	mov	r1, r4
  102934:	e280000c 	add	r0, r0, #12
  102938:	eb000600 	bl	104140 <Xil_Out32>
  10293c:	e1a01004 	mov	r1, r4
  102940:	e5953010 	ldr	r3, [r5, #16]
  102944:	e5950014 	ldr	r0, [r5, #20]
  102948:	e8bd4070 	pop	{r4, r5, r6, lr}
  10294c:	e12fff13 	bx	r3
  102950:	e3030d9c 	movw	r0, #15772	; 0x3d9c
  102954:	e3a010fe 	mov	r1, #254	; 0xfe
  102958:	e3400012 	movt	r0, #18
  10295c:	eb00034b 	bl	103690 <Xil_Assert>
  102960:	e30c3aec 	movw	r3, #51948	; 0xcaec
  102964:	e3a02001 	mov	r2, #1
  102968:	e3403012 	movt	r3, #18
  10296c:	e5832000 	str	r2, [r3]
  102970:	e8bd8070 	pop	{r4, r5, r6, pc}

00102974 <XDcfg_SetHandler>:
  102974:	e3500000 	cmp	r0, #0
  102978:	e92d4010 	push	{r4, lr}
  10297c:	0a000014 	beq	1029d4 <XDcfg_SetHandler+0x60>
  102980:	e30c4aec 	movw	r4, #51948	; 0xcaec
  102984:	e3510000 	cmp	r1, #0
  102988:	e3404012 	movt	r4, #18
  10298c:	e3a03000 	mov	r3, #0
  102990:	e5843000 	str	r3, [r4]
  102994:	0a000017 	beq	1029f8 <XDcfg_SetHandler+0x84>
  102998:	e590c008 	ldr	ip, [r0, #8]
  10299c:	e3013111 	movw	r3, #4369	; 0x1111
  1029a0:	e3413111 	movt	r3, #4369	; 0x1111
  1029a4:	e15c0003 	cmp	ip, r3
  1029a8:	0a000006 	beq	1029c8 <XDcfg_SetHandler+0x54>
  1029ac:	e3030d9c 	movw	r0, #15772	; 0x3d9c
  1029b0:	e3001131 	movw	r1, #305	; 0x131
  1029b4:	e3400012 	movt	r0, #18
  1029b8:	eb000334 	bl	103690 <Xil_Assert>
  1029bc:	e3a03001 	mov	r3, #1
  1029c0:	e5843000 	str	r3, [r4]
  1029c4:	e8bd8010 	pop	{r4, pc}
  1029c8:	e5801010 	str	r1, [r0, #16]
  1029cc:	e5802014 	str	r2, [r0, #20]
  1029d0:	e8bd8010 	pop	{r4, pc}
  1029d4:	e3030d9c 	movw	r0, #15772	; 0x3d9c
  1029d8:	e300112f 	movw	r1, #303	; 0x12f
  1029dc:	e3400012 	movt	r0, #18
  1029e0:	eb00032a 	bl	103690 <Xil_Assert>
  1029e4:	e30c3aec 	movw	r3, #51948	; 0xcaec
  1029e8:	e3a02001 	mov	r2, #1
  1029ec:	e3403012 	movt	r3, #18
  1029f0:	e5832000 	str	r2, [r3]
  1029f4:	e8bd8010 	pop	{r4, pc}
  1029f8:	e3030d9c 	movw	r0, #15772	; 0x3d9c
  1029fc:	e3a01e13 	mov	r1, #304	; 0x130
  102a00:	e3400012 	movt	r0, #18
  102a04:	eb000321 	bl	103690 <Xil_Assert>
  102a08:	e3a03001 	mov	r3, #1
  102a0c:	e5843000 	str	r3, [r4]
  102a10:	e8bd8010 	pop	{r4, pc}

00102a14 <XDcfg_SelfTest>:
  102a14:	e92d4070 	push	{r4, r5, r6, lr}
  102a18:	e2504000 	subs	r4, r0, #0
  102a1c:	0a00001f 	beq	102aa0 <XDcfg_SelfTest+0x8c>
  102a20:	e5941008 	ldr	r1, [r4, #8]
  102a24:	e3012111 	movw	r2, #4369	; 0x1111
  102a28:	e3412111 	movt	r2, #4369	; 0x1111
  102a2c:	e30c5aec 	movw	r5, #51948	; 0xcaec
  102a30:	e3405012 	movt	r5, #18
  102a34:	e3a03000 	mov	r3, #0
  102a38:	e1510002 	cmp	r1, r2
  102a3c:	e5853000 	str	r3, [r5]
  102a40:	0a000008 	beq	102a68 <XDcfg_SelfTest+0x54>
  102a44:	e3030dac 	movw	r0, #15788	; 0x3dac
  102a48:	e3a0105e 	mov	r1, #94	; 0x5e
  102a4c:	e3400012 	movt	r0, #18
  102a50:	e1a04003 	mov	r4, r3
  102a54:	eb00030d 	bl	103690 <Xil_Assert>
  102a58:	e3a03001 	mov	r3, #1
  102a5c:	e5853000 	str	r3, [r5]
  102a60:	e1a00004 	mov	r0, r4
  102a64:	e8bd8070 	pop	{r4, r5, r6, pc}
  102a68:	ebfffc95 	bl	101cc4 <XDcfg_GetControlRegister>
  102a6c:	e3a01010 	mov	r1, #16
  102a70:	e1a05000 	mov	r5, r0
  102a74:	e1a00004 	mov	r0, r4
  102a78:	ebfffc43 	bl	101b8c <XDcfg_SetControlRegister>
  102a7c:	e1a00004 	mov	r0, r4
  102a80:	ebfffc8f 	bl	101cc4 <XDcfg_GetControlRegister>
  102a84:	e2203010 	eor	r3, r0, #16
  102a88:	e1a01005 	mov	r1, r5
  102a8c:	e1a00004 	mov	r0, r4
  102a90:	e7e04253 	ubfx	r4, r3, #4, #1
  102a94:	ebfffc3c 	bl	101b8c <XDcfg_SetControlRegister>
  102a98:	e1a00004 	mov	r0, r4
  102a9c:	e8bd8070 	pop	{r4, r5, r6, pc}
  102aa0:	e3030dac 	movw	r0, #15788	; 0x3dac
  102aa4:	e3a0105d 	mov	r1, #93	; 0x5d
  102aa8:	e3400012 	movt	r0, #18
  102aac:	eb0002f7 	bl	103690 <Xil_Assert>
  102ab0:	e30c3aec 	movw	r3, #51948	; 0xcaec
  102ab4:	e3a02001 	mov	r2, #1
  102ab8:	e3403012 	movt	r3, #18
  102abc:	e5832000 	str	r2, [r3]
  102ac0:	eaffffe6 	b	102a60 <XDcfg_SelfTest+0x4c>

00102ac4 <XDcfg_LookupConfig>:
  102ac4:	e3043028 	movw	r3, #16424	; 0x4028
  102ac8:	e3403012 	movt	r3, #18
  102acc:	e1d320b0 	ldrh	r2, [r3]
  102ad0:	e1520000 	cmp	r2, r0
  102ad4:	01a00003 	moveq	r0, r3
  102ad8:	13a00000 	movne	r0, #0
  102adc:	e12fff1e 	bx	lr

00102ae0 <StubHandler>:
  102ae0:	e3500000 	cmp	r0, #0
  102ae4:	0a000007 	beq	102b08 <StubHandler+0x28>
  102ae8:	e5903008 	ldr	r3, [r0, #8]
  102aec:	e30c2aec 	movw	r2, #51948	; 0xcaec
  102af0:	e3402012 	movt	r2, #18
  102af4:	e3a01000 	mov	r1, #0
  102af8:	e5821000 	str	r1, [r2]
  102afc:	e2833001 	add	r3, r3, #1
  102b00:	e5803008 	str	r3, [r0, #8]
  102b04:	e12fff1e 	bx	lr
  102b08:	e3030dc0 	movw	r0, #15808	; 0x3dc0
  102b0c:	e92d4010 	push	{r4, lr}
  102b10:	e3a01f95 	mov	r1, #596	; 0x254
  102b14:	e3400012 	movt	r0, #18
  102b18:	eb0002dc 	bl	103690 <Xil_Assert>
  102b1c:	e30c3aec 	movw	r3, #51948	; 0xcaec
  102b20:	e3a02001 	mov	r2, #1
  102b24:	e3403012 	movt	r3, #18
  102b28:	e5832000 	str	r2, [r3]
  102b2c:	e8bd8010 	pop	{r4, pc}

00102b30 <XScuGic_CfgInitialize>:
  102b30:	e92d4070 	push	{r4, r5, r6, lr}
  102b34:	e2504000 	subs	r4, r0, #0
  102b38:	0a00005a 	beq	102ca8 <XScuGic_CfgInitialize+0x178>
  102b3c:	e30c5aec 	movw	r5, #51948	; 0xcaec
  102b40:	e3510000 	cmp	r1, #0
  102b44:	e3405012 	movt	r5, #18
  102b48:	e3a02000 	mov	r2, #0
  102b4c:	e5852000 	str	r2, [r5]
  102b50:	0a00005d 	beq	102ccc <XScuGic_CfgInitialize+0x19c>
  102b54:	e5940004 	ldr	r0, [r4, #4]
  102b58:	e3013111 	movw	r3, #4369	; 0x1111
  102b5c:	e3413111 	movt	r3, #4369	; 0x1111
  102b60:	e1500003 	cmp	r0, r3
  102b64:	0a00004d 	beq	102ca0 <XScuGic_CfgInitialize+0x170>
  102b68:	e2810e61 	add	r0, r1, #1552	; 0x610
  102b6c:	e302cae0 	movw	ip, #10976	; 0x2ae0
  102b70:	e2800008 	add	r0, r0, #8
  102b74:	e340c010 	movt	ip, #16
  102b78:	e1a03001 	mov	r3, r1
  102b7c:	e8840006 	stm	r4, {r1, r2}
  102b80:	e593200c 	ldr	r2, [r3, #12]
  102b84:	e2833008 	add	r3, r3, #8
  102b88:	e5834008 	str	r4, [r3, #8]
  102b8c:	e3520000 	cmp	r2, #0
  102b90:	0583c004 	streq	ip, [r3, #4]
  102b94:	e1530000 	cmp	r3, r0
  102b98:	1afffff8 	bne	102b80 <XScuGic_CfgInitialize+0x50>
  102b9c:	e5910008 	ldr	r0, [r1, #8]
  102ba0:	e3a01000 	mov	r1, #0
  102ba4:	e3a05020 	mov	r5, #32
  102ba8:	eb000564 	bl	104140 <Xil_Out32>
  102bac:	e5942000 	ldr	r2, [r4]
  102bb0:	e1a03225 	lsr	r3, r5, #4
  102bb4:	e3a01000 	mov	r1, #0
  102bb8:	e2833c03 	add	r3, r3, #768	; 0x300
  102bbc:	e2855010 	add	r5, r5, #16
  102bc0:	e5920008 	ldr	r0, [r2, #8]
  102bc4:	e0800103 	add	r0, r0, r3, lsl #2
  102bc8:	eb00055c 	bl	104140 <Xil_Out32>
  102bcc:	e35500d0 	cmp	r5, #208	; 0xd0
  102bd0:	1afffff5 	bne	102bac <XScuGic_CfgInitialize+0x7c>
  102bd4:	e3a05000 	mov	r5, #0
  102bd8:	e5942000 	ldr	r2, [r4]
  102bdc:	e3c53003 	bic	r3, r5, #3
  102be0:	e2833b01 	add	r3, r3, #1024	; 0x400
  102be4:	e30a10a0 	movw	r1, #41120	; 0xa0a0
  102be8:	e2855004 	add	r5, r5, #4
  102bec:	e34a10a0 	movt	r1, #41120	; 0xa0a0
  102bf0:	e5920008 	ldr	r0, [r2, #8]
  102bf4:	e0830000 	add	r0, r3, r0
  102bf8:	eb000550 	bl	104140 <Xil_Out32>
  102bfc:	e35500c4 	cmp	r5, #196	; 0xc4
  102c00:	1afffff4 	bne	102bd8 <XScuGic_CfgInitialize+0xa8>
  102c04:	e3a05020 	mov	r5, #32
  102c08:	e5942000 	ldr	r2, [r4]
  102c0c:	e3c53003 	bic	r3, r5, #3
  102c10:	e2833b02 	add	r3, r3, #2048	; 0x800
  102c14:	e3001101 	movw	r1, #257	; 0x101
  102c18:	e2855004 	add	r5, r5, #4
  102c1c:	e3401101 	movt	r1, #257	; 0x101
  102c20:	e5920008 	ldr	r0, [r2, #8]
  102c24:	e0830000 	add	r0, r3, r0
  102c28:	eb000544 	bl	104140 <Xil_Out32>
  102c2c:	e35500c4 	cmp	r5, #196	; 0xc4
  102c30:	1afffff4 	bne	102c08 <XScuGic_CfgInitialize+0xd8>
  102c34:	e3a05000 	mov	r5, #0
  102c38:	e5942000 	ldr	r2, [r4]
  102c3c:	e1a032a5 	lsr	r3, r5, #5
  102c40:	e3e01000 	mvn	r1, #0
  102c44:	e2833060 	add	r3, r3, #96	; 0x60
  102c48:	e2855020 	add	r5, r5, #32
  102c4c:	e5920008 	ldr	r0, [r2, #8]
  102c50:	e0800103 	add	r0, r0, r3, lsl #2
  102c54:	eb000539 	bl	104140 <Xil_Out32>
  102c58:	e35500e0 	cmp	r5, #224	; 0xe0
  102c5c:	1afffff5 	bne	102c38 <XScuGic_CfgInitialize+0x108>
  102c60:	e5943000 	ldr	r3, [r4]
  102c64:	e3a01001 	mov	r1, #1
  102c68:	e5930008 	ldr	r0, [r3, #8]
  102c6c:	eb000533 	bl	104140 <Xil_Out32>
  102c70:	e5943000 	ldr	r3, [r4]
  102c74:	e3a010f0 	mov	r1, #240	; 0xf0
  102c78:	e5930004 	ldr	r0, [r3, #4]
  102c7c:	e2800004 	add	r0, r0, #4
  102c80:	eb00052e 	bl	104140 <Xil_Out32>
  102c84:	e5943000 	ldr	r3, [r4]
  102c88:	e3a01007 	mov	r1, #7
  102c8c:	e5930004 	ldr	r0, [r3, #4]
  102c90:	eb00052a 	bl	104140 <Xil_Out32>
  102c94:	e3013111 	movw	r3, #4369	; 0x1111
  102c98:	e7df3813 	bfi	r3, r3, #16, #16
  102c9c:	e5843004 	str	r3, [r4, #4]
  102ca0:	e3a00000 	mov	r0, #0
  102ca4:	e8bd8070 	pop	{r4, r5, r6, pc}
  102ca8:	e3030dc0 	movw	r0, #15808	; 0x3dc0
  102cac:	e3a01f4e 	mov	r1, #312	; 0x138
  102cb0:	e3400012 	movt	r0, #18
  102cb4:	eb000275 	bl	103690 <Xil_Assert>
  102cb8:	e30c3aec 	movw	r3, #51948	; 0xcaec
  102cbc:	e3a02001 	mov	r2, #1
  102cc0:	e3403012 	movt	r3, #18
  102cc4:	e5832000 	str	r2, [r3]
  102cc8:	eafffff4 	b	102ca0 <XScuGic_CfgInitialize+0x170>
  102ccc:	e3030dc0 	movw	r0, #15808	; 0x3dc0
  102cd0:	e3001139 	movw	r1, #313	; 0x139
  102cd4:	e3400012 	movt	r0, #18
  102cd8:	eb00026c 	bl	103690 <Xil_Assert>
  102cdc:	e3a03001 	mov	r3, #1
  102ce0:	e5853000 	str	r3, [r5]
  102ce4:	eaffffed 	b	102ca0 <XScuGic_CfgInitialize+0x170>

00102ce8 <XScuGic_Connect>:
  102ce8:	e3500000 	cmp	r0, #0
  102cec:	e92d4010 	push	{r4, lr}
  102cf0:	0a000022 	beq	102d80 <XScuGic_Connect+0x98>
  102cf4:	e30c4aec 	movw	r4, #51948	; 0xcaec
  102cf8:	e35100c2 	cmp	r1, #194	; 0xc2
  102cfc:	e3404012 	movt	r4, #18
  102d00:	e3a0c000 	mov	ip, #0
  102d04:	e584c000 	str	ip, [r4]
  102d08:	8a000014 	bhi	102d60 <XScuGic_Connect+0x78>
  102d0c:	e3520000 	cmp	r2, #0
  102d10:	0a000023 	beq	102da4 <XScuGic_Connect+0xbc>
  102d14:	e590e004 	ldr	lr, [r0, #4]
  102d18:	e301c111 	movw	ip, #4369	; 0x1111
  102d1c:	e341c111 	movt	ip, #4369	; 0x1111
  102d20:	e15e000c 	cmp	lr, ip
  102d24:	0a000007 	beq	102d48 <XScuGic_Connect+0x60>
  102d28:	e3030dc0 	movw	r0, #15808	; 0x3dc0
  102d2c:	e300117d 	movw	r1, #381	; 0x17d
  102d30:	e3400012 	movt	r0, #18
  102d34:	eb000255 	bl	103690 <Xil_Assert>
  102d38:	e3a03001 	mov	r3, #1
  102d3c:	e5843000 	str	r3, [r4]
  102d40:	e3a00000 	mov	r0, #0
  102d44:	e8bd8010 	pop	{r4, pc}
  102d48:	e5900000 	ldr	r0, [r0]
  102d4c:	e0801181 	add	r1, r0, r1, lsl #3
  102d50:	e3a00000 	mov	r0, #0
  102d54:	e581200c 	str	r2, [r1, #12]
  102d58:	e5813010 	str	r3, [r1, #16]
  102d5c:	e8bd8010 	pop	{r4, pc}
  102d60:	e3030dc0 	movw	r0, #15808	; 0x3dc0
  102d64:	e300117b 	movw	r1, #379	; 0x17b
  102d68:	e3400012 	movt	r0, #18
  102d6c:	eb000247 	bl	103690 <Xil_Assert>
  102d70:	e3a03001 	mov	r3, #1
  102d74:	e3a00000 	mov	r0, #0
  102d78:	e5843000 	str	r3, [r4]
  102d7c:	e8bd8010 	pop	{r4, pc}
  102d80:	e3030dc0 	movw	r0, #15808	; 0x3dc0
  102d84:	e300117a 	movw	r1, #378	; 0x17a
  102d88:	e3400012 	movt	r0, #18
  102d8c:	eb00023f 	bl	103690 <Xil_Assert>
  102d90:	e30c3aec 	movw	r3, #51948	; 0xcaec
  102d94:	e3a02001 	mov	r2, #1
  102d98:	e3403012 	movt	r3, #18
  102d9c:	e5832000 	str	r2, [r3]
  102da0:	eaffffe6 	b	102d40 <XScuGic_Connect+0x58>
  102da4:	e3030dc0 	movw	r0, #15808	; 0x3dc0
  102da8:	e3a01f5f 	mov	r1, #380	; 0x17c
  102dac:	e3400012 	movt	r0, #18
  102db0:	eb000236 	bl	103690 <Xil_Assert>
  102db4:	e3a03001 	mov	r3, #1
  102db8:	e5843000 	str	r3, [r4]
  102dbc:	eaffffdf 	b	102d40 <XScuGic_Connect+0x58>

00102dc0 <XScuGic_Disconnect>:
  102dc0:	e92d4070 	push	{r4, r5, r6, lr}
  102dc4:	e2506000 	subs	r6, r0, #0
  102dc8:	0a000029 	beq	102e74 <XScuGic_Disconnect+0xb4>
  102dcc:	e30c4aec 	movw	r4, #51948	; 0xcaec
  102dd0:	e35100c2 	cmp	r1, #194	; 0xc2
  102dd4:	e3404012 	movt	r4, #18
  102dd8:	e3a03000 	mov	r3, #0
  102ddc:	e1a05001 	mov	r5, r1
  102de0:	e5843000 	str	r3, [r4]
  102de4:	8a00000b 	bhi	102e18 <XScuGic_Disconnect+0x58>
  102de8:	e5962004 	ldr	r2, [r6, #4]
  102dec:	e3013111 	movw	r3, #4369	; 0x1111
  102df0:	e3413111 	movt	r3, #4369	; 0x1111
  102df4:	e1520003 	cmp	r2, r3
  102df8:	0a00000d 	beq	102e34 <XScuGic_Disconnect+0x74>
  102dfc:	e3030dc0 	movw	r0, #15808	; 0x3dc0
  102e00:	e30011a2 	movw	r1, #418	; 0x1a2
  102e04:	e3400012 	movt	r0, #18
  102e08:	eb000220 	bl	103690 <Xil_Assert>
  102e0c:	e3a03001 	mov	r3, #1
  102e10:	e5843000 	str	r3, [r4]
  102e14:	e8bd8070 	pop	{r4, r5, r6, pc}
  102e18:	e3030dc0 	movw	r0, #15808	; 0x3dc0
  102e1c:	e30011a1 	movw	r1, #417	; 0x1a1
  102e20:	e3400012 	movt	r0, #18
  102e24:	eb000219 	bl	103690 <Xil_Assert>
  102e28:	e3a03001 	mov	r3, #1
  102e2c:	e5843000 	str	r3, [r4]
  102e30:	e8bd8070 	pop	{r4, r5, r6, pc}
  102e34:	e5960000 	ldr	r0, [r6]
  102e38:	e1a032a1 	lsr	r3, r1, #5
  102e3c:	e201201f 	and	r2, r1, #31
  102e40:	e2833060 	add	r3, r3, #96	; 0x60
  102e44:	e3a01001 	mov	r1, #1
  102e48:	e5900008 	ldr	r0, [r0, #8]
  102e4c:	e1a01211 	lsl	r1, r1, r2
  102e50:	e0800103 	add	r0, r0, r3, lsl #2
  102e54:	eb0004b9 	bl	104140 <Xil_Out32>
  102e58:	e5963000 	ldr	r3, [r6]
  102e5c:	e3022ae0 	movw	r2, #10976	; 0x2ae0
  102e60:	e3402010 	movt	r2, #16
  102e64:	e0835185 	add	r5, r3, r5, lsl #3
  102e68:	e5856010 	str	r6, [r5, #16]
  102e6c:	e585200c 	str	r2, [r5, #12]
  102e70:	e8bd8070 	pop	{r4, r5, r6, pc}
  102e74:	e3030dc0 	movw	r0, #15808	; 0x3dc0
  102e78:	e3a01e1a 	mov	r1, #416	; 0x1a0
  102e7c:	e3400012 	movt	r0, #18
  102e80:	eb000202 	bl	103690 <Xil_Assert>
  102e84:	e30c3aec 	movw	r3, #51948	; 0xcaec
  102e88:	e3a02001 	mov	r2, #1
  102e8c:	e3403012 	movt	r3, #18
  102e90:	e5832000 	str	r2, [r3]
  102e94:	e8bd8070 	pop	{r4, r5, r6, pc}

00102e98 <XScuGic_Enable>:
  102e98:	e3500000 	cmp	r0, #0
  102e9c:	e92d4010 	push	{r4, lr}
  102ea0:	0a000022 	beq	102f30 <XScuGic_Enable+0x98>
  102ea4:	e30c4aec 	movw	r4, #51948	; 0xcaec
  102ea8:	e35100c2 	cmp	r1, #194	; 0xc2
  102eac:	e3404012 	movt	r4, #18
  102eb0:	e3a03000 	mov	r3, #0
  102eb4:	e5843000 	str	r3, [r4]
  102eb8:	8a00000b 	bhi	102eec <XScuGic_Enable+0x54>
  102ebc:	e5902004 	ldr	r2, [r0, #4]
  102ec0:	e3013111 	movw	r3, #4369	; 0x1111
  102ec4:	e3413111 	movt	r3, #4369	; 0x1111
  102ec8:	e1520003 	cmp	r2, r3
  102ecc:	0a00000d 	beq	102f08 <XScuGic_Enable+0x70>
  102ed0:	e3030dc0 	movw	r0, #15808	; 0x3dc0
  102ed4:	e3a01f75 	mov	r1, #468	; 0x1d4
  102ed8:	e3400012 	movt	r0, #18
  102edc:	eb0001eb 	bl	103690 <Xil_Assert>
  102ee0:	e3a03001 	mov	r3, #1
  102ee4:	e5843000 	str	r3, [r4]
  102ee8:	e8bd8010 	pop	{r4, pc}
  102eec:	e3030dc0 	movw	r0, #15808	; 0x3dc0
  102ef0:	e30011d3 	movw	r1, #467	; 0x1d3
  102ef4:	e3400012 	movt	r0, #18
  102ef8:	eb0001e4 	bl	103690 <Xil_Assert>
  102efc:	e3a03001 	mov	r3, #1
  102f00:	e5843000 	str	r3, [r4]
  102f04:	e8bd8010 	pop	{r4, pc}
  102f08:	e5900000 	ldr	r0, [r0]
  102f0c:	e1a032a1 	lsr	r3, r1, #5
  102f10:	e3a02001 	mov	r2, #1
  102f14:	e8bd4010 	pop	{r4, lr}
  102f18:	e201101f 	and	r1, r1, #31
  102f1c:	e2833040 	add	r3, r3, #64	; 0x40
  102f20:	e5900008 	ldr	r0, [r0, #8]
  102f24:	e1a01112 	lsl	r1, r2, r1
  102f28:	e0800103 	add	r0, r0, r3, lsl #2
  102f2c:	ea000483 	b	104140 <Xil_Out32>
  102f30:	e3030dc0 	movw	r0, #15808	; 0x3dc0
  102f34:	e30011d2 	movw	r1, #466	; 0x1d2
  102f38:	e3400012 	movt	r0, #18
  102f3c:	eb0001d3 	bl	103690 <Xil_Assert>
  102f40:	e30c3aec 	movw	r3, #51948	; 0xcaec
  102f44:	e3a02001 	mov	r2, #1
  102f48:	e3403012 	movt	r3, #18
  102f4c:	e5832000 	str	r2, [r3]
  102f50:	e8bd8010 	pop	{r4, pc}

00102f54 <XScuGic_Disable>:
  102f54:	e3500000 	cmp	r0, #0
  102f58:	e92d4010 	push	{r4, lr}
  102f5c:	0a000022 	beq	102fec <XScuGic_Disable+0x98>
  102f60:	e30c4aec 	movw	r4, #51948	; 0xcaec
  102f64:	e35100c2 	cmp	r1, #194	; 0xc2
  102f68:	e3404012 	movt	r4, #18
  102f6c:	e3a03000 	mov	r3, #0
  102f70:	e5843000 	str	r3, [r4]
  102f74:	8a00000b 	bhi	102fa8 <XScuGic_Disable+0x54>
  102f78:	e5902004 	ldr	r2, [r0, #4]
  102f7c:	e3013111 	movw	r3, #4369	; 0x1111
  102f80:	e3413111 	movt	r3, #4369	; 0x1111
  102f84:	e1520003 	cmp	r2, r3
  102f88:	0a00000d 	beq	102fc4 <XScuGic_Disable+0x70>
  102f8c:	e3030dc0 	movw	r0, #15808	; 0x3dc0
  102f90:	e30011fe 	movw	r1, #510	; 0x1fe
  102f94:	e3400012 	movt	r0, #18
  102f98:	eb0001bc 	bl	103690 <Xil_Assert>
  102f9c:	e3a03001 	mov	r3, #1
  102fa0:	e5843000 	str	r3, [r4]
  102fa4:	e8bd8010 	pop	{r4, pc}
  102fa8:	e3030dc0 	movw	r0, #15808	; 0x3dc0
  102fac:	e30011fd 	movw	r1, #509	; 0x1fd
  102fb0:	e3400012 	movt	r0, #18
  102fb4:	eb0001b5 	bl	103690 <Xil_Assert>
  102fb8:	e3a03001 	mov	r3, #1
  102fbc:	e5843000 	str	r3, [r4]
  102fc0:	e8bd8010 	pop	{r4, pc}
  102fc4:	e5900000 	ldr	r0, [r0]
  102fc8:	e1a032a1 	lsr	r3, r1, #5
  102fcc:	e3a02001 	mov	r2, #1
  102fd0:	e8bd4010 	pop	{r4, lr}
  102fd4:	e201101f 	and	r1, r1, #31
  102fd8:	e2833060 	add	r3, r3, #96	; 0x60
  102fdc:	e5900008 	ldr	r0, [r0, #8]
  102fe0:	e1a01112 	lsl	r1, r2, r1
  102fe4:	e0800103 	add	r0, r0, r3, lsl #2
  102fe8:	ea000454 	b	104140 <Xil_Out32>
  102fec:	e3030dc0 	movw	r0, #15808	; 0x3dc0
  102ff0:	e3a01f7f 	mov	r1, #508	; 0x1fc
  102ff4:	e3400012 	movt	r0, #18
  102ff8:	eb0001a4 	bl	103690 <Xil_Assert>
  102ffc:	e30c3aec 	movw	r3, #51948	; 0xcaec
  103000:	e3a02001 	mov	r2, #1
  103004:	e3403012 	movt	r3, #18
  103008:	e5832000 	str	r2, [r3]
  10300c:	e8bd8010 	pop	{r4, pc}

00103010 <XScuGic_SoftwareIntr>:
  103010:	e3500000 	cmp	r0, #0
  103014:	e92d4010 	push	{r4, lr}
  103018:	0a00002e 	beq	1030d8 <XScuGic_SoftwareIntr+0xc8>
  10301c:	e590e004 	ldr	lr, [r0, #4]
  103020:	e3013111 	movw	r3, #4369	; 0x1111
  103024:	e3413111 	movt	r3, #4369	; 0x1111
  103028:	e30c4aec 	movw	r4, #51948	; 0xcaec
  10302c:	e3404012 	movt	r4, #18
  103030:	e3a0c000 	mov	ip, #0
  103034:	e15e0003 	cmp	lr, r3
  103038:	e584c000 	str	ip, [r4]
  10303c:	1a00000b 	bne	103070 <XScuGic_SoftwareIntr+0x60>
  103040:	e351000f 	cmp	r1, #15
  103044:	8a000011 	bhi	103090 <XScuGic_SoftwareIntr+0x80>
  103048:	e35200ff 	cmp	r2, #255	; 0xff
  10304c:	9a000017 	bls	1030b0 <XScuGic_SoftwareIntr+0xa0>
  103050:	e3030dc0 	movw	r0, #15808	; 0x3dc0
  103054:	e300122d 	movw	r1, #557	; 0x22d
  103058:	e3400012 	movt	r0, #18
  10305c:	eb00018b 	bl	103690 <Xil_Assert>
  103060:	e3a03001 	mov	r3, #1
  103064:	e5843000 	str	r3, [r4]
  103068:	e3a00000 	mov	r0, #0
  10306c:	e8bd8010 	pop	{r4, pc}
  103070:	e3030dc0 	movw	r0, #15808	; 0x3dc0
  103074:	e300122b 	movw	r1, #555	; 0x22b
  103078:	e3400012 	movt	r0, #18
  10307c:	eb000183 	bl	103690 <Xil_Assert>
  103080:	e3a03001 	mov	r3, #1
  103084:	e3a00000 	mov	r0, #0
  103088:	e5843000 	str	r3, [r4]
  10308c:	e8bd8010 	pop	{r4, pc}
  103090:	e3030dc0 	movw	r0, #15808	; 0x3dc0
  103094:	e3a01f8b 	mov	r1, #556	; 0x22c
  103098:	e3400012 	movt	r0, #18
  10309c:	eb00017b 	bl	103690 <Xil_Assert>
  1030a0:	e3a03001 	mov	r3, #1
  1030a4:	e3a00000 	mov	r0, #0
  1030a8:	e5843000 	str	r3, [r4]
  1030ac:	e8bd8010 	pop	{r4, pc}
  1030b0:	e5903000 	ldr	r3, [r0]
  1030b4:	e1812802 	orr	r2, r1, r2, lsl #16
  1030b8:	e3a0100f 	mov	r1, #15
  1030bc:	e34010ff 	movt	r1, #255	; 0xff
  1030c0:	e5930008 	ldr	r0, [r3, #8]
  1030c4:	e0011002 	and	r1, r1, r2
  1030c8:	e2800c0f 	add	r0, r0, #3840	; 0xf00
  1030cc:	eb00041b 	bl	104140 <Xil_Out32>
  1030d0:	e3a00000 	mov	r0, #0
  1030d4:	e8bd8010 	pop	{r4, pc}
  1030d8:	e3030dc0 	movw	r0, #15808	; 0x3dc0
  1030dc:	e300122a 	movw	r1, #554	; 0x22a
  1030e0:	e3400012 	movt	r0, #18
  1030e4:	eb000169 	bl	103690 <Xil_Assert>
  1030e8:	e30c3aec 	movw	r3, #51948	; 0xcaec
  1030ec:	e3a02001 	mov	r2, #1
  1030f0:	e3403012 	movt	r3, #18
  1030f4:	e5832000 	str	r2, [r3]
  1030f8:	eaffffda 	b	103068 <XScuGic_SoftwareIntr+0x58>

001030fc <XScuGic_SetPriorityTriggerType>:
  1030fc:	e92d4070 	push	{r4, r5, r6, lr}
  103100:	e2506000 	subs	r6, r0, #0
  103104:	e24dd008 	sub	sp, sp, #8
  103108:	0a000053 	beq	10325c <XScuGic_SetPriorityTriggerType+0x160>
  10310c:	e596e004 	ldr	lr, [r6, #4]
  103110:	e301c111 	movw	ip, #4369	; 0x1111
  103114:	e341c111 	movt	ip, #4369	; 0x1111
  103118:	e30c4aec 	movw	r4, #51948	; 0xcaec
  10311c:	e3404012 	movt	r4, #18
  103120:	e3a00000 	mov	r0, #0
  103124:	e15e000c 	cmp	lr, ip
  103128:	e5840000 	str	r0, [r4]
  10312c:	1a00000e 	bne	10316c <XScuGic_SetPriorityTriggerType+0x70>
  103130:	e35100c2 	cmp	r1, #194	; 0xc2
  103134:	e1a05001 	mov	r5, r1
  103138:	8a000013 	bhi	10318c <XScuGic_SetPriorityTriggerType+0x90>
  10313c:	e3530003 	cmp	r3, #3
  103140:	8a00003e 	bhi	103240 <XScuGic_SetPriorityTriggerType+0x144>
  103144:	e35200f8 	cmp	r2, #248	; 0xf8
  103148:	9a000017 	bls	1031ac <XScuGic_SetPriorityTriggerType+0xb0>
  10314c:	e3030dc0 	movw	r0, #15808	; 0x3dc0
  103150:	e3a01d0a 	mov	r1, #640	; 0x280
  103154:	e3400012 	movt	r0, #18
  103158:	eb00014c 	bl	103690 <Xil_Assert>
  10315c:	e3a03001 	mov	r3, #1
  103160:	e5843000 	str	r3, [r4]
  103164:	e28dd008 	add	sp, sp, #8
  103168:	e8bd8070 	pop	{r4, r5, r6, pc}
  10316c:	e3030dc0 	movw	r0, #15808	; 0x3dc0
  103170:	e300127d 	movw	r1, #637	; 0x27d
  103174:	e3400012 	movt	r0, #18
  103178:	eb000144 	bl	103690 <Xil_Assert>
  10317c:	e3a03001 	mov	r3, #1
  103180:	e5843000 	str	r3, [r4]
  103184:	e28dd008 	add	sp, sp, #8
  103188:	e8bd8070 	pop	{r4, r5, r6, pc}
  10318c:	e3030dc0 	movw	r0, #15808	; 0x3dc0
  103190:	e300127e 	movw	r1, #638	; 0x27e
  103194:	e3400012 	movt	r0, #18
  103198:	eb00013c 	bl	103690 <Xil_Assert>
  10319c:	e3a03001 	mov	r3, #1
  1031a0:	e5843000 	str	r3, [r4]
  1031a4:	e28dd008 	add	sp, sp, #8
  1031a8:	e8bd8070 	pop	{r4, r5, r6, pc}
  1031ac:	e5961000 	ldr	r1, [r6]
  1031b0:	e3c54003 	bic	r4, r5, #3
  1031b4:	e2844b01 	add	r4, r4, #1024	; 0x400
  1031b8:	e88d000c 	stm	sp, {r2, r3}
  1031bc:	e5910008 	ldr	r0, [r1, #8]
  1031c0:	e0840000 	add	r0, r4, r0
  1031c4:	eb0003d7 	bl	104128 <Xil_In32>
  1031c8:	e596e000 	ldr	lr, [r6]
  1031cc:	e205c003 	and	ip, r5, #3
  1031d0:	e1a0c18c 	lsl	ip, ip, #3
  1031d4:	e59d2000 	ldr	r2, [sp]
  1031d8:	e3a010ff 	mov	r1, #255	; 0xff
  1031dc:	e59ee008 	ldr	lr, [lr, #8]
  1031e0:	e1c01c11 	bic	r1, r0, r1, lsl ip
  1031e4:	e20220f8 	and	r2, r2, #248	; 0xf8
  1031e8:	e1811c12 	orr	r1, r1, r2, lsl ip
  1031ec:	e084000e 	add	r0, r4, lr
  1031f0:	e1a04225 	lsr	r4, r5, #4
  1031f4:	e205500f 	and	r5, r5, #15
  1031f8:	eb0003d0 	bl	104140 <Xil_Out32>
  1031fc:	e5962000 	ldr	r2, [r6]
  103200:	e2844c03 	add	r4, r4, #768	; 0x300
  103204:	e1a04104 	lsl	r4, r4, #2
  103208:	e1a05085 	lsl	r5, r5, #1
  10320c:	e5920008 	ldr	r0, [r2, #8]
  103210:	e0840000 	add	r0, r4, r0
  103214:	eb0003c3 	bl	104128 <Xil_In32>
  103218:	e5962000 	ldr	r2, [r6]
  10321c:	e3a01003 	mov	r1, #3
  103220:	e59d3004 	ldr	r3, [sp, #4]
  103224:	e1c01511 	bic	r1, r0, r1, lsl r5
  103228:	e5922008 	ldr	r2, [r2, #8]
  10322c:	e1811513 	orr	r1, r1, r3, lsl r5
  103230:	e0840002 	add	r0, r4, r2
  103234:	e28dd008 	add	sp, sp, #8
  103238:	e8bd4070 	pop	{r4, r5, r6, lr}
  10323c:	ea0003bf 	b	104140 <Xil_Out32>
  103240:	e3030dc0 	movw	r0, #15808	; 0x3dc0
  103244:	e300127f 	movw	r1, #639	; 0x27f
  103248:	e3400012 	movt	r0, #18
  10324c:	eb00010f 	bl	103690 <Xil_Assert>
  103250:	e3a03001 	mov	r3, #1
  103254:	e5843000 	str	r3, [r4]
  103258:	eaffffc1 	b	103164 <XScuGic_SetPriorityTriggerType+0x68>
  10325c:	e3030dc0 	movw	r0, #15808	; 0x3dc0
  103260:	e3a01f9f 	mov	r1, #636	; 0x27c
  103264:	e3400012 	movt	r0, #18
  103268:	eb000108 	bl	103690 <Xil_Assert>
  10326c:	e30c3aec 	movw	r3, #51948	; 0xcaec
  103270:	e3a02001 	mov	r2, #1
  103274:	e3403012 	movt	r3, #18
  103278:	e5832000 	str	r2, [r3]
  10327c:	eaffffb8 	b	103164 <XScuGic_SetPriorityTriggerType+0x68>

00103280 <XScuGic_GetPriorityTriggerType>:
  103280:	e92d41f0 	push	{r4, r5, r6, r7, r8, lr}
  103284:	e2506000 	subs	r6, r0, #0
  103288:	0a00003c 	beq	103380 <XScuGic_GetPriorityTriggerType+0x100>
  10328c:	e5960004 	ldr	r0, [r6, #4]
  103290:	e1a04001 	mov	r4, r1
  103294:	e3011111 	movw	r1, #4369	; 0x1111
  103298:	e30c5aec 	movw	r5, #51948	; 0xcaec
  10329c:	e3411111 	movt	r1, #4369	; 0x1111
  1032a0:	e1a07003 	mov	r7, r3
  1032a4:	e1500001 	cmp	r0, r1
  1032a8:	e3405012 	movt	r5, #18
  1032ac:	e3a03000 	mov	r3, #0
  1032b0:	e5853000 	str	r3, [r5]
  1032b4:	1a00001c 	bne	10332c <XScuGic_GetPriorityTriggerType+0xac>
  1032b8:	e35400c2 	cmp	r4, #194	; 0xc2
  1032bc:	8a000021 	bhi	103348 <XScuGic_GetPriorityTriggerType+0xc8>
  1032c0:	e3520000 	cmp	r2, #0
  1032c4:	e1a08002 	mov	r8, r2
  1032c8:	0a000035 	beq	1033a4 <XScuGic_GetPriorityTriggerType+0x124>
  1032cc:	e3570000 	cmp	r7, #0
  1032d0:	0a000023 	beq	103364 <XScuGic_GetPriorityTriggerType+0xe4>
  1032d4:	e5962000 	ldr	r2, [r6]
  1032d8:	e3c43003 	bic	r3, r4, #3
  1032dc:	e2833b01 	add	r3, r3, #1024	; 0x400
  1032e0:	e5920008 	ldr	r0, [r2, #8]
  1032e4:	e0830000 	add	r0, r3, r0
  1032e8:	eb00038e 	bl	104128 <Xil_In32>
  1032ec:	e2041003 	and	r1, r4, #3
  1032f0:	e1a03224 	lsr	r3, r4, #4
  1032f4:	e1a01181 	lsl	r1, r1, #3
  1032f8:	e204400f 	and	r4, r4, #15
  1032fc:	e2833c03 	add	r3, r3, #768	; 0x300
  103300:	e1a04084 	lsl	r4, r4, #1
  103304:	e1a00130 	lsr	r0, r0, r1
  103308:	e5c80000 	strb	r0, [r8]
  10330c:	e5962000 	ldr	r2, [r6]
  103310:	e5920008 	ldr	r0, [r2, #8]
  103314:	e0800103 	add	r0, r0, r3, lsl #2
  103318:	eb000382 	bl	104128 <Xil_In32>
  10331c:	e1a00430 	lsr	r0, r0, r4
  103320:	e2004003 	and	r4, r0, #3
  103324:	e5c74000 	strb	r4, [r7]
  103328:	e8bd81f0 	pop	{r4, r5, r6, r7, r8, pc}
  10332c:	e3030dc0 	movw	r0, #15808	; 0x3dc0
  103330:	e30012c7 	movw	r1, #711	; 0x2c7
  103334:	e3400012 	movt	r0, #18
  103338:	eb0000d4 	bl	103690 <Xil_Assert>
  10333c:	e3a03001 	mov	r3, #1
  103340:	e5853000 	str	r3, [r5]
  103344:	e8bd81f0 	pop	{r4, r5, r6, r7, r8, pc}
  103348:	e3030dc0 	movw	r0, #15808	; 0x3dc0
  10334c:	e3a01fb2 	mov	r1, #712	; 0x2c8
  103350:	e3400012 	movt	r0, #18
  103354:	eb0000cd 	bl	103690 <Xil_Assert>
  103358:	e3a03001 	mov	r3, #1
  10335c:	e5853000 	str	r3, [r5]
  103360:	e8bd81f0 	pop	{r4, r5, r6, r7, r8, pc}
  103364:	e3030dc0 	movw	r0, #15808	; 0x3dc0
  103368:	e30012ca 	movw	r1, #714	; 0x2ca
  10336c:	e3400012 	movt	r0, #18
  103370:	eb0000c6 	bl	103690 <Xil_Assert>
  103374:	e3a03001 	mov	r3, #1
  103378:	e5853000 	str	r3, [r5]
  10337c:	e8bd81f0 	pop	{r4, r5, r6, r7, r8, pc}
  103380:	e3030dc0 	movw	r0, #15808	; 0x3dc0
  103384:	e30012c6 	movw	r1, #710	; 0x2c6
  103388:	e3400012 	movt	r0, #18
  10338c:	eb0000bf 	bl	103690 <Xil_Assert>
  103390:	e30c3aec 	movw	r3, #51948	; 0xcaec
  103394:	e3a02001 	mov	r2, #1
  103398:	e3403012 	movt	r3, #18
  10339c:	e5832000 	str	r2, [r3]
  1033a0:	e8bd81f0 	pop	{r4, r5, r6, r7, r8, pc}
  1033a4:	e3030dc0 	movw	r0, #15808	; 0x3dc0
  1033a8:	e30012c9 	movw	r1, #713	; 0x2c9
  1033ac:	e3400012 	movt	r0, #18
  1033b0:	eb0000b6 	bl	103690 <Xil_Assert>
  1033b4:	e3a03001 	mov	r3, #1
  1033b8:	e5853000 	str	r3, [r5]
  1033bc:	e8bd81f0 	pop	{r4, r5, r6, r7, r8, pc}

001033c0 <XScuGic_InterruptMaptoCpu>:
  1033c0:	e5903000 	ldr	r3, [r0]
  1033c4:	e92d41f0 	push	{r4, r5, r6, r7, r8, lr}
  1033c8:	e1a06000 	mov	r6, r0
  1033cc:	e3c25003 	bic	r5, r2, #3
  1033d0:	e1a07001 	mov	r7, r1
  1033d4:	e2855b02 	add	r5, r5, #2048	; 0x800
  1033d8:	e1a04002 	mov	r4, r2
  1033dc:	e5930008 	ldr	r0, [r3, #8]
  1033e0:	e2044003 	and	r4, r4, #3
  1033e4:	e1a04184 	lsl	r4, r4, #3
  1033e8:	e0850000 	add	r0, r5, r0
  1033ec:	eb00034d 	bl	104128 <Xil_In32>
  1033f0:	e5962000 	ldr	r2, [r6]
  1033f4:	e3a030ff 	mov	r3, #255	; 0xff
  1033f8:	e1c01413 	bic	r1, r0, r3, lsl r4
  1033fc:	e5922008 	ldr	r2, [r2, #8]
  103400:	e1811417 	orr	r1, r1, r7, lsl r4
  103404:	e0850002 	add	r0, r5, r2
  103408:	e8bd41f0 	pop	{r4, r5, r6, r7, r8, lr}
  10340c:	ea00034b 	b	104140 <Xil_Out32>

00103410 <XScuGic_InterruptHandler>:
  103410:	e92d4070 	push	{r4, r5, r6, lr}
  103414:	e2504000 	subs	r4, r0, #0
  103418:	0a000018 	beq	103480 <XScuGic_InterruptHandler+0x70>
  10341c:	e5942000 	ldr	r2, [r4]
  103420:	e30c3aec 	movw	r3, #51948	; 0xcaec
  103424:	e3403012 	movt	r3, #18
  103428:	e3a01000 	mov	r1, #0
  10342c:	e5831000 	str	r1, [r3]
  103430:	e5920004 	ldr	r0, [r2, #4]
  103434:	e280000c 	add	r0, r0, #12
  103438:	eb00033a 	bl	104128 <Xil_In32>
  10343c:	e7e92050 	ubfx	r2, r0, #0, #10
  103440:	e1a05000 	mov	r5, r0
  103444:	e35200c3 	cmp	r2, #195	; 0xc3
  103448:	e5943000 	ldr	r3, [r4]
  10344c:	8a000006 	bhi	10346c <XScuGic_InterruptHandler+0x5c>
  103450:	e0831182 	add	r1, r3, r2, lsl #3
  103454:	e371000c 	cmn	r1, #12
  103458:	0a000003 	beq	10346c <XScuGic_InterruptHandler+0x5c>
  10345c:	e591200c 	ldr	r2, [r1, #12]
  103460:	e5910010 	ldr	r0, [r1, #16]
  103464:	e12fff32 	blx	r2
  103468:	e5943000 	ldr	r3, [r4]
  10346c:	e5930004 	ldr	r0, [r3, #4]
  103470:	e1a01005 	mov	r1, r5
  103474:	e8bd4070 	pop	{r4, r5, r6, lr}
  103478:	e2800010 	add	r0, r0, #16
  10347c:	ea00032f 	b	104140 <Xil_Out32>
  103480:	e3030dcc 	movw	r0, #15820	; 0x3dcc
  103484:	e3a0107d 	mov	r1, #125	; 0x7d
  103488:	e3400012 	movt	r0, #18
  10348c:	eb00007f 	bl	103690 <Xil_Assert>
  103490:	e30c3aec 	movw	r3, #51948	; 0xcaec
  103494:	e3a02001 	mov	r2, #1
  103498:	e3403012 	movt	r3, #18
  10349c:	e5832000 	str	r2, [r3]
  1034a0:	e8bd8070 	pop	{r4, r5, r6, pc}

001034a4 <XScuGic_SelfTest>:
  1034a4:	e92d4070 	push	{r4, r5, r6, lr}
  1034a8:	e2506000 	subs	r6, r0, #0
  1034ac:	0a000020 	beq	103534 <XScuGic_SelfTest+0x90>
  1034b0:	e5962004 	ldr	r2, [r6, #4]
  1034b4:	e3013111 	movw	r3, #4369	; 0x1111
  1034b8:	e3413111 	movt	r3, #4369	; 0x1111
  1034bc:	e30c5aec 	movw	r5, #51948	; 0xcaec
  1034c0:	e3405012 	movt	r5, #18
  1034c4:	e3a04000 	mov	r4, #0
  1034c8:	e1520003 	cmp	r2, r3
  1034cc:	e5854000 	str	r4, [r5]
  1034d0:	01a05004 	moveq	r5, r4
  1034d4:	1a00000e 	bne	103514 <XScuGic_SelfTest+0x70>
  1034d8:	e5963000 	ldr	r3, [r6]
  1034dc:	e5933008 	ldr	r3, [r3, #8]
  1034e0:	e2830eff 	add	r0, r3, #4080	; 0xff0
  1034e4:	e0800004 	add	r0, r0, r4
  1034e8:	eb00030e 	bl	104128 <Xil_In32>
  1034ec:	e1a03084 	lsl	r3, r4, #1
  1034f0:	e2844004 	add	r4, r4, #4
  1034f4:	e3540010 	cmp	r4, #16
  1034f8:	e1855310 	orr	r5, r5, r0, lsl r3
  1034fc:	1afffff5 	bne	1034d8 <XScuGic_SelfTest+0x34>
  103500:	e30f300d 	movw	r3, #61453	; 0xf00d
  103504:	e34b3105 	movt	r3, #45317	; 0xb105
  103508:	e0550003 	subs	r0, r5, r3
  10350c:	13a00001 	movne	r0, #1
  103510:	e8bd8070 	pop	{r4, r5, r6, pc}
  103514:	e3030ddc 	movw	r0, #15836	; 0x3ddc
  103518:	e3a01062 	mov	r1, #98	; 0x62
  10351c:	e3400012 	movt	r0, #18
  103520:	eb00005a 	bl	103690 <Xil_Assert>
  103524:	e3a03001 	mov	r3, #1
  103528:	e1a00004 	mov	r0, r4
  10352c:	e5853000 	str	r3, [r5]
  103530:	e8bd8070 	pop	{r4, r5, r6, pc}
  103534:	e3030ddc 	movw	r0, #15836	; 0x3ddc
  103538:	e3a01061 	mov	r1, #97	; 0x61
  10353c:	e3400012 	movt	r0, #18
  103540:	eb000052 	bl	103690 <Xil_Assert>
  103544:	e30c3aec 	movw	r3, #51948	; 0xcaec
  103548:	e3a02001 	mov	r2, #1
  10354c:	e3403012 	movt	r3, #18
  103550:	e1a00006 	mov	r0, r6
  103554:	e5832000 	str	r2, [r3]
  103558:	e8bd8070 	pop	{r4, r5, r6, pc}

0010355c <XScuGic_LookupConfig>:
  10355c:	e3043030 	movw	r3, #16432	; 0x4030
  103560:	e3403012 	movt	r3, #18
  103564:	e1d320b0 	ldrh	r2, [r3]
  103568:	e1520000 	cmp	r2, r0
  10356c:	01a00003 	moveq	r0, r3
  103570:	13a00000 	movne	r0, #0
  103574:	e12fff1e 	bx	lr

00103578 <print>:
  103578:	e92d4010 	push	{r4, lr}
  10357c:	e1a04000 	mov	r4, r0
  103580:	e5d00000 	ldrb	r0, [r0]
  103584:	e3500000 	cmp	r0, #0
  103588:	08bd8010 	popeq	{r4, pc}
  10358c:	eb0004de 	bl	10490c <outbyte>
  103590:	e5f40001 	ldrb	r0, [r4, #1]!
  103594:	e3500000 	cmp	r0, #0
  103598:	1afffffb 	bne	10358c <print+0x14>
  10359c:	e8bd8010 	pop	{r4, pc}

001035a0 <UndefinedException>:
  1035a0:	e3033ff0 	movw	r3, #16368	; 0x3ff0
  1035a4:	e3403012 	movt	r3, #18
  1035a8:	e5932008 	ldr	r2, [r3, #8]
  1035ac:	e593000c 	ldr	r0, [r3, #12]
  1035b0:	e12fff12 	bx	r2

001035b4 <FIQInterrupt>:
  1035b4:	e3033ff0 	movw	r3, #16368	; 0x3ff0
  1035b8:	e3403012 	movt	r3, #18
  1035bc:	e5932030 	ldr	r2, [r3, #48]	; 0x30
  1035c0:	e5930034 	ldr	r0, [r3, #52]	; 0x34
  1035c4:	e12fff12 	bx	r2

001035c8 <IRQInterrupt>:
  1035c8:	e3033ff0 	movw	r3, #16368	; 0x3ff0
  1035cc:	e3403012 	movt	r3, #18
  1035d0:	e5932028 	ldr	r2, [r3, #40]	; 0x28
  1035d4:	e593002c 	ldr	r0, [r3, #44]	; 0x2c
  1035d8:	e12fff12 	bx	r2

001035dc <SWInterrupt>:
  1035dc:	e3033ff0 	movw	r3, #16368	; 0x3ff0
  1035e0:	e3403012 	movt	r3, #18
  1035e4:	e5932010 	ldr	r2, [r3, #16]
  1035e8:	e5930014 	ldr	r0, [r3, #20]
  1035ec:	e12fff12 	bx	r2

001035f0 <DataAbortInterrupt>:
  1035f0:	e3033ff0 	movw	r3, #16368	; 0x3ff0
  1035f4:	e3403012 	movt	r3, #18
  1035f8:	e5932020 	ldr	r2, [r3, #32]
  1035fc:	e5930024 	ldr	r0, [r3, #36]	; 0x24
  103600:	e12fff12 	bx	r2

00103604 <PrefetchAbortInterrupt>:
  103604:	e3033ff0 	movw	r3, #16368	; 0x3ff0
  103608:	e3403012 	movt	r3, #18
  10360c:	e5932018 	ldr	r2, [r3, #24]
  103610:	e593001c 	ldr	r0, [r3, #28]
  103614:	e12fff12 	bx	r2
  103618:	0012c014 	.word	0x0012c014
  10361c:	0012c014 	.word	0x0012c014
  103620:	0012c020 	.word	0x0012c020
  103624:	0012cb00 	.word	0x0012cb00
  103628:	07622180 	.word	0x07622180

0010362c <_start>:
  10362c:	eb0004a7 	bl	1048d0 <__cpu_init>
  103630:	e3a00000 	mov	r0, #0
  103634:	e51f1024 	ldr	r1, [pc, #-36]	; 103618 <PrefetchAbortInterrupt+0x14>
  103638:	e51f2024 	ldr	r2, [pc, #-36]	; 10361c <PrefetchAbortInterrupt+0x18>
  10363c:	e1510002 	cmp	r1, r2
  103640:	aa000001 	bge	10364c <_start+0x20>
  103644:	e4810004 	str	r0, [r1], #4
  103648:	eafffffb 	b	10363c <_start+0x10>
  10364c:	e51f1034 	ldr	r1, [pc, #-52]	; 103620 <PrefetchAbortInterrupt+0x1c>
  103650:	e51f2034 	ldr	r2, [pc, #-52]	; 103624 <PrefetchAbortInterrupt+0x20>
  103654:	e1510002 	cmp	r1, r2
  103658:	aa000001 	bge	103664 <_start+0x38>
  10365c:	e4810004 	str	r0, [r1], #4
  103660:	eafffffb 	b	103654 <_start+0x28>
  103664:	e51fd044 	ldr	sp, [pc, #-68]	; 103628 <PrefetchAbortInterrupt+0x24>
  103668:	e3a00000 	mov	r0, #0
  10366c:	e3a01000 	mov	r1, #0
  103670:	eb00046e 	bl	104830 <XTime_SetTime>
  103674:	eb00058a 	bl	104ca4 <__libc_init_array>
  103678:	e3a00000 	mov	r0, #0
  10367c:	e3a01000 	mov	r1, #0
  103680:	ebfff3c7 	bl	1005a4 <main>
  103684:	eb000576 	bl	104c64 <__libc_fini_array>
  103688:	eb000568 	bl	104c30 <exit>
  10368c:	eafffffe 	b	10368c <_start+0x60>

00103690 <Xil_Assert>:
  103690:	e30c3054 	movw	r3, #49236	; 0xc054
  103694:	e92d4010 	push	{r4, lr}
  103698:	e3403012 	movt	r3, #18
  10369c:	e5933000 	ldr	r3, [r3]
  1036a0:	e3530000 	cmp	r3, #0
  1036a4:	0a000000 	beq	1036ac <Xil_Assert+0x1c>
  1036a8:	e12fff33 	blx	r3
  1036ac:	eafffffe 	b	1036ac <Xil_Assert+0x1c>

001036b0 <Xil_AssertSetCallback>:
  1036b0:	e30c3054 	movw	r3, #49236	; 0xc054
  1036b4:	e3403012 	movt	r3, #18
  1036b8:	e5830000 	str	r0, [r3]
  1036bc:	e12fff1e 	bx	lr

001036c0 <XNullHandler>:
  1036c0:	e12fff1e 	bx	lr

001036c4 <Xil_DCacheInvalidateLine>:
  1036c4:	e92d4070 	push	{r4, r5, r6, lr}
  1036c8:	e1a04000 	mov	r4, r0
  1036cc:	e10f5000 	mrs	r5, CPSR
  1036d0:	e38530c0 	orr	r3, r5, #192	; 0xc0
  1036d4:	e129f003 	msr	CPSR_fc, r3
  1036d8:	e3020770 	movw	r0, #10096	; 0x2770
  1036dc:	e1a01004 	mov	r1, r4
  1036e0:	e34f08f0 	movt	r0, #63728	; 0xf8f0
  1036e4:	eb000295 	bl	104140 <Xil_Out32>
  1036e8:	f57ff04f 	dsb	sy
  1036ec:	e3a03000 	mov	r3, #0
  1036f0:	ee403f10 	mcr	15, 2, r3, cr0, cr0, {0}
  1036f4:	e3c4401f 	bic	r4, r4, #31
  1036f8:	ee074f36 	mcr	15, 0, r4, cr7, cr6, {1}
  1036fc:	f57ff04f 	dsb	sy
  103700:	e129f005 	msr	CPSR_fc, r5
  103704:	e8bd8070 	pop	{r4, r5, r6, pc}

00103708 <Xil_DCacheFlushRange>:
  103708:	e92d41f0 	push	{r4, r5, r6, r7, r8, lr}
  10370c:	e10f7000 	mrs	r7, CPSR
  103710:	e38730c0 	orr	r3, r7, #192	; 0xc0
  103714:	e129f003 	msr	CPSR_fc, r3
  103718:	e3510000 	cmp	r1, #0
  10371c:	0a00000e 	beq	10375c <Xil_DCacheFlushRange+0x54>
  103720:	e0805001 	add	r5, r0, r1
  103724:	e3c0401f 	bic	r4, r0, #31
  103728:	e1550004 	cmp	r5, r4
  10372c:	9a00000a 	bls	10375c <Xil_DCacheFlushRange+0x54>
  103730:	e3a06a02 	mov	r6, #8192	; 0x2000
  103734:	e34f68f0 	movt	r6, #63728	; 0xf8f0
  103738:	ee074f3e 	mcr	15, 0, r4, cr7, cr14, {1}
  10373c:	e3a00d9d 	mov	r0, #10048	; 0x2740
  103740:	e58647f0 	str	r4, [r6, #2032]	; 0x7f0
  103744:	e34f08f0 	movt	r0, #63728	; 0xf8f0
  103748:	e2844020 	add	r4, r4, #32
  10374c:	e3a01000 	mov	r1, #0
  103750:	eb00027a 	bl	104140 <Xil_Out32>
  103754:	e1550004 	cmp	r5, r4
  103758:	8afffff6 	bhi	103738 <Xil_DCacheFlushRange+0x30>
  10375c:	f57ff04f 	dsb	sy
  103760:	e129f007 	msr	CPSR_fc, r7
  103764:	e8bd81f0 	pop	{r4, r5, r6, r7, r8, pc}

00103768 <Xil_DCacheStoreLine>:
  103768:	e92d4010 	push	{r4, lr}
  10376c:	e1a01000 	mov	r1, r0
  103770:	e10f4000 	mrs	r4, CPSR
  103774:	e38430c0 	orr	r3, r4, #192	; 0xc0
  103778:	e129f003 	msr	CPSR_fc, r3
  10377c:	e3a03000 	mov	r3, #0
  103780:	ee403f10 	mcr	15, 2, r3, cr0, cr0, {0}
  103784:	e3c0301f 	bic	r3, r0, #31
  103788:	ee073f3a 	mcr	15, 0, r3, cr7, cr10, {1}
  10378c:	f57ff04f 	dsb	sy
  103790:	e30207b0 	movw	r0, #10160	; 0x27b0
  103794:	e34f08f0 	movt	r0, #63728	; 0xf8f0
  103798:	eb000268 	bl	104140 <Xil_Out32>
  10379c:	f57ff04f 	dsb	sy
  1037a0:	e129f004 	msr	CPSR_fc, r4
  1037a4:	e8bd8010 	pop	{r4, pc}

001037a8 <Xil_ICacheInvalidateLine>:
  1037a8:	e92d4070 	push	{r4, r5, r6, lr}
  1037ac:	e1a04000 	mov	r4, r0
  1037b0:	e10f5000 	mrs	r5, CPSR
  1037b4:	e38530c0 	orr	r3, r5, #192	; 0xc0
  1037b8:	e129f003 	msr	CPSR_fc, r3
  1037bc:	e3020770 	movw	r0, #10096	; 0x2770
  1037c0:	e1a01004 	mov	r1, r4
  1037c4:	e34f08f0 	movt	r0, #63728	; 0xf8f0
  1037c8:	eb00025c 	bl	104140 <Xil_Out32>
  1037cc:	f57ff04f 	dsb	sy
  1037d0:	e3a03001 	mov	r3, #1
  1037d4:	ee403f10 	mcr	15, 2, r3, cr0, cr0, {0}
  1037d8:	e3c4401f 	bic	r4, r4, #31
  1037dc:	ee074f35 	mcr	15, 0, r4, cr7, cr5, {1}
  1037e0:	f57ff04f 	dsb	sy
  1037e4:	e129f005 	msr	CPSR_fc, r5
  1037e8:	e8bd8070 	pop	{r4, r5, r6, pc}

001037ec <Xil_ICacheInvalidateRange>:
  1037ec:	e10f2000 	mrs	r2, CPSR
  1037f0:	e38230c0 	orr	r3, r2, #192	; 0xc0
  1037f4:	e129f003 	msr	CPSR_fc, r3
  1037f8:	e3510000 	cmp	r1, #0
  1037fc:	0a00000d 	beq	103838 <Xil_ICacheInvalidateRange+0x4c>
  103800:	e0801001 	add	r1, r0, r1
  103804:	e3a03001 	mov	r3, #1
  103808:	e3c0001f 	bic	r0, r0, #31
  10380c:	ee403f10 	mcr	15, 2, r3, cr0, cr0, {0}
  103810:	e1510000 	cmp	r1, r0
  103814:	9a000007 	bls	103838 <Xil_ICacheInvalidateRange+0x4c>
  103818:	e3a03a02 	mov	r3, #8192	; 0x2000
  10381c:	e34f38f0 	movt	r3, #63728	; 0xf8f0
  103820:	e5830770 	str	r0, [r3, #1904]	; 0x770
  103824:	f57ff04f 	dsb	sy
  103828:	ee070f35 	mcr	15, 0, r0, cr7, cr5, {1}
  10382c:	e2800020 	add	r0, r0, #32
  103830:	e1510000 	cmp	r1, r0
  103834:	8afffff9 	bhi	103820 <Xil_ICacheInvalidateRange+0x34>
  103838:	f57ff04f 	dsb	sy
  10383c:	e129f002 	msr	CPSR_fc, r2
  103840:	e12fff1e 	bx	lr

00103844 <Xil_L1DCacheInvalidate>:
  103844:	e92d41f0 	push	{r4, r5, r6, r7, r8, lr}
  103848:	e10f7000 	mrs	r7, CPSR
  10384c:	e38730c0 	orr	r3, r7, #192	; 0xc0
  103850:	e129f003 	msr	CPSR_fc, r3
  103854:	e3031980 	movw	r1, #14720	; 0x3980
  103858:	e3040b00 	movw	r0, #19200	; 0x4b00
  10385c:	e340062d 	movt	r0, #1581	; 0x62d
  103860:	e3401762 	movt	r1, #1890	; 0x762
  103864:	e0601001 	rsb	r1, r0, r1
  103868:	e3a05000 	mov	r5, #0
  10386c:	ebffffa5 	bl	103708 <Xil_DCacheFlushRange>
  103870:	ee405f10 	mcr	15, 2, r5, cr0, cr0, {0}
  103874:	ee304f10 	mrc	15, 1, r4, cr0, cr0, {0}
  103878:	e7e806d4 	ubfx	r0, r4, #13, #9
  10387c:	e7e661d4 	ubfx	r6, r4, #3, #7
  103880:	e2800001 	add	r0, r0, #1
  103884:	e2866001 	add	r6, r6, #1
  103888:	e1a00380 	lsl	r0, r0, #7
  10388c:	e1a01006 	mov	r1, r6
  103890:	e2044007 	and	r4, r4, #7
  103894:	eb00045b 	bl	104a08 <__aeabi_uidiv>
  103898:	e2844004 	add	r4, r4, #4
  10389c:	e3a03001 	mov	r3, #1
  1038a0:	e1a00430 	lsr	r0, r0, r4
  1038a4:	e1a04413 	lsl	r4, r3, r4
  1038a8:	e1a0ef05 	lsl	lr, r5, #30
  1038ac:	e3500000 	cmp	r0, #0
  1038b0:	13a03000 	movne	r3, #0
  1038b4:	11a02003 	movne	r2, r3
  1038b8:	0a000005 	beq	1038d4 <Xil_L1DCacheInvalidate+0x90>
  1038bc:	e182c00e 	orr	ip, r2, lr
  1038c0:	ee07cf56 	mcr	15, 0, ip, cr7, cr6, {2}
  1038c4:	e2833001 	add	r3, r3, #1
  1038c8:	e0822004 	add	r2, r2, r4
  1038cc:	e1530000 	cmp	r3, r0
  1038d0:	1afffff9 	bne	1038bc <Xil_L1DCacheInvalidate+0x78>
  1038d4:	e2855001 	add	r5, r5, #1
  1038d8:	e1560005 	cmp	r6, r5
  1038dc:	1afffff1 	bne	1038a8 <Xil_L1DCacheInvalidate+0x64>
  1038e0:	f57ff04f 	dsb	sy
  1038e4:	e129f007 	msr	CPSR_fc, r7
  1038e8:	e8bd81f0 	pop	{r4, r5, r6, r7, r8, pc}

001038ec <Xil_L1DCacheEnable>:
  1038ec:	e92d4010 	push	{r4, lr}
  1038f0:	ee114f10 	mrc	15, 0, r4, cr1, cr0, {0}
  1038f4:	e3140004 	tst	r4, #4
  1038f8:	18bd8010 	popne	{r4, pc}
  1038fc:	ebffffd0 	bl	103844 <Xil_L1DCacheInvalidate>
  103900:	e3844004 	orr	r4, r4, #4
  103904:	ee014f10 	mcr	15, 0, r4, cr1, cr0, {0}
  103908:	e8bd8010 	pop	{r4, pc}

0010390c <Xil_L1DCacheInvalidateLine>:
  10390c:	e3a03000 	mov	r3, #0
  103910:	ee403f10 	mcr	15, 2, r3, cr0, cr0, {0}
  103914:	e3c0001f 	bic	r0, r0, #31
  103918:	ee070f36 	mcr	15, 0, r0, cr7, cr6, {1}
  10391c:	f57ff04f 	dsb	sy
  103920:	e12fff1e 	bx	lr

00103924 <Xil_L1DCacheInvalidateRange>:
  103924:	e10f3000 	mrs	r3, CPSR
  103928:	e38320c0 	orr	r2, r3, #192	; 0xc0
  10392c:	e129f002 	msr	CPSR_fc, r2
  103930:	e3510000 	cmp	r1, #0
  103934:	0a000009 	beq	103960 <Xil_L1DCacheInvalidateRange+0x3c>
  103938:	e0801001 	add	r1, r0, r1
  10393c:	e3a02000 	mov	r2, #0
  103940:	e3c0001f 	bic	r0, r0, #31
  103944:	ee402f10 	mcr	15, 2, r2, cr0, cr0, {0}
  103948:	e1510000 	cmp	r1, r0
  10394c:	9a000003 	bls	103960 <Xil_L1DCacheInvalidateRange+0x3c>
  103950:	ee070f36 	mcr	15, 0, r0, cr7, cr6, {1}
  103954:	e2800020 	add	r0, r0, #32
  103958:	e1510000 	cmp	r1, r0
  10395c:	8afffffb 	bhi	103950 <Xil_L1DCacheInvalidateRange+0x2c>
  103960:	f57ff04f 	dsb	sy
  103964:	e129f003 	msr	CPSR_fc, r3
  103968:	e12fff1e 	bx	lr

0010396c <Xil_L1DCacheFlush>:
  10396c:	e92d41f0 	push	{r4, r5, r6, r7, r8, lr}
  103970:	e10f7000 	mrs	r7, CPSR
  103974:	e38730c0 	orr	r3, r7, #192	; 0xc0
  103978:	e129f003 	msr	CPSR_fc, r3
  10397c:	e3a05000 	mov	r5, #0
  103980:	ee405f10 	mcr	15, 2, r5, cr0, cr0, {0}
  103984:	ee304f10 	mrc	15, 1, r4, cr0, cr0, {0}
  103988:	e7e806d4 	ubfx	r0, r4, #13, #9
  10398c:	e7e661d4 	ubfx	r6, r4, #3, #7
  103990:	e2800001 	add	r0, r0, #1
  103994:	e2866001 	add	r6, r6, #1
  103998:	e1a00380 	lsl	r0, r0, #7
  10399c:	e1a01006 	mov	r1, r6
  1039a0:	e2044007 	and	r4, r4, #7
  1039a4:	eb000417 	bl	104a08 <__aeabi_uidiv>
  1039a8:	e2844004 	add	r4, r4, #4
  1039ac:	e3a03001 	mov	r3, #1
  1039b0:	e1a00430 	lsr	r0, r0, r4
  1039b4:	e1a04413 	lsl	r4, r3, r4
  1039b8:	e1a0ef05 	lsl	lr, r5, #30
  1039bc:	e3500000 	cmp	r0, #0
  1039c0:	13a03000 	movne	r3, #0
  1039c4:	11a02003 	movne	r2, r3
  1039c8:	0a000005 	beq	1039e4 <Xil_L1DCacheFlush+0x78>
  1039cc:	e182c00e 	orr	ip, r2, lr
  1039d0:	ee07cf5e 	mcr	15, 0, ip, cr7, cr14, {2}
  1039d4:	e2833001 	add	r3, r3, #1
  1039d8:	e0822004 	add	r2, r2, r4
  1039dc:	e1530000 	cmp	r3, r0
  1039e0:	1afffff9 	bne	1039cc <Xil_L1DCacheFlush+0x60>
  1039e4:	e2855001 	add	r5, r5, #1
  1039e8:	e1560005 	cmp	r6, r5
  1039ec:	1afffff1 	bne	1039b8 <Xil_L1DCacheFlush+0x4c>
  1039f0:	f57ff04f 	dsb	sy
  1039f4:	e129f007 	msr	CPSR_fc, r7
  1039f8:	e8bd81f0 	pop	{r4, r5, r6, r7, r8, pc}

001039fc <Xil_L1DCacheDisable>:
  1039fc:	e92d4010 	push	{r4, lr}
  103a00:	ebffffd9 	bl	10396c <Xil_L1DCacheFlush>
  103a04:	ee113f10 	mrc	15, 0, r3, cr1, cr0, {0}
  103a08:	e3c33004 	bic	r3, r3, #4
  103a0c:	ee013f10 	mcr	15, 0, r3, cr1, cr0, {0}
  103a10:	e8bd8010 	pop	{r4, pc}

00103a14 <Xil_L1DCacheFlushLine>:
  103a14:	e3a03000 	mov	r3, #0
  103a18:	ee403f10 	mcr	15, 2, r3, cr0, cr0, {0}
  103a1c:	e3c0001f 	bic	r0, r0, #31
  103a20:	ee070f3e 	mcr	15, 0, r0, cr7, cr14, {1}
  103a24:	f57ff04f 	dsb	sy
  103a28:	e12fff1e 	bx	lr

00103a2c <Xil_L1DCacheFlushRange>:
  103a2c:	e10f3000 	mrs	r3, CPSR
  103a30:	e38320c0 	orr	r2, r3, #192	; 0xc0
  103a34:	e129f002 	msr	CPSR_fc, r2
  103a38:	e3510000 	cmp	r1, #0
  103a3c:	0a000009 	beq	103a68 <Xil_L1DCacheFlushRange+0x3c>
  103a40:	e0801001 	add	r1, r0, r1
  103a44:	e3a02000 	mov	r2, #0
  103a48:	e3c0001f 	bic	r0, r0, #31
  103a4c:	ee402f10 	mcr	15, 2, r2, cr0, cr0, {0}
  103a50:	e1510000 	cmp	r1, r0
  103a54:	9a000003 	bls	103a68 <Xil_L1DCacheFlushRange+0x3c>
  103a58:	ee070f3e 	mcr	15, 0, r0, cr7, cr14, {1}
  103a5c:	e2800020 	add	r0, r0, #32
  103a60:	e1510000 	cmp	r1, r0
  103a64:	8afffffb 	bhi	103a58 <Xil_L1DCacheFlushRange+0x2c>
  103a68:	f57ff04f 	dsb	sy
  103a6c:	e129f003 	msr	CPSR_fc, r3
  103a70:	e12fff1e 	bx	lr

00103a74 <Xil_L1DCacheStoreLine>:
  103a74:	e3a03000 	mov	r3, #0
  103a78:	ee403f10 	mcr	15, 2, r3, cr0, cr0, {0}
  103a7c:	e3c0001f 	bic	r0, r0, #31
  103a80:	ee070f3a 	mcr	15, 0, r0, cr7, cr10, {1}
  103a84:	f57ff04f 	dsb	sy
  103a88:	e12fff1e 	bx	lr

00103a8c <Xil_L1ICacheEnable>:
  103a8c:	ee113f10 	mrc	15, 0, r3, cr1, cr0, {0}
  103a90:	e2132a01 	ands	r2, r3, #4096	; 0x1000
  103a94:	112fff1e 	bxne	lr
  103a98:	ee072f15 	mcr	15, 0, r2, cr7, cr5, {0}
  103a9c:	e3833a01 	orr	r3, r3, #4096	; 0x1000
  103aa0:	ee013f10 	mcr	15, 0, r3, cr1, cr0, {0}
  103aa4:	e12fff1e 	bx	lr

00103aa8 <Xil_L1ICacheDisable>:
  103aa8:	f57ff04f 	dsb	sy
  103aac:	e3a03000 	mov	r3, #0
  103ab0:	ee073f15 	mcr	15, 0, r3, cr7, cr5, {0}
  103ab4:	ee113f10 	mrc	15, 0, r3, cr1, cr0, {0}
  103ab8:	e3c33a01 	bic	r3, r3, #4096	; 0x1000
  103abc:	ee013f10 	mcr	15, 0, r3, cr1, cr0, {0}
  103ac0:	e12fff1e 	bx	lr

00103ac4 <Xil_L1ICacheInvalidate>:
  103ac4:	e3a03001 	mov	r3, #1
  103ac8:	ee403f10 	mcr	15, 2, r3, cr0, cr0, {0}
  103acc:	e3a03000 	mov	r3, #0
  103ad0:	ee073f15 	mcr	15, 0, r3, cr7, cr5, {0}
  103ad4:	f57ff04f 	dsb	sy
  103ad8:	e12fff1e 	bx	lr

00103adc <Xil_L1ICacheInvalidateLine>:
  103adc:	e3a03001 	mov	r3, #1
  103ae0:	ee403f10 	mcr	15, 2, r3, cr0, cr0, {0}
  103ae4:	e3c0001f 	bic	r0, r0, #31
  103ae8:	ee070f35 	mcr	15, 0, r0, cr7, cr5, {1}
  103aec:	f57ff04f 	dsb	sy
  103af0:	e12fff1e 	bx	lr

00103af4 <Xil_L1ICacheInvalidateRange>:
  103af4:	e10f3000 	mrs	r3, CPSR
  103af8:	e38320c0 	orr	r2, r3, #192	; 0xc0
  103afc:	e129f002 	msr	CPSR_fc, r2
  103b00:	e3510000 	cmp	r1, #0
  103b04:	0a000009 	beq	103b30 <Xil_L1ICacheInvalidateRange+0x3c>
  103b08:	e0801001 	add	r1, r0, r1
  103b0c:	e3a02001 	mov	r2, #1
  103b10:	e3c0001f 	bic	r0, r0, #31
  103b14:	ee402f10 	mcr	15, 2, r2, cr0, cr0, {0}
  103b18:	e1510000 	cmp	r1, r0
  103b1c:	9a000003 	bls	103b30 <Xil_L1ICacheInvalidateRange+0x3c>
  103b20:	ee070f35 	mcr	15, 0, r0, cr7, cr5, {1}
  103b24:	e2800020 	add	r0, r0, #32
  103b28:	e1510000 	cmp	r1, r0
  103b2c:	8afffffb 	bhi	103b20 <Xil_L1ICacheInvalidateRange+0x2c>
  103b30:	f57ff04f 	dsb	sy
  103b34:	e129f003 	msr	CPSR_fc, r3
  103b38:	e12fff1e 	bx	lr

00103b3c <Xil_L2CacheInvalidate>:
  103b3c:	e3031980 	movw	r1, #14720	; 0x3980
  103b40:	e3040b00 	movw	r0, #19200	; 0x4b00
  103b44:	e340062d 	movt	r0, #1581	; 0x62d
  103b48:	e3401762 	movt	r1, #1890	; 0x762
  103b4c:	e0601001 	rsb	r1, r0, r1
  103b50:	e92d4010 	push	{r4, lr}
  103b54:	ebfffeeb 	bl	103708 <Xil_DCacheFlushRange>
  103b58:	e302077c 	movw	r0, #10108	; 0x277c
  103b5c:	e30f1fff 	movw	r1, #65535	; 0xffff
  103b60:	e34f08f0 	movt	r0, #63728	; 0xf8f0
  103b64:	eb000175 	bl	104140 <Xil_Out32>
  103b68:	e302077c 	movw	r0, #10108	; 0x277c
  103b6c:	e34f08f0 	movt	r0, #63728	; 0xf8f0
  103b70:	eb00016c 	bl	104128 <Xil_In32>
  103b74:	e6ff0070 	uxth	r0, r0
  103b78:	e3500000 	cmp	r0, #0
  103b7c:	1afffff9 	bne	103b68 <Xil_L2CacheInvalidate+0x2c>
  103b80:	e3a00d9d 	mov	r0, #10048	; 0x2740
  103b84:	e3a01000 	mov	r1, #0
  103b88:	e34f08f0 	movt	r0, #63728	; 0xf8f0
  103b8c:	eb00016b 	bl	104140 <Xil_Out32>
  103b90:	f57ff04f 	dsb	sy
  103b94:	e8bd8010 	pop	{r4, pc}

00103b98 <Xil_DCacheInvalidate>:
  103b98:	e92d4010 	push	{r4, lr}
  103b9c:	e10f4000 	mrs	r4, CPSR
  103ba0:	e38430c0 	orr	r3, r4, #192	; 0xc0
  103ba4:	e129f003 	msr	CPSR_fc, r3
  103ba8:	ebffffe3 	bl	103b3c <Xil_L2CacheInvalidate>
  103bac:	ebffff24 	bl	103844 <Xil_L1DCacheInvalidate>
  103bb0:	e129f004 	msr	CPSR_fc, r4
  103bb4:	e8bd8010 	pop	{r4, pc}

00103bb8 <Xil_ICacheInvalidate>:
  103bb8:	e92d4010 	push	{r4, lr}
  103bbc:	e10f4000 	mrs	r4, CPSR
  103bc0:	e38430c0 	orr	r3, r4, #192	; 0xc0
  103bc4:	e129f003 	msr	CPSR_fc, r3
  103bc8:	ebffffdb 	bl	103b3c <Xil_L2CacheInvalidate>
  103bcc:	e3a03001 	mov	r3, #1
  103bd0:	ee403f10 	mcr	15, 2, r3, cr0, cr0, {0}
  103bd4:	e3a03000 	mov	r3, #0
  103bd8:	ee073f15 	mcr	15, 0, r3, cr7, cr5, {0}
  103bdc:	f57ff04f 	dsb	sy
  103be0:	e129f004 	msr	CPSR_fc, r4
  103be4:	e8bd8010 	pop	{r4, pc}

00103be8 <Xil_L2CacheEnable>:
  103be8:	e3a00c21 	mov	r0, #8448	; 0x2100
  103bec:	e92d4010 	push	{r4, lr}
  103bf0:	e34f08f0 	movt	r0, #63728	; 0xf8f0
  103bf4:	eb00014b 	bl	104128 <Xil_In32>
  103bf8:	e2104001 	ands	r4, r0, #1
  103bfc:	18bd8010 	popne	{r4, pc}
  103c00:	e3020104 	movw	r0, #8452	; 0x2104
  103c04:	e34f08f0 	movt	r0, #63728	; 0xf8f0
  103c08:	eb000146 	bl	104128 <Xil_In32>
  103c0c:	e3c0180e 	bic	r1, r0, #917504	; 0xe0000
  103c10:	e3020104 	movw	r0, #8452	; 0x2104
  103c14:	e3811472 	orr	r1, r1, #1912602624	; 0x72000000
  103c18:	e34f08f0 	movt	r0, #63728	; 0xf8f0
  103c1c:	e3811836 	orr	r1, r1, #3538944	; 0x360000
  103c20:	eb000146 	bl	104140 <Xil_Out32>
  103c24:	e3020108 	movw	r0, #8456	; 0x2108
  103c28:	e3001111 	movw	r1, #273	; 0x111
  103c2c:	e34f08f0 	movt	r0, #63728	; 0xf8f0
  103c30:	eb000142 	bl	104140 <Xil_Out32>
  103c34:	e302010c 	movw	r0, #8460	; 0x210c
  103c38:	e3001121 	movw	r1, #289	; 0x121
  103c3c:	e34f08f0 	movt	r0, #63728	; 0xf8f0
  103c40:	eb00013e 	bl	104140 <Xil_Out32>
  103c44:	e302021c 	movw	r0, #8732	; 0x221c
  103c48:	e34f08f0 	movt	r0, #63728	; 0xf8f0
  103c4c:	eb000135 	bl	104128 <Xil_In32>
  103c50:	e1a01000 	mov	r1, r0
  103c54:	e3020220 	movw	r0, #8736	; 0x2220
  103c58:	e34f08f0 	movt	r0, #63728	; 0xf8f0
  103c5c:	eb000137 	bl	104140 <Xil_Out32>
  103c60:	ebffffb5 	bl	103b3c <Xil_L2CacheInvalidate>
  103c64:	e3a00c21 	mov	r0, #8448	; 0x2100
  103c68:	e34f08f0 	movt	r0, #63728	; 0xf8f0
  103c6c:	eb00012d 	bl	104128 <Xil_In32>
  103c70:	e3801001 	orr	r1, r0, #1
  103c74:	e3a00c21 	mov	r0, #8448	; 0x2100
  103c78:	e34f08f0 	movt	r0, #63728	; 0xf8f0
  103c7c:	eb00012f 	bl	104140 <Xil_Out32>
  103c80:	e3a00d9d 	mov	r0, #10048	; 0x2740
  103c84:	e1a01004 	mov	r1, r4
  103c88:	e34f08f0 	movt	r0, #63728	; 0xf8f0
  103c8c:	eb00012b 	bl	104140 <Xil_Out32>
  103c90:	f57ff04f 	dsb	sy
  103c94:	e8bd8010 	pop	{r4, pc}

00103c98 <Xil_DCacheEnable>:
  103c98:	e92d4010 	push	{r4, lr}
  103c9c:	ebffff12 	bl	1038ec <Xil_L1DCacheEnable>
  103ca0:	e8bd4010 	pop	{r4, lr}
  103ca4:	eaffffcf 	b	103be8 <Xil_L2CacheEnable>

00103ca8 <Xil_ICacheEnable>:
  103ca8:	ee113f10 	mrc	15, 0, r3, cr1, cr0, {0}
  103cac:	e2132a01 	ands	r2, r3, #4096	; 0x1000
  103cb0:	1a000002 	bne	103cc0 <Xil_ICacheEnable+0x18>
  103cb4:	ee072f15 	mcr	15, 0, r2, cr7, cr5, {0}
  103cb8:	e3833a01 	orr	r3, r3, #4096	; 0x1000
  103cbc:	ee013f10 	mcr	15, 0, r3, cr1, cr0, {0}
  103cc0:	eaffffc8 	b	103be8 <Xil_L2CacheEnable>

00103cc4 <Xil_L2CacheInvalidateLine>:
  103cc4:	e1a01000 	mov	r1, r0
  103cc8:	e3020770 	movw	r0, #10096	; 0x2770
  103ccc:	e92d4010 	push	{r4, lr}
  103cd0:	e34f08f0 	movt	r0, #63728	; 0xf8f0
  103cd4:	eb000119 	bl	104140 <Xil_Out32>
  103cd8:	f57ff04f 	dsb	sy
  103cdc:	e8bd8010 	pop	{r4, pc}

00103ce0 <Xil_L2CacheInvalidateRange>:
  103ce0:	e92d41f0 	push	{r4, r5, r6, r7, r8, lr}
  103ce4:	e10f7000 	mrs	r7, CPSR
  103ce8:	e38730c0 	orr	r3, r7, #192	; 0xc0
  103cec:	e129f003 	msr	CPSR_fc, r3
  103cf0:	e3510000 	cmp	r1, #0
  103cf4:	1a000002 	bne	103d04 <Xil_L2CacheInvalidateRange+0x24>
  103cf8:	f57ff04f 	dsb	sy
  103cfc:	e129f007 	msr	CPSR_fc, r7
  103d00:	e8bd81f0 	pop	{r4, r5, r6, r7, r8, pc}
  103d04:	e1a04000 	mov	r4, r0
  103d08:	e3a00dbd 	mov	r0, #12096	; 0x2f40
  103d0c:	e0845001 	add	r5, r4, r1
  103d10:	e34f08f0 	movt	r0, #63728	; 0xf8f0
  103d14:	e3c4401f 	bic	r4, r4, #31
  103d18:	e3a01003 	mov	r1, #3
  103d1c:	eb000107 	bl	104140 <Xil_Out32>
  103d20:	e1550004 	cmp	r5, r4
  103d24:	83a06a02 	movhi	r6, #8192	; 0x2000
  103d28:	834f68f0 	movthi	r6, #63728	; 0xf8f0
  103d2c:	9a000007 	bls	103d50 <Xil_L2CacheInvalidateRange+0x70>
  103d30:	e3a00d9d 	mov	r0, #10048	; 0x2740
  103d34:	e5864770 	str	r4, [r6, #1904]	; 0x770
  103d38:	e34f08f0 	movt	r0, #63728	; 0xf8f0
  103d3c:	e2844020 	add	r4, r4, #32
  103d40:	e3a01000 	mov	r1, #0
  103d44:	eb0000fd 	bl	104140 <Xil_Out32>
  103d48:	e1550004 	cmp	r5, r4
  103d4c:	8afffff7 	bhi	103d30 <Xil_L2CacheInvalidateRange+0x50>
  103d50:	e3a00dbd 	mov	r0, #12096	; 0x2f40
  103d54:	e3a01000 	mov	r1, #0
  103d58:	e34f08f0 	movt	r0, #63728	; 0xf8f0
  103d5c:	eb0000f7 	bl	104140 <Xil_Out32>
  103d60:	eaffffe4 	b	103cf8 <Xil_L2CacheInvalidateRange+0x18>

00103d64 <Xil_L2CacheFlush>:
  103d64:	e3a00dbd 	mov	r0, #12096	; 0x2f40
  103d68:	e3a01003 	mov	r1, #3
  103d6c:	e34f08f0 	movt	r0, #63728	; 0xf8f0
  103d70:	e92d4010 	push	{r4, lr}
  103d74:	eb0000f1 	bl	104140 <Xil_Out32>
  103d78:	e30207fc 	movw	r0, #10236	; 0x27fc
  103d7c:	e30f1fff 	movw	r1, #65535	; 0xffff
  103d80:	e34f08f0 	movt	r0, #63728	; 0xf8f0
  103d84:	eb0000ed 	bl	104140 <Xil_Out32>
  103d88:	e30207fc 	movw	r0, #10236	; 0x27fc
  103d8c:	e34f08f0 	movt	r0, #63728	; 0xf8f0
  103d90:	eb0000e4 	bl	104128 <Xil_In32>
  103d94:	e6ff0070 	uxth	r0, r0
  103d98:	e3500000 	cmp	r0, #0
  103d9c:	1afffff9 	bne	103d88 <Xil_L2CacheFlush+0x24>
  103da0:	e3a00d9d 	mov	r0, #10048	; 0x2740
  103da4:	e3a01000 	mov	r1, #0
  103da8:	e34f08f0 	movt	r0, #63728	; 0xf8f0
  103dac:	eb0000e3 	bl	104140 <Xil_Out32>
  103db0:	e3a00dbd 	mov	r0, #12096	; 0x2f40
  103db4:	e3a01000 	mov	r1, #0
  103db8:	e34f08f0 	movt	r0, #63728	; 0xf8f0
  103dbc:	eb0000df 	bl	104140 <Xil_Out32>
  103dc0:	f57ff04f 	dsb	sy
  103dc4:	e8bd8010 	pop	{r4, pc}

00103dc8 <Xil_DCacheFlush>:
  103dc8:	e92d4010 	push	{r4, lr}
  103dcc:	e10f4000 	mrs	r4, CPSR
  103dd0:	e38430c0 	orr	r3, r4, #192	; 0xc0
  103dd4:	e129f003 	msr	CPSR_fc, r3
  103dd8:	ebfffee3 	bl	10396c <Xil_L1DCacheFlush>
  103ddc:	ebffffe0 	bl	103d64 <Xil_L2CacheFlush>
  103de0:	e129f004 	msr	CPSR_fc, r4
  103de4:	e8bd8010 	pop	{r4, pc}

00103de8 <Xil_L2CacheDisable>:
  103de8:	e3a00c21 	mov	r0, #8448	; 0x2100
  103dec:	e92d4010 	push	{r4, lr}
  103df0:	e34f08f0 	movt	r0, #63728	; 0xf8f0
  103df4:	eb0000cb 	bl	104128 <Xil_In32>
  103df8:	e3100001 	tst	r0, #1
  103dfc:	08bd8010 	popeq	{r4, pc}
  103e00:	ebffffd7 	bl	103d64 <Xil_L2CacheFlush>
  103e04:	e3a00c21 	mov	r0, #8448	; 0x2100
  103e08:	e34f08f0 	movt	r0, #63728	; 0xf8f0
  103e0c:	eb0000c5 	bl	104128 <Xil_In32>
  103e10:	e3c01001 	bic	r1, r0, #1
  103e14:	e3a00c21 	mov	r0, #8448	; 0x2100
  103e18:	e34f08f0 	movt	r0, #63728	; 0xf8f0
  103e1c:	eb0000c7 	bl	104140 <Xil_Out32>
  103e20:	f57ff04f 	dsb	sy
  103e24:	e8bd8010 	pop	{r4, pc}

00103e28 <Xil_DCacheDisable>:
  103e28:	e92d4010 	push	{r4, lr}
  103e2c:	ebffffed 	bl	103de8 <Xil_L2CacheDisable>
  103e30:	ebfffecd 	bl	10396c <Xil_L1DCacheFlush>
  103e34:	ee113f10 	mrc	15, 0, r3, cr1, cr0, {0}
  103e38:	e3c33004 	bic	r3, r3, #4
  103e3c:	ee013f10 	mcr	15, 0, r3, cr1, cr0, {0}
  103e40:	e8bd8010 	pop	{r4, pc}

00103e44 <Xil_ICacheDisable>:
  103e44:	e92d4010 	push	{r4, lr}
  103e48:	ebffffe6 	bl	103de8 <Xil_L2CacheDisable>
  103e4c:	f57ff04f 	dsb	sy
  103e50:	e3a03000 	mov	r3, #0
  103e54:	ee073f15 	mcr	15, 0, r3, cr7, cr5, {0}
  103e58:	ee113f10 	mrc	15, 0, r3, cr1, cr0, {0}
  103e5c:	e3c33a01 	bic	r3, r3, #4096	; 0x1000
  103e60:	ee013f10 	mcr	15, 0, r3, cr1, cr0, {0}
  103e64:	e8bd8010 	pop	{r4, pc}

00103e68 <Xil_L2CacheFlushLine>:
  103e68:	e92d4010 	push	{r4, lr}
  103e6c:	e1a04000 	mov	r4, r0
  103e70:	e30207b0 	movw	r0, #10160	; 0x27b0
  103e74:	e1a01004 	mov	r1, r4
  103e78:	e34f08f0 	movt	r0, #63728	; 0xf8f0
  103e7c:	eb0000af 	bl	104140 <Xil_Out32>
  103e80:	e3020770 	movw	r0, #10096	; 0x2770
  103e84:	e1a01004 	mov	r1, r4
  103e88:	e34f08f0 	movt	r0, #63728	; 0xf8f0
  103e8c:	eb0000ab 	bl	104140 <Xil_Out32>
  103e90:	f57ff04f 	dsb	sy
  103e94:	e8bd8010 	pop	{r4, pc}

00103e98 <Xil_DCacheInvalidateRange>:
  103e98:	e92d41f0 	push	{r4, r5, r6, r7, r8, lr}
  103e9c:	e10f7000 	mrs	r7, CPSR
  103ea0:	e38730c0 	orr	r3, r7, #192	; 0xc0
  103ea4:	e129f003 	msr	CPSR_fc, r3
  103ea8:	e3510000 	cmp	r1, #0
  103eac:	0a000014 	beq	103f04 <Xil_DCacheInvalidateRange+0x6c>
  103eb0:	e1a04000 	mov	r4, r0
  103eb4:	e3a06000 	mov	r6, #0
  103eb8:	e0805001 	add	r5, r0, r1
  103ebc:	ee406f10 	mcr	15, 2, r6, cr0, cr0, {0}
  103ec0:	e310001f 	tst	r0, #31
  103ec4:	1a000025 	bne	103f60 <Xil_DCacheInvalidateRange+0xc8>
  103ec8:	e315001f 	tst	r5, #31
  103ecc:	1a00000f 	bne	103f10 <Xil_DCacheInvalidateRange+0x78>
  103ed0:	e1540005 	cmp	r4, r5
  103ed4:	2a00000a 	bcs	103f04 <Xil_DCacheInvalidateRange+0x6c>
  103ed8:	e3a06a02 	mov	r6, #8192	; 0x2000
  103edc:	e34f68f0 	movt	r6, #63728	; 0xf8f0
  103ee0:	e3a00d9d 	mov	r0, #10048	; 0x2740
  103ee4:	e5864770 	str	r4, [r6, #1904]	; 0x770
  103ee8:	e34f08f0 	movt	r0, #63728	; 0xf8f0
  103eec:	e3a01000 	mov	r1, #0
  103ef0:	eb000092 	bl	104140 <Xil_Out32>
  103ef4:	ee074f36 	mcr	15, 0, r4, cr7, cr6, {1}
  103ef8:	e2844020 	add	r4, r4, #32
  103efc:	e1540005 	cmp	r4, r5
  103f00:	3afffff6 	bcc	103ee0 <Xil_DCacheInvalidateRange+0x48>
  103f04:	f57ff04f 	dsb	sy
  103f08:	e129f007 	msr	CPSR_fc, r7
  103f0c:	e8bd81f0 	pop	{r4, r5, r6, r7, r8, pc}
  103f10:	e3c5501f 	bic	r5, r5, #31
  103f14:	e3a06000 	mov	r6, #0
  103f18:	ee406f10 	mcr	15, 2, r6, cr0, cr0, {0}
  103f1c:	ee075f3e 	mcr	15, 0, r5, cr7, cr14, {1}
  103f20:	f57ff04f 	dsb	sy
  103f24:	e3a00dbd 	mov	r0, #12096	; 0x2f40
  103f28:	e3a01003 	mov	r1, #3
  103f2c:	e34f08f0 	movt	r0, #63728	; 0xf8f0
  103f30:	eb000082 	bl	104140 <Xil_Out32>
  103f34:	e1a00005 	mov	r0, r5
  103f38:	ebffffca 	bl	103e68 <Xil_L2CacheFlushLine>
  103f3c:	e3a00dbd 	mov	r0, #12096	; 0x2f40
  103f40:	e1a01006 	mov	r1, r6
  103f44:	e34f08f0 	movt	r0, #63728	; 0xf8f0
  103f48:	eb00007c 	bl	104140 <Xil_Out32>
  103f4c:	e3a00d9d 	mov	r0, #10048	; 0x2740
  103f50:	e1a01006 	mov	r1, r6
  103f54:	e34f08f0 	movt	r0, #63728	; 0xf8f0
  103f58:	eb000078 	bl	104140 <Xil_Out32>
  103f5c:	eaffffdb 	b	103ed0 <Xil_DCacheInvalidateRange+0x38>
  103f60:	e3c0801f 	bic	r8, r0, #31
  103f64:	ee406f10 	mcr	15, 2, r6, cr0, cr0, {0}
  103f68:	ee078f3e 	mcr	15, 0, r8, cr7, cr14, {1}
  103f6c:	f57ff04f 	dsb	sy
  103f70:	e3a00dbd 	mov	r0, #12096	; 0x2f40
  103f74:	e3a01003 	mov	r1, #3
  103f78:	e34f08f0 	movt	r0, #63728	; 0xf8f0
  103f7c:	e2884020 	add	r4, r8, #32
  103f80:	eb00006e 	bl	104140 <Xil_Out32>
  103f84:	e1a00008 	mov	r0, r8
  103f88:	ebffffb6 	bl	103e68 <Xil_L2CacheFlushLine>
  103f8c:	e3a00dbd 	mov	r0, #12096	; 0x2f40
  103f90:	e1a01006 	mov	r1, r6
  103f94:	e34f08f0 	movt	r0, #63728	; 0xf8f0
  103f98:	eb000068 	bl	104140 <Xil_Out32>
  103f9c:	e3a00d9d 	mov	r0, #10048	; 0x2740
  103fa0:	e1a01006 	mov	r1, r6
  103fa4:	e34f08f0 	movt	r0, #63728	; 0xf8f0
  103fa8:	eb000064 	bl	104140 <Xil_Out32>
  103fac:	e315001f 	tst	r5, #31
  103fb0:	0affffc6 	beq	103ed0 <Xil_DCacheInvalidateRange+0x38>
  103fb4:	eaffffd5 	b	103f10 <Xil_DCacheInvalidateRange+0x78>

00103fb8 <Xil_DCacheFlushLine>:
  103fb8:	e92d41f0 	push	{r4, r5, r6, r7, r8, lr}
  103fbc:	e1a07000 	mov	r7, r0
  103fc0:	e10f6000 	mrs	r6, CPSR
  103fc4:	e38630c0 	orr	r3, r6, #192	; 0xc0
  103fc8:	e129f003 	msr	CPSR_fc, r3
  103fcc:	e3a04000 	mov	r4, #0
  103fd0:	ee404f10 	mcr	15, 2, r4, cr0, cr0, {0}
  103fd4:	e3c0301f 	bic	r3, r0, #31
  103fd8:	ee073f3e 	mcr	15, 0, r3, cr7, cr14, {1}
  103fdc:	f57ff04f 	dsb	sy
  103fe0:	e3a05dbd 	mov	r5, #12096	; 0x2f40
  103fe4:	e3a01003 	mov	r1, #3
  103fe8:	e34f58f0 	movt	r5, #63728	; 0xf8f0
  103fec:	e1a00005 	mov	r0, r5
  103ff0:	eb000052 	bl	104140 <Xil_Out32>
  103ff4:	e1a00007 	mov	r0, r7
  103ff8:	ebffff9a 	bl	103e68 <Xil_L2CacheFlushLine>
  103ffc:	e1a01004 	mov	r1, r4
  104000:	e1a00005 	mov	r0, r5
  104004:	eb00004d 	bl	104140 <Xil_Out32>
  104008:	e3a00d9d 	mov	r0, #10048	; 0x2740
  10400c:	e1a01004 	mov	r1, r4
  104010:	e34f08f0 	movt	r0, #63728	; 0xf8f0
  104014:	eb000049 	bl	104140 <Xil_Out32>
  104018:	e129f006 	msr	CPSR_fc, r6
  10401c:	e8bd81f0 	pop	{r4, r5, r6, r7, r8, pc}

00104020 <Xil_L2CacheFlushRange>:
  104020:	e92d41f0 	push	{r4, r5, r6, r7, r8, lr}
  104024:	e10f7000 	mrs	r7, CPSR
  104028:	e38730c0 	orr	r3, r7, #192	; 0xc0
  10402c:	e129f003 	msr	CPSR_fc, r3
  104030:	e3510000 	cmp	r1, #0
  104034:	1a000002 	bne	104044 <Xil_L2CacheFlushRange+0x24>
  104038:	f57ff04f 	dsb	sy
  10403c:	e129f007 	msr	CPSR_fc, r7
  104040:	e8bd81f0 	pop	{r4, r5, r6, r7, r8, pc}
  104044:	e1a04000 	mov	r4, r0
  104048:	e3a00dbd 	mov	r0, #12096	; 0x2f40
  10404c:	e0845001 	add	r5, r4, r1
  104050:	e34f08f0 	movt	r0, #63728	; 0xf8f0
  104054:	e3c4401f 	bic	r4, r4, #31
  104058:	e3a01003 	mov	r1, #3
  10405c:	eb000037 	bl	104140 <Xil_Out32>
  104060:	e1550004 	cmp	r5, r4
  104064:	83a06a02 	movhi	r6, #8192	; 0x2000
  104068:	834f68f0 	movthi	r6, #63728	; 0xf8f0
  10406c:	9a000007 	bls	104090 <Xil_L2CacheFlushRange+0x70>
  104070:	e3a00d9d 	mov	r0, #10048	; 0x2740
  104074:	e58647f0 	str	r4, [r6, #2032]	; 0x7f0
  104078:	e34f08f0 	movt	r0, #63728	; 0xf8f0
  10407c:	e2844020 	add	r4, r4, #32
  104080:	e3a01000 	mov	r1, #0
  104084:	eb00002d 	bl	104140 <Xil_Out32>
  104088:	e1550004 	cmp	r5, r4
  10408c:	8afffff7 	bhi	104070 <Xil_L2CacheFlushRange+0x50>
  104090:	e3a00dbd 	mov	r0, #12096	; 0x2f40
  104094:	e3a01000 	mov	r1, #0
  104098:	e34f08f0 	movt	r0, #63728	; 0xf8f0
  10409c:	eb000027 	bl	104140 <Xil_Out32>
  1040a0:	eaffffe4 	b	104038 <Xil_L2CacheFlushRange+0x18>

001040a4 <Xil_L2CacheStoreLine>:
  1040a4:	e1a01000 	mov	r1, r0
  1040a8:	e30207b0 	movw	r0, #10160	; 0x27b0
  1040ac:	e92d4010 	push	{r4, lr}
  1040b0:	e34f08f0 	movt	r0, #63728	; 0xf8f0
  1040b4:	eb000021 	bl	104140 <Xil_Out32>
  1040b8:	f57ff04f 	dsb	sy
  1040bc:	e8bd8010 	pop	{r4, pc}

001040c0 <Xil_ExceptionNullHandler>:
  1040c0:	eafffffe 	b	1040c0 <Xil_ExceptionNullHandler>

001040c4 <Xil_DataAbortHandler>:
  1040c4:	ee153f10 	mrc	15, 0, r3, cr5, cr0, {0}
  1040c8:	eafffffe 	b	1040c8 <Xil_DataAbortHandler+0x4>

001040cc <Xil_PrefetchAbortHandler>:
  1040cc:	ee153f30 	mrc	15, 0, r3, cr5, cr0, {1}
  1040d0:	eafffffe 	b	1040d0 <Xil_PrefetchAbortHandler+0x4>

001040d4 <Xil_UndefinedExceptionHandler>:
  1040d4:	eafffffe 	b	1040d4 <Xil_UndefinedExceptionHandler>

001040d8 <Xil_ExceptionInit>:
  1040d8:	e12fff1e 	bx	lr

001040dc <Xil_ExceptionRegisterHandler>:
  1040dc:	e3033ff0 	movw	r3, #16368	; 0x3ff0
  1040e0:	e3403012 	movt	r3, #18
  1040e4:	e083c180 	add	ip, r3, r0, lsl #3
  1040e8:	e7831180 	str	r1, [r3, r0, lsl #3]
  1040ec:	e58c2004 	str	r2, [ip, #4]
  1040f0:	e12fff1e 	bx	lr

001040f4 <Xil_ExceptionRemoveHandler>:
  1040f4:	e3033ff0 	movw	r3, #16368	; 0x3ff0
  1040f8:	e30420c0 	movw	r2, #16576	; 0x40c0
  1040fc:	e3403012 	movt	r3, #18
  104100:	e3402010 	movt	r2, #16
  104104:	e0831180 	add	r1, r3, r0, lsl #3
  104108:	e3a0c000 	mov	ip, #0
  10410c:	e7832180 	str	r2, [r3, r0, lsl #3]
  104110:	e581c004 	str	ip, [r1, #4]
  104114:	e12fff1e 	bx	lr

00104118 <Xil_In8>:
  104118:	e5d00000 	ldrb	r0, [r0]
  10411c:	e12fff1e 	bx	lr

00104120 <Xil_In16>:
  104120:	e1d000b0 	ldrh	r0, [r0]
  104124:	e12fff1e 	bx	lr

00104128 <Xil_In32>:
  104128:	e5900000 	ldr	r0, [r0]
  10412c:	e12fff1e 	bx	lr

00104130 <Xil_Out8>:
  104130:	e5c01000 	strb	r1, [r0]
  104134:	e12fff1e 	bx	lr

00104138 <Xil_Out16>:
  104138:	e1c010b0 	strh	r1, [r0]
  10413c:	e12fff1e 	bx	lr

00104140 <Xil_Out32>:
  104140:	e5801000 	str	r1, [r0]
  104144:	e12fff1e 	bx	lr

00104148 <Xil_In16BE>:
  104148:	e1d000b0 	ldrh	r0, [r0]
  10414c:	e1a03420 	lsr	r3, r0, #8
  104150:	e1830400 	orr	r0, r3, r0, lsl #8
  104154:	e6ff0070 	uxth	r0, r0
  104158:	e12fff1e 	bx	lr

0010415c <Xil_In32BE>:
  10415c:	e5900000 	ldr	r0, [r0]
  104160:	e6bf0f30 	rev	r0, r0
  104164:	e12fff1e 	bx	lr

00104168 <Xil_Out16BE>:
  104168:	e1a03421 	lsr	r3, r1, #8
  10416c:	e1831401 	orr	r1, r3, r1, lsl #8
  104170:	e6ff1071 	uxth	r1, r1
  104174:	e1c010b0 	strh	r1, [r0]
  104178:	e12fff1e 	bx	lr

0010417c <Xil_Out32BE>:
  10417c:	e6bf1f31 	rev	r1, r1
  104180:	e5801000 	str	r1, [r0]
  104184:	e12fff1e 	bx	lr

00104188 <Xil_EndianSwap16>:
  104188:	e1a03420 	lsr	r3, r0, #8
  10418c:	e1830400 	orr	r0, r3, r0, lsl #8
  104190:	e6ff0070 	uxth	r0, r0
  104194:	e12fff1e 	bx	lr

00104198 <Xil_EndianSwap32>:
  104198:	e6bf0f30 	rev	r0, r0
  10419c:	e12fff1e 	bx	lr

001041a0 <getnum>:
  1041a0:	e590c000 	ldr	ip, [r0]
  1041a4:	e35c0000 	cmp	ip, #0
  1041a8:	0a000017 	beq	10420c <getnum+0x6c>
  1041ac:	e3042654 	movw	r2, #18004	; 0x4654
  1041b0:	e92d4010 	push	{r4, lr}
  1041b4:	e3402012 	movt	r2, #18
  1041b8:	e5dc3000 	ldrb	r3, [ip]
  1041bc:	e5924000 	ldr	r4, [r2]
  1041c0:	e0843003 	add	r3, r4, r3
  1041c4:	e5d33001 	ldrb	r3, [r3, #1]
  1041c8:	e2033004 	and	r3, r3, #4
  1041cc:	e21330ff 	ands	r3, r3, #255	; 0xff
  1041d0:	0a00000a 	beq	104200 <getnum+0x60>
  1041d4:	e3a03000 	mov	r3, #0
  1041d8:	e5dc1000 	ldrb	r1, [ip]
  1041dc:	e1a0e183 	lsl	lr, r3, #3
  1041e0:	e5fc2001 	ldrb	r2, [ip, #1]!
  1041e4:	e08e3083 	add	r3, lr, r3, lsl #1
  1041e8:	e2411030 	sub	r1, r1, #48	; 0x30
  1041ec:	e0842002 	add	r2, r4, r2
  1041f0:	e0833001 	add	r3, r3, r1
  1041f4:	e5d22001 	ldrb	r2, [r2, #1]
  1041f8:	e3120004 	tst	r2, #4
  1041fc:	1afffff5 	bne	1041d8 <getnum+0x38>
  104200:	e580c000 	str	ip, [r0]
  104204:	e1a00003 	mov	r0, r3
  104208:	e8bd8010 	pop	{r4, pc}
  10420c:	e580c000 	str	ip, [r0]
  104210:	e1a0000c 	mov	r0, ip
  104214:	e12fff1e 	bx	lr

00104218 <padding.part.0>:
  104218:	e92d4070 	push	{r4, r5, r6, lr}
  10421c:	e1a05000 	mov	r5, r0
  104220:	e5904000 	ldr	r4, [r0]
  104224:	e5903004 	ldr	r3, [r0, #4]
  104228:	e1540003 	cmp	r4, r3
  10422c:	a8bd8070 	popge	{r4, r5, r6, pc}
  104230:	e5d5000c 	ldrb	r0, [r5, #12]
  104234:	e2844001 	add	r4, r4, #1
  104238:	eb0001b3 	bl	10490c <outbyte>
  10423c:	e5953004 	ldr	r3, [r5, #4]
  104240:	e1540003 	cmp	r4, r3
  104244:	bafffff9 	blt	104230 <padding.part.0+0x18>
  104248:	e8bd8070 	pop	{r4, r5, r6, pc}

0010424c <outnum>:
  10424c:	e92d47f0 	push	{r4, r5, r6, r7, r8, r9, sl, lr}
  104250:	e3039df0 	movw	r9, #15856	; 0x3df0
  104254:	e3409012 	movt	r9, #18
  104258:	e1a05000 	mov	r5, r0
  10425c:	e1a07001 	mov	r7, r1
  104260:	e1a08002 	mov	r8, r2
  104264:	e8b9000f 	ldm	r9!, {r0, r1, r2, r3}
  104268:	e24dd038 	sub	sp, sp, #56	; 0x38
  10426c:	e28d6017 	add	r6, sp, #23
  104270:	e28d4037 	add	r4, sp, #55	; 0x37
  104274:	e1a0c006 	mov	ip, r6
  104278:	e3a0e030 	mov	lr, #48	; 0x30
  10427c:	e28da004 	add	sl, sp, #4
  104280:	e5999000 	ldr	r9, [r9]
  104284:	e8aa000f 	stmia	sl!, {r0, r1, r2, r3}
  104288:	e5ca9000 	strb	r9, [sl]
  10428c:	e5ece001 	strb	lr, [ip, #1]!
  104290:	e15c0004 	cmp	ip, r4
  104294:	1afffffc 	bne	10428c <outnum+0x40>
  104298:	e5983018 	ldr	r3, [r8, #24]
  10429c:	e3530000 	cmp	r3, #0
  1042a0:	1a000039 	bne	10438c <outnum+0x140>
  1042a4:	e1a03fa5 	lsr	r3, r5, #31
  1042a8:	e357000a 	cmp	r7, #10
  1042ac:	13a03000 	movne	r3, #0
  1042b0:	02033001 	andeq	r3, r3, #1
  1042b4:	e3530000 	cmp	r3, #0
  1042b8:	12655000 	rsbne	r5, r5, #0
  1042bc:	13a0a001 	movne	sl, #1
  1042c0:	0a000031 	beq	10438c <outnum+0x140>
  1042c4:	e3a09000 	mov	r9, #0
  1042c8:	ea000000 	b	1042d0 <outnum+0x84>
  1042cc:	e1a09004 	mov	r9, r4
  1042d0:	e1a00005 	mov	r0, r5
  1042d4:	e1a01007 	mov	r1, r7
  1042d8:	eb000245 	bl	104bf4 <__aeabi_uidivmod>
  1042dc:	e28d3038 	add	r3, sp, #56	; 0x38
  1042e0:	e1a00005 	mov	r0, r5
  1042e4:	e0831001 	add	r1, r3, r1
  1042e8:	e2894001 	add	r4, r9, #1
  1042ec:	e5513034 	ldrb	r3, [r1, #-52]	; 0xffffffcc
  1042f0:	e1a01007 	mov	r1, r7
  1042f4:	e5e63001 	strb	r3, [r6, #1]!
  1042f8:	eb0001c2 	bl	104a08 <__aeabi_uidiv>
  1042fc:	e2505000 	subs	r5, r0, #0
  104300:	1afffff1 	bne	1042cc <outnum+0x80>
  104304:	e35a0000 	cmp	sl, #0
  104308:	e28d5018 	add	r5, sp, #24
  10430c:	128d3038 	addne	r3, sp, #56	; 0x38
  104310:	13a0202d 	movne	r2, #45	; 0x2d
  104314:	10833004 	addne	r3, r3, r4
  104318:	12894002 	addne	r4, r9, #2
  10431c:	15432020 	strbne	r2, [r3, #-32]	; 0xffffffe0
  104320:	e28d3038 	add	r3, sp, #56	; 0x38
  104324:	e3a02000 	mov	r2, #0
  104328:	e0833004 	add	r3, r3, r4
  10432c:	e1a00005 	mov	r0, r5
  104330:	e5432020 	strb	r2, [r3, #-32]	; 0xffffffe0
  104334:	fa000661 	blx	105cc0 <strlen>
  104338:	e5983010 	ldr	r3, [r8, #16]
  10433c:	e5982014 	ldr	r2, [r8, #20]
  104340:	e5880000 	str	r0, [r8]
  104344:	e2933000 	adds	r3, r3, #0
  104348:	13a03001 	movne	r3, #1
  10434c:	e3520000 	cmp	r2, #0
  104350:	13a03000 	movne	r3, #0
  104354:	e3530000 	cmp	r3, #0
  104358:	1a000011 	bne	1043a4 <outnum+0x158>
  10435c:	e0854004 	add	r4, r5, r4
  104360:	e5740001 	ldrb	r0, [r4, #-1]!
  104364:	eb000168 	bl	10490c <outbyte>
  104368:	e1540005 	cmp	r4, r5
  10436c:	1afffffb 	bne	104360 <outnum+0x114>
  104370:	e5982010 	ldr	r2, [r8, #16]
  104374:	e5983014 	ldr	r3, [r8, #20]
  104378:	e3520000 	cmp	r2, #0
  10437c:	13530000 	cmpne	r3, #0
  104380:	1a000003 	bne	104394 <outnum+0x148>
  104384:	e28dd038 	add	sp, sp, #56	; 0x38
  104388:	e8bd87f0 	pop	{r4, r5, r6, r7, r8, r9, sl, pc}
  10438c:	e3a0a000 	mov	sl, #0
  104390:	eaffffcb 	b	1042c4 <outnum+0x78>
  104394:	e1a00008 	mov	r0, r8
  104398:	ebffff9e 	bl	104218 <padding.part.0>
  10439c:	e28dd038 	add	sp, sp, #56	; 0x38
  1043a0:	e8bd87f0 	pop	{r4, r5, r6, r7, r8, r9, sl, pc}
  1043a4:	e1a00008 	mov	r0, r8
  1043a8:	ebffff9a 	bl	104218 <padding.part.0>
  1043ac:	eaffffea 	b	10435c <outnum+0x110>

001043b0 <xil_printf>:
  1043b0:	e92d000f 	push	{r0, r1, r2, r3}
  1043b4:	e92d40f0 	push	{r4, r5, r6, r7, lr}
  1043b8:	e24dd02c 	sub	sp, sp, #44	; 0x2c
  1043bc:	e3044654 	movw	r4, #18004	; 0x4654
  1043c0:	e3a07000 	mov	r7, #0
  1043c4:	e3404012 	movt	r4, #18
  1043c8:	e28d3044 	add	r3, sp, #68	; 0x44
  1043cc:	e59d2040 	ldr	r2, [sp, #64]	; 0x40
  1043d0:	e58d3004 	str	r3, [sp, #4]
  1043d4:	e58d2008 	str	r2, [sp, #8]
  1043d8:	e3520000 	cmp	r2, #0
  1043dc:	0a00000a 	beq	10440c <xil_printf+0x5c>
  1043e0:	e5d20000 	ldrb	r0, [r2]
  1043e4:	e3500000 	cmp	r0, #0
  1043e8:	0a000007 	beq	10440c <xil_printf+0x5c>
  1043ec:	e3500025 	cmp	r0, #37	; 0x25
  1043f0:	0a000009 	beq	10441c <xil_printf+0x6c>
  1043f4:	eb000144 	bl	10490c <outbyte>
  1043f8:	e59d2008 	ldr	r2, [sp, #8]
  1043fc:	e2822001 	add	r2, r2, #1
  104400:	e3520000 	cmp	r2, #0
  104404:	e58d2008 	str	r2, [sp, #8]
  104408:	1afffff4 	bne	1043e0 <xil_printf+0x30>
  10440c:	e28dd02c 	add	sp, sp, #44	; 0x2c
  104410:	e8bd40f0 	pop	{r4, r5, r6, r7, lr}
  104414:	e28dd010 	add	sp, sp, #16
  104418:	e12fff1e 	bx	lr
  10441c:	e3a00020 	mov	r0, #32
  104420:	e3071fff 	movw	r1, #32767	; 0x7fff
  104424:	e58d7024 	str	r7, [sp, #36]	; 0x24
  104428:	e1a03002 	mov	r3, r2
  10442c:	e58d7020 	str	r7, [sp, #32]
  104430:	e3a05000 	mov	r5, #0
  104434:	e58d701c 	str	r7, [sp, #28]
  104438:	e3a06001 	mov	r6, #1
  10443c:	e58d7010 	str	r7, [sp, #16]
  104440:	e58d700c 	str	r7, [sp, #12]
  104444:	e5cd0018 	strb	r0, [sp, #24]
  104448:	e58d1014 	str	r1, [sp, #20]
  10444c:	ea00000e 	b	10448c <xil_printf+0xdc>
  104450:	e3550000 	cmp	r5, #0
  104454:	1a0000ed 	bne	104810 <xil_printf+0x460>
  104458:	e3500030 	cmp	r0, #48	; 0x30
  10445c:	05cd0018 	strbeq	r0, [sp, #24]
  104460:	e28d0008 	add	r0, sp, #8
  104464:	ebffff4d 	bl	1041a0 <getnum>
  104468:	e59d3008 	ldr	r3, [sp, #8]
  10446c:	e58d601c 	str	r6, [sp, #28]
  104470:	e58d0010 	str	r0, [sp, #16]
  104474:	e3530000 	cmp	r3, #0
  104478:	0a000071 	beq	104644 <xil_printf+0x294>
  10447c:	e2433001 	sub	r3, r3, #1
  104480:	e3530000 	cmp	r3, #0
  104484:	e58d3008 	str	r3, [sp, #8]
  104488:	0a00006d 	beq	104644 <xil_printf+0x294>
  10448c:	e2832001 	add	r2, r3, #1
  104490:	e3520000 	cmp	r2, #0
  104494:	e58d2008 	str	r2, [sp, #8]
  104498:	0a000069 	beq	104644 <xil_printf+0x294>
  10449c:	e5d30001 	ldrb	r0, [r3, #1]
  1044a0:	e5943000 	ldr	r3, [r4]
  1044a4:	e0833000 	add	r3, r3, r0
  1044a8:	e5d33001 	ldrb	r3, [r3, #1]
  1044ac:	e3130004 	tst	r3, #4
  1044b0:	1affffe6 	bne	104450 <xil_printf+0xa0>
  1044b4:	e2033003 	and	r3, r3, #3
  1044b8:	e3530001 	cmp	r3, #1
  1044bc:	02803020 	addeq	r3, r0, #32
  1044c0:	11a03000 	movne	r3, r0
  1044c4:	e2433025 	sub	r3, r3, #37	; 0x25
  1044c8:	e3530053 	cmp	r3, #83	; 0x53
  1044cc:	979ff103 	ldrls	pc, [pc, r3, lsl #2]
  1044d0:	ea00006a 	b	104680 <xil_printf+0x2d0>
  1044d4:	00104724 	.word	0x00104724
  1044d8:	00104680 	.word	0x00104680
  1044dc:	00104680 	.word	0x00104680
  1044e0:	00104680 	.word	0x00104680
  1044e4:	00104680 	.word	0x00104680
  1044e8:	00104680 	.word	0x00104680
  1044ec:	00104680 	.word	0x00104680
  1044f0:	00104680 	.word	0x00104680
  1044f4:	00104734 	.word	0x00104734
  1044f8:	0010468c 	.word	0x0010468c
  1044fc:	00104680 	.word	0x00104680
  104500:	00104680 	.word	0x00104680
  104504:	00104680 	.word	0x00104680
  104508:	00104680 	.word	0x00104680
  10450c:	00104680 	.word	0x00104680
  104510:	00104680 	.word	0x00104680
  104514:	00104680 	.word	0x00104680
  104518:	00104680 	.word	0x00104680
  10451c:	00104680 	.word	0x00104680
  104520:	00104680 	.word	0x00104680
  104524:	00104680 	.word	0x00104680
  104528:	00104680 	.word	0x00104680
  10452c:	00104680 	.word	0x00104680
  104530:	00104680 	.word	0x00104680
  104534:	00104680 	.word	0x00104680
  104538:	00104680 	.word	0x00104680
  10453c:	00104680 	.word	0x00104680
  104540:	00104680 	.word	0x00104680
  104544:	00104680 	.word	0x00104680
  104548:	00104680 	.word	0x00104680
  10454c:	00104680 	.word	0x00104680
  104550:	00104680 	.word	0x00104680
  104554:	00104680 	.word	0x00104680
  104558:	00104680 	.word	0x00104680
  10455c:	00104680 	.word	0x00104680
  104560:	00104680 	.word	0x00104680
  104564:	00104680 	.word	0x00104680
  104568:	00104680 	.word	0x00104680
  10456c:	00104680 	.word	0x00104680
  104570:	00104680 	.word	0x00104680
  104574:	00104680 	.word	0x00104680
  104578:	00104680 	.word	0x00104680
  10457c:	00104680 	.word	0x00104680
  104580:	00104680 	.word	0x00104680
  104584:	00104680 	.word	0x00104680
  104588:	00104680 	.word	0x00104680
  10458c:	00104680 	.word	0x00104680
  104590:	00104680 	.word	0x00104680
  104594:	00104680 	.word	0x00104680
  104598:	00104680 	.word	0x00104680
  10459c:	00104680 	.word	0x00104680
  1045a0:	0010470c 	.word	0x0010470c
  1045a4:	00104680 	.word	0x00104680
  1045a8:	00104680 	.word	0x00104680
  1045ac:	00104680 	.word	0x00104680
  1045b0:	001046b4 	.word	0x001046b4
  1045b4:	00104680 	.word	0x00104680
  1045b8:	00104680 	.word	0x00104680
  1045bc:	00104680 	.word	0x00104680
  1045c0:	00104680 	.word	0x00104680
  1045c4:	00104680 	.word	0x00104680
  1045c8:	00104680 	.word	0x00104680
  1045cc:	00104698 	.word	0x00104698
  1045d0:	00104658 	.word	0x00104658
  1045d4:	00104680 	.word	0x00104680
  1045d8:	00104680 	.word	0x00104680
  1045dc:	00104680 	.word	0x00104680
  1045e0:	00104680 	.word	0x00104680
  1045e4:	00104658 	.word	0x00104658
  1045e8:	00104680 	.word	0x00104680
  1045ec:	00104680 	.word	0x00104680
  1045f0:	00104638 	.word	0x00104638
  1045f4:	00104680 	.word	0x00104680
  1045f8:	00104680 	.word	0x00104680
  1045fc:	00104680 	.word	0x00104680
  104600:	0010470c 	.word	0x0010470c
  104604:	00104680 	.word	0x00104680
  104608:	00104680 	.word	0x00104680
  10460c:	00104740 	.word	0x00104740
  104610:	00104680 	.word	0x00104680
  104614:	00104650 	.word	0x00104650
  104618:	00104680 	.word	0x00104680
  10461c:	00104680 	.word	0x00104680
  104620:	0010470c 	.word	0x0010470c
  104624:	e3a0000d 	mov	r0, #13
  104628:	eb0000b7 	bl	10490c <outbyte>
  10462c:	e59d2008 	ldr	r2, [sp, #8]
  104630:	e2822001 	add	r2, r2, #1
  104634:	e58d2008 	str	r2, [sp, #8]
  104638:	e1a03002 	mov	r3, r2
  10463c:	e3530000 	cmp	r3, #0
  104640:	1affff91 	bne	10448c <xil_printf+0xdc>
  104644:	e3a03000 	mov	r3, #0
  104648:	e5d33000 	ldrb	r3, [r3]
  10464c:	e7f000f0 	udf	#0
  104650:	e3a03001 	mov	r3, #1
  104654:	e58d3024 	str	r3, [sp, #36]	; 0x24
  104658:	e59d3004 	ldr	r3, [sp, #4]
  10465c:	e28d200c 	add	r2, sp, #12
  104660:	e3a0100a 	mov	r1, #10
  104664:	e283c004 	add	ip, r3, #4
  104668:	e5930000 	ldr	r0, [r3]
  10466c:	e58dc004 	str	ip, [sp, #4]
  104670:	ebfffef5 	bl	10424c <outnum>
  104674:	e59d2008 	ldr	r2, [sp, #8]
  104678:	e3520000 	cmp	r2, #0
  10467c:	0affff62 	beq	10440c <xil_printf+0x5c>
  104680:	e2822001 	add	r2, r2, #1
  104684:	e58d2008 	str	r2, [sp, #8]
  104688:	eaffff52 	b	1043d8 <xil_printf+0x28>
  10468c:	e3a05001 	mov	r5, #1
  104690:	e1a03002 	mov	r3, r2
  104694:	eaffffe8 	b	10463c <xil_printf+0x28c>
  104698:	e59d3004 	ldr	r3, [sp, #4]
  10469c:	e2832004 	add	r2, r3, #4
  1046a0:	e5d30000 	ldrb	r0, [r3]
  1046a4:	e58d2004 	str	r2, [sp, #4]
  1046a8:	eb000097 	bl	10490c <outbyte>
  1046ac:	e59d2008 	ldr	r2, [sp, #8]
  1046b0:	eafffff0 	b	104678 <xil_printf+0x2c8>
  1046b4:	e2403061 	sub	r3, r0, #97	; 0x61
  1046b8:	e3530011 	cmp	r3, #17
  1046bc:	979ff103 	ldrls	pc, [pc, r3, lsl #2]
  1046c0:	ea000050 	b	104808 <xil_printf+0x458>
  1046c4:	001047fc 	.word	0x001047fc
  1046c8:	00104808 	.word	0x00104808
  1046cc:	00104808 	.word	0x00104808
  1046d0:	00104808 	.word	0x00104808
  1046d4:	00104808 	.word	0x00104808
  1046d8:	00104808 	.word	0x00104808
  1046dc:	00104808 	.word	0x00104808
  1046e0:	001047f0 	.word	0x001047f0
  1046e4:	00104808 	.word	0x00104808
  1046e8:	00104808 	.word	0x00104808
  1046ec:	00104808 	.word	0x00104808
  1046f0:	00104808 	.word	0x00104808
  1046f4:	00104808 	.word	0x00104808
  1046f8:	001047dc 	.word	0x001047dc
  1046fc:	00104808 	.word	0x00104808
  104700:	00104808 	.word	0x00104808
  104704:	00104808 	.word	0x00104808
  104708:	00104624 	.word	0x00104624
  10470c:	e3a00001 	mov	r0, #1
  104710:	e59d3004 	ldr	r3, [sp, #4]
  104714:	e28d200c 	add	r2, sp, #12
  104718:	e3a01010 	mov	r1, #16
  10471c:	e58d0024 	str	r0, [sp, #36]	; 0x24
  104720:	eaffffcf 	b	104664 <xil_printf+0x2b4>
  104724:	e3a00025 	mov	r0, #37	; 0x25
  104728:	eb000077 	bl	10490c <outbyte>
  10472c:	e59d2008 	ldr	r2, [sp, #8]
  104730:	eaffffd0 	b	104678 <xil_printf+0x2c8>
  104734:	e58d6020 	str	r6, [sp, #32]
  104738:	e1a03002 	mov	r3, r2
  10473c:	eaffffbe 	b	10463c <xil_printf+0x28c>
  104740:	e59d3004 	ldr	r3, [sp, #4]
  104744:	e5935000 	ldr	r5, [r3]
  104748:	e2833004 	add	r3, r3, #4
  10474c:	e58d3004 	str	r3, [sp, #4]
  104750:	e3550000 	cmp	r5, #0
  104754:	0a000002 	beq	104764 <xil_printf+0x3b4>
  104758:	e1a00005 	mov	r0, r5
  10475c:	fa000557 	blx	105cc0 <strlen>
  104760:	e58d000c 	str	r0, [sp, #12]
  104764:	e59d301c 	ldr	r3, [sp, #28]
  104768:	e59d2020 	ldr	r2, [sp, #32]
  10476c:	e2933000 	adds	r3, r3, #0
  104770:	13a03001 	movne	r3, #1
  104774:	e3520000 	cmp	r2, #0
  104778:	13a03000 	movne	r3, #0
  10477c:	e3530000 	cmp	r3, #0
  104780:	1a000027 	bne	104824 <xil_printf+0x474>
  104784:	e5d53000 	ldrb	r3, [r5]
  104788:	e3530000 	cmp	r3, #0
  10478c:	1a000007 	bne	1047b0 <xil_printf+0x400>
  104790:	ea000009 	b	1047bc <xil_printf+0x40c>
  104794:	e2433001 	sub	r3, r3, #1
  104798:	e58d3014 	str	r3, [sp, #20]
  10479c:	e5d50000 	ldrb	r0, [r5]
  1047a0:	eb000059 	bl	10490c <outbyte>
  1047a4:	e5f53001 	ldrb	r3, [r5, #1]!
  1047a8:	e3530000 	cmp	r3, #0
  1047ac:	0a000002 	beq	1047bc <xil_printf+0x40c>
  1047b0:	e59d3014 	ldr	r3, [sp, #20]
  1047b4:	e3530000 	cmp	r3, #0
  1047b8:	1afffff5 	bne	104794 <xil_printf+0x3e4>
  1047bc:	e59d201c 	ldr	r2, [sp, #28]
  1047c0:	e59d3020 	ldr	r3, [sp, #32]
  1047c4:	e3520000 	cmp	r2, #0
  1047c8:	13530000 	cmpne	r3, #0
  1047cc:	0affffa8 	beq	104674 <xil_printf+0x2c4>
  1047d0:	e28d000c 	add	r0, sp, #12
  1047d4:	ebfffe8f 	bl	104218 <padding.part.0>
  1047d8:	eaffffa5 	b	104674 <xil_printf+0x2c4>
  1047dc:	e3a0000d 	mov	r0, #13
  1047e0:	eb000049 	bl	10490c <outbyte>
  1047e4:	e3a0000a 	mov	r0, #10
  1047e8:	eb000047 	bl	10490c <outbyte>
  1047ec:	eaffff8e 	b	10462c <xil_printf+0x27c>
  1047f0:	e3a00008 	mov	r0, #8
  1047f4:	eb000044 	bl	10490c <outbyte>
  1047f8:	eaffff8b 	b	10462c <xil_printf+0x27c>
  1047fc:	e3a00007 	mov	r0, #7
  104800:	eb000041 	bl	10490c <outbyte>
  104804:	eaffff88 	b	10462c <xil_printf+0x27c>
  104808:	eb00003f 	bl	10490c <outbyte>
  10480c:	eaffff86 	b	10462c <xil_printf+0x27c>
  104810:	e28d0008 	add	r0, sp, #8
  104814:	ebfffe61 	bl	1041a0 <getnum>
  104818:	e59d3008 	ldr	r3, [sp, #8]
  10481c:	e58d0014 	str	r0, [sp, #20]
  104820:	eaffff13 	b	104474 <xil_printf+0xc4>
  104824:	e28d000c 	add	r0, sp, #12
  104828:	ebfffe7a 	bl	104218 <padding.part.0>
  10482c:	eaffffd4 	b	104784 <xil_printf+0x3d4>

00104830 <XTime_SetTime>:
  104830:	e92d4070 	push	{r4, r5, r6, lr}
  104834:	e3a04f82 	mov	r4, #520	; 0x208
  104838:	e34f48f0 	movt	r4, #63728	; 0xf8f0
  10483c:	e1a06000 	mov	r6, r0
  104840:	e1a05001 	mov	r5, r1
  104844:	e1a00004 	mov	r0, r4
  104848:	e3a01000 	mov	r1, #0
  10484c:	ebfffe3b 	bl	104140 <Xil_Out32>
  104850:	e3a00c02 	mov	r0, #512	; 0x200
  104854:	e1a01006 	mov	r1, r6
  104858:	e34f08f0 	movt	r0, #63728	; 0xf8f0
  10485c:	ebfffe37 	bl	104140 <Xil_Out32>
  104860:	e3a00f81 	mov	r0, #516	; 0x204
  104864:	e1a01005 	mov	r1, r5
  104868:	e34f08f0 	movt	r0, #63728	; 0xf8f0
  10486c:	ebfffe33 	bl	104140 <Xil_Out32>
  104870:	e1a00004 	mov	r0, r4
  104874:	e3a01001 	mov	r1, #1
  104878:	e8bd4070 	pop	{r4, r5, r6, lr}
  10487c:	eafffe2f 	b	104140 <Xil_Out32>

00104880 <XTime_GetTime>:
  104880:	e92d41f0 	push	{r4, r5, r6, r7, r8, lr}
  104884:	e1a08000 	mov	r8, r0
  104888:	e3a00f81 	mov	r0, #516	; 0x204
  10488c:	e34f08f0 	movt	r0, #63728	; 0xf8f0
  104890:	ebfffe24 	bl	104128 <Xil_In32>
  104894:	e1a04000 	mov	r4, r0
  104898:	e3a00c02 	mov	r0, #512	; 0x200
  10489c:	e34f08f0 	movt	r0, #63728	; 0xf8f0
  1048a0:	ebfffe20 	bl	104128 <Xil_In32>
  1048a4:	e1a05000 	mov	r5, r0
  1048a8:	e3a00f81 	mov	r0, #516	; 0x204
  1048ac:	e34f08f0 	movt	r0, #63728	; 0xf8f0
  1048b0:	ebfffe1c 	bl	104128 <Xil_In32>
  1048b4:	e1500004 	cmp	r0, r4
  1048b8:	1afffff2 	bne	104888 <XTime_GetTime+0x8>
  1048bc:	e3a06000 	mov	r6, #0
  1048c0:	e1a07000 	mov	r7, r0
  1048c4:	e1866005 	orr	r6, r6, r5
  1048c8:	e1c860f0 	strd	r6, [r8]
  1048cc:	e8bd81f0 	pop	{r4, r5, r6, r7, r8, pc}

001048d0 <__cpu_init>:
  1048d0:	e3a00000 	mov	r0, #0
  1048d4:	ee050f10 	mcr	15, 0, r0, cr5, cr0, {0}
  1048d8:	ee050f30 	mcr	15, 0, r0, cr5, cr0, {1}
  1048dc:	ee060f10 	mcr	15, 0, r0, cr6, cr0, {0}
  1048e0:	ee060f50 	mcr	15, 0, r0, cr6, cr0, {2}
  1048e4:	ee090f5d 	mcr	15, 0, r0, cr9, cr13, {2}
  1048e8:	ee0d0f50 	mcr	15, 0, r0, cr13, cr0, {2}
  1048ec:	ee0d0f70 	mcr	15, 0, r0, cr13, cr0, {3}
  1048f0:	e3a02102 	mov	r2, #-2147483648	; 0x80000000
  1048f4:	ee092f7c 	mcr	15, 0, r2, cr9, cr12, {3}
  1048f8:	e3a0200d 	mov	r2, #13
  1048fc:	ee092f1c 	mcr	15, 0, r2, cr9, cr12, {0}
  104900:	e3a02102 	mov	r2, #-2147483648	; 0x80000000
  104904:	ee092f3c 	mcr	15, 0, r2, cr9, cr12, {1}
  104908:	e12fff1e 	bx	lr

0010490c <outbyte>:
  10490c:	e1a01000 	mov	r1, r0
  104910:	e3a00a01 	mov	r0, #4096	; 0x1000
  104914:	e34e0000 	movt	r0, #57344	; 0xe000
  104918:	eaffffff 	b	10491c <XUartPs_SendByte>

0010491c <XUartPs_SendByte>:
  10491c:	e92d4070 	push	{r4, r5, r6, lr}
  104920:	e1a05000 	mov	r5, r0
  104924:	e1a06001 	mov	r6, r1
  104928:	e280402c 	add	r4, r0, #44	; 0x2c
  10492c:	e1a00004 	mov	r0, r4
  104930:	ebfffdfc 	bl	104128 <Xil_In32>
  104934:	e3100010 	tst	r0, #16
  104938:	1afffffb 	bne	10492c <XUartPs_SendByte+0x10>
  10493c:	e1a01006 	mov	r1, r6
  104940:	e2850030 	add	r0, r5, #48	; 0x30
  104944:	e8bd4070 	pop	{r4, r5, r6, lr}
  104948:	eafffdfc 	b	104140 <Xil_Out32>

0010494c <XUartPs_RecvByte>:
  10494c:	e92d4070 	push	{r4, r5, r6, lr}
  104950:	e1a05000 	mov	r5, r0
  104954:	e280402c 	add	r4, r0, #44	; 0x2c
  104958:	e1a00004 	mov	r0, r4
  10495c:	ebfffdf1 	bl	104128 <Xil_In32>
  104960:	e3100002 	tst	r0, #2
  104964:	1afffffb 	bne	104958 <XUartPs_RecvByte+0xc>
  104968:	e2850030 	add	r0, r5, #48	; 0x30
  10496c:	ebfffded 	bl	104128 <Xil_In32>
  104970:	e6ef0070 	uxtb	r0, r0
  104974:	e8bd8070 	pop	{r4, r5, r6, pc}

00104978 <XUartPs_ResetHw>:
  104978:	e92d4010 	push	{r4, lr}
  10497c:	e3031fff 	movw	r1, #16383	; 0x3fff
  104980:	e1a04000 	mov	r4, r0
  104984:	e280000c 	add	r0, r0, #12
  104988:	ebfffdec 	bl	104140 <Xil_Out32>
  10498c:	e1a00004 	mov	r0, r4
  104990:	e3a01028 	mov	r1, #40	; 0x28
  104994:	ebfffde9 	bl	104140 <Xil_Out32>
  104998:	e1a00004 	mov	r0, r4
  10499c:	e3a01003 	mov	r1, #3
  1049a0:	ebfffde6 	bl	104140 <Xil_Out32>
  1049a4:	e2840014 	add	r0, r4, #20
  1049a8:	e3031fff 	movw	r1, #16383	; 0x3fff
  1049ac:	ebfffde3 	bl	104140 <Xil_Out32>
  1049b0:	e2840004 	add	r0, r4, #4
  1049b4:	e3a01000 	mov	r1, #0
  1049b8:	ebfffde0 	bl	104140 <Xil_Out32>
  1049bc:	e2840020 	add	r0, r4, #32
  1049c0:	e3a01020 	mov	r1, #32
  1049c4:	ebfffddd 	bl	104140 <Xil_Out32>
  1049c8:	e2840044 	add	r0, r4, #68	; 0x44
  1049cc:	e3a01020 	mov	r1, #32
  1049d0:	ebfffdda 	bl	104140 <Xil_Out32>
  1049d4:	e284001c 	add	r0, r4, #28
  1049d8:	e3a01000 	mov	r1, #0
  1049dc:	ebfffdd7 	bl	104140 <Xil_Out32>
  1049e0:	e2840018 	add	r0, r4, #24
  1049e4:	e300128b 	movw	r1, #651	; 0x28b
  1049e8:	ebfffdd4 	bl	104140 <Xil_Out32>
  1049ec:	e2840034 	add	r0, r4, #52	; 0x34
  1049f0:	e3a0100f 	mov	r1, #15
  1049f4:	ebfffdd1 	bl	104140 <Xil_Out32>
  1049f8:	e1a00004 	mov	r0, r4
  1049fc:	e3a01f4a 	mov	r1, #296	; 0x128
  104a00:	e8bd4010 	pop	{r4, lr}
  104a04:	eafffdcd 	b	104140 <Xil_Out32>

00104a08 <__aeabi_uidiv>:
  104a08:	e2512001 	subs	r2, r1, #1
  104a0c:	012fff1e 	bxeq	lr
  104a10:	3a000074 	bcc	104be8 <__aeabi_uidiv+0x1e0>
  104a14:	e1500001 	cmp	r0, r1
  104a18:	9a00006b 	bls	104bcc <__aeabi_uidiv+0x1c4>
  104a1c:	e1110002 	tst	r1, r2
  104a20:	0a00006c 	beq	104bd8 <__aeabi_uidiv+0x1d0>
  104a24:	e16f3f10 	clz	r3, r0
  104a28:	e16f2f11 	clz	r2, r1
  104a2c:	e0423003 	sub	r3, r2, r3
  104a30:	e273301f 	rsbs	r3, r3, #31
  104a34:	10833083 	addne	r3, r3, r3, lsl #1
  104a38:	e3a02000 	mov	r2, #0
  104a3c:	108ff103 	addne	pc, pc, r3, lsl #2
  104a40:	e320f000 	nop	{0}
  104a44:	e1500f81 	cmp	r0, r1, lsl #31
  104a48:	e0a22002 	adc	r2, r2, r2
  104a4c:	20400f81 	subcs	r0, r0, r1, lsl #31
  104a50:	e1500f01 	cmp	r0, r1, lsl #30
  104a54:	e0a22002 	adc	r2, r2, r2
  104a58:	20400f01 	subcs	r0, r0, r1, lsl #30
  104a5c:	e1500e81 	cmp	r0, r1, lsl #29
  104a60:	e0a22002 	adc	r2, r2, r2
  104a64:	20400e81 	subcs	r0, r0, r1, lsl #29
  104a68:	e1500e01 	cmp	r0, r1, lsl #28
  104a6c:	e0a22002 	adc	r2, r2, r2
  104a70:	20400e01 	subcs	r0, r0, r1, lsl #28
  104a74:	e1500d81 	cmp	r0, r1, lsl #27
  104a78:	e0a22002 	adc	r2, r2, r2
  104a7c:	20400d81 	subcs	r0, r0, r1, lsl #27
  104a80:	e1500d01 	cmp	r0, r1, lsl #26
  104a84:	e0a22002 	adc	r2, r2, r2
  104a88:	20400d01 	subcs	r0, r0, r1, lsl #26
  104a8c:	e1500c81 	cmp	r0, r1, lsl #25
  104a90:	e0a22002 	adc	r2, r2, r2
  104a94:	20400c81 	subcs	r0, r0, r1, lsl #25
  104a98:	e1500c01 	cmp	r0, r1, lsl #24
  104a9c:	e0a22002 	adc	r2, r2, r2
  104aa0:	20400c01 	subcs	r0, r0, r1, lsl #24
  104aa4:	e1500b81 	cmp	r0, r1, lsl #23
  104aa8:	e0a22002 	adc	r2, r2, r2
  104aac:	20400b81 	subcs	r0, r0, r1, lsl #23
  104ab0:	e1500b01 	cmp	r0, r1, lsl #22
  104ab4:	e0a22002 	adc	r2, r2, r2
  104ab8:	20400b01 	subcs	r0, r0, r1, lsl #22
  104abc:	e1500a81 	cmp	r0, r1, lsl #21
  104ac0:	e0a22002 	adc	r2, r2, r2
  104ac4:	20400a81 	subcs	r0, r0, r1, lsl #21
  104ac8:	e1500a01 	cmp	r0, r1, lsl #20
  104acc:	e0a22002 	adc	r2, r2, r2
  104ad0:	20400a01 	subcs	r0, r0, r1, lsl #20
  104ad4:	e1500981 	cmp	r0, r1, lsl #19
  104ad8:	e0a22002 	adc	r2, r2, r2
  104adc:	20400981 	subcs	r0, r0, r1, lsl #19
  104ae0:	e1500901 	cmp	r0, r1, lsl #18
  104ae4:	e0a22002 	adc	r2, r2, r2
  104ae8:	20400901 	subcs	r0, r0, r1, lsl #18
  104aec:	e1500881 	cmp	r0, r1, lsl #17
  104af0:	e0a22002 	adc	r2, r2, r2
  104af4:	20400881 	subcs	r0, r0, r1, lsl #17
  104af8:	e1500801 	cmp	r0, r1, lsl #16
  104afc:	e0a22002 	adc	r2, r2, r2
  104b00:	20400801 	subcs	r0, r0, r1, lsl #16
  104b04:	e1500781 	cmp	r0, r1, lsl #15
  104b08:	e0a22002 	adc	r2, r2, r2
  104b0c:	20400781 	subcs	r0, r0, r1, lsl #15
  104b10:	e1500701 	cmp	r0, r1, lsl #14
  104b14:	e0a22002 	adc	r2, r2, r2
  104b18:	20400701 	subcs	r0, r0, r1, lsl #14
  104b1c:	e1500681 	cmp	r0, r1, lsl #13
  104b20:	e0a22002 	adc	r2, r2, r2
  104b24:	20400681 	subcs	r0, r0, r1, lsl #13
  104b28:	e1500601 	cmp	r0, r1, lsl #12
  104b2c:	e0a22002 	adc	r2, r2, r2
  104b30:	20400601 	subcs	r0, r0, r1, lsl #12
  104b34:	e1500581 	cmp	r0, r1, lsl #11
  104b38:	e0a22002 	adc	r2, r2, r2
  104b3c:	20400581 	subcs	r0, r0, r1, lsl #11
  104b40:	e1500501 	cmp	r0, r1, lsl #10
  104b44:	e0a22002 	adc	r2, r2, r2
  104b48:	20400501 	subcs	r0, r0, r1, lsl #10
  104b4c:	e1500481 	cmp	r0, r1, lsl #9
  104b50:	e0a22002 	adc	r2, r2, r2
  104b54:	20400481 	subcs	r0, r0, r1, lsl #9
  104b58:	e1500401 	cmp	r0, r1, lsl #8
  104b5c:	e0a22002 	adc	r2, r2, r2
  104b60:	20400401 	subcs	r0, r0, r1, lsl #8
  104b64:	e1500381 	cmp	r0, r1, lsl #7
  104b68:	e0a22002 	adc	r2, r2, r2
  104b6c:	20400381 	subcs	r0, r0, r1, lsl #7
  104b70:	e1500301 	cmp	r0, r1, lsl #6
  104b74:	e0a22002 	adc	r2, r2, r2
  104b78:	20400301 	subcs	r0, r0, r1, lsl #6
  104b7c:	e1500281 	cmp	r0, r1, lsl #5
  104b80:	e0a22002 	adc	r2, r2, r2
  104b84:	20400281 	subcs	r0, r0, r1, lsl #5
  104b88:	e1500201 	cmp	r0, r1, lsl #4
  104b8c:	e0a22002 	adc	r2, r2, r2
  104b90:	20400201 	subcs	r0, r0, r1, lsl #4
  104b94:	e1500181 	cmp	r0, r1, lsl #3
  104b98:	e0a22002 	adc	r2, r2, r2
  104b9c:	20400181 	subcs	r0, r0, r1, lsl #3
  104ba0:	e1500101 	cmp	r0, r1, lsl #2
  104ba4:	e0a22002 	adc	r2, r2, r2
  104ba8:	20400101 	subcs	r0, r0, r1, lsl #2
  104bac:	e1500081 	cmp	r0, r1, lsl #1
  104bb0:	e0a22002 	adc	r2, r2, r2
  104bb4:	20400081 	subcs	r0, r0, r1, lsl #1
  104bb8:	e1500001 	cmp	r0, r1
  104bbc:	e0a22002 	adc	r2, r2, r2
  104bc0:	20400001 	subcs	r0, r0, r1
  104bc4:	e1a00002 	mov	r0, r2
  104bc8:	e12fff1e 	bx	lr
  104bcc:	03a00001 	moveq	r0, #1
  104bd0:	13a00000 	movne	r0, #0
  104bd4:	e12fff1e 	bx	lr
  104bd8:	e16f2f11 	clz	r2, r1
  104bdc:	e262201f 	rsb	r2, r2, #31
  104be0:	e1a00230 	lsr	r0, r0, r2
  104be4:	e12fff1e 	bx	lr
  104be8:	e3500000 	cmp	r0, #0
  104bec:	13e00000 	mvnne	r0, #0
  104bf0:	ea000007 	b	104c14 <__aeabi_idiv0>

00104bf4 <__aeabi_uidivmod>:
  104bf4:	e3510000 	cmp	r1, #0
  104bf8:	0afffffa 	beq	104be8 <__aeabi_uidiv+0x1e0>
  104bfc:	e92d4003 	push	{r0, r1, lr}
  104c00:	ebffff80 	bl	104a08 <__aeabi_uidiv>
  104c04:	e8bd4006 	pop	{r1, r2, lr}
  104c08:	e0030092 	mul	r3, r2, r0
  104c0c:	e0411003 	sub	r1, r1, r3
  104c10:	e12fff1e 	bx	lr

00104c14 <__aeabi_idiv0>:
  104c14:	e12fff1e 	bx	lr

00104c18 <__set_ctype>:
  104c18:	e3043654 	movw	r3, #18004	; 0x4654
  104c1c:	e30023ec 	movw	r2, #1004	; 0x3ec
  104c20:	e3403012 	movt	r3, #18
  104c24:	e3402012 	movt	r2, #18
  104c28:	e5832000 	str	r2, [r3]
  104c2c:	e12fff1e 	bx	lr

00104c30 <exit>:
  104c30:	e92d4010 	push	{r4, lr}
  104c34:	e3a01000 	mov	r1, #0
  104c38:	e1a04000 	mov	r4, r0
  104c3c:	eb00170e 	bl	10a87c <__call_exitprocs>
  104c40:	e30034f0 	movw	r3, #1264	; 0x4f0
  104c44:	e3403012 	movt	r3, #18
  104c48:	e5930000 	ldr	r0, [r3]
  104c4c:	e590303c 	ldr	r3, [r0, #60]	; 0x3c
  104c50:	e3530000 	cmp	r3, #0
  104c54:	0a000000 	beq	104c5c <exit+0x2c>
  104c58:	e12fff33 	blx	r3
  104c5c:	e1a00004 	mov	r0, r4
  104c60:	eb00544c 	bl	119d98 <_exit>

00104c64 <__libc_fini_array>:
  104c64:	e92d4070 	push	{r4, r5, r6, lr}
  104c68:	e30c3014 	movw	r3, #49172	; 0xc014
  104c6c:	e30c5010 	movw	r5, #49168	; 0xc010
  104c70:	e3403012 	movt	r3, #18
  104c74:	e3405012 	movt	r5, #18
  104c78:	e0653003 	rsb	r3, r5, r3
  104c7c:	e1b04143 	asrs	r4, r3, #2
  104c80:	10835005 	addne	r5, r3, r5
  104c84:	0a000004 	beq	104c9c <__libc_fini_array+0x38>
  104c88:	e2444001 	sub	r4, r4, #1
  104c8c:	e5353004 	ldr	r3, [r5, #-4]!
  104c90:	e12fff33 	blx	r3
  104c94:	e3540000 	cmp	r4, #0
  104c98:	1afffffa 	bne	104c88 <__libc_fini_array+0x24>
  104c9c:	e8bd4070 	pop	{r4, r5, r6, lr}
  104ca0:	ea006bf1 	b	11fc6c <_fini>

00104ca4 <__libc_init_array>:
  104ca4:	e92d4070 	push	{r4, r5, r6, lr}
  104ca8:	e30c6008 	movw	r6, #49160	; 0xc008
  104cac:	e30c5008 	movw	r5, #49160	; 0xc008
  104cb0:	e3406012 	movt	r6, #18
  104cb4:	e3405012 	movt	r5, #18
  104cb8:	e0656006 	rsb	r6, r5, r6
  104cbc:	e1b06146 	asrs	r6, r6, #2
  104cc0:	13a04000 	movne	r4, #0
  104cc4:	0a000004 	beq	104cdc <__libc_init_array+0x38>
  104cc8:	e2844001 	add	r4, r4, #1
  104ccc:	e4953004 	ldr	r3, [r5], #4
  104cd0:	e12fff33 	blx	r3
  104cd4:	e1560004 	cmp	r6, r4
  104cd8:	1afffffa 	bne	104cc8 <__libc_init_array+0x24>
  104cdc:	e30c6010 	movw	r6, #49168	; 0xc010
  104ce0:	e30c5008 	movw	r5, #49160	; 0xc008
  104ce4:	e3406012 	movt	r6, #18
  104ce8:	e3405012 	movt	r5, #18
  104cec:	e0656006 	rsb	r6, r5, r6
  104cf0:	eb006bd7 	bl	11fc54 <_init>
  104cf4:	e1b06146 	asrs	r6, r6, #2
  104cf8:	0a000006 	beq	104d18 <__libc_init_array+0x74>
  104cfc:	e3a04000 	mov	r4, #0
  104d00:	e2844001 	add	r4, r4, #1
  104d04:	e4953004 	ldr	r3, [r5], #4
  104d08:	e12fff33 	blx	r3
  104d0c:	e1560004 	cmp	r6, r4
  104d10:	1afffffa 	bne	104d00 <__libc_init_array+0x5c>
  104d14:	e8bd8070 	pop	{r4, r5, r6, pc}
  104d18:	e8bd8070 	pop	{r4, r5, r6, pc}

00104d1c <malloc>:
  104d1c:	e3043658 	movw	r3, #18008	; 0x4658
  104d20:	e1a01000 	mov	r1, r0
  104d24:	e3403012 	movt	r3, #18
  104d28:	e5930000 	ldr	r0, [r3]
  104d2c:	ea000004 	b	104d44 <_malloc_r>

00104d30 <free>:
  104d30:	e3043658 	movw	r3, #18008	; 0x4658
  104d34:	e1a01000 	mov	r1, r0
  104d38:	e3403012 	movt	r3, #18
  104d3c:	e5930000 	ldr	r0, [r3]
  104d40:	ea001e92 	b	10c790 <_free_r>

00104d44 <_malloc_r>:
  104d44:	e92d4ff0 	push	{r4, r5, r6, r7, r8, r9, sl, fp, lr}
  104d48:	e281500b 	add	r5, r1, #11
  104d4c:	e3550016 	cmp	r5, #22
  104d50:	e24dd00c 	sub	sp, sp, #12
  104d54:	e1a06000 	mov	r6, r0
  104d58:	9a00001f 	bls	104ddc <_malloc_r+0x98>
  104d5c:	e3c55007 	bic	r5, r5, #7
  104d60:	e1510005 	cmp	r1, r5
  104d64:	93a01000 	movls	r1, #0
  104d68:	83a01001 	movhi	r1, #1
  104d6c:	e1913fa5 	orrs	r3, r1, r5, lsr #31
  104d70:	1a000087 	bne	104f94 <_malloc_r+0x250>
  104d74:	eb000351 	bl	105ac0 <__malloc_lock>
  104d78:	e3550f7e 	cmp	r5, #504	; 0x1f8
  104d7c:	2a00001b 	bcs	104df0 <_malloc_r+0xac>
  104d80:	e1a001a5 	lsr	r0, r5, #3
  104d84:	e3047a88 	movw	r7, #19080	; 0x4a88
  104d88:	e3407012 	movt	r7, #18
  104d8c:	e0872180 	add	r2, r7, r0, lsl #3
  104d90:	e592300c 	ldr	r3, [r2, #12]
  104d94:	e1530002 	cmp	r3, r2
  104d98:	0a000114 	beq	1051f0 <_malloc_r+0x4ac>
  104d9c:	e5932004 	ldr	r2, [r3, #4]
  104da0:	e2834008 	add	r4, r3, #8
  104da4:	e593100c 	ldr	r1, [r3, #12]
  104da8:	e1a00006 	mov	r0, r6
  104dac:	e3c22003 	bic	r2, r2, #3
  104db0:	e593c008 	ldr	ip, [r3, #8]
  104db4:	e0833002 	add	r3, r3, r2
  104db8:	e5932004 	ldr	r2, [r3, #4]
  104dbc:	e58c100c 	str	r1, [ip, #12]
  104dc0:	e3822001 	orr	r2, r2, #1
  104dc4:	e581c008 	str	ip, [r1, #8]
  104dc8:	e5832004 	str	r2, [r3, #4]
  104dcc:	eb00033c 	bl	105ac4 <__malloc_unlock>
  104dd0:	e1a00004 	mov	r0, r4
  104dd4:	e28dd00c 	add	sp, sp, #12
  104dd8:	e8bd8ff0 	pop	{r4, r5, r6, r7, r8, r9, sl, fp, pc}
  104ddc:	e3510010 	cmp	r1, #16
  104de0:	8a00006b 	bhi	104f94 <_malloc_r+0x250>
  104de4:	eb000335 	bl	105ac0 <__malloc_lock>
  104de8:	e3a05010 	mov	r5, #16
  104dec:	eaffffe3 	b	104d80 <_malloc_r+0x3c>
  104df0:	e1b004a5 	lsrs	r0, r5, #9
  104df4:	03a0007e 	moveq	r0, #126	; 0x7e
  104df8:	03a0c03f 	moveq	ip, #63	; 0x3f
  104dfc:	1a00006a 	bne	104fac <_malloc_r+0x268>
  104e00:	e3047a88 	movw	r7, #19080	; 0x4a88
  104e04:	e3407012 	movt	r7, #18
  104e08:	e0870100 	add	r0, r7, r0, lsl #2
  104e0c:	e590300c 	ldr	r3, [r0, #12]
  104e10:	e1500003 	cmp	r0, r3
  104e14:	1a000005 	bne	104e30 <_malloc_r+0xec>
  104e18:	ea00000a 	b	104e48 <_malloc_r+0x104>
  104e1c:	e3510000 	cmp	r1, #0
  104e20:	aa0000a6 	bge	1050c0 <_malloc_r+0x37c>
  104e24:	e593300c 	ldr	r3, [r3, #12]
  104e28:	e1500003 	cmp	r0, r3
  104e2c:	0a000005 	beq	104e48 <_malloc_r+0x104>
  104e30:	e5932004 	ldr	r2, [r3, #4]
  104e34:	e3c22003 	bic	r2, r2, #3
  104e38:	e0651002 	rsb	r1, r5, r2
  104e3c:	e351000f 	cmp	r1, #15
  104e40:	dafffff5 	ble	104e1c <_malloc_r+0xd8>
  104e44:	e24cc001 	sub	ip, ip, #1
  104e48:	e28c0001 	add	r0, ip, #1
  104e4c:	e304ea88 	movw	lr, #19080	; 0x4a88
  104e50:	e5973010 	ldr	r3, [r7, #16]
  104e54:	e340e012 	movt	lr, #18
  104e58:	e28ec008 	add	ip, lr, #8
  104e5c:	e153000c 	cmp	r3, ip
  104e60:	059e2004 	ldreq	r2, [lr, #4]
  104e64:	0a000016 	beq	104ec4 <_malloc_r+0x180>
  104e68:	e5932004 	ldr	r2, [r3, #4]
  104e6c:	e3c22003 	bic	r2, r2, #3
  104e70:	e0651002 	rsb	r1, r5, r2
  104e74:	e351000f 	cmp	r1, #15
  104e78:	ca0000ce 	bgt	1051b8 <_malloc_r+0x474>
  104e7c:	e3510000 	cmp	r1, #0
  104e80:	e58ec014 	str	ip, [lr, #20]
  104e84:	e58ec010 	str	ip, [lr, #16]
  104e88:	aa00004d 	bge	104fc4 <_malloc_r+0x280>
  104e8c:	e3520c02 	cmp	r2, #512	; 0x200
  104e90:	2a0000ae 	bcs	105150 <_malloc_r+0x40c>
  104e94:	e1a041a2 	lsr	r4, r2, #3
  104e98:	e59e1004 	ldr	r1, [lr, #4]
  104e9c:	e3a09001 	mov	r9, #1
  104ea0:	e08e8184 	add	r8, lr, r4, lsl #3
  104ea4:	e1a02144 	asr	r2, r4, #2
  104ea8:	e1812219 	orr	r2, r1, r9, lsl r2
  104eac:	e58e2004 	str	r2, [lr, #4]
  104eb0:	e5981008 	ldr	r1, [r8, #8]
  104eb4:	e583800c 	str	r8, [r3, #12]
  104eb8:	e5831008 	str	r1, [r3, #8]
  104ebc:	e5883008 	str	r3, [r8, #8]
  104ec0:	e581300c 	str	r3, [r1, #12]
  104ec4:	e1a03140 	asr	r3, r0, #2
  104ec8:	e3a0e001 	mov	lr, #1
  104ecc:	e1a0e31e 	lsl	lr, lr, r3
  104ed0:	e15e0002 	cmp	lr, r2
  104ed4:	8a000044 	bhi	104fec <_malloc_r+0x2a8>
  104ed8:	e112000e 	tst	r2, lr
  104edc:	1a000008 	bne	104f04 <_malloc_r+0x1c0>
  104ee0:	e1a0e08e 	lsl	lr, lr, #1
  104ee4:	e3c00003 	bic	r0, r0, #3
  104ee8:	e112000e 	tst	r2, lr
  104eec:	e2800004 	add	r0, r0, #4
  104ef0:	1a000003 	bne	104f04 <_malloc_r+0x1c0>
  104ef4:	e1a0e08e 	lsl	lr, lr, #1
  104ef8:	e2800004 	add	r0, r0, #4
  104efc:	e112000e 	tst	r2, lr
  104f00:	0afffffb 	beq	104ef4 <_malloc_r+0x1b0>
  104f04:	e0878180 	add	r8, r7, r0, lsl #3
  104f08:	e1a09000 	mov	r9, r0
  104f0c:	e1a04008 	mov	r4, r8
  104f10:	e594300c 	ldr	r3, [r4, #12]
  104f14:	e1540003 	cmp	r4, r3
  104f18:	1a000005 	bne	104f34 <_malloc_r+0x1f0>
  104f1c:	ea0000ae 	b	1051dc <_malloc_r+0x498>
  104f20:	e3510000 	cmp	r1, #0
  104f24:	aa0000b7 	bge	105208 <_malloc_r+0x4c4>
  104f28:	e593300c 	ldr	r3, [r3, #12]
  104f2c:	e1540003 	cmp	r4, r3
  104f30:	0a0000a9 	beq	1051dc <_malloc_r+0x498>
  104f34:	e5932004 	ldr	r2, [r3, #4]
  104f38:	e3c22003 	bic	r2, r2, #3
  104f3c:	e0651002 	rsb	r1, r5, r2
  104f40:	e351000f 	cmp	r1, #15
  104f44:	dafffff5 	ble	104f20 <_malloc_r+0x1dc>
  104f48:	e1a04003 	mov	r4, r3
  104f4c:	e593e00c 	ldr	lr, [r3, #12]
  104f50:	e5b48008 	ldr	r8, [r4, #8]!
  104f54:	e1a00006 	mov	r0, r6
  104f58:	e3816001 	orr	r6, r1, #1
  104f5c:	e0832005 	add	r2, r3, r5
  104f60:	e3855001 	orr	r5, r5, #1
  104f64:	e5835004 	str	r5, [r3, #4]
  104f68:	e588e00c 	str	lr, [r8, #12]
  104f6c:	e58e8008 	str	r8, [lr, #8]
  104f70:	e5872014 	str	r2, [r7, #20]
  104f74:	e5872010 	str	r2, [r7, #16]
  104f78:	e582c00c 	str	ip, [r2, #12]
  104f7c:	e9821040 	stmib	r2, {r6, ip}
  104f80:	e7821001 	str	r1, [r2, r1]
  104f84:	eb0002ce 	bl	105ac4 <__malloc_unlock>
  104f88:	e1a00004 	mov	r0, r4
  104f8c:	e28dd00c 	add	sp, sp, #12
  104f90:	e8bd8ff0 	pop	{r4, r5, r6, r7, r8, r9, sl, fp, pc}
  104f94:	e3a04000 	mov	r4, #0
  104f98:	e3a0300c 	mov	r3, #12
  104f9c:	e1a00004 	mov	r0, r4
  104fa0:	e5863000 	str	r3, [r6]
  104fa4:	e28dd00c 	add	sp, sp, #12
  104fa8:	e8bd8ff0 	pop	{r4, r5, r6, r7, r8, r9, sl, fp, pc}
  104fac:	e3500004 	cmp	r0, #4
  104fb0:	8a00005c 	bhi	105128 <_malloc_r+0x3e4>
  104fb4:	e1a00325 	lsr	r0, r5, #6
  104fb8:	e280c038 	add	ip, r0, #56	; 0x38
  104fbc:	e1a0008c 	lsl	r0, ip, #1
  104fc0:	eaffff8e 	b	104e00 <_malloc_r+0xbc>
  104fc4:	e0832002 	add	r2, r3, r2
  104fc8:	e2834008 	add	r4, r3, #8
  104fcc:	e1a00006 	mov	r0, r6
  104fd0:	e5923004 	ldr	r3, [r2, #4]
  104fd4:	e3833001 	orr	r3, r3, #1
  104fd8:	e5823004 	str	r3, [r2, #4]
  104fdc:	eb0002b8 	bl	105ac4 <__malloc_unlock>
  104fe0:	e1a00004 	mov	r0, r4
  104fe4:	e28dd00c 	add	sp, sp, #12
  104fe8:	e8bd8ff0 	pop	{r4, r5, r6, r7, r8, r9, sl, fp, pc}
  104fec:	e5974008 	ldr	r4, [r7, #8]
  104ff0:	e3041a88 	movw	r1, #19080	; 0x4a88
  104ff4:	e3401012 	movt	r1, #18
  104ff8:	e5943004 	ldr	r3, [r4, #4]
  104ffc:	e3c39003 	bic	r9, r3, #3
  105000:	e1590005 	cmp	r9, r5
  105004:	e0652009 	rsb	r2, r5, r9
  105008:	23a03000 	movcs	r3, #0
  10500c:	33a03001 	movcc	r3, #1
  105010:	e352000f 	cmp	r2, #15
  105014:	d3833001 	orrle	r3, r3, #1
  105018:	e3530000 	cmp	r3, #0
  10501c:	0a000035 	beq	1050f8 <_malloc_r+0x3b4>
  105020:	e30c8058 	movw	r8, #49240	; 0xc058
  105024:	e5913408 	ldr	r3, [r1, #1032]	; 0x408
  105028:	e3408012 	movt	r8, #18
  10502c:	e1a00006 	mov	r0, r6
  105030:	e5982000 	ldr	r2, [r8]
  105034:	e3730001 	cmn	r3, #1
  105038:	e0852002 	add	r2, r5, r2
  10503c:	12822a01 	addne	r2, r2, #4096	; 0x1000
  105040:	0282b010 	addeq	fp, r2, #16
  105044:	1282200f 	addne	r2, r2, #15
  105048:	13c2beff 	bicne	fp, r2, #4080	; 0xff0
  10504c:	13cbb00f 	bicne	fp, fp, #15
  105050:	e1a0100b 	mov	r1, fp
  105054:	eb0002e0 	bl	105bdc <_sbrk_r>
  105058:	e3700001 	cmn	r0, #1
  10505c:	e1a03000 	mov	r3, r0
  105060:	0a000007 	beq	105084 <_malloc_r+0x340>
  105064:	e054a007 	subs	sl, r4, r7
  105068:	e0842009 	add	r2, r4, r9
  10506c:	13a0a001 	movne	sl, #1
  105070:	e1540007 	cmp	r4, r7
  105074:	11520000 	cmpne	r2, r0
  105078:	e3040a88 	movw	r0, #19080	; 0x4a88
  10507c:	e3400012 	movt	r0, #18
  105080:	9a000090 	bls	1052c8 <_malloc_r+0x584>
  105084:	e5974008 	ldr	r4, [r7, #8]
  105088:	e5943004 	ldr	r3, [r4, #4]
  10508c:	e3c33003 	bic	r3, r3, #3
  105090:	e1550003 	cmp	r5, r3
  105094:	e0652003 	rsb	r2, r5, r3
  105098:	93a03000 	movls	r3, #0
  10509c:	83a03001 	movhi	r3, #1
  1050a0:	e352000f 	cmp	r2, #15
  1050a4:	d3833001 	orrle	r3, r3, #1
  1050a8:	e3530000 	cmp	r3, #0
  1050ac:	0a000011 	beq	1050f8 <_malloc_r+0x3b4>
  1050b0:	e1a00006 	mov	r0, r6
  1050b4:	e3a04000 	mov	r4, #0
  1050b8:	eb000281 	bl	105ac4 <__malloc_unlock>
  1050bc:	eaffff43 	b	104dd0 <_malloc_r+0x8c>
  1050c0:	e0832002 	add	r2, r3, r2
  1050c4:	e593c00c 	ldr	ip, [r3, #12]
  1050c8:	e593e008 	ldr	lr, [r3, #8]
  1050cc:	e1a00006 	mov	r0, r6
  1050d0:	e5921004 	ldr	r1, [r2, #4]
  1050d4:	e2834008 	add	r4, r3, #8
  1050d8:	e58ec00c 	str	ip, [lr, #12]
  1050dc:	e3813001 	orr	r3, r1, #1
  1050e0:	e58ce008 	str	lr, [ip, #8]
  1050e4:	e5823004 	str	r3, [r2, #4]
  1050e8:	eb000275 	bl	105ac4 <__malloc_unlock>
  1050ec:	e1a00004 	mov	r0, r4
  1050f0:	e28dd00c 	add	sp, sp, #12
  1050f4:	e8bd8ff0 	pop	{r4, r5, r6, r7, r8, r9, sl, fp, pc}
  1050f8:	e0843005 	add	r3, r4, r5
  1050fc:	e3822001 	orr	r2, r2, #1
  105100:	e1a00006 	mov	r0, r6
  105104:	e3855001 	orr	r5, r5, #1
  105108:	e5845004 	str	r5, [r4, #4]
  10510c:	e2844008 	add	r4, r4, #8
  105110:	e5873008 	str	r3, [r7, #8]
  105114:	e5832004 	str	r2, [r3, #4]
  105118:	eb000269 	bl	105ac4 <__malloc_unlock>
  10511c:	e1a00004 	mov	r0, r4
  105120:	e28dd00c 	add	sp, sp, #12
  105124:	e8bd8ff0 	pop	{r4, r5, r6, r7, r8, r9, sl, fp, pc}
  105128:	e3500014 	cmp	r0, #20
  10512c:	9280c05b 	addls	ip, r0, #91	; 0x5b
  105130:	91a0008c 	lslls	r0, ip, #1
  105134:	9affff31 	bls	104e00 <_malloc_r+0xbc>
  105138:	e3500054 	cmp	r0, #84	; 0x54
  10513c:	8a0000a9 	bhi	1053e8 <_malloc_r+0x6a4>
  105140:	e1a00625 	lsr	r0, r5, #12
  105144:	e280c06e 	add	ip, r0, #110	; 0x6e
  105148:	e1a0008c 	lsl	r0, ip, #1
  10514c:	eaffff2b 	b	104e00 <_malloc_r+0xbc>
  105150:	e1a014a2 	lsr	r1, r2, #9
  105154:	e3510004 	cmp	r1, #4
  105158:	8a000036 	bhi	105238 <_malloc_r+0x4f4>
  10515c:	e1a01322 	lsr	r1, r2, #6
  105160:	e281e038 	add	lr, r1, #56	; 0x38
  105164:	e1a0408e 	lsl	r4, lr, #1
  105168:	e0874104 	add	r4, r7, r4, lsl #2
  10516c:	e3048a88 	movw	r8, #19080	; 0x4a88
  105170:	e3408012 	movt	r8, #18
  105174:	e5941008 	ldr	r1, [r4, #8]
  105178:	e1510004 	cmp	r1, r4
  10517c:	0a00009f 	beq	105400 <_malloc_r+0x6bc>
  105180:	e591e004 	ldr	lr, [r1, #4]
  105184:	e3cee003 	bic	lr, lr, #3
  105188:	e152000e 	cmp	r2, lr
  10518c:	2a000002 	bcs	10519c <_malloc_r+0x458>
  105190:	e5911008 	ldr	r1, [r1, #8]
  105194:	e1540001 	cmp	r4, r1
  105198:	1afffff8 	bne	105180 <_malloc_r+0x43c>
  10519c:	e591400c 	ldr	r4, [r1, #12]
  1051a0:	e5972004 	ldr	r2, [r7, #4]
  1051a4:	e583400c 	str	r4, [r3, #12]
  1051a8:	e5831008 	str	r1, [r3, #8]
  1051ac:	e5843008 	str	r3, [r4, #8]
  1051b0:	e581300c 	str	r3, [r1, #12]
  1051b4:	eaffff42 	b	104ec4 <_malloc_r+0x180>
  1051b8:	e0832005 	add	r2, r3, r5
  1051bc:	e1a00006 	mov	r0, r6
  1051c0:	e3855001 	orr	r5, r5, #1
  1051c4:	e3816001 	orr	r6, r1, #1
  1051c8:	e5835004 	str	r5, [r3, #4]
  1051cc:	e2834008 	add	r4, r3, #8
  1051d0:	e58e2014 	str	r2, [lr, #20]
  1051d4:	e58e2010 	str	r2, [lr, #16]
  1051d8:	eaffff66 	b	104f78 <_malloc_r+0x234>
  1051dc:	e2899001 	add	r9, r9, #1
  1051e0:	e2844008 	add	r4, r4, #8
  1051e4:	e3190003 	tst	r9, #3
  1051e8:	1affff48 	bne	104f10 <_malloc_r+0x1cc>
  1051ec:	ea00001e 	b	10526c <_malloc_r+0x528>
  1051f0:	e2832008 	add	r2, r3, #8
  1051f4:	e5933014 	ldr	r3, [r3, #20]
  1051f8:	e1520003 	cmp	r2, r3
  1051fc:	02800002 	addeq	r0, r0, #2
  105200:	0affff11 	beq	104e4c <_malloc_r+0x108>
  105204:	eafffee4 	b	104d9c <_malloc_r+0x58>
  105208:	e0832002 	add	r2, r3, r2
  10520c:	e1a04003 	mov	r4, r3
  105210:	e593100c 	ldr	r1, [r3, #12]
  105214:	e1a00006 	mov	r0, r6
  105218:	e5b4c008 	ldr	ip, [r4, #8]!
  10521c:	e5923004 	ldr	r3, [r2, #4]
  105220:	e3833001 	orr	r3, r3, #1
  105224:	e5823004 	str	r3, [r2, #4]
  105228:	e58c100c 	str	r1, [ip, #12]
  10522c:	e581c008 	str	ip, [r1, #8]
  105230:	eb000223 	bl	105ac4 <__malloc_unlock>
  105234:	eafffee5 	b	104dd0 <_malloc_r+0x8c>
  105238:	e3510014 	cmp	r1, #20
  10523c:	9281e05b 	addls	lr, r1, #91	; 0x5b
  105240:	91a0408e 	lslls	r4, lr, #1
  105244:	9affffc7 	bls	105168 <_malloc_r+0x424>
  105248:	e3510054 	cmp	r1, #84	; 0x54
  10524c:	8a000087 	bhi	105470 <_malloc_r+0x72c>
  105250:	e1a01622 	lsr	r1, r2, #12
  105254:	e281e06e 	add	lr, r1, #110	; 0x6e
  105258:	e1a0408e 	lsl	r4, lr, #1
  10525c:	eaffffc1 	b	105168 <_malloc_r+0x424>
  105260:	e5988000 	ldr	r8, [r8]
  105264:	e1580003 	cmp	r8, r3
  105268:	1a00008d 	bne	1054a4 <_malloc_r+0x760>
  10526c:	e3100003 	tst	r0, #3
  105270:	e2483008 	sub	r3, r8, #8
  105274:	e2400001 	sub	r0, r0, #1
  105278:	1afffff8 	bne	105260 <_malloc_r+0x51c>
  10527c:	e5973004 	ldr	r3, [r7, #4]
  105280:	e1c3300e 	bic	r3, r3, lr
  105284:	e5873004 	str	r3, [r7, #4]
  105288:	e1a0e08e 	lsl	lr, lr, #1
  10528c:	e15e0003 	cmp	lr, r3
  105290:	83a02000 	movhi	r2, #0
  105294:	93a02001 	movls	r2, #1
  105298:	e35e0000 	cmp	lr, #0
  10529c:	03a02000 	moveq	r2, #0
  1052a0:	e3520000 	cmp	r2, #0
  1052a4:	0affff50 	beq	104fec <_malloc_r+0x2a8>
  1052a8:	e113000e 	tst	r3, lr
  1052ac:	e1a00009 	mov	r0, r9
  1052b0:	1affff13 	bne	104f04 <_malloc_r+0x1c0>
  1052b4:	e1a0e08e 	lsl	lr, lr, #1
  1052b8:	e2800004 	add	r0, r0, #4
  1052bc:	e113000e 	tst	r3, lr
  1052c0:	0afffffb 	beq	1052b4 <_malloc_r+0x570>
  1052c4:	eaffff0e 	b	104f04 <_malloc_r+0x1c0>
  1052c8:	e5981004 	ldr	r1, [r8, #4]
  1052cc:	e1520003 	cmp	r2, r3
  1052d0:	e08b1001 	add	r1, fp, r1
  1052d4:	e5881004 	str	r1, [r8, #4]
  1052d8:	0a000057 	beq	10543c <_malloc_r+0x6f8>
  1052dc:	e597c408 	ldr	ip, [r7, #1032]	; 0x408
  1052e0:	e3040a88 	movw	r0, #19080	; 0x4a88
  1052e4:	e3400012 	movt	r0, #18
  1052e8:	e37c0001 	cmn	ip, #1
  1052ec:	05803408 	streq	r3, [r0, #1032]	; 0x408
  1052f0:	10622003 	rsbne	r2, r2, r3
  1052f4:	e1a00006 	mov	r0, r6
  1052f8:	10811002 	addne	r1, r1, r2
  1052fc:	15881004 	strne	r1, [r8, #4]
  105300:	e2131007 	ands	r1, r3, #7
  105304:	12612008 	rsbne	r2, r1, #8
  105308:	12611a01 	rsbne	r1, r1, #4096	; 0x1000
  10530c:	10833002 	addne	r3, r3, r2
  105310:	12811008 	addne	r1, r1, #8
  105314:	e083200b 	add	r2, r3, fp
  105318:	03a01a01 	moveq	r1, #4096	; 0x1000
  10531c:	e7eb2052 	ubfx	r2, r2, #0, #12
  105320:	e58d3004 	str	r3, [sp, #4]
  105324:	e062b001 	rsb	fp, r2, r1
  105328:	e1a0100b 	mov	r1, fp
  10532c:	eb00022a 	bl	105bdc <_sbrk_r>
  105330:	e59d3004 	ldr	r3, [sp, #4]
  105334:	e5981004 	ldr	r1, [r8, #4]
  105338:	e5873008 	str	r3, [r7, #8]
  10533c:	e3700001 	cmn	r0, #1
  105340:	10632000 	rsbne	r2, r3, r0
  105344:	108b2002 	addne	r2, fp, r2
  105348:	03a02001 	moveq	r2, #1
  10534c:	13822001 	orrne	r2, r2, #1
  105350:	03a0b000 	moveq	fp, #0
  105354:	e35a0000 	cmp	sl, #0
  105358:	e30ca058 	movw	sl, #49240	; 0xc058
  10535c:	e08b1001 	add	r1, fp, r1
  105360:	e5832004 	str	r2, [r3, #4]
  105364:	e5881004 	str	r1, [r8, #4]
  105368:	e340a012 	movt	sl, #18
  10536c:	0a00000f 	beq	1053b0 <_malloc_r+0x66c>
  105370:	e359000f 	cmp	r9, #15
  105374:	93a02001 	movls	r2, #1
  105378:	95832004 	strls	r2, [r3, #4]
  10537c:	9affff4b 	bls	1050b0 <_malloc_r+0x36c>
  105380:	e249300c 	sub	r3, r9, #12
  105384:	e5942004 	ldr	r2, [r4, #4]
  105388:	e3c33007 	bic	r3, r3, #7
  10538c:	e3a0c005 	mov	ip, #5
  105390:	e0840003 	add	r0, r4, r3
  105394:	e353000f 	cmp	r3, #15
  105398:	e2022001 	and	r2, r2, #1
  10539c:	e1833002 	orr	r3, r3, r2
  1053a0:	e5843004 	str	r3, [r4, #4]
  1053a4:	e580c004 	str	ip, [r0, #4]
  1053a8:	e580c008 	str	ip, [r0, #8]
  1053ac:	8a00002a 	bhi	10545c <_malloc_r+0x718>
  1053b0:	e598202c 	ldr	r2, [r8, #44]	; 0x2c
  1053b4:	e30c3058 	movw	r3, #49240	; 0xc058
  1053b8:	e3403012 	movt	r3, #18
  1053bc:	e5974008 	ldr	r4, [r7, #8]
  1053c0:	e1510002 	cmp	r1, r2
  1053c4:	e5982030 	ldr	r2, [r8, #48]	; 0x30
  1053c8:	8583102c 	strhi	r1, [r3, #44]	; 0x2c
  1053cc:	e30c3058 	movw	r3, #49240	; 0xc058
  1053d0:	e3403012 	movt	r3, #18
  1053d4:	e1510002 	cmp	r1, r2
  1053d8:	85831030 	strhi	r1, [r3, #48]	; 0x30
  1053dc:	e5943004 	ldr	r3, [r4, #4]
  1053e0:	e3c33003 	bic	r3, r3, #3
  1053e4:	eaffff29 	b	105090 <_malloc_r+0x34c>
  1053e8:	e3500f55 	cmp	r0, #340	; 0x154
  1053ec:	8a00000a 	bhi	10541c <_malloc_r+0x6d8>
  1053f0:	e1a007a5 	lsr	r0, r5, #15
  1053f4:	e280c077 	add	ip, r0, #119	; 0x77
  1053f8:	e1a0008c 	lsl	r0, ip, #1
  1053fc:	eafffe7f 	b	104e00 <_malloc_r+0xbc>
  105400:	e5982004 	ldr	r2, [r8, #4]
  105404:	e1a0e14e 	asr	lr, lr, #2
  105408:	e3a09001 	mov	r9, #1
  10540c:	e1a04001 	mov	r4, r1
  105410:	e1822e19 	orr	r2, r2, r9, lsl lr
  105414:	e5882004 	str	r2, [r8, #4]
  105418:	eaffff61 	b	1051a4 <_malloc_r+0x460>
  10541c:	e3003554 	movw	r3, #1364	; 0x554
  105420:	e1500003 	cmp	r0, r3
  105424:	91a00925 	lsrls	r0, r5, #18
  105428:	9280c07c 	addls	ip, r0, #124	; 0x7c
  10542c:	83a000fc 	movhi	r0, #252	; 0xfc
  105430:	83a0c07e 	movhi	ip, #126	; 0x7e
  105434:	91a0008c 	lslls	r0, ip, #1
  105438:	eafffe70 	b	104e00 <_malloc_r+0xbc>
  10543c:	e7ebc052 	ubfx	ip, r2, #0, #12
  105440:	e35c0000 	cmp	ip, #0
  105444:	1affffa4 	bne	1052dc <_malloc_r+0x598>
  105448:	e5900008 	ldr	r0, [r0, #8]
  10544c:	e08b2009 	add	r2, fp, r9
  105450:	e3823001 	orr	r3, r2, #1
  105454:	e5803004 	str	r3, [r0, #4]
  105458:	eaffffd4 	b	1053b0 <_malloc_r+0x66c>
  10545c:	e2841008 	add	r1, r4, #8
  105460:	e1a00006 	mov	r0, r6
  105464:	eb001cc9 	bl	10c790 <_free_r>
  105468:	e59a1004 	ldr	r1, [sl, #4]
  10546c:	eaffffcf 	b	1053b0 <_malloc_r+0x66c>
  105470:	e3510f55 	cmp	r1, #340	; 0x154
  105474:	91a017a2 	lsrls	r1, r2, #15
  105478:	9281e077 	addls	lr, r1, #119	; 0x77
  10547c:	91a0408e 	lslls	r4, lr, #1
  105480:	9affff38 	bls	105168 <_malloc_r+0x424>
  105484:	e300e554 	movw	lr, #1364	; 0x554
  105488:	e151000e 	cmp	r1, lr
  10548c:	91a01922 	lsrls	r1, r2, #18
  105490:	9281e07c 	addls	lr, r1, #124	; 0x7c
  105494:	83a040fc 	movhi	r4, #252	; 0xfc
  105498:	83a0e07e 	movhi	lr, #126	; 0x7e
  10549c:	91a0408e 	lslls	r4, lr, #1
  1054a0:	eaffff30 	b	105168 <_malloc_r+0x424>
  1054a4:	e5973004 	ldr	r3, [r7, #4]
  1054a8:	eaffff76 	b	105288 <_malloc_r+0x544>
	...

001054c0 <memcpy>:
  1054c0:	e1a0c000 	mov	ip, r0
  1054c4:	e3520040 	cmp	r2, #64	; 0x40
  1054c8:	aa000028 	bge	105570 <memcpy+0xb0>
  1054cc:	e202303c 	and	r3, r2, #60	; 0x3c
  1054d0:	e08cc003 	add	ip, ip, r3
  1054d4:	e0811003 	add	r1, r1, r3
  1054d8:	e263303a 	rsb	r3, r3, #58	; 0x3a
  1054dc:	e08ff083 	add	pc, pc, r3, lsl #1
  1054e0:	e511303c 	ldr	r3, [r1, #-60]	; 0xffffffc4
  1054e4:	e50c303c 	str	r3, [ip, #-60]	; 0xffffffc4
  1054e8:	e5113038 	ldr	r3, [r1, #-56]	; 0xffffffc8
  1054ec:	e50c3038 	str	r3, [ip, #-56]	; 0xffffffc8
  1054f0:	e5113034 	ldr	r3, [r1, #-52]	; 0xffffffcc
  1054f4:	e50c3034 	str	r3, [ip, #-52]	; 0xffffffcc
  1054f8:	e5113030 	ldr	r3, [r1, #-48]	; 0xffffffd0
  1054fc:	e50c3030 	str	r3, [ip, #-48]	; 0xffffffd0
  105500:	e511302c 	ldr	r3, [r1, #-44]	; 0xffffffd4
  105504:	e50c302c 	str	r3, [ip, #-44]	; 0xffffffd4
  105508:	e5113028 	ldr	r3, [r1, #-40]	; 0xffffffd8
  10550c:	e50c3028 	str	r3, [ip, #-40]	; 0xffffffd8
  105510:	e5113024 	ldr	r3, [r1, #-36]	; 0xffffffdc
  105514:	e50c3024 	str	r3, [ip, #-36]	; 0xffffffdc
  105518:	e5113020 	ldr	r3, [r1, #-32]	; 0xffffffe0
  10551c:	e50c3020 	str	r3, [ip, #-32]	; 0xffffffe0
  105520:	e511301c 	ldr	r3, [r1, #-28]	; 0xffffffe4
  105524:	e50c301c 	str	r3, [ip, #-28]	; 0xffffffe4
  105528:	e5113018 	ldr	r3, [r1, #-24]	; 0xffffffe8
  10552c:	e50c3018 	str	r3, [ip, #-24]	; 0xffffffe8
  105530:	e5113014 	ldr	r3, [r1, #-20]	; 0xffffffec
  105534:	e50c3014 	str	r3, [ip, #-20]	; 0xffffffec
  105538:	e5113010 	ldr	r3, [r1, #-16]
  10553c:	e50c3010 	str	r3, [ip, #-16]
  105540:	e511300c 	ldr	r3, [r1, #-12]
  105544:	e50c300c 	str	r3, [ip, #-12]
  105548:	e5113008 	ldr	r3, [r1, #-8]
  10554c:	e50c3008 	str	r3, [ip, #-8]
  105550:	e5113004 	ldr	r3, [r1, #-4]
  105554:	e50c3004 	str	r3, [ip, #-4]
  105558:	e1b02f82 	lsls	r2, r2, #31
  10555c:	20d130b2 	ldrhcs	r3, [r1], #2
  105560:	15d11000 	ldrbne	r1, [r1]
  105564:	20cc30b2 	strhcs	r3, [ip], #2
  105568:	15cc1000 	strbne	r1, [ip]
  10556c:	e12fff1e 	bx	lr
  105570:	e52da020 	str	sl, [sp, #-32]!	; 0xffffffe0
  105574:	e201a007 	and	sl, r1, #7
  105578:	e20c3007 	and	r3, ip, #7
  10557c:	e153000a 	cmp	r3, sl
  105580:	1a0000f1 	bne	10594c <memcpy+0x48c>
  105584:	eeb00a40 	vmov.f32	s0, s0
  105588:	e1b0ae8c 	lsls	sl, ip, #29
  10558c:	0a000008 	beq	1055b4 <memcpy+0xf4>
  105590:	e27aa000 	rsbs	sl, sl, #0
  105594:	e0422eaa 	sub	r2, r2, sl, lsr #29
  105598:	44913004 	ldrmi	r3, [r1], #4
  10559c:	448c3004 	strmi	r3, [ip], #4
  1055a0:	e1b0a10a 	lsls	sl, sl, #2
  1055a4:	20d130b2 	ldrhcs	r3, [r1], #2
  1055a8:	14d1a001 	ldrbne	sl, [r1], #1
  1055ac:	20cc30b2 	strhcs	r3, [ip], #2
  1055b0:	14cca001 	strbne	sl, [ip], #1
  1055b4:	e252a040 	subs	sl, r2, #64	; 0x40
  1055b8:	ba000017 	blt	10561c <memcpy+0x15c>
  1055bc:	e35a0c02 	cmp	sl, #512	; 0x200
  1055c0:	aa000032 	bge	105690 <memcpy+0x1d0>
  1055c4:	ed910b00 	vldr	d0, [r1]
  1055c8:	e25aa040 	subs	sl, sl, #64	; 0x40
  1055cc:	ed911b02 	vldr	d1, [r1, #8]
  1055d0:	ed8c0b00 	vstr	d0, [ip]
  1055d4:	ed910b04 	vldr	d0, [r1, #16]
  1055d8:	ed8c1b02 	vstr	d1, [ip, #8]
  1055dc:	ed911b06 	vldr	d1, [r1, #24]
  1055e0:	ed8c0b04 	vstr	d0, [ip, #16]
  1055e4:	ed910b08 	vldr	d0, [r1, #32]
  1055e8:	ed8c1b06 	vstr	d1, [ip, #24]
  1055ec:	ed911b0a 	vldr	d1, [r1, #40]	; 0x28
  1055f0:	ed8c0b08 	vstr	d0, [ip, #32]
  1055f4:	ed910b0c 	vldr	d0, [r1, #48]	; 0x30
  1055f8:	ed8c1b0a 	vstr	d1, [ip, #40]	; 0x28
  1055fc:	ed911b0e 	vldr	d1, [r1, #56]	; 0x38
  105600:	ed8c0b0c 	vstr	d0, [ip, #48]	; 0x30
  105604:	e2811040 	add	r1, r1, #64	; 0x40
  105608:	ed8c1b0e 	vstr	d1, [ip, #56]	; 0x38
  10560c:	e28cc040 	add	ip, ip, #64	; 0x40
  105610:	aaffffeb 	bge	1055c4 <memcpy+0x104>
  105614:	e31a003f 	tst	sl, #63	; 0x3f
  105618:	0a00001a 	beq	105688 <memcpy+0x1c8>
  10561c:	e20a3038 	and	r3, sl, #56	; 0x38
  105620:	e08cc003 	add	ip, ip, r3
  105624:	e0811003 	add	r1, r1, r3
  105628:	e2633034 	rsb	r3, r3, #52	; 0x34
  10562c:	e08ff003 	add	pc, pc, r3
  105630:	ed110b0e 	vldr	d0, [r1, #-56]	; 0xffffffc8
  105634:	ed0c0b0e 	vstr	d0, [ip, #-56]	; 0xffffffc8
  105638:	ed110b0c 	vldr	d0, [r1, #-48]	; 0xffffffd0
  10563c:	ed0c0b0c 	vstr	d0, [ip, #-48]	; 0xffffffd0
  105640:	ed110b0a 	vldr	d0, [r1, #-40]	; 0xffffffd8
  105644:	ed0c0b0a 	vstr	d0, [ip, #-40]	; 0xffffffd8
  105648:	ed110b08 	vldr	d0, [r1, #-32]	; 0xffffffe0
  10564c:	ed0c0b08 	vstr	d0, [ip, #-32]	; 0xffffffe0
  105650:	ed110b06 	vldr	d0, [r1, #-24]	; 0xffffffe8
  105654:	ed0c0b06 	vstr	d0, [ip, #-24]	; 0xffffffe8
  105658:	ed110b04 	vldr	d0, [r1, #-16]
  10565c:	ed0c0b04 	vstr	d0, [ip, #-16]
  105660:	ed110b02 	vldr	d0, [r1, #-8]
  105664:	ed0c0b02 	vstr	d0, [ip, #-8]
  105668:	e31a0004 	tst	sl, #4
  10566c:	14913004 	ldrne	r3, [r1], #4
  105670:	148c3004 	strne	r3, [ip], #4
  105674:	e1b0af8a 	lsls	sl, sl, #31
  105678:	20d130b2 	ldrhcs	r3, [r1], #2
  10567c:	15d1a000 	ldrbne	sl, [r1]
  105680:	20cc30b2 	strhcs	r3, [ip], #2
  105684:	15cca000 	strbne	sl, [ip]
  105688:	e49da020 	ldr	sl, [sp], #32
  10568c:	e12fff1e 	bx	lr
  105690:	ed913b00 	vldr	d3, [r1]
  105694:	ed914b10 	vldr	d4, [r1, #64]	; 0x40
  105698:	ed915b20 	vldr	d5, [r1, #128]	; 0x80
  10569c:	ed916b30 	vldr	d6, [r1, #192]	; 0xc0
  1056a0:	ed917b40 	vldr	d7, [r1, #256]	; 0x100
  1056a4:	ed910b02 	vldr	d0, [r1, #8]
  1056a8:	ed911b04 	vldr	d1, [r1, #16]
  1056ac:	ed912b06 	vldr	d2, [r1, #24]
  1056b0:	e2811020 	add	r1, r1, #32
  1056b4:	e25aad0a 	subs	sl, sl, #640	; 0x280
  1056b8:	ba000055 	blt	105814 <memcpy+0x354>
  1056bc:	ed8c3b00 	vstr	d3, [ip]
  1056c0:	ed913b00 	vldr	d3, [r1]
  1056c4:	ed8c0b02 	vstr	d0, [ip, #8]
  1056c8:	ed910b02 	vldr	d0, [r1, #8]
  1056cc:	ed8c1b04 	vstr	d1, [ip, #16]
  1056d0:	ed911b04 	vldr	d1, [r1, #16]
  1056d4:	ed8c2b06 	vstr	d2, [ip, #24]
  1056d8:	ed912b06 	vldr	d2, [r1, #24]
  1056dc:	ed8c3b08 	vstr	d3, [ip, #32]
  1056e0:	ed913b48 	vldr	d3, [r1, #288]	; 0x120
  1056e4:	ed8c0b0a 	vstr	d0, [ip, #40]	; 0x28
  1056e8:	ed910b0a 	vldr	d0, [r1, #40]	; 0x28
  1056ec:	ed8c1b0c 	vstr	d1, [ip, #48]	; 0x30
  1056f0:	ed911b0c 	vldr	d1, [r1, #48]	; 0x30
  1056f4:	ed8c2b0e 	vstr	d2, [ip, #56]	; 0x38
  1056f8:	ed912b0e 	vldr	d2, [r1, #56]	; 0x38
  1056fc:	ed8c4b10 	vstr	d4, [ip, #64]	; 0x40
  105700:	ed914b10 	vldr	d4, [r1, #64]	; 0x40
  105704:	ed8c0b12 	vstr	d0, [ip, #72]	; 0x48
  105708:	ed910b12 	vldr	d0, [r1, #72]	; 0x48
  10570c:	ed8c1b14 	vstr	d1, [ip, #80]	; 0x50
  105710:	ed911b14 	vldr	d1, [r1, #80]	; 0x50
  105714:	ed8c2b16 	vstr	d2, [ip, #88]	; 0x58
  105718:	ed912b16 	vldr	d2, [r1, #88]	; 0x58
  10571c:	ed8c4b18 	vstr	d4, [ip, #96]	; 0x60
  105720:	ed914b58 	vldr	d4, [r1, #352]	; 0x160
  105724:	ed8c0b1a 	vstr	d0, [ip, #104]	; 0x68
  105728:	ed910b1a 	vldr	d0, [r1, #104]	; 0x68
  10572c:	ed8c1b1c 	vstr	d1, [ip, #112]	; 0x70
  105730:	ed911b1c 	vldr	d1, [r1, #112]	; 0x70
  105734:	ed8c2b1e 	vstr	d2, [ip, #120]	; 0x78
  105738:	ed912b1e 	vldr	d2, [r1, #120]	; 0x78
  10573c:	ed8c5b20 	vstr	d5, [ip, #128]	; 0x80
  105740:	ed915b20 	vldr	d5, [r1, #128]	; 0x80
  105744:	ed8c0b22 	vstr	d0, [ip, #136]	; 0x88
  105748:	ed910b22 	vldr	d0, [r1, #136]	; 0x88
  10574c:	ed8c1b24 	vstr	d1, [ip, #144]	; 0x90
  105750:	ed911b24 	vldr	d1, [r1, #144]	; 0x90
  105754:	ed8c2b26 	vstr	d2, [ip, #152]	; 0x98
  105758:	ed912b26 	vldr	d2, [r1, #152]	; 0x98
  10575c:	ed8c5b28 	vstr	d5, [ip, #160]	; 0xa0
  105760:	ed915b68 	vldr	d5, [r1, #416]	; 0x1a0
  105764:	ed8c0b2a 	vstr	d0, [ip, #168]	; 0xa8
  105768:	ed910b2a 	vldr	d0, [r1, #168]	; 0xa8
  10576c:	ed8c1b2c 	vstr	d1, [ip, #176]	; 0xb0
  105770:	ed911b2c 	vldr	d1, [r1, #176]	; 0xb0
  105774:	ed8c2b2e 	vstr	d2, [ip, #184]	; 0xb8
  105778:	ed912b2e 	vldr	d2, [r1, #184]	; 0xb8
  10577c:	e28cc0c0 	add	ip, ip, #192	; 0xc0
  105780:	e28110c0 	add	r1, r1, #192	; 0xc0
  105784:	ed8c6b00 	vstr	d6, [ip]
  105788:	ed916b00 	vldr	d6, [r1]
  10578c:	ed8c0b02 	vstr	d0, [ip, #8]
  105790:	ed910b02 	vldr	d0, [r1, #8]
  105794:	ed8c1b04 	vstr	d1, [ip, #16]
  105798:	ed911b04 	vldr	d1, [r1, #16]
  10579c:	ed8c2b06 	vstr	d2, [ip, #24]
  1057a0:	ed912b06 	vldr	d2, [r1, #24]
  1057a4:	ed8c6b08 	vstr	d6, [ip, #32]
  1057a8:	ed916b48 	vldr	d6, [r1, #288]	; 0x120
  1057ac:	ed8c0b0a 	vstr	d0, [ip, #40]	; 0x28
  1057b0:	ed910b0a 	vldr	d0, [r1, #40]	; 0x28
  1057b4:	ed8c1b0c 	vstr	d1, [ip, #48]	; 0x30
  1057b8:	ed911b0c 	vldr	d1, [r1, #48]	; 0x30
  1057bc:	ed8c2b0e 	vstr	d2, [ip, #56]	; 0x38
  1057c0:	ed912b0e 	vldr	d2, [r1, #56]	; 0x38
  1057c4:	ed8c7b10 	vstr	d7, [ip, #64]	; 0x40
  1057c8:	ed917b10 	vldr	d7, [r1, #64]	; 0x40
  1057cc:	ed8c0b12 	vstr	d0, [ip, #72]	; 0x48
  1057d0:	ed910b12 	vldr	d0, [r1, #72]	; 0x48
  1057d4:	ed8c1b14 	vstr	d1, [ip, #80]	; 0x50
  1057d8:	ed911b14 	vldr	d1, [r1, #80]	; 0x50
  1057dc:	ed8c2b16 	vstr	d2, [ip, #88]	; 0x58
  1057e0:	ed912b16 	vldr	d2, [r1, #88]	; 0x58
  1057e4:	ed8c7b18 	vstr	d7, [ip, #96]	; 0x60
  1057e8:	ed917b58 	vldr	d7, [r1, #352]	; 0x160
  1057ec:	ed8c0b1a 	vstr	d0, [ip, #104]	; 0x68
  1057f0:	ed910b1a 	vldr	d0, [r1, #104]	; 0x68
  1057f4:	ed8c1b1c 	vstr	d1, [ip, #112]	; 0x70
  1057f8:	ed911b1c 	vldr	d1, [r1, #112]	; 0x70
  1057fc:	ed8c2b1e 	vstr	d2, [ip, #120]	; 0x78
  105800:	ed912b1e 	vldr	d2, [r1, #120]	; 0x78
  105804:	e28cc080 	add	ip, ip, #128	; 0x80
  105808:	e2811080 	add	r1, r1, #128	; 0x80
  10580c:	e25aad05 	subs	sl, sl, #320	; 0x140
  105810:	aaffffa9 	bge	1056bc <memcpy+0x1fc>
  105814:	ed8c3b00 	vstr	d3, [ip]
  105818:	ed913b00 	vldr	d3, [r1]
  10581c:	ed8c0b02 	vstr	d0, [ip, #8]
  105820:	ed910b02 	vldr	d0, [r1, #8]
  105824:	ed8c1b04 	vstr	d1, [ip, #16]
  105828:	ed911b04 	vldr	d1, [r1, #16]
  10582c:	ed8c2b06 	vstr	d2, [ip, #24]
  105830:	ed912b06 	vldr	d2, [r1, #24]
  105834:	ed8c3b08 	vstr	d3, [ip, #32]
  105838:	ed8c0b0a 	vstr	d0, [ip, #40]	; 0x28
  10583c:	ed910b0a 	vldr	d0, [r1, #40]	; 0x28
  105840:	ed8c1b0c 	vstr	d1, [ip, #48]	; 0x30
  105844:	ed911b0c 	vldr	d1, [r1, #48]	; 0x30
  105848:	ed8c2b0e 	vstr	d2, [ip, #56]	; 0x38
  10584c:	ed912b0e 	vldr	d2, [r1, #56]	; 0x38
  105850:	ed8c4b10 	vstr	d4, [ip, #64]	; 0x40
  105854:	ed914b10 	vldr	d4, [r1, #64]	; 0x40
  105858:	ed8c0b12 	vstr	d0, [ip, #72]	; 0x48
  10585c:	ed910b12 	vldr	d0, [r1, #72]	; 0x48
  105860:	ed8c1b14 	vstr	d1, [ip, #80]	; 0x50
  105864:	ed911b14 	vldr	d1, [r1, #80]	; 0x50
  105868:	ed8c2b16 	vstr	d2, [ip, #88]	; 0x58
  10586c:	ed912b16 	vldr	d2, [r1, #88]	; 0x58
  105870:	ed8c4b18 	vstr	d4, [ip, #96]	; 0x60
  105874:	ed8c0b1a 	vstr	d0, [ip, #104]	; 0x68
  105878:	ed910b1a 	vldr	d0, [r1, #104]	; 0x68
  10587c:	ed8c1b1c 	vstr	d1, [ip, #112]	; 0x70
  105880:	ed911b1c 	vldr	d1, [r1, #112]	; 0x70
  105884:	ed8c2b1e 	vstr	d2, [ip, #120]	; 0x78
  105888:	ed912b1e 	vldr	d2, [r1, #120]	; 0x78
  10588c:	ed8c5b20 	vstr	d5, [ip, #128]	; 0x80
  105890:	ed915b20 	vldr	d5, [r1, #128]	; 0x80
  105894:	ed8c0b22 	vstr	d0, [ip, #136]	; 0x88
  105898:	ed910b22 	vldr	d0, [r1, #136]	; 0x88
  10589c:	ed8c1b24 	vstr	d1, [ip, #144]	; 0x90
  1058a0:	ed911b24 	vldr	d1, [r1, #144]	; 0x90
  1058a4:	ed8c2b26 	vstr	d2, [ip, #152]	; 0x98
  1058a8:	ed912b26 	vldr	d2, [r1, #152]	; 0x98
  1058ac:	ed8c5b28 	vstr	d5, [ip, #160]	; 0xa0
  1058b0:	ed8c0b2a 	vstr	d0, [ip, #168]	; 0xa8
  1058b4:	ed910b2a 	vldr	d0, [r1, #168]	; 0xa8
  1058b8:	ed8c1b2c 	vstr	d1, [ip, #176]	; 0xb0
  1058bc:	ed911b2c 	vldr	d1, [r1, #176]	; 0xb0
  1058c0:	ed8c2b2e 	vstr	d2, [ip, #184]	; 0xb8
  1058c4:	ed912b2e 	vldr	d2, [r1, #184]	; 0xb8
  1058c8:	e28110c0 	add	r1, r1, #192	; 0xc0
  1058cc:	e28cc0c0 	add	ip, ip, #192	; 0xc0
  1058d0:	ed8c6b00 	vstr	d6, [ip]
  1058d4:	ed916b00 	vldr	d6, [r1]
  1058d8:	ed8c0b02 	vstr	d0, [ip, #8]
