
dpr_test.elf:     file format elf32-littlearm


Disassembly of section .text:

00100000 <_vector_table>:
  100000:	ea000049 	b	10012c <_boot>
  100004:	ea000025 	b	1000a0 <Undefined>
  100008:	ea00002b 	b	1000bc <SVCHandler>
  10000c:	ea00003b 	b	100100 <PrefetchAbortHandler>
  100010:	ea000032 	b	1000e0 <DataAbortHandler>
  100014:	e320f000 	nop	{0}
  100018:	ea000000 	b	100020 <IRQHandler>
  10001c:	ea00000f 	b	100060 <FIQHandler>

00100020 <IRQHandler>:
  100020:	e92d500f 	push	{r0, r1, r2, r3, ip, lr}
  100024:	ed2d0b10 	vpush	{d0-d7}
  100028:	ed6d0b20 	vpush	{d16-d31}
  10002c:	eef11a10 	vmrs	r1, fpscr
  100030:	e52d1004 	push	{r1}		; (str r1, [sp, #-4]!)
  100034:	eef81a10 	vmrs	r1, fpexc
  100038:	e52d1004 	push	{r1}		; (str r1, [sp, #-4]!)
  10003c:	eb000a95 	bl	102a98 <IRQInterrupt>
  100040:	e49d1004 	pop	{r1}		; (ldr r1, [sp], #4)
  100044:	eee81a10 	vmsr	fpexc, r1
  100048:	e49d1004 	pop	{r1}		; (ldr r1, [sp], #4)
  10004c:	eee11a10 	vmsr	fpscr, r1
  100050:	ecfd0b20 	vpop	{d16-d31}
  100054:	ecbd0b10 	vpop	{d0-d7}
  100058:	e8bd500f 	pop	{r0, r1, r2, r3, ip, lr}
  10005c:	e25ef004 	subs	pc, lr, #4

00100060 <FIQHandler>:
  100060:	e92d500f 	push	{r0, r1, r2, r3, ip, lr}
  100064:	ed2d0b10 	vpush	{d0-d7}
  100068:	ed6d0b20 	vpush	{d16-d31}
  10006c:	eef11a10 	vmrs	r1, fpscr
  100070:	e52d1004 	push	{r1}		; (str r1, [sp, #-4]!)
  100074:	eef81a10 	vmrs	r1, fpexc
  100078:	e52d1004 	push	{r1}		; (str r1, [sp, #-4]!)

0010007c <FIQLoop>:
  10007c:	eb000a80 	bl	102a84 <FIQInterrupt>
  100080:	e49d1004 	pop	{r1}		; (ldr r1, [sp], #4)
  100084:	eee81a10 	vmsr	fpexc, r1
  100088:	e49d1004 	pop	{r1}		; (ldr r1, [sp], #4)
  10008c:	eee11a10 	vmsr	fpscr, r1
  100090:	ecfd0b20 	vpop	{d16-d31}
  100094:	ecbd0b10 	vpop	{d0-d7}
  100098:	e8bd500f 	pop	{r0, r1, r2, r3, ip, lr}
  10009c:	e25ef004 	subs	pc, lr, #4

001000a0 <Undefined>:
  1000a0:	e92d500f 	push	{r0, r1, r2, r3, ip, lr}
  1000a4:	e59f0074 	ldr	r0, [pc, #116]	; 100120 <PrefetchAbortHandler+0x20>
  1000a8:	e24e1004 	sub	r1, lr, #4
  1000ac:	e5801000 	str	r1, [r0]
  1000b0:	eb000a6e 	bl	102a70 <UndefinedException>
  1000b4:	e8bd500f 	pop	{r0, r1, r2, r3, ip, lr}
  1000b8:	e1b0f00e 	movs	pc, lr

001000bc <SVCHandler>:
  1000bc:	e92d500f 	push	{r0, r1, r2, r3, ip, lr}
  1000c0:	e3100020 	tst	r0, #32
  1000c4:	115e00b2 	ldrhne	r0, [lr, #-2]
  1000c8:	13c00cff 	bicne	r0, r0, #65280	; 0xff00
  1000cc:	051e0004 	ldreq	r0, [lr, #-4]
  1000d0:	03c004ff 	biceq	r0, r0, #-16777216	; 0xff000000
  1000d4:	eb000a74 	bl	102aac <SWInterrupt>
  1000d8:	e8bd500f 	pop	{r0, r1, r2, r3, ip, lr}
  1000dc:	e1b0f00e 	movs	pc, lr

001000e0 <DataAbortHandler>:
  1000e0:	f57ff04f 	dsb	sy
  1000e4:	e92d500f 	push	{r0, r1, r2, r3, ip, lr}
  1000e8:	e59f0034 	ldr	r0, [pc, #52]	; 100124 <PrefetchAbortHandler+0x24>
  1000ec:	e24e1008 	sub	r1, lr, #8
  1000f0:	e5801000 	str	r1, [r0]
  1000f4:	eb000a71 	bl	102ac0 <DataAbortInterrupt>
  1000f8:	e8bd500f 	pop	{r0, r1, r2, r3, ip, lr}
  1000fc:	e25ef008 	subs	pc, lr, #8

00100100 <PrefetchAbortHandler>:
  100100:	f57ff04f 	dsb	sy
  100104:	e92d500f 	push	{r0, r1, r2, r3, ip, lr}
  100108:	e59f0018 	ldr	r0, [pc, #24]	; 100128 <PrefetchAbortHandler+0x28>
  10010c:	e24e1004 	sub	r1, lr, #4
  100110:	e5801000 	str	r1, [r0]
  100114:	eb000a6e 	bl	102ad4 <PrefetchAbortInterrupt>
  100118:	e8bd500f 	pop	{r0, r1, r2, r3, ip, lr}
  10011c:	e25ef004 	subs	pc, lr, #4
  100120:	00120af0 	.word	0x00120af0
  100124:	00120af8 	.word	0x00120af8
  100128:	00120af4 	.word	0x00120af4

0010012c <_boot>:
  10012c:	ee101fb0 	mrc	15, 0, r1, cr0, cr0, {5}
  100130:	e201100f 	and	r1, r1, #15
  100134:	e3510000 	cmp	r1, #0
  100138:	0a000001 	beq	100144 <OKToRun>

0010013c <EndlessLoop0>:
  10013c:	e320f002 	wfe
  100140:	eafffffd 	b	10013c <EndlessLoop0>

00100144 <OKToRun>:
  100144:	ee100f10 	mrc	15, 0, r0, cr0, cr0, {0}
  100148:	e200560f 	and	r5, r0, #15728640	; 0xf00000
  10014c:	e200600f 	and	r6, r0, #15
  100150:	e1866825 	orr	r6, r6, r5, lsr #16
  100154:	e3560022 	cmp	r6, #34	; 0x22
  100158:	de1faf30 	mrcle	15, 0, sl, cr15, cr0, {1}
  10015c:	d38aa010 	orrle	sl, sl, #16
  100160:	de0faf30 	mcrle	15, 0, sl, cr15, cr0, {1}
  100164:	e3350602 	teq	r5, #2097152	; 0x200000
  100168:	0e1faf30 	mrceq	15, 0, sl, cr15, cr0, {1}
  10016c:	038aa040 	orreq	sl, sl, #64	; 0x40
  100170:	0e0faf30 	mcreq	15, 0, sl, cr15, cr0, {1}
  100174:	e59f02a4 	ldr	r0, [pc, #676]	; 100420 <finished+0x14>
  100178:	ee0c0f10 	mcr	15, 0, r0, cr12, cr0, {0}
  10017c:	e59f72a0 	ldr	r7, [pc, #672]	; 100424 <finished+0x18>
  100180:	e59f62a0 	ldr	r6, [pc, #672]	; 100428 <finished+0x1c>
  100184:	e5876000 	str	r6, [r7]
  100188:	e3a00000 	mov	r0, #0
  10018c:	ee080f17 	mcr	15, 0, r0, cr8, cr7, {0}
  100190:	ee070f15 	mcr	15, 0, r0, cr7, cr5, {0}
  100194:	ee070fd5 	mcr	15, 0, r0, cr7, cr5, {6}
  100198:	eb00007c 	bl	100390 <invalidate_dcache>
  10019c:	ee110f10 	mrc	15, 0, r0, cr1, cr0, {0}
  1001a0:	e3c00001 	bic	r0, r0, #1
  1001a4:	ee010f10 	mcr	15, 0, r0, cr1, cr0, {0}
  1001a8:	e10f0000 	mrs	r0, CPSR
  1001ac:	e3e0101f 	mvn	r1, #31
  1001b0:	e0012000 	and	r2, r1, r0
  1001b4:	e3822012 	orr	r2, r2, #18
  1001b8:	e129f002 	msr	CPSR_fc, r2
  1001bc:	e59fd268 	ldr	sp, [pc, #616]	; 10042c <finished+0x20>
  1001c0:	e3c22c02 	bic	r2, r2, #512	; 0x200
  1001c4:	e16ff002 	msr	SPSR_fsxc, r2
  1001c8:	e10f0000 	mrs	r0, CPSR
  1001cc:	e3e0101f 	mvn	r1, #31
  1001d0:	e0012000 	and	r2, r1, r0
  1001d4:	e3822013 	orr	r2, r2, #19
  1001d8:	e129f002 	msr	CPSR_fc, r2
  1001dc:	e59fd24c 	ldr	sp, [pc, #588]	; 100430 <finished+0x24>
  1001e0:	e3c22c02 	bic	r2, r2, #512	; 0x200
  1001e4:	e16ff002 	msr	SPSR_fsxc, r2
  1001e8:	e10f0000 	mrs	r0, CPSR
  1001ec:	e3e0101f 	mvn	r1, #31
  1001f0:	e0012000 	and	r2, r1, r0
  1001f4:	e3822017 	orr	r2, r2, #23
  1001f8:	e129f002 	msr	CPSR_fc, r2
  1001fc:	e59fd230 	ldr	sp, [pc, #560]	; 100434 <finished+0x28>
  100200:	e3c22c02 	bic	r2, r2, #512	; 0x200
  100204:	e16ff002 	msr	SPSR_fsxc, r2
  100208:	e10f0000 	mrs	r0, CPSR
  10020c:	e3e0101f 	mvn	r1, #31
  100210:	e0012000 	and	r2, r1, r0
  100214:	e3822011 	orr	r2, r2, #17
  100218:	e129f002 	msr	CPSR_fc, r2
  10021c:	e59fd214 	ldr	sp, [pc, #532]	; 100438 <finished+0x2c>
  100220:	e3c22c02 	bic	r2, r2, #512	; 0x200
  100224:	e16ff002 	msr	SPSR_fsxc, r2
  100228:	e10f0000 	mrs	r0, CPSR
  10022c:	e3e0101f 	mvn	r1, #31
  100230:	e0012000 	and	r2, r1, r0
  100234:	e382201b 	orr	r2, r2, #27
  100238:	e129f002 	msr	CPSR_fc, r2
  10023c:	e59fd1f8 	ldr	sp, [pc, #504]	; 10043c <finished+0x30>
  100240:	e3c22c02 	bic	r2, r2, #512	; 0x200
  100244:	e16ff002 	msr	SPSR_fsxc, r2
  100248:	e10f0000 	mrs	r0, CPSR
  10024c:	e3e0101f 	mvn	r1, #31
  100250:	e0012000 	and	r2, r1, r0
  100254:	e382201f 	orr	r2, r2, #31
  100258:	e129f002 	msr	CPSR_fc, r2
  10025c:	e59fd1dc 	ldr	sp, [pc, #476]	; 100440 <finished+0x34>
  100260:	e59f71dc 	ldr	r7, [pc, #476]	; 100444 <finished+0x38>
  100264:	e5970000 	ldr	r0, [r7]
  100268:	e3800001 	orr	r0, r0, #1
  10026c:	e5870000 	str	r0, [r7]
  100270:	e59f01d0 	ldr	r0, [pc, #464]	; 100448 <finished+0x3c>
  100274:	e380005b 	orr	r0, r0, #91	; 0x5b
  100278:	ee020f10 	mcr	15, 0, r0, cr2, cr0, {0}
  10027c:	e3e00000 	mvn	r0, #0
  100280:	ee030f10 	mcr	15, 0, r0, cr3, cr0, {0}
  100284:	e59f01c0 	ldr	r0, [pc, #448]	; 10044c <finished+0x40>
  100288:	ee010f10 	mcr	15, 0, r0, cr1, cr0, {0}
  10028c:	f57ff04f 	dsb	sy
  100290:	f57ff06f 	isb	sy
  100294:	ee110f30 	mrc	15, 0, r0, cr1, cr0, {1}
  100298:	e3800040 	orr	r0, r0, #64	; 0x40
  10029c:	e3800001 	orr	r0, r0, #1
  1002a0:	ee010f30 	mcr	15, 0, r0, cr1, cr0, {1}
  1002a4:	e59f01a4 	ldr	r0, [pc, #420]	; 100450 <finished+0x44>
  1002a8:	e3a01000 	mov	r1, #0
  1002ac:	e5801000 	str	r1, [r0]
  1002b0:	e59f019c 	ldr	r0, [pc, #412]	; 100454 <finished+0x48>
  1002b4:	e5901000 	ldr	r1, [r0]
  1002b8:	e59f2198 	ldr	r2, [pc, #408]	; 100458 <finished+0x4c>
  1002bc:	e1811002 	orr	r1, r1, r2
  1002c0:	e5801000 	str	r1, [r0]
  1002c4:	e59f0190 	ldr	r0, [pc, #400]	; 10045c <finished+0x50>
  1002c8:	e59f1190 	ldr	r1, [pc, #400]	; 100460 <finished+0x54>
  1002cc:	e5801000 	str	r1, [r0]
  1002d0:	e59f018c 	ldr	r0, [pc, #396]	; 100464 <finished+0x58>
  1002d4:	e59f118c 	ldr	r1, [pc, #396]	; 100468 <finished+0x5c>
  1002d8:	e5801000 	str	r1, [r0]
  1002dc:	e59f0188 	ldr	r0, [pc, #392]	; 10046c <finished+0x60>
  1002e0:	e59f2140 	ldr	r2, [pc, #320]	; 100428 <finished+0x1c>
  1002e4:	e5802000 	str	r2, [r0]
  1002e8:	e59f0180 	ldr	r0, [pc, #384]	; 100470 <finished+0x64>

001002ec <Sync>:
  1002ec:	e5901000 	ldr	r1, [r0]
  1002f0:	e3510000 	cmp	r1, #0
  1002f4:	1afffffc 	bne	1002ec <Sync>
  1002f8:	e59f0174 	ldr	r0, [pc, #372]	; 100474 <finished+0x68>
  1002fc:	e5901000 	ldr	r1, [r0]
  100300:	e59f0170 	ldr	r0, [pc, #368]	; 100478 <finished+0x6c>
  100304:	e5801000 	str	r1, [r0]
  100308:	e59f016c 	ldr	r0, [pc, #364]	; 10047c <finished+0x70>
  10030c:	e59f116c 	ldr	r1, [pc, #364]	; 100480 <finished+0x74>
  100310:	e5801000 	str	r1, [r0]
  100314:	e59f0168 	ldr	r0, [pc, #360]	; 100484 <finished+0x78>
  100318:	e59f1168 	ldr	r1, [pc, #360]	; 100488 <finished+0x7c>
  10031c:	e5801000 	str	r1, [r0]
  100320:	e59f0164 	ldr	r0, [pc, #356]	; 10048c <finished+0x80>
  100324:	e59f1164 	ldr	r1, [pc, #356]	; 100490 <finished+0x84>
  100328:	e5801000 	str	r1, [r0]
  10032c:	e59f011c 	ldr	r0, [pc, #284]	; 100450 <finished+0x44>
  100330:	e5901000 	ldr	r1, [r0]
  100334:	e3a02001 	mov	r2, #1
  100338:	e1811002 	orr	r1, r1, r2
  10033c:	e5801000 	str	r1, [r0]
  100340:	e1a00000 	nop			; (mov r0, r0)
  100344:	ee111f50 	mrc	15, 0, r1, cr1, cr0, {2}
  100348:	e381160f 	orr	r1, r1, #15728640	; 0xf00000
  10034c:	ee011f50 	mcr	15, 0, r1, cr1, cr0, {2}
  100350:	eef81a10 	vmrs	r1, fpexc
  100354:	e3811101 	orr	r1, r1, #1073741824	; 0x40000000
  100358:	eee81a10 	vmsr	fpexc, r1
  10035c:	ee110f10 	mrc	15, 0, r0, cr1, cr0, {0}
  100360:	e3800b02 	orr	r0, r0, #2048	; 0x800
  100364:	ee010f10 	mcr	15, 0, r0, cr1, cr0, {0}
  100368:	ee110f30 	mrc	15, 0, r0, cr1, cr0, {1}
  10036c:	e3800004 	orr	r0, r0, #4
  100370:	e3800002 	orr	r0, r0, #2
  100374:	ee010f30 	mcr	15, 0, r0, cr1, cr0, {1}
  100378:	e10f0000 	mrs	r0, CPSR
  10037c:	e3c00c01 	bic	r0, r0, #256	; 0x100
  100380:	e12ef000 	msr	CPSR_fsx, r0
  100384:	ea0009dc 	b	102afc <_start>
  100388:	e0000000 	and	r0, r0, r0
  10038c:	eafffffe 	b	10038c <Sync+0xa0>

00100390 <invalidate_dcache>:
  100390:	ee300f30 	mrc	15, 1, r0, cr0, cr0, {1}
  100394:	e2103407 	ands	r3, r0, #117440512	; 0x7000000
  100398:	e1a03ba3 	lsr	r3, r3, #23
  10039c:	0a00001a 	beq	10040c <finished>
  1003a0:	e3a0a000 	mov	sl, #0

001003a4 <loop1>:
  1003a4:	e08a20aa 	add	r2, sl, sl, lsr #1
  1003a8:	e1a01230 	lsr	r1, r0, r2
  1003ac:	e2011007 	and	r1, r1, #7
  1003b0:	e3510002 	cmp	r1, #2
  1003b4:	ba000011 	blt	100400 <skip>
  1003b8:	ee40af10 	mcr	15, 2, sl, cr0, cr0, {0}
  1003bc:	f57ff06f 	isb	sy
  1003c0:	ee301f10 	mrc	15, 1, r1, cr0, cr0, {0}
  1003c4:	e2012007 	and	r2, r1, #7
  1003c8:	e2822004 	add	r2, r2, #4
  1003cc:	e59f40c0 	ldr	r4, [pc, #192]	; 100494 <finished+0x88>
  1003d0:	e01441a1 	ands	r4, r4, r1, lsr #3
  1003d4:	e16f5f14 	clz	r5, r4
  1003d8:	e59f70b8 	ldr	r7, [pc, #184]	; 100498 <finished+0x8c>
  1003dc:	e01776a1 	ands	r7, r7, r1, lsr #13

001003e0 <loop2>:
  1003e0:	e1a09004 	mov	r9, r4

001003e4 <loop3>:
  1003e4:	e18ab519 	orr	fp, sl, r9, lsl r5
  1003e8:	e18bb217 	orr	fp, fp, r7, lsl r2
  1003ec:	ee07bf56 	mcr	15, 0, fp, cr7, cr6, {2}
  1003f0:	e2599001 	subs	r9, r9, #1
  1003f4:	aafffffa 	bge	1003e4 <loop3>
  1003f8:	e2577001 	subs	r7, r7, #1
  1003fc:	aafffff7 	bge	1003e0 <loop2>

00100400 <skip>:
  100400:	e28aa002 	add	sl, sl, #2
  100404:	e153000a 	cmp	r3, sl
  100408:	caffffe5 	bgt	1003a4 <loop1>

0010040c <finished>:
  10040c:	e3a0a000 	mov	sl, #0
  100410:	ee40af10 	mcr	15, 2, sl, cr0, cr0, {0}
  100414:	f57ff04f 	dsb	sy
  100418:	f57ff06f 	isb	sy
  10041c:	e12fff1e 	bx	lr
  100420:	00100000 	.word	0x00100000
  100424:	f8f0000c 	.word	0xf8f0000c
  100428:	0000ffff 	.word	0x0000ffff
  10042c:	07616580 	.word	0x07616580
  100430:	07616d80 	.word	0x07616d80
  100434:	07617180 	.word	0x07617180
  100438:	07617580 	.word	0x07617580
  10043c:	07617980 	.word	0x07617980
  100440:	07616180 	.word	0x07616180
  100444:	f8f00000 	.word	0xf8f00000
  100448:	0011c000 	.word	0x0011c000
  10044c:	00001005 	.word	0x00001005
  100450:	f8f02100 	.word	0xf8f02100
  100454:	f8f02104 	.word	0xf8f02104
  100458:	72360000 	.word	0x72360000
  10045c:	f8f02108 	.word	0xf8f02108
  100460:	00000111 	.word	0x00000111
  100464:	f8f0210c 	.word	0xf8f0210c
  100468:	00000121 	.word	0x00000121
  10046c:	f8f0277c 	.word	0xf8f0277c
  100470:	f8f02730 	.word	0xf8f02730
  100474:	f8f0221c 	.word	0xf8f0221c
  100478:	f8f02220 	.word	0xf8f02220
  10047c:	f8000008 	.word	0xf8000008
  100480:	0000df0d 	.word	0x0000df0d
  100484:	f8000a1c 	.word	0xf8000a1c
  100488:	00020202 	.word	0x00020202
  10048c:	f8000004 	.word	0xf8000004
  100490:	0000767b 	.word	0x0000767b
  100494:	000003ff 	.word	0x000003ff
  100498:	00007fff 	.word	0x00007fff

0010049c <deregister_tm_clones>:
  10049c:	e59f3024 	ldr	r3, [pc, #36]	; 1004c8 <deregister_tm_clones+0x2c>
  1004a0:	e3080368 	movw	r0, #33640	; 0x8368
  1004a4:	e3400011 	movt	r0, #17
  1004a8:	e0603003 	rsb	r3, r0, r3
  1004ac:	e3530006 	cmp	r3, #6
  1004b0:	912fff1e 	bxls	lr
  1004b4:	e3003000 	movw	r3, #0
  1004b8:	e3403000 	movt	r3, #0
  1004bc:	e3530000 	cmp	r3, #0
  1004c0:	012fff1e 	bxeq	lr
  1004c4:	e12fff13 	bx	r3
  1004c8:	0011836b 	.word	0x0011836b

001004cc <register_tm_clones>:
  1004cc:	e3083368 	movw	r3, #33640	; 0x8368
  1004d0:	e3080368 	movw	r0, #33640	; 0x8368
  1004d4:	e3403011 	movt	r3, #17
  1004d8:	e3400011 	movt	r0, #17
  1004dc:	e0601003 	rsb	r1, r0, r3
  1004e0:	e1a01141 	asr	r1, r1, #2
  1004e4:	e0811fa1 	add	r1, r1, r1, lsr #31
  1004e8:	e1b010c1 	asrs	r1, r1, #1
  1004ec:	012fff1e 	bxeq	lr
  1004f0:	e3003000 	movw	r3, #0
  1004f4:	e3403000 	movt	r3, #0
  1004f8:	e3530000 	cmp	r3, #0
  1004fc:	012fff1e 	bxeq	lr
  100500:	e12fff13 	bx	r3

00100504 <__do_global_dtors_aux>:
  100504:	e92d4010 	push	{r4, lr}
  100508:	e3004020 	movw	r4, #32
  10050c:	e3404012 	movt	r4, #18
  100510:	e5d43000 	ldrb	r3, [r4]
  100514:	e3530000 	cmp	r3, #0
  100518:	18bd8010 	popne	{r4, pc}
  10051c:	ebffffde 	bl	10049c <deregister_tm_clones>
  100520:	e3003000 	movw	r3, #0
  100524:	e3403000 	movt	r3, #0
  100528:	e3530000 	cmp	r3, #0
  10052c:	0a000002 	beq	10053c <__do_global_dtors_aux+0x38>
  100530:	e3080368 	movw	r0, #33640	; 0x8368
  100534:	e3400011 	movt	r0, #17
  100538:	e320f000 	nop	{0}
  10053c:	e3a03001 	mov	r3, #1
  100540:	e5c43000 	strb	r3, [r4]
  100544:	e8bd8010 	pop	{r4, pc}

00100548 <frame_dummy>:
  100548:	e3003000 	movw	r3, #0
  10054c:	e3403000 	movt	r3, #0
  100550:	e3530000 	cmp	r3, #0
  100554:	e92d4010 	push	{r4, lr}
  100558:	0a000004 	beq	100570 <frame_dummy+0x28>
  10055c:	e3001024 	movw	r1, #36	; 0x24
  100560:	e3080368 	movw	r0, #33640	; 0x8368
  100564:	e3401012 	movt	r1, #18
  100568:	e3400011 	movt	r0, #17
  10056c:	e320f000 	nop	{0}
  100570:	e3080364 	movw	r0, #33636	; 0x8364
  100574:	e3400011 	movt	r0, #17
  100578:	e5903000 	ldr	r3, [r0]
  10057c:	e3530000 	cmp	r3, #0
  100580:	1a000001 	bne	10058c <frame_dummy+0x44>
  100584:	e8bd4010 	pop	{r4, lr}
  100588:	eaffffcf 	b	1004cc <register_tm_clones>
  10058c:	e3003000 	movw	r3, #0
  100590:	e3403000 	movt	r3, #0
  100594:	e3530000 	cmp	r3, #0
  100598:	0afffff9 	beq	100584 <frame_dummy+0x3c>
  10059c:	e12fff33 	blx	r3
  1005a0:	eafffff7 	b	100584 <frame_dummy+0x3c>

001005a4 <cordic_highlevel>:
 *  2. Cos
 *  3. Atan
 *  4. Module
 */

void cordic_highlevel(int function, u32 *ibuffer,u32 *obuffer, int n_words, u32 scaling_factor, u32 dfx_one  ){
  1005a4:	e92d4ff7 	push	{r0, r1, r2, r4, r5, r6, r7, r8, r9, sl, fp, lr}
  1005a8:	e1a04000 	mov	r4, r0
	int lk;

    for (lk=0; lk<n_words; lk++){

	    	Interrupt_flag=0;
  1005ac:	e59f9178 	ldr	r9, [pc, #376]	; 10072c <cordic_highlevel+0x188>
  1005b0:	e2828004 	add	r8, r2, #4
  1005b4:	e2816004 	add	r6, r1, #4
 */

void cordic_highlevel(int function, u32 *ibuffer,u32 *obuffer, int n_words, u32 scaling_factor, u32 dfx_one  ){
	int lk;

    for (lk=0; lk<n_words; lk++){
  1005b8:	e3a05000 	mov	r5, #0
 *  2. Cos
 *  3. Atan
 *  4. Module
 */

void cordic_highlevel(int function, u32 *ibuffer,u32 *obuffer, int n_words, u32 scaling_factor, u32 dfx_one  ){
  1005bc:	e58d3000 	str	r3, [sp]
  1005c0:	e1a0a009 	mov	sl, r9
	int lk;

    for (lk=0; lk<n_words; lk++){
  1005c4:	e59d3000 	ldr	r3, [sp]
  1005c8:	e1550003 	cmp	r5, r3
  1005cc:	aa000054 	bge	100724 <cordic_highlevel+0x180>

	    	Interrupt_flag=0;
  1005d0:	e3a03000 	mov	r3, #0


	    	data2= MY_CORDIC_mReadReg( XPAR_MY_CORDIC_0_S00_AXI_BASEADDR, MY_CORDIC_S00_AXI_SLV_REG1_OFFSET );
  1005d4:	e59f0154 	ldr	r0, [pc, #340]	; 100730 <cordic_highlevel+0x18c>
void cordic_highlevel(int function, u32 *ibuffer,u32 *obuffer, int n_words, u32 scaling_factor, u32 dfx_one  ){
	int lk;

    for (lk=0; lk<n_words; lk++){

	    	Interrupt_flag=0;
  1005d8:	e5893000 	str	r3, [r9]


	    	data2= MY_CORDIC_mReadReg( XPAR_MY_CORDIC_0_S00_AXI_BASEADDR, MY_CORDIC_S00_AXI_SLV_REG1_OFFSET );
  1005dc:	eb000c05 	bl	1035f8 <Xil_In32>
  1005e0:	e59f314c 	ldr	r3, [pc, #332]	; 100734 <cordic_highlevel+0x190>
	    	while( ((data2&0x2)==0x2) ){ //check if cordic is busy
  1005e4:	e1a0b003 	mov	fp, r3
    for (lk=0; lk<n_words; lk++){

	    	Interrupt_flag=0;


	    	data2= MY_CORDIC_mReadReg( XPAR_MY_CORDIC_0_S00_AXI_BASEADDR, MY_CORDIC_S00_AXI_SLV_REG1_OFFSET );
  1005e8:	e5830000 	str	r0, [r3]
	    	while( ((data2&0x2)==0x2) ){ //check if cordic is busy
  1005ec:	e5937000 	ldr	r7, [r3]
  1005f0:	e2177002 	ands	r7, r7, #2
  1005f4:	0a000007 	beq	100618 <cordic_highlevel+0x74>
	        	data2= MY_CORDIC_mReadReg( XPAR_MY_CORDIC_0_S00_AXI_BASEADDR, MY_CORDIC_S00_AXI_SLV_REG1_OFFSET );
  1005f8:	e59f0130 	ldr	r0, [pc, #304]	; 100730 <cordic_highlevel+0x18c>
  1005fc:	e58d3004 	str	r3, [sp, #4]
  100600:	eb000bfc 	bl	1035f8 <Xil_In32>
  100604:	e58b0000 	str	r0, [fp]
	        	printf("inside\r\n");
  100608:	e59f0128 	ldr	r0, [pc, #296]	; 100738 <cordic_highlevel+0x194>
  10060c:	eb00111c 	bl	104a84 <puts>
  100610:	e59d3004 	ldr	r3, [sp, #4]
  100614:	eafffff4 	b	1005ec <cordic_highlevel+0x48>
	    	}
	    	if (function==1){// Sine
  100618:	e3540001 	cmp	r4, #1
  10061c:	1a000007 	bne	100640 <cordic_highlevel+0x9c>
		    	MY_CORDIC_mWriteReg(XPAR_MY_CORDIC_0_S00_AXI_BASEADDR, MY_CORDIC_S00_AXI_SLV_REG2_OFFSET,scaling_factor   );
  100620:	e59d1030 	ldr	r1, [sp, #48]	; 0x30
  100624:	e59f0110 	ldr	r0, [pc, #272]	; 10073c <cordic_highlevel+0x198>
  100628:	eb000bf8 	bl	103610 <Xil_Out32>
		    	MY_CORDIC_mWriteReg(XPAR_MY_CORDIC_0_S00_AXI_BASEADDR, MY_CORDIC_S00_AXI_SLV_REG3_OFFSET,0x00000000   );
  10062c:	e1a01007 	mov	r1, r7
  100630:	e59f0108 	ldr	r0, [pc, #264]	; 100740 <cordic_highlevel+0x19c>
  100634:	eb000bf5 	bl	103610 <Xil_Out32>
		    	MY_CORDIC_mWriteReg(XPAR_MY_CORDIC_0_S00_AXI_BASEADDR, MY_CORDIC_S00_AXI_SLV_REG4_OFFSET, *ibuffer++   );
  100638:	e5161004 	ldr	r1, [r6, #-4]
  10063c:	ea000015 	b	100698 <cordic_highlevel+0xf4>
		    	MY_CORDIC_mWriteReg(XPAR_MY_CORDIC_0_S00_AXI_BASEADDR, MY_CORDIC_S00_AXI_SLV_REG0_OFFSET,0x00000001   );

	    	} else if (function==2){ //Cos
  100640:	e3540002 	cmp	r4, #2
  100644:	1a00000a 	bne	100674 <cordic_highlevel+0xd0>
		    	MY_CORDIC_mWriteReg(XPAR_MY_CORDIC_0_S00_AXI_BASEADDR, MY_CORDIC_S00_AXI_SLV_REG2_OFFSET,0x00000000);
  100648:	e1a01007 	mov	r1, r7
  10064c:	e59f00e8 	ldr	r0, [pc, #232]	; 10073c <cordic_highlevel+0x198>
  100650:	eb000bee 	bl	103610 <Xil_Out32>
		    	MY_CORDIC_mWriteReg(XPAR_MY_CORDIC_0_S00_AXI_BASEADDR, MY_CORDIC_S00_AXI_SLV_REG3_OFFSET,scaling_factor);
  100654:	e59d1030 	ldr	r1, [sp, #48]	; 0x30
  100658:	e59f00e0 	ldr	r0, [pc, #224]	; 100740 <cordic_highlevel+0x19c>
  10065c:	eb000beb 	bl	103610 <Xil_Out32>
		    	MY_CORDIC_mWriteReg(XPAR_MY_CORDIC_0_S00_AXI_BASEADDR, MY_CORDIC_S00_AXI_SLV_REG4_OFFSET, *ibuffer++   );
  100660:	e5161004 	ldr	r1, [r6, #-4]
  100664:	e59f00d8 	ldr	r0, [pc, #216]	; 100744 <cordic_highlevel+0x1a0>
  100668:	eb000be8 	bl	103610 <Xil_Out32>
		    	MY_CORDIC_mWriteReg(XPAR_MY_CORDIC_0_S00_AXI_BASEADDR, MY_CORDIC_S00_AXI_SLV_REG0_OFFSET,0x00000001   );
  10066c:	e3a01001 	mov	r1, #1
  100670:	ea000014 	b	1006c8 <cordic_highlevel+0x124>

	    	} else if (function==3){ //Atan
  100674:	e3540003 	cmp	r4, #3
	    		MY_CORDIC_mWriteReg(XPAR_MY_CORDIC_0_S00_AXI_BASEADDR, MY_CORDIC_S00_AXI_SLV_REG2_OFFSET,*ibuffer++);
  100678:	e5161004 	ldr	r1, [r6, #-4]
  10067c:	e59f00b8 	ldr	r0, [pc, #184]	; 10073c <cordic_highlevel+0x198>
		    	MY_CORDIC_mWriteReg(XPAR_MY_CORDIC_0_S00_AXI_BASEADDR, MY_CORDIC_S00_AXI_SLV_REG2_OFFSET,0x00000000);
		    	MY_CORDIC_mWriteReg(XPAR_MY_CORDIC_0_S00_AXI_BASEADDR, MY_CORDIC_S00_AXI_SLV_REG3_OFFSET,scaling_factor);
		    	MY_CORDIC_mWriteReg(XPAR_MY_CORDIC_0_S00_AXI_BASEADDR, MY_CORDIC_S00_AXI_SLV_REG4_OFFSET, *ibuffer++   );
		    	MY_CORDIC_mWriteReg(XPAR_MY_CORDIC_0_S00_AXI_BASEADDR, MY_CORDIC_S00_AXI_SLV_REG0_OFFSET,0x00000001   );

	    	} else if (function==3){ //Atan
  100680:	1a000008 	bne	1006a8 <cordic_highlevel+0x104>
	    		MY_CORDIC_mWriteReg(XPAR_MY_CORDIC_0_S00_AXI_BASEADDR, MY_CORDIC_S00_AXI_SLV_REG2_OFFSET,*ibuffer++);
  100684:	eb000be1 	bl	103610 <Xil_Out32>
	    		MY_CORDIC_mWriteReg(XPAR_MY_CORDIC_0_S00_AXI_BASEADDR, MY_CORDIC_S00_AXI_SLV_REG3_OFFSET,dfx_one);
  100688:	e59d1034 	ldr	r1, [sp, #52]	; 0x34
  10068c:	e59f00ac 	ldr	r0, [pc, #172]	; 100740 <cordic_highlevel+0x19c>
  100690:	eb000bde 	bl	103610 <Xil_Out32>
	    		MY_CORDIC_mWriteReg(XPAR_MY_CORDIC_0_S00_AXI_BASEADDR, MY_CORDIC_S00_AXI_SLV_REG4_OFFSET, 0x00000000  );
  100694:	e1a01007 	mov	r1, r7
  100698:	e59f00a4 	ldr	r0, [pc, #164]	; 100744 <cordic_highlevel+0x1a0>
  10069c:	eb000bdb 	bl	103610 <Xil_Out32>
	    		MY_CORDIC_mWriteReg(XPAR_MY_CORDIC_0_S00_AXI_BASEADDR, MY_CORDIC_S00_AXI_SLV_REG0_OFFSET,0x00000003   );
  1006a0:	e1a01004 	mov	r1, r4
  1006a4:	ea000007 	b	1006c8 <cordic_highlevel+0x124>
	    	} else { //Module
	    		MY_CORDIC_mWriteReg(XPAR_MY_CORDIC_0_S00_AXI_BASEADDR, MY_CORDIC_S00_AXI_SLV_REG2_OFFSET,*ibuffer);
  1006a8:	eb000bd8 	bl	103610 <Xil_Out32>
	    		MY_CORDIC_mWriteReg(XPAR_MY_CORDIC_0_S00_AXI_BASEADDR, MY_CORDIC_S00_AXI_SLV_REG3_OFFSET,*ibuffer++);
  1006ac:	e5161004 	ldr	r1, [r6, #-4]
  1006b0:	e59f0088 	ldr	r0, [pc, #136]	; 100740 <cordic_highlevel+0x19c>
  1006b4:	eb000bd5 	bl	103610 <Xil_Out32>
	    		MY_CORDIC_mWriteReg(XPAR_MY_CORDIC_0_S00_AXI_BASEADDR, MY_CORDIC_S00_AXI_SLV_REG4_OFFSET, 0x00000000  );
  1006b8:	e1a01007 	mov	r1, r7
  1006bc:	e59f0080 	ldr	r0, [pc, #128]	; 100744 <cordic_highlevel+0x1a0>
  1006c0:	eb000bd2 	bl	103610 <Xil_Out32>
	    		MY_CORDIC_mWriteReg(XPAR_MY_CORDIC_0_S00_AXI_BASEADDR, MY_CORDIC_S00_AXI_SLV_REG0_OFFSET,0x00000003   );
  1006c4:	e3a01003 	mov	r1, #3
  1006c8:	e59f0078 	ldr	r0, [pc, #120]	; 100748 <cordic_highlevel+0x1a4>
  1006cc:	eb000bcf 	bl	103610 <Xil_Out32>


	    	}
	    	while(Interrupt_flag==0); //while for cordic's interruption
  1006d0:	e59a3000 	ldr	r3, [sl]
  1006d4:	e3530000 	cmp	r3, #0
  1006d8:	0afffffc 	beq	1006d0 <cordic_highlevel+0x12c>
	    	if (function==1){// Sine
  1006dc:	e3540001 	cmp	r4, #1
  1006e0:	0a000001 	beq	1006ec <cordic_highlevel+0x148>
	    		*obuffer=(unsigned int)yout_data;
	    		printf("Word output_vec %d: 0x%08x\n",lk, (unsigned int)*obuffer++ );

	    	} else if (function==2){ //Cos
  1006e4:	e3540002 	cmp	r4, #2
  1006e8:	1a000001 	bne	1006f4 <cordic_highlevel+0x150>
	    		*obuffer=(unsigned int)yout_data;
  1006ec:	e59f3058 	ldr	r3, [pc, #88]	; 10074c <cordic_highlevel+0x1a8>
  1006f0:	ea000002 	b	100700 <cordic_highlevel+0x15c>
	    		printf("Word output_vec %d: 0x%08x\n",lk, (unsigned int)*obuffer++ );

	    	} else if (function==3){ //Atan
  1006f4:	e3540003 	cmp	r4, #3
	    		*obuffer=(unsigned int)zout_data;
  1006f8:	059f3050 	ldreq	r3, [pc, #80]	; 100750 <cordic_highlevel+0x1ac>
	    		printf("Word output_vec %d: 0x%08x\n",lk, (unsigned int)*obuffer++ );

	    	} else { //Module
	    		*obuffer=(unsigned int)xout_data;
  1006fc:	159f3050 	ldrne	r3, [pc, #80]	; 100754 <cordic_highlevel+0x1b0>
  100700:	e5932000 	ldr	r2, [r3]
	    		printf("Word output_vec %d: 0x%08x\n",lk, (unsigned int)*obuffer++ );
  100704:	e1a01005 	mov	r1, r5
  100708:	e59f0048 	ldr	r0, [pc, #72]	; 100758 <cordic_highlevel+0x1b4>
 */

void cordic_highlevel(int function, u32 *ibuffer,u32 *obuffer, int n_words, u32 scaling_factor, u32 dfx_one  ){
	int lk;

    for (lk=0; lk<n_words; lk++){
  10070c:	e2855001 	add	r5, r5, #1
  100710:	e2888004 	add	r8, r8, #4
  100714:	e2866004 	add	r6, r6, #4
	    	} else if (function==3){ //Atan
	    		*obuffer=(unsigned int)zout_data;
	    		printf("Word output_vec %d: 0x%08x\n",lk, (unsigned int)*obuffer++ );

	    	} else { //Module
	    		*obuffer=(unsigned int)xout_data;
  100718:	e5082008 	str	r2, [r8, #-8]
	    		printf("Word output_vec %d: 0x%08x\n",lk, (unsigned int)*obuffer++ );
  10071c:	eb0010a5 	bl	1049b8 <printf>
  100720:	eaffffa7 	b	1005c4 <cordic_highlevel+0x20>

	    	}
    }

}
  100724:	e28dd00c 	add	sp, sp, #12
  100728:	e8bd8ff0 	pop	{r4, r5, r6, r7, r8, r9, sl, fp, pc}
  10072c:	0012003c 	.word	0x0012003c
  100730:	43c00004 	.word	0x43c00004
  100734:	00120864 	.word	0x00120864
  100738:	00116b90 	.word	0x00116b90
  10073c:	43c00008 	.word	0x43c00008
  100740:	43c0000c 	.word	0x43c0000c
  100744:	43c00010 	.word	0x43c00010
  100748:	43c00000 	.word	0x43c00000
  10074c:	00120ad8 	.word	0x00120ad8
  100750:	00120860 	.word	0x00120860
  100754:	00120ae8 	.word	0x00120ae8
  100758:	00116b98 	.word	0x00116b98

0010075c <Write_outfile>:



void Write_outfile(u32 *out_buff, char *filename){
  10075c:	e92d4870 	push	{r4, r5, r6, fp, lr}
  100760:	e28db010 	add	fp, sp, #16
  100764:	e24dd00c 	sub	sp, sp, #12
  100768:	e24dde26 	sub	sp, sp, #608	; 0x260
  10076c:	e1a05000 	mov	r5, r0
  100770:	e28d401f 	add	r4, sp, #31
	FIL fil;
	FRESULT myres;
	UINT NumBytesWritten;

		   myres = f_open(&fil, filename , FA_CREATE_ALWAYS | FA_WRITE | FA_READ);
  100774:	e3a0200b 	mov	r2, #11

}



void Write_outfile(u32 *out_buff, char *filename){
  100778:	e3c4401f 	bic	r4, r4, #31
	FIL fil;
	FRESULT myres;
	UINT NumBytesWritten;

		   myres = f_open(&fil, filename , FA_CREATE_ALWAYS | FA_WRITE | FA_READ);
  10077c:	e1a00004 	mov	r0, r4
  100780:	eb004713 	bl	1123d4 <f_open>
		   	   if(myres== FR_OK){
  100784:	e2506000 	subs	r6, r0, #0
		   			 	 }else {
		   			 		 xil_printf("failed to write data\n\r");
		   			 	 }

		   	   } else {
		   		   xil_printf("failed to create file\n\r");
  100788:	159f0058 	ldrne	r0, [pc, #88]	; 1007e8 <Write_outfile+0x8c>
	FIL fil;
	FRESULT myres;
	UINT NumBytesWritten;

		   myres = f_open(&fil, filename , FA_CREATE_ALWAYS | FA_WRITE | FA_READ);
		   	   if(myres== FR_OK){
  10078c:	1a00000c 	bne	1007c4 <Write_outfile+0x68>
		   		   xil_printf("file created\n\r");
  100790:	e59f0054 	ldr	r0, [pc, #84]	; 1007ec <Write_outfile+0x90>
  100794:	eb000c39 	bl	103880 <xil_printf>
		   		   myres = f_lseek(&fil, 0);
  100798:	e1a01006 	mov	r1, r6
  10079c:	e1a00004 	mov	r0, r4
  1007a0:	eb004959 	bl	112d0c <f_lseek>
		   		   myres = f_write(&fil, (const void*)out_buff,( sizeof(*out_buff)*200),&NumBytesWritten);
  1007a4:	e24b3018 	sub	r3, fp, #24
  1007a8:	e3a02e32 	mov	r2, #800	; 0x320
  1007ac:	e1a01005 	mov	r1, r5
  1007b0:	e1a00004 	mov	r0, r4
  1007b4:	eb00484e 	bl	1128f4 <f_write>
		   			 	 if (myres== FR_OK) {
  1007b8:	e3500000 	cmp	r0, #0
		   			 		 xil_printf("data written\n\r");
  1007bc:	059f002c 	ldreq	r0, [pc, #44]	; 1007f0 <Write_outfile+0x94>
		   			 	 }else {
		   			 		 xil_printf("failed to write data\n\r");
  1007c0:	159f002c 	ldrne	r0, [pc, #44]	; 1007f4 <Write_outfile+0x98>
		   			 	 }

		   	   } else {
		   		   xil_printf("failed to create file\n\r");
  1007c4:	eb000c2d 	bl	103880 <xil_printf>
		   	   }
		    myres = f_close(&fil);
  1007c8:	e1a00004 	mov	r0, r4
  1007cc:	eb004944 	bl	112ce4 <f_close>
		   	if (myres == FR_OK){
  1007d0:	e3500000 	cmp	r0, #0
  1007d4:	1a000001 	bne	1007e0 <Write_outfile+0x84>
		   		xil_printf("file closed\n\r");
  1007d8:	e59f0018 	ldr	r0, [pc, #24]	; 1007f8 <Write_outfile+0x9c>
  1007dc:	eb000c27 	bl	103880 <xil_printf>
		   	 }
}
  1007e0:	e24bd010 	sub	sp, fp, #16
  1007e4:	e8bd8870 	pop	{r4, r5, r6, fp, pc}
  1007e8:	00116be9 	.word	0x00116be9
  1007ec:	00116bb4 	.word	0x00116bb4
  1007f0:	00116bc3 	.word	0x00116bc3
  1007f4:	00116bd2 	.word	0x00116bd2
  1007f8:	00116c01 	.word	0x00116c01

001007fc <read_inputs>:



void read_inputs(u32 *buff, char *filename) {
  1007fc:	e92d4870 	push	{r4, r5, r6, fp, lr}
  100800:	e28db010 	add	fp, sp, #16
  100804:	e24dd00c 	sub	sp, sp, #12
  100808:	e24dde26 	sub	sp, sp, #608	; 0x260
  10080c:	e1a06000 	mov	r6, r0
  100810:	e28d501f 	add	r5, sp, #31
	FRESULT myres;
	char temp1;
	u32 filesize=0;
	 FATFS *fs;
	 UINT br;
		 myres = f_open(&fil, filename, FA_READ);
  100814:	e3a02001 	mov	r2, #1
		   	 }
}



void read_inputs(u32 *buff, char *filename) {
  100818:	e3c5501f 	bic	r5, r5, #31
	FRESULT myres;
	char temp1;
	u32 filesize=0;
	 FATFS *fs;
	 UINT br;
		 myres = f_open(&fil, filename, FA_READ);
  10081c:	e1a00005 	mov	r0, r5
  100820:	eb0046eb 	bl	1123d4 <f_open>
		 	 if (myres == FR_OK) {
  100824:	e2504000 	subs	r4, r0, #0
  100828:	0a000003 	beq	10083c <read_inputs+0x40>
		 			memcpy ( &buff[jl], &line[0], 4 );
		 			printf("Word %d: 0x%08x\n",jl, (unsigned int)buff[jl] );
		 		 }
		 	 }
	// }
	 myres = f_close(&fil);
  10082c:	e1a00005 	mov	r0, r5
  100830:	eb00492b 	bl	112ce4 <f_close>

}
  100834:	e24bd010 	sub	sp, fp, #16
  100838:	e8bd8870 	pop	{r4, r5, r6, fp, pc}
	u32 filesize=0;
	 FATFS *fs;
	 UINT br;
		 myres = f_open(&fil, filename, FA_READ);
		 	 if (myres == FR_OK) {
		 		 printf("f_open \r\n");
  10083c:	e59f0074 	ldr	r0, [pc, #116]	; 1008b8 <read_inputs+0xbc>
  100840:	eb00108f 	bl	104a84 <puts>
		 		 filesize= file_size(&fil);
		 		 printf("File: input_sin_conf1.txt opened successfully \r\n" );
  100844:	e59f0070 	ldr	r0, [pc, #112]	; 1008bc <read_inputs+0xc0>
  100848:	eb00108d 	bl	104a84 <puts>

		 		 myres = f_lseek(&fil, 0 );
  10084c:	e1a01004 	mov	r1, r4
  100850:	e1a00005 	mov	r0, r5
  100854:	eb00492c 	bl	112d0c <f_lseek>

		 		 for (jl=0;jl<200; jl++ ){
		 			 myres =  f_read(&fil, (void *)line, 4, &br);
  100858:	e24b3018 	sub	r3, fp, #24
  10085c:	e3a02004 	mov	r2, #4
  100860:	e24b101c 	sub	r1, fp, #28
  100864:	e1a00005 	mov	r0, r5
  100868:	eb004780 	bl	112670 <f_read>
		 			temp1=line[0];
  10086c:	e55b301c 	ldrb	r3, [fp, #-28]	; 0xffffffe4
		 			line[3]=temp1;
		 			temp1=line[1];
		 			line[1]=line[2];
		 			line[2]=temp1;
		 			memcpy ( &buff[jl], &line[0], 4 );
		 			printf("Word %d: 0x%08x\n",jl, (unsigned int)buff[jl] );
  100870:	e1a01004 	mov	r1, r4
		 		 myres = f_lseek(&fil, 0 );

		 		 for (jl=0;jl<200; jl++ ){
		 			 myres =  f_read(&fil, (void *)line, 4, &br);
		 			temp1=line[0];
		 			line[0]=line[3];
  100874:	e55b2019 	ldrb	r2, [fp, #-25]	; 0xffffffe7
		 		 filesize= file_size(&fil);
		 		 printf("File: input_sin_conf1.txt opened successfully \r\n" );

		 		 myres = f_lseek(&fil, 0 );

		 		 for (jl=0;jl<200; jl++ ){
  100878:	e2844001 	add	r4, r4, #1
		 			 myres =  f_read(&fil, (void *)line, 4, &br);
		 			temp1=line[0];
		 			line[0]=line[3];
		 			line[3]=temp1;
  10087c:	e54b3019 	strb	r3, [fp, #-25]	; 0xffffffe7
		 		 myres = f_lseek(&fil, 0 );

		 		 for (jl=0;jl<200; jl++ ){
		 			 myres =  f_read(&fil, (void *)line, 4, &br);
		 			temp1=line[0];
		 			line[0]=line[3];
  100880:	e54b201c 	strb	r2, [fp, #-28]	; 0xffffffe4
		 			line[3]=temp1;
		 			temp1=line[1];
  100884:	e55b301b 	ldrb	r3, [fp, #-27]	; 0xffffffe5
		 			line[1]=line[2];
  100888:	e55b201a 	ldrb	r2, [fp, #-26]	; 0xffffffe6
		 			line[2]=temp1;
  10088c:	e54b301a 	strb	r3, [fp, #-26]	; 0xffffffe6
		 			memcpy ( &buff[jl], &line[0], 4 );
  100890:	e1a03006 	mov	r3, r6
		 			 myres =  f_read(&fil, (void *)line, 4, &br);
		 			temp1=line[0];
		 			line[0]=line[3];
		 			line[3]=temp1;
		 			temp1=line[1];
		 			line[1]=line[2];
  100894:	e54b201b 	strb	r2, [fp, #-27]	; 0xffffffe5
		 			line[2]=temp1;
		 			memcpy ( &buff[jl], &line[0], 4 );
  100898:	e51b001c 	ldr	r0, [fp, #-28]	; 0xffffffe4
  10089c:	e4860004 	str	r0, [r6], #4
		 			printf("Word %d: 0x%08x\n",jl, (unsigned int)buff[jl] );
  1008a0:	e59f0018 	ldr	r0, [pc, #24]	; 1008c0 <read_inputs+0xc4>
  1008a4:	e5932000 	ldr	r2, [r3]
  1008a8:	eb001042 	bl	1049b8 <printf>
		 		 filesize= file_size(&fil);
		 		 printf("File: input_sin_conf1.txt opened successfully \r\n" );

		 		 myres = f_lseek(&fil, 0 );

		 		 for (jl=0;jl<200; jl++ ){
  1008ac:	e35400c8 	cmp	r4, #200	; 0xc8
  1008b0:	1affffe8 	bne	100858 <read_inputs+0x5c>
  1008b4:	eaffffdc 	b	10082c <read_inputs+0x30>
  1008b8:	00116c0f 	.word	0x00116c0f
  1008bc:	00116c18 	.word	0x00116c18
  1008c0:	00116c48 	.word	0x00116c48

001008c4 <enable_caches>:
 #define UART_BAUD 9600
#endif

void
enable_caches()
{
  1008c4:	e12fff1e 	bx	lr

001008c8 <disable_caches>:
#endif
}

void
disable_caches()
{
  1008c8:	e92d4010 	push	{r4, lr}
    Xil_DCacheDisable();
  1008cc:	eb000a89 	bl	1032f8 <Xil_DCacheDisable>
    Xil_ICacheDisable();
}
  1008d0:	e8bd4010 	pop	{r4, lr}

void
disable_caches()
{
    Xil_DCacheDisable();
    Xil_ICacheDisable();
  1008d4:	ea000a8e 	b	103314 <Xil_ICacheDisable>

001008d8 <init_uart>:
}

void
init_uart()
{
  1008d8:	e12fff1e 	bx	lr

001008dc <init_platform>:
    /* Bootrom/BSP configures PS7/PSU UART to 115200 bps */
}

void
init_platform()
{
  1008dc:	e12fff1e 	bx	lr

001008e0 <cleanup_platform>:
}

void
cleanup_platform()
{
    disable_caches();
  1008e0:	eafffff8 	b	1008c8 <disable_caches>

001008e4 <DeviceDriverHandler>:
	}

	return Status;
}

void DeviceDriverHandler(void *CallbackRef){
  1008e4:	e92d4070 	push	{r4, r5, r6, lr}
	xil_printf("ISR:\r\n");

	xout_data = MY_CORDIC_mReadReg( XPAR_MY_CORDIC_0_S00_AXI_BASEADDR, MY_CORDIC_S00_AXI_SLV_REG1_OFFSET );
  1008e8:	e59f5080 	ldr	r5, [pc, #128]	; 100970 <DeviceDriverHandler+0x8c>
  1008ec:	e59f4080 	ldr	r4, [pc, #128]	; 100974 <DeviceDriverHandler+0x90>

	return Status;
}

void DeviceDriverHandler(void *CallbackRef){
	xil_printf("ISR:\r\n");
  1008f0:	e59f0080 	ldr	r0, [pc, #128]	; 100978 <DeviceDriverHandler+0x94>
  1008f4:	eb000be1 	bl	103880 <xil_printf>

	xout_data = MY_CORDIC_mReadReg( XPAR_MY_CORDIC_0_S00_AXI_BASEADDR, MY_CORDIC_S00_AXI_SLV_REG1_OFFSET );
  1008f8:	e1a00005 	mov	r0, r5
  1008fc:	eb000b3d 	bl	1035f8 <Xil_In32>
  100900:	e5840000 	str	r0, [r4]
	//xil_printf("	Reg1 Status: 0x%08x\n", data);
	xout_data= xout_data&(~0x1);
    MY_CORDIC_mWriteReg(XPAR_MY_CORDIC_0_S00_AXI_BASEADDR, MY_CORDIC_S00_AXI_SLV_REG1_OFFSET,xout_data   );
  100904:	e1a00005 	mov	r0, r5
void DeviceDriverHandler(void *CallbackRef){
	xil_printf("ISR:\r\n");

	xout_data = MY_CORDIC_mReadReg( XPAR_MY_CORDIC_0_S00_AXI_BASEADDR, MY_CORDIC_S00_AXI_SLV_REG1_OFFSET );
	//xil_printf("	Reg1 Status: 0x%08x\n", data);
	xout_data= xout_data&(~0x1);
  100908:	e5943000 	ldr	r3, [r4]
  10090c:	e3c33001 	bic	r3, r3, #1
  100910:	e5843000 	str	r3, [r4]
    MY_CORDIC_mWriteReg(XPAR_MY_CORDIC_0_S00_AXI_BASEADDR, MY_CORDIC_S00_AXI_SLV_REG1_OFFSET,xout_data   );
  100914:	e5941000 	ldr	r1, [r4]
  100918:	eb000b3c 	bl	103610 <Xil_Out32>

    xout_data = MY_CORDIC_mReadReg( XPAR_MY_CORDIC_0_S00_AXI_BASEADDR, MY_CORDIC_S00_AXI_SLV_REG1_OFFSET );
  10091c:	e1a00005 	mov	r0, r5
  100920:	eb000b34 	bl	1035f8 <Xil_In32>
  100924:	e5840000 	str	r0, [r4]
    xil_printf("ISR-Cleared- Reg1 Status: 0x%08x\n", xout_data);
  100928:	e59f004c 	ldr	r0, [pc, #76]	; 10097c <DeviceDriverHandler+0x98>
  10092c:	e5941000 	ldr	r1, [r4]
  100930:	eb000bd2 	bl	103880 <xil_printf>

    xout_data = MY_CORDIC_mReadReg( XPAR_MY_CORDIC_0_S00_AXI_BASEADDR, MY_CORDIC_S00_AXI_SLV_REG5_OFFSET );
  100934:	e59f0044 	ldr	r0, [pc, #68]	; 100980 <DeviceDriverHandler+0x9c>
  100938:	eb000b2e 	bl	1035f8 <Xil_In32>
  10093c:	e5840000 	str	r0, [r4]
    yout_data = MY_CORDIC_mReadReg( XPAR_MY_CORDIC_0_S00_AXI_BASEADDR, MY_CORDIC_S00_AXI_SLV_REG6_OFFSET );
  100940:	e59f003c 	ldr	r0, [pc, #60]	; 100984 <DeviceDriverHandler+0xa0>
  100944:	eb000b2b 	bl	1035f8 <Xil_In32>
  100948:	e59f3038 	ldr	r3, [pc, #56]	; 100988 <DeviceDriverHandler+0xa4>
  10094c:	e5830000 	str	r0, [r3]
    zout_data = MY_CORDIC_mReadReg( XPAR_MY_CORDIC_0_S00_AXI_BASEADDR, MY_CORDIC_S00_AXI_SLV_REG7_OFFSET );
  100950:	e59f0034 	ldr	r0, [pc, #52]	; 10098c <DeviceDriverHandler+0xa8>
  100954:	eb000b27 	bl	1035f8 <Xil_In32>
  100958:	e59f3030 	ldr	r3, [pc, #48]	; 100990 <DeviceDriverHandler+0xac>
	//InterruptProcessed = TRUE;
	Interrupt_flag =1;
  10095c:	e3a02001 	mov	r2, #1
    xout_data = MY_CORDIC_mReadReg( XPAR_MY_CORDIC_0_S00_AXI_BASEADDR, MY_CORDIC_S00_AXI_SLV_REG1_OFFSET );
    xil_printf("ISR-Cleared- Reg1 Status: 0x%08x\n", xout_data);

    xout_data = MY_CORDIC_mReadReg( XPAR_MY_CORDIC_0_S00_AXI_BASEADDR, MY_CORDIC_S00_AXI_SLV_REG5_OFFSET );
    yout_data = MY_CORDIC_mReadReg( XPAR_MY_CORDIC_0_S00_AXI_BASEADDR, MY_CORDIC_S00_AXI_SLV_REG6_OFFSET );
    zout_data = MY_CORDIC_mReadReg( XPAR_MY_CORDIC_0_S00_AXI_BASEADDR, MY_CORDIC_S00_AXI_SLV_REG7_OFFSET );
  100960:	e5830000 	str	r0, [r3]
	//InterruptProcessed = TRUE;
	Interrupt_flag =1;
  100964:	e59f3028 	ldr	r3, [pc, #40]	; 100994 <DeviceDriverHandler+0xb0>
  100968:	e5832000 	str	r2, [r3]
  10096c:	e8bd8070 	pop	{r4, r5, r6, pc}
  100970:	43c00004 	.word	0x43c00004
  100974:	00120ae8 	.word	0x00120ae8
  100978:	00116f20 	.word	0x00116f20
  10097c:	00116f27 	.word	0x00116f27
  100980:	43c00014 	.word	0x43c00014
  100984:	43c00018 	.word	0x43c00018
  100988:	00120ad8 	.word	0x00120ad8
  10098c:	43c0001c 	.word	0x43c0001c
  100990:	00120860 	.word	0x00120860
  100994:	0012003c 	.word	0x0012003c

00100998 <DcfgIntrHandler>:


 static void DcfgIntrHandler(void *CallBackRef, u32 IntrStatus)
{

	if (IntrStatus & XDCFG_IXR_DMA_DONE_MASK) {
  100998:	e3110a02 	tst	r1, #8192	; 0x2000
		DmaDone = TRUE;
  10099c:	159f303c 	ldrne	r3, [pc, #60]	; 1009e0 <DcfgIntrHandler+0x48>
  1009a0:	13a02001 	movne	r2, #1
  1009a4:	15832000 	strne	r2, [r3]
	}

	if (IntrStatus & XDCFG_IXR_D_P_DONE_MASK) {
  1009a8:	e3110a01 	tst	r1, #4096	; 0x1000
		//CntValue2 = XScuTimer_GetCounterValue(TimerInstancePtr);

		DmaPcapDone = TRUE;
  1009ac:	159f3030 	ldrne	r3, [pc, #48]	; 1009e4 <DcfgIntrHandler+0x4c>
  1009b0:	13a02001 	movne	r2, #1
  1009b4:	15832000 	strne	r2, [r3]
	}

	if (IntrStatus & XDCFG_IXR_PCFG_DONE_MASK) {
  1009b8:	e3110004 	tst	r1, #4
  1009bc:	012fff1e 	bxeq	lr

}


 static void DcfgIntrHandler(void *CallBackRef, u32 IntrStatus)
{
  1009c0:	e92d4010 	push	{r4, lr}
	if (IntrStatus & XDCFG_IXR_PCFG_DONE_MASK) {
		/*
		 * Disable PCFG DONE interrupt as this bit will remain set and will
		 * cause continuous interrupts.
		 */
		XDcfg_IntrDisable(&DcfgInstance, XDCFG_IXR_PCFG_DONE_MASK);
  1009c4:	e3a01004 	mov	r1, #4
  1009c8:	e59f0018 	ldr	r0, [pc, #24]	; 1009e8 <DcfgIntrHandler+0x50>
  1009cc:	eb000463 	bl	101b60 <XDcfg_IntrDisable>
		FpgaProgrammed = TRUE;
  1009d0:	e59f3014 	ldr	r3, [pc, #20]	; 1009ec <DcfgIntrHandler+0x54>
  1009d4:	e3a02001 	mov	r2, #1
  1009d8:	e5832000 	str	r2, [r3]
  1009dc:	e8bd8010 	pop	{r4, pc}
  1009e0:	00120048 	.word	0x00120048
  1009e4:	00120044 	.word	0x00120044
  1009e8:	00120ac0 	.word	0x00120ac0
  1009ec:	00120040 	.word	0x00120040

001009f0 <SetUpInterruptSystem>:
 *      Author: llamocca
 */

#include "support.h"

int SetUpInterruptSystem(XScuGic *XScuGicInstancePtr){
  1009f0:	e92d4010 	push	{r4, lr}

	Xil_ExceptionRegisterHandler(XIL_EXCEPTION_ID_INT,
  1009f4:	e1a02000 	mov	r2, r0
  1009f8:	e59f1018 	ldr	r1, [pc, #24]	; 100a18 <SetUpInterruptSystem+0x28>
  1009fc:	e3a00005 	mov	r0, #5
  100a00:	eb000ae9 	bl	1035ac <Xil_ExceptionRegisterHandler>
			(Xil_ExceptionHandler)XScuGic_InterruptHandler,
			XScuGicInstancePtr);


	Xil_ExceptionEnable();
  100a04:	e10f3000 	mrs	r3, CPSR
  100a08:	e3c33080 	bic	r3, r3, #128	; 0x80
  100a0c:	e129f003 	msr	CPSR_fc, r3
	return XST_SUCCESS;

}
  100a10:	e3a00000 	mov	r0, #0
  100a14:	e8bd8010 	pop	{r4, pc}
  100a18:	001028e0 	.word	0x001028e0

00100a1c <ReadBitstream>:
int ReadBitstream(char *file_name,  char *buffer, int verbose){
  100a1c:	e92d48f0 	push	{r4, r5, r6, r7, fp, lr}
  100a20:	e28db014 	add	fp, sp, #20
  100a24:	e24dd018 	sub	sp, sp, #24
  100a28:	e24dde26 	sub	sp, sp, #608	; 0x260
  100a2c:	e1a07000 	mov	r7, r0
  100a30:	e28d501f 	add	r5, sp, #31
  100a34:	e50b1028 	str	r1, [fp, #-40]	; 0xffffffd8
  100a38:	e3c5501f 	bic	r5, r5, #31
		// fre_sect = fre_clust * fs->csize;

		// printf("%10lu KiB Total Drive Capacity.\n%10lu KiB Available.\n",
		// tot_sect / 2, fre_sect / 2);
		 }
		 myres = f_open(&fil, file_name, FA_READ);
  100a3c:	e1a01000 	mov	r1, r0
  100a40:	e3a02001 	mov	r2, #1
  100a44:	e1a00005 	mov	r0, r5
  100a48:	eb004661 	bl	1123d4 <f_open>
		 	 if (myres == FR_OK) {
  100a4c:	e2504000 	subs	r4, r0, #0
  100a50:	1a00001b 	bne	100ac4 <ReadBitstream+0xa8>
		 		 filesize= file_size(&fil);
  100a54:	e595600c 	ldr	r6, [r5, #12]
		 		 printf("File: %s opened successfully \\r\n File Size: %d bytes \r\n", file_name,filesize );
  100a58:	e1a01007 	mov	r1, r7
  100a5c:	e59f007c 	ldr	r0, [pc, #124]	; 100ae0 <ReadBitstream+0xc4>
  100a60:	e1a02006 	mov	r2, r6

		 		 myres = f_lseek(&fil, 0 );

		 		 for (jl=0;jl<(filesize/8); jl++ ){
  100a64:	e1a061a6 	lsr	r6, r6, #3
		// tot_sect / 2, fre_sect / 2);
		 }
		 myres = f_open(&fil, file_name, FA_READ);
		 	 if (myres == FR_OK) {
		 		 filesize= file_size(&fil);
		 		 printf("File: %s opened successfully \\r\n File Size: %d bytes \r\n", file_name,filesize );
  100a68:	eb000fd2 	bl	1049b8 <printf>

		 		 myres = f_lseek(&fil, 0 );
  100a6c:	e1a01004 	mov	r1, r4
  100a70:	e1a00005 	mov	r0, r5
  100a74:	eb0048a4 	bl	112d0c <f_lseek>

		 		 for (jl=0;jl<(filesize/8); jl++ ){
  100a78:	e1540006 	cmp	r4, r6
  100a7c:	0a00000c 	beq	100ab4 <ReadBitstream+0x98>
		 			 myres =  f_read(&fil, (void *)line, 8, &br);
  100a80:	e24b3024 	sub	r3, fp, #36	; 0x24
  100a84:	e3a02008 	mov	r2, #8
  100a88:	e24b1020 	sub	r1, fp, #32
  100a8c:	e1a00005 	mov	r0, r5
  100a90:	eb0046f6 	bl	112670 <f_read>
		 			 memcpy ( &buffer[jl*8], &line[0], 8 );
  100a94:	e51b2028 	ldr	r2, [fp, #-40]	; 0xffffffd8
  100a98:	e24b3020 	sub	r3, fp, #32
  100a9c:	e8b30003 	ldm	r3!, {r0, r1}
  100aa0:	e082c184 	add	ip, r2, r4, lsl #3
  100aa4:	e7820184 	str	r0, [r2, r4, lsl #3]
		 		 filesize= file_size(&fil);
		 		 printf("File: %s opened successfully \\r\n File Size: %d bytes \r\n", file_name,filesize );

		 		 myres = f_lseek(&fil, 0 );

		 		 for (jl=0;jl<(filesize/8); jl++ ){
  100aa8:	e2844001 	add	r4, r4, #1
		 			 myres =  f_read(&fil, (void *)line, 8, &br);
		 			 memcpy ( &buffer[jl*8], &line[0], 8 );
  100aac:	e58c1004 	str	r1, [ip, #4]
  100ab0:	eafffff0 	b	100a78 <ReadBitstream+0x5c>

		 		}

	  			 xil_printf("Bitstream mapped in mem address: 0x%08x\r\n", &buffer);
  100ab4:	e24b1028 	sub	r1, fp, #40	; 0x28
  100ab8:	e59f0024 	ldr	r0, [pc, #36]	; 100ae4 <ReadBitstream+0xc8>
  100abc:	eb000b6f 	bl	103880 <xil_printf>
  100ac0:	ea000001 	b	100acc <ReadBitstream+0xb0>


		 	 } else {
		 		 printf("Fail to open file");
  100ac4:	e59f001c 	ldr	r0, [pc, #28]	; 100ae8 <ReadBitstream+0xcc>
  100ac8:	eb000fba 	bl	1049b8 <printf>

	 } else {
		 printf("Fail to mount media");
	 }

	 myres = f_close(&fil);
  100acc:	e1a00005 	mov	r0, r5
  100ad0:	eb004883 	bl	112ce4 <f_close>


return XST_SUCCESS;
}
  100ad4:	e3a00000 	mov	r0, #0
  100ad8:	e24bd014 	sub	sp, fp, #20
  100adc:	e8bd88f0 	pop	{r4, r5, r6, r7, fp, pc}
  100ae0:	00116f49 	.word	0x00116f49
  100ae4:	00116f81 	.word	0x00116f81
  100ae8:	00116fab 	.word	0x00116fab

00100aec <ScuGic_initialization>:

int ScuGic_initialization(u16 DeviceID){
  100aec:	e92d4070 	push	{r4, r5, r6, lr}
	int Status;

	GicConfig = XScuGic_LookupConfig(DeviceID);
  100af0:	eb0007cd 	bl	102a2c <XScuGic_LookupConfig>
	if (NULL== GicConfig){
  100af4:	e3500000 	cmp	r0, #0
}

int ScuGic_initialization(u16 DeviceID){
	int Status;

	GicConfig = XScuGic_LookupConfig(DeviceID);
  100af8:	e1a01000 	mov	r1, r0
  100afc:	e59f309c 	ldr	r3, [pc, #156]	; 100ba0 <ScuGic_initialization+0xb4>
  100b00:	e5830000 	str	r0, [r3]
	if (NULL== GicConfig){
  100b04:	1a000001 	bne	100b10 <ScuGic_initialization+0x24>
		return XST_FAILURE;
  100b08:	e3a00001 	mov	r0, #1
  100b0c:	e8bd8070 	pop	{r4, r5, r6, pc}
	}

	Status = XScuGic_CfgInitialize(&InterruptController, GicConfig,
  100b10:	e59f408c 	ldr	r4, [pc, #140]	; 100ba4 <ScuGic_initialization+0xb8>
  100b14:	e5902004 	ldr	r2, [r0, #4]
  100b18:	e1a00004 	mov	r0, r4
  100b1c:	eb000537 	bl	102000 <XScuGic_CfgInitialize>
				GicConfig->CpuBaseAddress);
	if (Status != XST_SUCCESS){
  100b20:	e3500000 	cmp	r0, #0
  100b24:	1afffff7 	bne	100b08 <ScuGic_initialization+0x1c>
		return XST_FAILURE;
	}

	Status = XScuGic_SelfTest(&InterruptController);
  100b28:	e1a00004 	mov	r0, r4
  100b2c:	eb000790 	bl	102974 <XScuGic_SelfTest>
	if (Status != XST_SUCCESS){
  100b30:	e3500000 	cmp	r0, #0
  100b34:	1afffff3 	bne	100b08 <ScuGic_initialization+0x1c>
		return XST_FAILURE;
	}
	XScuGic_CPUWriteReg(&InterruptController, XSCUGIC_EOI_OFFSET, INTC_DEVICE_INT_ID);
  100b38:	e5943000 	ldr	r3, [r4]
  100b3c:	e3a0103d 	mov	r1, #61	; 0x3d
  100b40:	e5930004 	ldr	r0, [r3, #4]
  100b44:	e2800010 	add	r0, r0, #16
  100b48:	eb000ab0 	bl	103610 <Xil_Out32>

	Status = SetUpInterruptSystem(&InterruptController);
  100b4c:	e1a00004 	mov	r0, r4
  100b50:	ebffffa6 	bl	1009f0 <SetUpInterruptSystem>
	if (Status != XST_SUCCESS){
  100b54:	e3500000 	cmp	r0, #0
  100b58:	1affffea 	bne	100b08 <ScuGic_initialization+0x1c>
		return XST_FAILURE;
	}
	Status = XScuGic_Connect(&InterruptController, INTC_DEVICE_INT_ID,
  100b5c:	e1a03004 	mov	r3, r4
  100b60:	e59f2040 	ldr	r2, [pc, #64]	; 100ba8 <ScuGic_initialization+0xbc>
  100b64:	e3a0103d 	mov	r1, #61	; 0x3d
  100b68:	e1a00004 	mov	r0, r4
  100b6c:	eb000591 	bl	1021b8 <XScuGic_Connect>
			(Xil_ExceptionHandler)DeviceDriverHandler,
			(void *)&InterruptController  );

	if (Status != XST_SUCCESS){
  100b70:	e2505000 	subs	r5, r0, #0
  100b74:	1affffe3 	bne	100b08 <ScuGic_initialization+0x1c>
		return XST_FAILURE;
	}
	Status = XScuGic_Connect(&InterruptController, DCFG_INTR_ID,
  100b78:	e1a03004 	mov	r3, r4
  100b7c:	e59f2028 	ldr	r2, [pc, #40]	; 100bac <ScuGic_initialization+0xc0>
  100b80:	e3a01028 	mov	r1, #40	; 0x28
  100b84:	e1a00004 	mov	r0, r4
  100b88:	eb00058a 	bl	1021b8 <XScuGic_Connect>
			(Xil_ExceptionHandler)DcfgIntrHandler,
			(void *)&InterruptController  );


	XScuGic_Enable(&InterruptController, INTC_DEVICE_INT_ID);
  100b8c:	e1a00004 	mov	r0, r4
  100b90:	e3a0103d 	mov	r1, #61	; 0x3d
  100b94:	eb0005f3 	bl	102368 <XScuGic_Enable>


	return XST_SUCCESS;
  100b98:	e1a00005 	mov	r0, r5

}
  100b9c:	e8bd8070 	pop	{r4, r5, r6, pc}
  100ba0:	0012004c 	.word	0x0012004c
  100ba4:	00120adc 	.word	0x00120adc
  100ba8:	001008e4 	.word	0x001008e4
  100bac:	00100998 	.word	0x00100998

00100bb0 <XDcfg_Setup_Transfer>:
		//xil_printf("Partial programmed \r\n");
	}
}
int XDcfg_Setup_Transfer(XScuGic *IntcInstPtr, XDcfg * DcfgInstPtr,
				u16 DeviceId, u16 DcfgIntrId, u32 *bitstream)
{
  100bb0:	e92d43f7 	push	{r0, r1, r2, r4, r5, r6, r7, r8, r9, lr}
  100bb4:	e1a05002 	mov	r5, r2
  100bb8:	e1a04001 	mov	r4, r1
  100bbc:	e1a08000 	mov	r8, r0
  100bc0:	e1a09003 	mov	r9, r3
	u32 StatusReg;
	u32 PartialCfg = 0;

	XDcfg_Config *ConfigPtr;

	xil_printf("XDcfg_Setup_Transfer par_bitstream_1 buffer 0x%08x \r\n",   (u32 *)bitstream);
  100bc4:	e59d1028 	ldr	r1, [sp, #40]	; 0x28
  100bc8:	e59f01b8 	ldr	r0, [pc, #440]	; 100d88 <XDcfg_Setup_Transfer+0x1d8>
  100bcc:	eb000b2b 	bl	103880 <xil_printf>


	  //
	 // Initialize the Device Configuration Interface driver.
	 //
	ConfigPtr = XDcfg_LookupConfig(DeviceId);
  100bd0:	e1a00005 	mov	r0, r5
  100bd4:	eb0004ee 	bl	101f94 <XDcfg_LookupConfig>
  100bd8:	e1a05000 	mov	r5, r0

	  //
	 // This is where the virtual address would be used, this example
	 // uses physical address.
	 //
	xil_printf("1 \r\n");
  100bdc:	e59f01a8 	ldr	r0, [pc, #424]	; 100d8c <XDcfg_Setup_Transfer+0x1dc>
  100be0:	eb000b26 	bl	103880 <xil_printf>
	Status = XDcfg_CfgInitialize(DcfgInstPtr, ConfigPtr,
  100be4:	e5952004 	ldr	r2, [r5, #4]
  100be8:	e1a01005 	mov	r1, r5
  100bec:	e1a00004 	mov	r0, r4
  100bf0:	eb0000a5 	bl	100e8c <XDcfg_CfgInitialize>
					ConfigPtr->BaseAddr);
	if (Status != XST_SUCCESS) {
  100bf4:	e3500000 	cmp	r0, #0
  100bf8:	0a000001 	beq	100c04 <XDcfg_Setup_Transfer+0x54>
		return XST_FAILURE;
  100bfc:	e3a00001 	mov	r0, #1
  100c00:	ea00005e 	b	100d80 <XDcfg_Setup_Transfer+0x1d0>
	}
	xil_printf("2 \r\n");
  100c04:	e59f0184 	ldr	r0, [pc, #388]	; 100d90 <XDcfg_Setup_Transfer+0x1e0>
  100c08:	eb000b1c 	bl	103880 <xil_printf>
	Status = XDcfg_SelfTest(DcfgInstPtr);
  100c0c:	e1a00004 	mov	r0, r4
  100c10:	eb0004b3 	bl	101ee4 <XDcfg_SelfTest>
	if (Status != XST_SUCCESS) {
  100c14:	e2505000 	subs	r5, r0, #0
  100c18:	1afffff7 	bne	100bfc <XDcfg_Setup_Transfer+0x4c>
	 //
    //Status = SetupInterruptSystem(IntcInstPtr, DcfgInstPtr, DcfgIntrId);
	//if (Status != XST_SUCCESS) {
	//	return XST_FAILURE;
	//}
	xil_printf("3 \r\n");
  100c1c:	e59f0170 	ldr	r0, [pc, #368]	; 100d94 <XDcfg_Setup_Transfer+0x1e4>
  100c20:	eb000b16 	bl	103880 <xil_printf>
	XScuGic_Enable(&InterruptController, DCFG_INTR_ID);
  100c24:	e3a01028 	mov	r1, #40	; 0x28
  100c28:	e59f0168 	ldr	r0, [pc, #360]	; 100d98 <XDcfg_Setup_Transfer+0x1e8>
  100c2c:	eb0005cd 	bl	102368 <XScuGic_Enable>

	//XDcfg_SetHandler(DcfgInstPtr, (void *)DcfgIntrHandler, DcfgInstPtr);

	DmaDone = FALSE;
  100c30:	e59f7164 	ldr	r7, [pc, #356]	; 100d9c <XDcfg_Setup_Transfer+0x1ec>
	DmaPcapDone = FALSE;
	FpgaProgrammed = FALSE;
  100c34:	e59f3164 	ldr	r3, [pc, #356]	; 100da0 <XDcfg_Setup_Transfer+0x1f0>
	XScuGic_Enable(&InterruptController, DCFG_INTR_ID);

	//XDcfg_SetHandler(DcfgInstPtr, (void *)DcfgIntrHandler, DcfgInstPtr);

	DmaDone = FALSE;
	DmaPcapDone = FALSE;
  100c38:	e59f6164 	ldr	r6, [pc, #356]	; 100da4 <XDcfg_Setup_Transfer+0x1f4>
	FpgaProgrammed = FALSE;

	//
	 // Check first time configuration or partial reconfiguration
	 //
	xil_printf("4 \r\n");
  100c3c:	e59f0164 	ldr	r0, [pc, #356]	; 100da8 <XDcfg_Setup_Transfer+0x1f8>
	xil_printf("3 \r\n");
	XScuGic_Enable(&InterruptController, DCFG_INTR_ID);

	//XDcfg_SetHandler(DcfgInstPtr, (void *)DcfgIntrHandler, DcfgInstPtr);

	DmaDone = FALSE;
  100c40:	e5875000 	str	r5, [r7]
	DmaPcapDone = FALSE;
  100c44:	e5865000 	str	r5, [r6]
	FpgaProgrammed = FALSE;
  100c48:	e5835000 	str	r5, [r3]

	//
	 // Check first time configuration or partial reconfiguration
	 //
	xil_printf("4 \r\n");
  100c4c:	eb000b0b 	bl	103880 <xil_printf>
	IntrStsReg = XDcfg_IntrGetStatus(DcfgInstPtr);
  100c50:	e1a00004 	mov	r0, r4
  100c54:	eb000410 	bl	101c9c <XDcfg_IntrGetStatus>
	if (IntrStsReg & XDCFG_IXR_DMA_DONE_MASK) {
		PartialCfg = 1;
	}
	PartialCfg = 1;
	if (PartialCfg==1){
		xil_printf("IS PARTIAL \r\n");
  100c58:	e59f014c 	ldr	r0, [pc, #332]	; 100dac <XDcfg_Setup_Transfer+0x1fc>
  100c5c:	eb000b07 	bl	103880 <xil_printf>
		xil_printf("NOT Partial \r\n");
	}
	//
	 // Enable the pcap clock.
	 //
	xil_printf("5 \r\n");
  100c60:	e59f0148 	ldr	r0, [pc, #328]	; 100db0 <XDcfg_Setup_Transfer+0x200>
  100c64:	eb000b05 	bl	103880 <xil_printf>
	StatusReg = Xil_In32(SLCR_PCAP_CLK_CTRL);
  100c68:	e59f0144 	ldr	r0, [pc, #324]	; 100db4 <XDcfg_Setup_Transfer+0x204>
  100c6c:	eb000a61 	bl	1035f8 <Xil_In32>
	if (!(StatusReg & SLCR_PCAP_CLK_CTRL_EN_MASK)) {
  100c70:	e3100001 	tst	r0, #1
	}
	//
	 // Enable the pcap clock.
	 //
	xil_printf("5 \r\n");
	StatusReg = Xil_In32(SLCR_PCAP_CLK_CTRL);
  100c74:	e1a05000 	mov	r5, r0
	if (!(StatusReg & SLCR_PCAP_CLK_CTRL_EN_MASK)) {
  100c78:	1a000008 	bne	100ca0 <XDcfg_Setup_Transfer+0xf0>
		Xil_Out32(SLCR_UNLOCK, SLCR_UNLOCK_VAL);
  100c7c:	e30d1f0d 	movw	r1, #57101	; 0xdf0d
  100c80:	e59f0130 	ldr	r0, [pc, #304]	; 100db8 <XDcfg_Setup_Transfer+0x208>
  100c84:	eb000a61 	bl	103610 <Xil_Out32>
		Xil_Out32(SLCR_PCAP_CLK_CTRL,
  100c88:	e3851001 	orr	r1, r5, #1
  100c8c:	e59f0120 	ldr	r0, [pc, #288]	; 100db4 <XDcfg_Setup_Transfer+0x204>
  100c90:	eb000a5e 	bl	103610 <Xil_Out32>
				(StatusReg | SLCR_PCAP_CLK_CTRL_EN_MASK));
		Xil_Out32(SLCR_UNLOCK, SLCR_LOCK_VAL);
  100c94:	e307167b 	movw	r1, #30331	; 0x767b
  100c98:	e59f0118 	ldr	r0, [pc, #280]	; 100db8 <XDcfg_Setup_Transfer+0x208>
  100c9c:	eb000a5b 	bl	103610 <Xil_Out32>
	}

	//
	 // Disable the level-shifters from PS to PL.
	 //
	xil_printf("6 \r\n");
  100ca0:	e59f0114 	ldr	r0, [pc, #276]	; 100dbc <XDcfg_Setup_Transfer+0x20c>
  100ca4:	eb000af5 	bl	103880 <xil_printf>
	}

	//
	 // Select PCAP interface for partial reconfiguration
	 //
	xil_printf("7 \r\n");
  100ca8:	e59f0110 	ldr	r0, [pc, #272]	; 100dc0 <XDcfg_Setup_Transfer+0x210>
  100cac:	eb000af3 	bl	103880 <xil_printf>
	if (PartialCfg) {
		XDcfg_EnablePCAP(DcfgInstPtr);
  100cb0:	e1a00004 	mov	r0, r4
  100cb4:	eb0000a4 	bl	100f4c <XDcfg_EnablePCAP>
		XDcfg_SetControlRegister(DcfgInstPtr, XDCFG_CTRL_PCAP_PR_MASK);
  100cb8:	e3a01302 	mov	r1, #134217728	; 0x8000000
  100cbc:	e1a00004 	mov	r0, r4
  100cc0:	eb0000e5 	bl	10105c <XDcfg_SetControlRegister>
	}

	//
	 //Clear the interrupt status bits
	//
	xil_printf("8 \r\n");
  100cc4:	e59f00f8 	ldr	r0, [pc, #248]	; 100dc4 <XDcfg_Setup_Transfer+0x214>
  100cc8:	eb000aec 	bl	103880 <xil_printf>
	XDcfg_IntrClear(DcfgInstPtr, (XDCFG_IXR_PCFG_DONE_MASK |
  100ccc:	e3031004 	movw	r1, #12292	; 0x3004
  100cd0:	e1a00004 	mov	r0, r4
  100cd4:	eb000411 	bl	101d20 <XDcfg_IntrClear>
					XDCFG_IXR_D_P_DONE_MASK |
					XDCFG_IXR_DMA_DONE_MASK));

	// Check if DMA command queue is full */
	StatusReg = XDcfg_ReadReg(DcfgInstPtr->Config.BaseAddr,
  100cd8:	e5940004 	ldr	r0, [r4, #4]
  100cdc:	e2800014 	add	r0, r0, #20
  100ce0:	eb000a44 	bl	1035f8 <Xil_In32>
  100ce4:	e1a05000 	mov	r5, r0
				XDCFG_STATUS_OFFSET);
	xil_printf("9 \r\n");
  100ce8:	e59f00d8 	ldr	r0, [pc, #216]	; 100dc8 <XDcfg_Setup_Transfer+0x218>
  100cec:	eb000ae3 	bl	103880 <xil_printf>
	if ((StatusReg & XDCFG_STATUS_DMA_CMD_Q_F_MASK) ==
  100cf0:	e3550000 	cmp	r5, #0
  100cf4:	baffffc0 	blt	100bfc <XDcfg_Setup_Transfer+0x4c>
			XDCFG_STATUS_DMA_CMD_Q_F_MASK) {
		return XST_FAILURE;
	}
	xil_printf("10 \r\n");
  100cf8:	e59f00cc 	ldr	r0, [pc, #204]	; 100dcc <XDcfg_Setup_Transfer+0x21c>
  100cfc:	eb000adf 	bl	103880 <xil_printf>
	///
	// Enable the DMA done, DMA_PCAP Done and PCFG Done interrupts.
	 //
	XDcfg_IntrEnable(DcfgInstPtr, (XDCFG_IXR_DMA_DONE_MASK |
  100d00:	e3031004 	movw	r1, #12292	; 0x3004
  100d04:	e1a00004 	mov	r0, r4
  100d08:	eb000368 	bl	101ab0 <XDcfg_IntrEnable>
					XDCFG_IXR_PCFG_DONE_MASK));




	xil_printf("11 \r\n");
  100d0c:	e59f00bc 	ldr	r0, [pc, #188]	; 100dd0 <XDcfg_Setup_Transfer+0x220>
  100d10:	eb000ada 	bl	103880 <xil_printf>

	//
	//Download bitstream in non secure mode
	 ///
	XDcfg_Transfer(DcfgInstPtr, (u32 *)(bitstream),
  100d14:	e3a02000 	mov	r2, #0
  100d18:	e3a03001 	mov	r3, #1
  100d1c:	e88d000c 	stm	sp, {r2, r3}
  100d20:	e1a00004 	mov	r0, r4
  100d24:	e3e03000 	mvn	r3, #0
  100d28:	e59f20a4 	ldr	r2, [pc, #164]	; 100dd4 <XDcfg_Setup_Transfer+0x224>
  100d2c:	e59d1028 	ldr	r1, [sp, #40]	; 0x28
  100d30:	eb0002be 	bl	101830 <XDcfg_Transfer>
			BIT_STREAM_SIZE_WORDS,
			(u8 *)XDCFG_DMA_INVALID_ADDRESS,
			0, XDCFG_NON_SECURE_PCAP_WRITE);

	while (!DmaDone);
  100d34:	e5973000 	ldr	r3, [r7]
  100d38:	e3530000 	cmp	r3, #0
  100d3c:	0afffffc 	beq	100d34 <XDcfg_Setup_Transfer+0x184>
	//xil_printf("12 \r\n");
	if (PartialCfg) {
		while (!DmaPcapDone);
  100d40:	e5963000 	ldr	r3, [r6]
  100d44:	e3530000 	cmp	r3, #0
  100d48:	0afffffc 	beq	100d40 <XDcfg_Setup_Transfer+0x190>
		Xil_Out32(SLCR_LVL_SHFTR_EN, 0xF);
		Xil_Out32(SLCR_LOCK, SLCR_LOCK_VAL);
	}

	Status = XST_SUCCESS;
	xil_printf("14 \r\n");
  100d4c:	e59f0084 	ldr	r0, [pc, #132]	; 100dd8 <XDcfg_Setup_Transfer+0x228>
  100d50:	eb000aca 	bl	103880 <xil_printf>
	XDcfg_IntrDisable(DcfgInstPtr, (XDCFG_IXR_DMA_DONE_MASK |
  100d54:	e3031004 	movw	r1, #12292	; 0x3004
  100d58:	e1a00004 	mov	r0, r4
  100d5c:	eb00037f 	bl	101b60 <XDcfg_IntrDisable>
					XDCFG_IXR_D_P_DONE_MASK |
					XDCFG_IXR_PCFG_DONE_MASK));

	xil_printf("15 \r\n");
  100d60:	e59f0074 	ldr	r0, [pc, #116]	; 100ddc <XDcfg_Setup_Transfer+0x22c>
  100d64:	eb000ac5 	bl	103880 <xil_printf>
	XScuGic_Disable(IntcInstPtr, DcfgIntrId);
  100d68:	e1a01009 	mov	r1, r9
  100d6c:	e1a00008 	mov	r0, r8
  100d70:	eb0005ab 	bl	102424 <XScuGic_Disable>
	xil_printf("16 \r\n");
  100d74:	e59f0064 	ldr	r0, [pc, #100]	; 100de0 <XDcfg_Setup_Transfer+0x230>
  100d78:	eb000ac0 	bl	103880 <xil_printf>
	//XScuGic_Disconnect(IntcInstPtr, DcfgIntrId);

	return Status;
  100d7c:	e3a00000 	mov	r0, #0
}
  100d80:	e28dd00c 	add	sp, sp, #12
  100d84:	e8bd83f0 	pop	{r4, r5, r6, r7, r8, r9, pc}
  100d88:	00116fd1 	.word	0x00116fd1
  100d8c:	00117035 	.word	0x00117035
  100d90:	00117007 	.word	0x00117007
  100d94:	0011700c 	.word	0x0011700c
  100d98:	00120adc 	.word	0x00120adc
  100d9c:	00120048 	.word	0x00120048
  100da0:	00120040 	.word	0x00120040
  100da4:	00120044 	.word	0x00120044
  100da8:	0011703b 	.word	0x0011703b
  100dac:	00117011 	.word	0x00117011
  100db0:	00117041 	.word	0x00117041
  100db4:	f8000168 	.word	0xf8000168
  100db8:	f8000008 	.word	0xf8000008
  100dbc:	00117047 	.word	0x00117047
  100dc0:	0011701f 	.word	0x0011701f
  100dc4:	00117024 	.word	0x00117024
  100dc8:	00117029 	.word	0x00117029
  100dcc:	0011702e 	.word	0x0011702e
  100dd0:	00117034 	.word	0x00117034
  100dd4:	00010b0c 	.word	0x00010b0c
  100dd8:	0011703a 	.word	0x0011703a
  100ddc:	00117040 	.word	0x00117040
  100de0:	00117046 	.word	0x00117046

00100de4 <Do_DPR2>:


int Do_DPR2(int config, char *bitstream_1, char *bitstream_2, char *bitstream_3){
  100de4:	e92d40f7 	push	{r0, r1, r2, r4, r5, r6, r7, lr}
  100de8:	e1a06002 	mov	r6, r2
  100dec:	e1a04000 	mov	r4, r0
	int Status=0;


	xil_printf("Do_DPR par_bitstream_1 buffer 0x%08x \r\n",   (u32 *)bitstream_1);
  100df0:	e59f0078 	ldr	r0, [pc, #120]	; 100e70 <Do_DPR2+0x8c>

	return Status;
}


int Do_DPR2(int config, char *bitstream_1, char *bitstream_2, char *bitstream_3){
  100df4:	e1a05003 	mov	r5, r3
  100df8:	e1a07001 	mov	r7, r1
	int Status=0;


	xil_printf("Do_DPR par_bitstream_1 buffer 0x%08x \r\n",   (u32 *)bitstream_1);
  100dfc:	eb000a9f 	bl	103880 <xil_printf>
	xil_printf("Do_DPR par_bitstream_2 buffer 0x%08x \r\n",   (u32 *)bitstream_2);
  100e00:	e1a01006 	mov	r1, r6
  100e04:	e59f0068 	ldr	r0, [pc, #104]	; 100e74 <Do_DPR2+0x90>
  100e08:	eb000a9c 	bl	103880 <xil_printf>
	xil_printf("Do_DPR par_bitstream_3 buffer 0x%08x \r\n",   (u32 *)bitstream_3);
  100e0c:	e1a01005 	mov	r1, r5
  100e10:	e59f0060 	ldr	r0, [pc, #96]	; 100e78 <Do_DPR2+0x94>
  100e14:	eb000a99 	bl	103880 <xil_printf>

	if (config==1){
  100e18:	e3540001 	cmp	r4, #1
	  Status =  XDcfg_Setup_Transfer(&InterruptController, &DcfgInstance,DCFG_DEVICE_ID, DCFG_INTR_ID,   (u32 *) bitstream_1);
  100e1c:	058d7000 	streq	r7, [sp]

	xil_printf("Do_DPR par_bitstream_1 buffer 0x%08x \r\n",   (u32 *)bitstream_1);
	xil_printf("Do_DPR par_bitstream_2 buffer 0x%08x \r\n",   (u32 *)bitstream_2);
	xil_printf("Do_DPR par_bitstream_3 buffer 0x%08x \r\n",   (u32 *)bitstream_3);

	if (config==1){
  100e20:	0a000002 	beq	100e30 <Do_DPR2+0x4c>
	  Status =  XDcfg_Setup_Transfer(&InterruptController, &DcfgInstance,DCFG_DEVICE_ID, DCFG_INTR_ID,   (u32 *) bitstream_1);
	  current_partial=1;
	} else if (config==2){
  100e24:	e3540002 	cmp	r4, #2
  100e28:	1a000008 	bne	100e50 <Do_DPR2+0x6c>
     Status =  XDcfg_Setup_Transfer(&InterruptController, &DcfgInstance,DCFG_DEVICE_ID, DCFG_INTR_ID,   (u32 *)bitstream_2);
  100e2c:	e58d6000 	str	r6, [sp]
  100e30:	e3a03028 	mov	r3, #40	; 0x28
  100e34:	e3a02000 	mov	r2, #0
  100e38:	e59f103c 	ldr	r1, [pc, #60]	; 100e7c <Do_DPR2+0x98>
  100e3c:	e59f003c 	ldr	r0, [pc, #60]	; 100e80 <Do_DPR2+0x9c>
  100e40:	ebffff5a 	bl	100bb0 <XDcfg_Setup_Transfer>
     current_partial=2;
  100e44:	e59f3038 	ldr	r3, [pc, #56]	; 100e84 <Do_DPR2+0xa0>
  100e48:	e5834000 	str	r4, [r3]
  100e4c:	ea000005 	b	100e68 <Do_DPR2+0x84>
	} else if (config==3) {
  100e50:	e3540003 	cmp	r4, #3
     Status =  XDcfg_Setup_Transfer(&InterruptController, &DcfgInstance,DCFG_DEVICE_ID, DCFG_INTR_ID,   (u32 *) bitstream_3);
  100e54:	058d5000 	streq	r5, [sp]
	  Status =  XDcfg_Setup_Transfer(&InterruptController, &DcfgInstance,DCFG_DEVICE_ID, DCFG_INTR_ID,   (u32 *) bitstream_1);
	  current_partial=1;
	} else if (config==2){
     Status =  XDcfg_Setup_Transfer(&InterruptController, &DcfgInstance,DCFG_DEVICE_ID, DCFG_INTR_ID,   (u32 *)bitstream_2);
     current_partial=2;
	} else if (config==3) {
  100e58:	0afffff4 	beq	100e30 <Do_DPR2+0x4c>
     Status =  XDcfg_Setup_Transfer(&InterruptController, &DcfgInstance,DCFG_DEVICE_ID, DCFG_INTR_ID,   (u32 *) bitstream_3);
     current_partial=3;
	} else {
	xil_printf("Not conf available\r\n");
  100e5c:	e59f0024 	ldr	r0, [pc, #36]	; 100e88 <Do_DPR2+0xa4>
  100e60:	eb000a86 	bl	103880 <xil_printf>
	return Status;
}


int Do_DPR2(int config, char *bitstream_1, char *bitstream_2, char *bitstream_3){
	int Status=0;
  100e64:	e3a00000 	mov	r0, #0
	} else {
	xil_printf("Not conf available\r\n");
	}

	return Status;
}
  100e68:	e28dd00c 	add	sp, sp, #12
  100e6c:	e8bd80f0 	pop	{r4, r5, r6, r7, pc}
  100e70:	0011704c 	.word	0x0011704c
  100e74:	00117074 	.word	0x00117074
  100e78:	0011709c 	.word	0x0011709c
  100e7c:	00120ac0 	.word	0x00120ac0
  100e80:	00120adc 	.word	0x00120adc
  100e84:	00117318 	.word	0x00117318
  100e88:	001170c4 	.word	0x001170c4

00100e8c <XDcfg_CfgInitialize>:
  100e8c:	e92d41f0 	push	{r4, r5, r6, r7, r8, lr}
  100e90:	e2506000 	subs	r6, r0, #0
  100e94:	0a00001a 	beq	100f04 <XDcfg_CfgInitialize+0x78>
  100e98:	e3005aec 	movw	r5, #2796	; 0xaec
  100e9c:	e3510000 	cmp	r1, #0
  100ea0:	e3405012 	movt	r5, #18
  100ea4:	e3a04000 	mov	r4, #0
  100ea8:	e1a07001 	mov	r7, r1
  100eac:	e5854000 	str	r4, [r5]
  100eb0:	0a00001d 	beq	100f2c <XDcfg_CfgInitialize+0xa0>
  100eb4:	e596100c 	ldr	r1, [r6, #12]
  100eb8:	e3023222 	movw	r3, #8738	; 0x2222
  100ebc:	e3423222 	movt	r3, #8738	; 0x2222
  100ec0:	e1510003 	cmp	r1, r3
  100ec4:	1a000001 	bne	100ed0 <XDcfg_CfgInitialize+0x44>
  100ec8:	e3a00005 	mov	r0, #5
  100ecc:	e8bd81f0 	pop	{r4, r5, r6, r7, r8, pc}
  100ed0:	e1d730b0 	ldrh	r3, [r7]
  100ed4:	e30d1f0d 	movw	r1, #57101	; 0xdf0d
  100ed8:	e2820034 	add	r0, r2, #52	; 0x34
  100edc:	e5862004 	str	r2, [r6, #4]
  100ee0:	e586400c 	str	r4, [r6, #12]
  100ee4:	e347157b 	movt	r1, #30075	; 0x757b
  100ee8:	e1c630b0 	strh	r3, [r6]
  100eec:	eb0009c7 	bl	103610 <Xil_Out32>
  100ef0:	e3013111 	movw	r3, #4369	; 0x1111
  100ef4:	e1a00004 	mov	r0, r4
  100ef8:	e7df3813 	bfi	r3, r3, #16, #16
  100efc:	e5863008 	str	r3, [r6, #8]
  100f00:	e8bd81f0 	pop	{r4, r5, r6, r7, r8, pc}
  100f04:	e30700dc 	movw	r0, #28892	; 0x70dc
  100f08:	e3a01089 	mov	r1, #137	; 0x89
  100f0c:	e3400011 	movt	r0, #17
  100f10:	eb000712 	bl	102b60 <Xil_Assert>
  100f14:	e3003aec 	movw	r3, #2796	; 0xaec
  100f18:	e3a02001 	mov	r2, #1
  100f1c:	e3403012 	movt	r3, #18
  100f20:	e1a00006 	mov	r0, r6
  100f24:	e5832000 	str	r2, [r3]
  100f28:	e8bd81f0 	pop	{r4, r5, r6, r7, r8, pc}
  100f2c:	e30700dc 	movw	r0, #28892	; 0x70dc
  100f30:	e3a0108a 	mov	r1, #138	; 0x8a
  100f34:	e3400011 	movt	r0, #17
  100f38:	eb000708 	bl	102b60 <Xil_Assert>
  100f3c:	e3a03001 	mov	r3, #1
  100f40:	e1a00007 	mov	r0, r7
  100f44:	e5853000 	str	r3, [r5]
  100f48:	e8bd81f0 	pop	{r4, r5, r6, r7, r8, pc}

00100f4c <XDcfg_EnablePCAP>:
  100f4c:	e92d4070 	push	{r4, r5, r6, lr}
  100f50:	e2505000 	subs	r5, r0, #0
  100f54:	0a000015 	beq	100fb0 <XDcfg_EnablePCAP+0x64>
  100f58:	e5951008 	ldr	r1, [r5, #8]
  100f5c:	e3013111 	movw	r3, #4369	; 0x1111
  100f60:	e3413111 	movt	r3, #4369	; 0x1111
  100f64:	e3004aec 	movw	r4, #2796	; 0xaec
  100f68:	e3404012 	movt	r4, #18
  100f6c:	e3a02000 	mov	r2, #0
  100f70:	e1510003 	cmp	r1, r3
  100f74:	e5842000 	str	r2, [r4]
  100f78:	0a000006 	beq	100f98 <XDcfg_EnablePCAP+0x4c>
  100f7c:	e30700dc 	movw	r0, #28892	; 0x70dc
  100f80:	e3a010c5 	mov	r1, #197	; 0xc5
  100f84:	e3400011 	movt	r0, #17
  100f88:	eb0006f4 	bl	102b60 <Xil_Assert>
  100f8c:	e3a03001 	mov	r3, #1
  100f90:	e5843000 	str	r3, [r4]
  100f94:	e8bd8070 	pop	{r4, r5, r6, pc}
  100f98:	e5950004 	ldr	r0, [r5, #4]
  100f9c:	eb000995 	bl	1035f8 <Xil_In32>
  100fa0:	e3801301 	orr	r1, r0, #67108864	; 0x4000000
  100fa4:	e5950004 	ldr	r0, [r5, #4]
  100fa8:	e8bd4070 	pop	{r4, r5, r6, lr}
  100fac:	ea000997 	b	103610 <Xil_Out32>
  100fb0:	e30700dc 	movw	r0, #28892	; 0x70dc
  100fb4:	e3a010c4 	mov	r1, #196	; 0xc4
  100fb8:	e3400011 	movt	r0, #17
  100fbc:	eb0006e7 	bl	102b60 <Xil_Assert>
  100fc0:	e3003aec 	movw	r3, #2796	; 0xaec
  100fc4:	e3a02001 	mov	r2, #1
  100fc8:	e3403012 	movt	r3, #18
  100fcc:	e5832000 	str	r2, [r3]
  100fd0:	e8bd8070 	pop	{r4, r5, r6, pc}

00100fd4 <XDcfg_DisablePCAP>:
  100fd4:	e92d4070 	push	{r4, r5, r6, lr}
  100fd8:	e2505000 	subs	r5, r0, #0
  100fdc:	0a000015 	beq	101038 <XDcfg_DisablePCAP+0x64>
  100fe0:	e5951008 	ldr	r1, [r5, #8]
  100fe4:	e3013111 	movw	r3, #4369	; 0x1111
  100fe8:	e3413111 	movt	r3, #4369	; 0x1111
  100fec:	e3004aec 	movw	r4, #2796	; 0xaec
  100ff0:	e3404012 	movt	r4, #18
  100ff4:	e3a02000 	mov	r2, #0
  100ff8:	e1510003 	cmp	r1, r3
  100ffc:	e5842000 	str	r2, [r4]
  101000:	0a000006 	beq	101020 <XDcfg_DisablePCAP+0x4c>
  101004:	e30700dc 	movw	r0, #28892	; 0x70dc
  101008:	e3a010e4 	mov	r1, #228	; 0xe4
  10100c:	e3400011 	movt	r0, #17
  101010:	eb0006d2 	bl	102b60 <Xil_Assert>
  101014:	e3a03001 	mov	r3, #1
  101018:	e5843000 	str	r3, [r4]
  10101c:	e8bd8070 	pop	{r4, r5, r6, pc}
  101020:	e5950004 	ldr	r0, [r5, #4]
  101024:	eb000973 	bl	1035f8 <Xil_In32>
  101028:	e3c01301 	bic	r1, r0, #67108864	; 0x4000000
  10102c:	e5950004 	ldr	r0, [r5, #4]
  101030:	e8bd4070 	pop	{r4, r5, r6, lr}
  101034:	ea000975 	b	103610 <Xil_Out32>
  101038:	e30700dc 	movw	r0, #28892	; 0x70dc
  10103c:	e3a010e3 	mov	r1, #227	; 0xe3
  101040:	e3400011 	movt	r0, #17
  101044:	eb0006c5 	bl	102b60 <Xil_Assert>
  101048:	e3003aec 	movw	r3, #2796	; 0xaec
  10104c:	e3a02001 	mov	r2, #1
  101050:	e3403012 	movt	r3, #18
  101054:	e5832000 	str	r2, [r3]
  101058:	e8bd8070 	pop	{r4, r5, r6, pc}

0010105c <XDcfg_SetControlRegister>:
  10105c:	e92d4030 	push	{r4, r5, lr}
  101060:	e2505000 	subs	r5, r0, #0
  101064:	e24dd00c 	sub	sp, sp, #12
  101068:	0a000019 	beq	1010d4 <XDcfg_SetControlRegister+0x78>
  10106c:	e5950008 	ldr	r0, [r5, #8]
  101070:	e3013111 	movw	r3, #4369	; 0x1111
  101074:	e3413111 	movt	r3, #4369	; 0x1111
  101078:	e3004aec 	movw	r4, #2796	; 0xaec
  10107c:	e3404012 	movt	r4, #18
  101080:	e3a02000 	mov	r2, #0
  101084:	e1500003 	cmp	r0, r3
  101088:	e5842000 	str	r2, [r4]
  10108c:	0a000007 	beq	1010b0 <XDcfg_SetControlRegister+0x54>
  101090:	e30700dc 	movw	r0, #28892	; 0x70dc
  101094:	e3a01f41 	mov	r1, #260	; 0x104
  101098:	e3400011 	movt	r0, #17
  10109c:	eb0006af 	bl	102b60 <Xil_Assert>
  1010a0:	e3a03001 	mov	r3, #1
  1010a4:	e5843000 	str	r3, [r4]
  1010a8:	e28dd00c 	add	sp, sp, #12
  1010ac:	e8bd8030 	pop	{r4, r5, pc}
  1010b0:	e5950004 	ldr	r0, [r5, #4]
  1010b4:	e58d1004 	str	r1, [sp, #4]
  1010b8:	eb00094e 	bl	1035f8 <Xil_In32>
  1010bc:	e59d1004 	ldr	r1, [sp, #4]
  1010c0:	e1801001 	orr	r1, r0, r1
  1010c4:	e5950004 	ldr	r0, [r5, #4]
  1010c8:	e28dd00c 	add	sp, sp, #12
  1010cc:	e8bd4030 	pop	{r4, r5, lr}
  1010d0:	ea00094e 	b	103610 <Xil_Out32>
  1010d4:	e30700dc 	movw	r0, #28892	; 0x70dc
  1010d8:	e3001103 	movw	r1, #259	; 0x103
  1010dc:	e3400011 	movt	r0, #17
  1010e0:	eb00069e 	bl	102b60 <Xil_Assert>
  1010e4:	e3003aec 	movw	r3, #2796	; 0xaec
  1010e8:	e3a02001 	mov	r2, #1
  1010ec:	e3403012 	movt	r3, #18
  1010f0:	e5832000 	str	r2, [r3]
  1010f4:	eaffffeb 	b	1010a8 <XDcfg_SetControlRegister+0x4c>

001010f8 <XDcfg_ClearControlRegister>:
  1010f8:	e92d4030 	push	{r4, r5, lr}
  1010fc:	e2505000 	subs	r5, r0, #0
  101100:	e24dd00c 	sub	sp, sp, #12
  101104:	0a000019 	beq	101170 <XDcfg_ClearControlRegister+0x78>
  101108:	e5950008 	ldr	r0, [r5, #8]
  10110c:	e3013111 	movw	r3, #4369	; 0x1111
  101110:	e3413111 	movt	r3, #4369	; 0x1111
  101114:	e3004aec 	movw	r4, #2796	; 0xaec
  101118:	e3404012 	movt	r4, #18
  10111c:	e3a02000 	mov	r2, #0
  101120:	e1500003 	cmp	r0, r3
  101124:	e5842000 	str	r2, [r4]
  101128:	0a000007 	beq	10114c <XDcfg_ClearControlRegister+0x54>
  10112c:	e30700dc 	movw	r0, #28892	; 0x70dc
  101130:	e3001123 	movw	r1, #291	; 0x123
  101134:	e3400011 	movt	r0, #17
  101138:	eb000688 	bl	102b60 <Xil_Assert>
  10113c:	e3a03001 	mov	r3, #1
  101140:	e5843000 	str	r3, [r4]
  101144:	e28dd00c 	add	sp, sp, #12
  101148:	e8bd8030 	pop	{r4, r5, pc}
  10114c:	e5950004 	ldr	r0, [r5, #4]
  101150:	e58d1004 	str	r1, [sp, #4]
  101154:	eb000927 	bl	1035f8 <Xil_In32>
  101158:	e59d1004 	ldr	r1, [sp, #4]
  10115c:	e1c01001 	bic	r1, r0, r1
  101160:	e5950004 	ldr	r0, [r5, #4]
  101164:	e28dd00c 	add	sp, sp, #12
  101168:	e8bd4030 	pop	{r4, r5, lr}
  10116c:	ea000927 	b	103610 <Xil_Out32>
  101170:	e30700dc 	movw	r0, #28892	; 0x70dc
  101174:	e3001122 	movw	r1, #290	; 0x122
  101178:	e3400011 	movt	r0, #17
  10117c:	eb000677 	bl	102b60 <Xil_Assert>
  101180:	e3003aec 	movw	r3, #2796	; 0xaec
  101184:	e3a02001 	mov	r2, #1
  101188:	e3403012 	movt	r3, #18
  10118c:	e5832000 	str	r2, [r3]
  101190:	eaffffeb 	b	101144 <XDcfg_ClearControlRegister+0x4c>

00101194 <XDcfg_GetControlRegister>:
  101194:	e3500000 	cmp	r0, #0
  101198:	e92d4010 	push	{r4, lr}
  10119c:	0a000013 	beq	1011f0 <XDcfg_GetControlRegister+0x5c>
  1011a0:	e5901008 	ldr	r1, [r0, #8]
  1011a4:	e3013111 	movw	r3, #4369	; 0x1111
  1011a8:	e3413111 	movt	r3, #4369	; 0x1111
  1011ac:	e3004aec 	movw	r4, #2796	; 0xaec
  1011b0:	e3404012 	movt	r4, #18
  1011b4:	e3a02000 	mov	r2, #0
  1011b8:	e1510003 	cmp	r1, r3
  1011bc:	e5842000 	str	r2, [r4]
  1011c0:	0a000007 	beq	1011e4 <XDcfg_GetControlRegister+0x50>
  1011c4:	e30700dc 	movw	r0, #28892	; 0x70dc
  1011c8:	e3001143 	movw	r1, #323	; 0x143
  1011cc:	e3400011 	movt	r0, #17
  1011d0:	eb000662 	bl	102b60 <Xil_Assert>
  1011d4:	e3a03001 	mov	r3, #1
  1011d8:	e5843000 	str	r3, [r4]
  1011dc:	e3a00000 	mov	r0, #0
  1011e0:	e8bd8010 	pop	{r4, pc}
  1011e4:	e5900004 	ldr	r0, [r0, #4]
  1011e8:	e8bd4010 	pop	{r4, lr}
  1011ec:	ea000901 	b	1035f8 <Xil_In32>
  1011f0:	e30700dc 	movw	r0, #28892	; 0x70dc
  1011f4:	e3001142 	movw	r1, #322	; 0x142
  1011f8:	e3400011 	movt	r0, #17
  1011fc:	eb000657 	bl	102b60 <Xil_Assert>
  101200:	e3003aec 	movw	r3, #2796	; 0xaec
  101204:	e3a02001 	mov	r2, #1
  101208:	e3403012 	movt	r3, #18
  10120c:	e5832000 	str	r2, [r3]
  101210:	eafffff1 	b	1011dc <XDcfg_GetControlRegister+0x48>

00101214 <XDcfg_SetLockRegister>:
  101214:	e3500000 	cmp	r0, #0
  101218:	e92d4010 	push	{r4, lr}
  10121c:	0a000013 	beq	101270 <XDcfg_SetLockRegister+0x5c>
  101220:	e590c008 	ldr	ip, [r0, #8]
  101224:	e3013111 	movw	r3, #4369	; 0x1111
  101228:	e3413111 	movt	r3, #4369	; 0x1111
  10122c:	e3004aec 	movw	r4, #2796	; 0xaec
  101230:	e3404012 	movt	r4, #18
  101234:	e3a02000 	mov	r2, #0
  101238:	e15c0003 	cmp	ip, r3
  10123c:	e5842000 	str	r2, [r4]
  101240:	0a000006 	beq	101260 <XDcfg_SetLockRegister+0x4c>
  101244:	e30700dc 	movw	r0, #28892	; 0x70dc
  101248:	e300115f 	movw	r1, #351	; 0x15f
  10124c:	e3400011 	movt	r0, #17
  101250:	eb000642 	bl	102b60 <Xil_Assert>
  101254:	e3a03001 	mov	r3, #1
  101258:	e5843000 	str	r3, [r4]
  10125c:	e8bd8010 	pop	{r4, pc}
  101260:	e5900004 	ldr	r0, [r0, #4]
  101264:	e8bd4010 	pop	{r4, lr}
  101268:	e2800004 	add	r0, r0, #4
  10126c:	ea0008e7 	b	103610 <Xil_Out32>
  101270:	e30700dc 	movw	r0, #28892	; 0x70dc
  101274:	e300115e 	movw	r1, #350	; 0x15e
  101278:	e3400011 	movt	r0, #17
  10127c:	eb000637 	bl	102b60 <Xil_Assert>
  101280:	e3003aec 	movw	r3, #2796	; 0xaec
  101284:	e3a02001 	mov	r2, #1
  101288:	e3403012 	movt	r3, #18
  10128c:	e5832000 	str	r2, [r3]
  101290:	e8bd8010 	pop	{r4, pc}

00101294 <XDcfg_GetLockRegister>:
  101294:	e3500000 	cmp	r0, #0
  101298:	e92d4010 	push	{r4, lr}
  10129c:	0a000014 	beq	1012f4 <XDcfg_GetLockRegister+0x60>
  1012a0:	e5901008 	ldr	r1, [r0, #8]
  1012a4:	e3013111 	movw	r3, #4369	; 0x1111
  1012a8:	e3413111 	movt	r3, #4369	; 0x1111
  1012ac:	e3004aec 	movw	r4, #2796	; 0xaec
  1012b0:	e3404012 	movt	r4, #18
  1012b4:	e3a02000 	mov	r2, #0
  1012b8:	e1510003 	cmp	r1, r3
  1012bc:	e5842000 	str	r2, [r4]
  1012c0:	0a000007 	beq	1012e4 <XDcfg_GetLockRegister+0x50>
  1012c4:	e30700dc 	movw	r0, #28892	; 0x70dc
  1012c8:	e300117a 	movw	r1, #378	; 0x17a
  1012cc:	e3400011 	movt	r0, #17
  1012d0:	eb000622 	bl	102b60 <Xil_Assert>
  1012d4:	e3a03001 	mov	r3, #1
  1012d8:	e5843000 	str	r3, [r4]
  1012dc:	e3a00000 	mov	r0, #0
  1012e0:	e8bd8010 	pop	{r4, pc}
  1012e4:	e5900004 	ldr	r0, [r0, #4]
  1012e8:	e8bd4010 	pop	{r4, lr}
  1012ec:	e2800004 	add	r0, r0, #4
  1012f0:	ea0008c0 	b	1035f8 <Xil_In32>
  1012f4:	e30700dc 	movw	r0, #28892	; 0x70dc
  1012f8:	e3001179 	movw	r1, #377	; 0x179
  1012fc:	e3400011 	movt	r0, #17
  101300:	eb000616 	bl	102b60 <Xil_Assert>
  101304:	e3003aec 	movw	r3, #2796	; 0xaec
  101308:	e3a02001 	mov	r2, #1
  10130c:	e3403012 	movt	r3, #18
  101310:	e5832000 	str	r2, [r3]
  101314:	eafffff0 	b	1012dc <XDcfg_GetLockRegister+0x48>

00101318 <XDcfg_SetConfigRegister>:
  101318:	e3500000 	cmp	r0, #0
  10131c:	e92d4010 	push	{r4, lr}
  101320:	0a000013 	beq	101374 <XDcfg_SetConfigRegister+0x5c>
  101324:	e590c008 	ldr	ip, [r0, #8]
  101328:	e3013111 	movw	r3, #4369	; 0x1111
  10132c:	e3413111 	movt	r3, #4369	; 0x1111
  101330:	e3004aec 	movw	r4, #2796	; 0xaec
  101334:	e3404012 	movt	r4, #18
  101338:	e3a02000 	mov	r2, #0
  10133c:	e15c0003 	cmp	ip, r3
  101340:	e5842000 	str	r2, [r4]
  101344:	0a000006 	beq	101364 <XDcfg_SetConfigRegister+0x4c>
  101348:	e30700dc 	movw	r0, #28892	; 0x70dc
  10134c:	e3001196 	movw	r1, #406	; 0x196
  101350:	e3400011 	movt	r0, #17
  101354:	eb000601 	bl	102b60 <Xil_Assert>
  101358:	e3a03001 	mov	r3, #1
  10135c:	e5843000 	str	r3, [r4]
  101360:	e8bd8010 	pop	{r4, pc}
  101364:	e5900004 	ldr	r0, [r0, #4]
  101368:	e8bd4010 	pop	{r4, lr}
  10136c:	e2800008 	add	r0, r0, #8
  101370:	ea0008a6 	b	103610 <Xil_Out32>
  101374:	e30700dc 	movw	r0, #28892	; 0x70dc
  101378:	e3001195 	movw	r1, #405	; 0x195
  10137c:	e3400011 	movt	r0, #17
  101380:	eb0005f6 	bl	102b60 <Xil_Assert>
  101384:	e3003aec 	movw	r3, #2796	; 0xaec
  101388:	e3a02001 	mov	r2, #1
  10138c:	e3403012 	movt	r3, #18
  101390:	e5832000 	str	r2, [r3]
  101394:	e8bd8010 	pop	{r4, pc}

00101398 <XDcfg_GetConfigRegister>:
  101398:	e3500000 	cmp	r0, #0
  10139c:	e92d4010 	push	{r4, lr}
  1013a0:	0a000014 	beq	1013f8 <XDcfg_GetConfigRegister+0x60>
  1013a4:	e5901008 	ldr	r1, [r0, #8]
  1013a8:	e3013111 	movw	r3, #4369	; 0x1111
  1013ac:	e3413111 	movt	r3, #4369	; 0x1111
  1013b0:	e3004aec 	movw	r4, #2796	; 0xaec
  1013b4:	e3404012 	movt	r4, #18
  1013b8:	e3a02000 	mov	r2, #0
  1013bc:	e1510003 	cmp	r1, r3
  1013c0:	e5842000 	str	r2, [r4]
  1013c4:	0a000007 	beq	1013e8 <XDcfg_GetConfigRegister+0x50>
  1013c8:	e30700dc 	movw	r0, #28892	; 0x70dc
  1013cc:	e30011b2 	movw	r1, #434	; 0x1b2
  1013d0:	e3400011 	movt	r0, #17
  1013d4:	eb0005e1 	bl	102b60 <Xil_Assert>
  1013d8:	e3a03001 	mov	r3, #1
  1013dc:	e5843000 	str	r3, [r4]
  1013e0:	e3a00000 	mov	r0, #0
  1013e4:	e8bd8010 	pop	{r4, pc}
  1013e8:	e5900004 	ldr	r0, [r0, #4]
  1013ec:	e8bd4010 	pop	{r4, lr}
  1013f0:	e2800008 	add	r0, r0, #8
  1013f4:	ea00087f 	b	1035f8 <Xil_In32>
  1013f8:	e30700dc 	movw	r0, #28892	; 0x70dc
  1013fc:	e30011b1 	movw	r1, #433	; 0x1b1
  101400:	e3400011 	movt	r0, #17
  101404:	eb0005d5 	bl	102b60 <Xil_Assert>
  101408:	e3003aec 	movw	r3, #2796	; 0xaec
  10140c:	e3a02001 	mov	r2, #1
  101410:	e3403012 	movt	r3, #18
  101414:	e5832000 	str	r2, [r3]
  101418:	eafffff0 	b	1013e0 <XDcfg_GetConfigRegister+0x48>

0010141c <XDcfg_SetStatusRegister>:
  10141c:	e3500000 	cmp	r0, #0
  101420:	e92d4010 	push	{r4, lr}
  101424:	0a000013 	beq	101478 <XDcfg_SetStatusRegister+0x5c>
  101428:	e590c008 	ldr	ip, [r0, #8]
  10142c:	e3013111 	movw	r3, #4369	; 0x1111
  101430:	e3413111 	movt	r3, #4369	; 0x1111
  101434:	e3004aec 	movw	r4, #2796	; 0xaec
  101438:	e3404012 	movt	r4, #18
  10143c:	e3a02000 	mov	r2, #0
  101440:	e15c0003 	cmp	ip, r3
  101444:	e5842000 	str	r2, [r4]
  101448:	0a000006 	beq	101468 <XDcfg_SetStatusRegister+0x4c>
  10144c:	e30700dc 	movw	r0, #28892	; 0x70dc
  101450:	e30011cb 	movw	r1, #459	; 0x1cb
  101454:	e3400011 	movt	r0, #17
  101458:	eb0005c0 	bl	102b60 <Xil_Assert>
  10145c:	e3a03001 	mov	r3, #1
  101460:	e5843000 	str	r3, [r4]
  101464:	e8bd8010 	pop	{r4, pc}
  101468:	e5900004 	ldr	r0, [r0, #4]
  10146c:	e8bd4010 	pop	{r4, lr}
  101470:	e2800014 	add	r0, r0, #20
  101474:	ea000865 	b	103610 <Xil_Out32>
  101478:	e30700dc 	movw	r0, #28892	; 0x70dc
  10147c:	e30011ca 	movw	r1, #458	; 0x1ca
  101480:	e3400011 	movt	r0, #17
  101484:	eb0005b5 	bl	102b60 <Xil_Assert>
  101488:	e3003aec 	movw	r3, #2796	; 0xaec
  10148c:	e3a02001 	mov	r2, #1
  101490:	e3403012 	movt	r3, #18
  101494:	e5832000 	str	r2, [r3]
  101498:	e8bd8010 	pop	{r4, pc}

0010149c <XDcfg_GetStatusRegister>:
  10149c:	e3500000 	cmp	r0, #0
  1014a0:	e92d4010 	push	{r4, lr}
  1014a4:	0a000014 	beq	1014fc <XDcfg_GetStatusRegister+0x60>
  1014a8:	e5901008 	ldr	r1, [r0, #8]
  1014ac:	e3013111 	movw	r3, #4369	; 0x1111
  1014b0:	e3413111 	movt	r3, #4369	; 0x1111
  1014b4:	e3004aec 	movw	r4, #2796	; 0xaec
  1014b8:	e3404012 	movt	r4, #18
  1014bc:	e3a02000 	mov	r2, #0
  1014c0:	e1510003 	cmp	r1, r3
  1014c4:	e5842000 	str	r2, [r4]
  1014c8:	0a000007 	beq	1014ec <XDcfg_GetStatusRegister+0x50>
  1014cc:	e30700dc 	movw	r0, #28892	; 0x70dc
  1014d0:	e30011e6 	movw	r1, #486	; 0x1e6
  1014d4:	e3400011 	movt	r0, #17
  1014d8:	eb0005a0 	bl	102b60 <Xil_Assert>
  1014dc:	e3a03001 	mov	r3, #1
  1014e0:	e5843000 	str	r3, [r4]
  1014e4:	e3a00000 	mov	r0, #0
  1014e8:	e8bd8010 	pop	{r4, pc}
  1014ec:	e5900004 	ldr	r0, [r0, #4]
  1014f0:	e8bd4010 	pop	{r4, lr}
  1014f4:	e2800014 	add	r0, r0, #20
  1014f8:	ea00083e 	b	1035f8 <Xil_In32>
  1014fc:	e30700dc 	movw	r0, #28892	; 0x70dc
  101500:	e30011e5 	movw	r1, #485	; 0x1e5
  101504:	e3400011 	movt	r0, #17
  101508:	eb000594 	bl	102b60 <Xil_Assert>
  10150c:	e3003aec 	movw	r3, #2796	; 0xaec
  101510:	e3a02001 	mov	r2, #1
  101514:	e3403012 	movt	r3, #18
  101518:	e5832000 	str	r2, [r3]
  10151c:	eafffff0 	b	1014e4 <XDcfg_GetStatusRegister+0x48>

00101520 <XDcfg_SetRomShadowRegister>:
  101520:	e3500000 	cmp	r0, #0
  101524:	e92d4010 	push	{r4, lr}
  101528:	0a000013 	beq	10157c <XDcfg_SetRomShadowRegister+0x5c>
  10152c:	e590c008 	ldr	ip, [r0, #8]
  101530:	e3013111 	movw	r3, #4369	; 0x1111
  101534:	e3413111 	movt	r3, #4369	; 0x1111
  101538:	e3004aec 	movw	r4, #2796	; 0xaec
  10153c:	e3404012 	movt	r4, #18
  101540:	e3a02000 	mov	r2, #0
  101544:	e15c0003 	cmp	ip, r3
  101548:	e5842000 	str	r2, [r4]
  10154c:	0a000006 	beq	10156c <XDcfg_SetRomShadowRegister+0x4c>
  101550:	e30700dc 	movw	r0, #28892	; 0x70dc
  101554:	e3001202 	movw	r1, #514	; 0x202
  101558:	e3400011 	movt	r0, #17
  10155c:	eb00057f 	bl	102b60 <Xil_Assert>
  101560:	e3a03001 	mov	r3, #1
  101564:	e5843000 	str	r3, [r4]
  101568:	e8bd8010 	pop	{r4, pc}
  10156c:	e5900004 	ldr	r0, [r0, #4]
  101570:	e8bd4010 	pop	{r4, lr}
  101574:	e2800028 	add	r0, r0, #40	; 0x28
  101578:	ea000824 	b	103610 <Xil_Out32>
  10157c:	e30700dc 	movw	r0, #28892	; 0x70dc
  101580:	e3001201 	movw	r1, #513	; 0x201
  101584:	e3400011 	movt	r0, #17
  101588:	eb000574 	bl	102b60 <Xil_Assert>
  10158c:	e3003aec 	movw	r3, #2796	; 0xaec
  101590:	e3a02001 	mov	r2, #1
  101594:	e3403012 	movt	r3, #18
  101598:	e5832000 	str	r2, [r3]
  10159c:	e8bd8010 	pop	{r4, pc}

001015a0 <XDcfg_GetSoftwareIdRegister>:
  1015a0:	e3500000 	cmp	r0, #0
  1015a4:	e92d4010 	push	{r4, lr}
  1015a8:	0a000014 	beq	101600 <XDcfg_GetSoftwareIdRegister+0x60>
  1015ac:	e5901008 	ldr	r1, [r0, #8]
  1015b0:	e3013111 	movw	r3, #4369	; 0x1111
  1015b4:	e3413111 	movt	r3, #4369	; 0x1111
  1015b8:	e3004aec 	movw	r4, #2796	; 0xaec
  1015bc:	e3404012 	movt	r4, #18
  1015c0:	e3a02000 	mov	r2, #0
  1015c4:	e1510003 	cmp	r1, r3
  1015c8:	e5842000 	str	r2, [r4]
  1015cc:	0a000007 	beq	1015f0 <XDcfg_GetSoftwareIdRegister+0x50>
  1015d0:	e30700dc 	movw	r0, #28892	; 0x70dc
  1015d4:	e3a01f87 	mov	r1, #540	; 0x21c
  1015d8:	e3400011 	movt	r0, #17
  1015dc:	eb00055f 	bl	102b60 <Xil_Assert>
  1015e0:	e3a03001 	mov	r3, #1
  1015e4:	e5843000 	str	r3, [r4]
  1015e8:	e3a00000 	mov	r0, #0
  1015ec:	e8bd8010 	pop	{r4, pc}
  1015f0:	e5900004 	ldr	r0, [r0, #4]
  1015f4:	e8bd4010 	pop	{r4, lr}
  1015f8:	e2800030 	add	r0, r0, #48	; 0x30
  1015fc:	ea0007fd 	b	1035f8 <Xil_In32>
  101600:	e30700dc 	movw	r0, #28892	; 0x70dc
  101604:	e300121b 	movw	r1, #539	; 0x21b
  101608:	e3400011 	movt	r0, #17
  10160c:	eb000553 	bl	102b60 <Xil_Assert>
  101610:	e3003aec 	movw	r3, #2796	; 0xaec
  101614:	e3a02001 	mov	r2, #1
  101618:	e3403012 	movt	r3, #18
  10161c:	e5832000 	str	r2, [r3]
  101620:	eafffff0 	b	1015e8 <XDcfg_GetSoftwareIdRegister+0x48>

00101624 <XDcfg_SetMiscControlRegister>:
  101624:	e92d4030 	push	{r4, r5, lr}
  101628:	e2505000 	subs	r5, r0, #0
  10162c:	e24dd00c 	sub	sp, sp, #12
  101630:	0a00001b 	beq	1016a4 <XDcfg_SetMiscControlRegister+0x80>
  101634:	e5950008 	ldr	r0, [r5, #8]
  101638:	e3013111 	movw	r3, #4369	; 0x1111
  10163c:	e3413111 	movt	r3, #4369	; 0x1111
  101640:	e3004aec 	movw	r4, #2796	; 0xaec
  101644:	e3404012 	movt	r4, #18
  101648:	e3a02000 	mov	r2, #0
  10164c:	e1500003 	cmp	r0, r3
  101650:	e5842000 	str	r2, [r4]
  101654:	0a000007 	beq	101678 <XDcfg_SetMiscControlRegister+0x54>
  101658:	e30700dc 	movw	r0, #28892	; 0x70dc
  10165c:	e300123a 	movw	r1, #570	; 0x23a
  101660:	e3400011 	movt	r0, #17
  101664:	eb00053d 	bl	102b60 <Xil_Assert>
  101668:	e3a03001 	mov	r3, #1
  10166c:	e5843000 	str	r3, [r4]
  101670:	e28dd00c 	add	sp, sp, #12
  101674:	e8bd8030 	pop	{r4, r5, pc}
  101678:	e5950004 	ldr	r0, [r5, #4]
  10167c:	e58d1004 	str	r1, [sp, #4]
  101680:	e2800080 	add	r0, r0, #128	; 0x80
  101684:	eb0007db 	bl	1035f8 <Xil_In32>
  101688:	e5953004 	ldr	r3, [r5, #4]
  10168c:	e59d1004 	ldr	r1, [sp, #4]
  101690:	e1801001 	orr	r1, r0, r1
  101694:	e2830080 	add	r0, r3, #128	; 0x80
  101698:	e28dd00c 	add	sp, sp, #12
  10169c:	e8bd4030 	pop	{r4, r5, lr}
  1016a0:	ea0007da 	b	103610 <Xil_Out32>
  1016a4:	e30700dc 	movw	r0, #28892	; 0x70dc
  1016a8:	e3001239 	movw	r1, #569	; 0x239
  1016ac:	e3400011 	movt	r0, #17
  1016b0:	eb00052a 	bl	102b60 <Xil_Assert>
  1016b4:	e3003aec 	movw	r3, #2796	; 0xaec
  1016b8:	e3a02001 	mov	r2, #1
  1016bc:	e3403012 	movt	r3, #18
  1016c0:	e5832000 	str	r2, [r3]
  1016c4:	eaffffe9 	b	101670 <XDcfg_SetMiscControlRegister+0x4c>

001016c8 <XDcfg_GetMiscControlRegister>:
  1016c8:	e3500000 	cmp	r0, #0
  1016cc:	e92d4010 	push	{r4, lr}
  1016d0:	0a000014 	beq	101728 <XDcfg_GetMiscControlRegister+0x60>
  1016d4:	e5901008 	ldr	r1, [r0, #8]
  1016d8:	e3013111 	movw	r3, #4369	; 0x1111
  1016dc:	e3413111 	movt	r3, #4369	; 0x1111
  1016e0:	e3004aec 	movw	r4, #2796	; 0xaec
  1016e4:	e3404012 	movt	r4, #18
  1016e8:	e3a02000 	mov	r2, #0
  1016ec:	e1510003 	cmp	r1, r3
  1016f0:	e5842000 	str	r2, [r4]
  1016f4:	0a000007 	beq	101718 <XDcfg_GetMiscControlRegister+0x50>
  1016f8:	e30700dc 	movw	r0, #28892	; 0x70dc
  1016fc:	e3001257 	movw	r1, #599	; 0x257
  101700:	e3400011 	movt	r0, #17
  101704:	eb000515 	bl	102b60 <Xil_Assert>
  101708:	e3a03001 	mov	r3, #1
  10170c:	e5843000 	str	r3, [r4]
  101710:	e3a00000 	mov	r0, #0
  101714:	e8bd8010 	pop	{r4, pc}
  101718:	e5900004 	ldr	r0, [r0, #4]
  10171c:	e8bd4010 	pop	{r4, lr}
  101720:	e2800080 	add	r0, r0, #128	; 0x80
  101724:	ea0007b3 	b	1035f8 <Xil_In32>
  101728:	e30700dc 	movw	r0, #28892	; 0x70dc
  10172c:	e3001256 	movw	r1, #598	; 0x256
  101730:	e3400011 	movt	r0, #17
  101734:	eb000509 	bl	102b60 <Xil_Assert>
  101738:	e3003aec 	movw	r3, #2796	; 0xaec
  10173c:	e3a02001 	mov	r2, #1
  101740:	e3403012 	movt	r3, #18
  101744:	e5832000 	str	r2, [r3]
  101748:	eafffff0 	b	101710 <XDcfg_GetMiscControlRegister+0x48>

0010174c <XDcfg_IsDmaBusy>:
  10174c:	e92d4070 	push	{r4, r5, r6, lr}
  101750:	e2506000 	subs	r6, r0, #0
  101754:	0a000016 	beq	1017b4 <XDcfg_IsDmaBusy+0x68>
  101758:	e5962008 	ldr	r2, [r6, #8]
  10175c:	e3013111 	movw	r3, #4369	; 0x1111
  101760:	e3413111 	movt	r3, #4369	; 0x1111
  101764:	e3005aec 	movw	r5, #2796	; 0xaec
  101768:	e3405012 	movt	r5, #18
  10176c:	e3a04000 	mov	r4, #0
  101770:	e1520003 	cmp	r2, r3
  101774:	e5854000 	str	r4, [r5]
  101778:	0a000007 	beq	10179c <XDcfg_IsDmaBusy+0x50>
  10177c:	e30700dc 	movw	r0, #28892	; 0x70dc
  101780:	e3001272 	movw	r1, #626	; 0x272
  101784:	e3400011 	movt	r0, #17
  101788:	eb0004f4 	bl	102b60 <Xil_Assert>
  10178c:	e3a03001 	mov	r3, #1
  101790:	e1a00004 	mov	r0, r4
  101794:	e5853000 	str	r3, [r5]
  101798:	e8bd8070 	pop	{r4, r5, r6, pc}
  10179c:	e5960004 	ldr	r0, [r6, #4]
  1017a0:	e2800014 	add	r0, r0, #20
  1017a4:	eb000793 	bl	1035f8 <Xil_In32>
  1017a8:	e1e00000 	mvn	r0, r0
  1017ac:	e1a00fa0 	lsr	r0, r0, #31
  1017b0:	e8bd8070 	pop	{r4, r5, r6, pc}
  1017b4:	e30700dc 	movw	r0, #28892	; 0x70dc
  1017b8:	e3001271 	movw	r1, #625	; 0x271
  1017bc:	e3400011 	movt	r0, #17
  1017c0:	eb0004e6 	bl	102b60 <Xil_Assert>
  1017c4:	e3003aec 	movw	r3, #2796	; 0xaec
  1017c8:	e3a02001 	mov	r2, #1
  1017cc:	e3403012 	movt	r3, #18
  1017d0:	e1a00006 	mov	r0, r6
  1017d4:	e5832000 	str	r2, [r3]
  1017d8:	e8bd8070 	pop	{r4, r5, r6, pc}

001017dc <XDcfg_InitiateDma>:
  1017dc:	e92d41f0 	push	{r4, r5, r6, r7, r8, lr}
  1017e0:	e1a04000 	mov	r4, r0
  1017e4:	e5900004 	ldr	r0, [r0, #4]
  1017e8:	e1a07002 	mov	r7, r2
  1017ec:	e1a06003 	mov	r6, r3
  1017f0:	e59d5018 	ldr	r5, [sp, #24]
  1017f4:	e2800018 	add	r0, r0, #24
  1017f8:	eb000784 	bl	103610 <Xil_Out32>
  1017fc:	e5940004 	ldr	r0, [r4, #4]
  101800:	e1a01007 	mov	r1, r7
  101804:	e280001c 	add	r0, r0, #28
  101808:	eb000780 	bl	103610 <Xil_Out32>
  10180c:	e5940004 	ldr	r0, [r4, #4]
  101810:	e1a01006 	mov	r1, r6
  101814:	e2800020 	add	r0, r0, #32
  101818:	eb00077c 	bl	103610 <Xil_Out32>
  10181c:	e5940004 	ldr	r0, [r4, #4]
  101820:	e1a01005 	mov	r1, r5
  101824:	e8bd41f0 	pop	{r4, r5, r6, r7, r8, lr}
  101828:	e2800024 	add	r0, r0, #36	; 0x24
  10182c:	ea000777 	b	103610 <Xil_Out32>

00101830 <XDcfg_Transfer>:
  101830:	e92d43f0 	push	{r4, r5, r6, r7, r8, r9, lr}
  101834:	e2506000 	subs	r6, r0, #0
  101838:	e24dd00c 	sub	sp, sp, #12
  10183c:	0a00002f 	beq	101900 <XDcfg_Transfer+0xd0>
  101840:	e596e008 	ldr	lr, [r6, #8]
  101844:	e301c111 	movw	ip, #4369	; 0x1111
  101848:	e341c111 	movt	ip, #4369	; 0x1111
  10184c:	e3005aec 	movw	r5, #2796	; 0xaec
  101850:	e3405012 	movt	r5, #18
  101854:	e3a04000 	mov	r4, #0
  101858:	e15e000c 	cmp	lr, ip
  10185c:	e5854000 	str	r4, [r5]
  101860:	0a000008 	beq	101888 <XDcfg_Transfer+0x58>
  101864:	e30700dc 	movw	r0, #28892	; 0x70dc
  101868:	e300131f 	movw	r1, #799	; 0x31f
  10186c:	e3400011 	movt	r0, #17
  101870:	eb0004ba 	bl	102b60 <Xil_Assert>
  101874:	e1a00004 	mov	r0, r4
  101878:	e3a03001 	mov	r3, #1
  10187c:	e5853000 	str	r3, [r5]
  101880:	e28dd00c 	add	sp, sp, #12
  101884:	e8bd83f0 	pop	{r4, r5, r6, r7, r8, r9, pc}
  101888:	e1a08001 	mov	r8, r1
  10188c:	e1a09002 	mov	r9, r2
  101890:	e1a07003 	mov	r7, r3
  101894:	ebffffac 	bl	10174c <XDcfg_IsDmaBusy>
  101898:	e3500000 	cmp	r0, #0
  10189c:	03a00015 	moveq	r0, #21
  1018a0:	0afffff6 	beq	101880 <XDcfg_Transfer+0x50>
  1018a4:	e5960004 	ldr	r0, [r6, #4]
  1018a8:	e2800014 	add	r0, r0, #20
  1018ac:	eb000751 	bl	1035f8 <Xil_In32>
  1018b0:	e59d302c 	ldr	r3, [sp, #44]	; 0x2c
  1018b4:	e2200010 	eor	r0, r0, #16
  1018b8:	e2533005 	subs	r3, r3, #5
  1018bc:	13a03001 	movne	r3, #1
  1018c0:	e0133220 	ands	r3, r3, r0, lsr #4
  1018c4:	13a00001 	movne	r0, #1
  1018c8:	1affffec 	bne	101880 <XDcfg_Transfer+0x50>
  1018cc:	e59d302c 	ldr	r3, [sp, #44]	; 0x2c
  1018d0:	e2433001 	sub	r3, r3, #1
  1018d4:	e3530001 	cmp	r3, #1
  1018d8:	9a000012 	bls	101928 <XDcfg_Transfer+0xf8>
  1018dc:	e59d302c 	ldr	r3, [sp, #44]	; 0x2c
  1018e0:	e3530003 	cmp	r3, #3
  1018e4:	0a000014 	beq	10193c <XDcfg_Transfer+0x10c>
  1018e8:	e59d302c 	ldr	r3, [sp, #44]	; 0x2c
  1018ec:	e2433004 	sub	r3, r3, #4
  1018f0:	e3530001 	cmp	r3, #1
  1018f4:	9a00003b 	bls	1019e8 <XDcfg_Transfer+0x1b8>
  1018f8:	e3a00000 	mov	r0, #0
  1018fc:	eaffffdf 	b	101880 <XDcfg_Transfer+0x50>
  101900:	e30700dc 	movw	r0, #28892	; 0x70dc
  101904:	e300131e 	movw	r1, #798	; 0x31e
  101908:	e3400011 	movt	r0, #17
  10190c:	eb000493 	bl	102b60 <Xil_Assert>
  101910:	e3003aec 	movw	r3, #2796	; 0xaec
  101914:	e3a02001 	mov	r2, #1
  101918:	e3403012 	movt	r3, #18
  10191c:	e1a00006 	mov	r0, r6
  101920:	e5832000 	str	r2, [r3]
  101924:	eaffffd5 	b	101880 <XDcfg_Transfer+0x50>
  101928:	e3590000 	cmp	r9, #0
  10192c:	13580000 	cmpne	r8, #0
  101930:	1a000048 	bne	101a58 <XDcfg_Transfer+0x228>
  101934:	e3a0000f 	mov	r0, #15
  101938:	eaffffd0 	b	101880 <XDcfg_Transfer+0x50>
  10193c:	e59d3028 	ldr	r3, [sp, #40]	; 0x28
  101940:	e3530000 	cmp	r3, #0
  101944:	13570000 	cmpne	r7, #0
  101948:	03a04001 	moveq	r4, #1
  10194c:	13a04000 	movne	r4, #0
  101950:	0afffff7 	beq	101934 <XDcfg_Transfer+0x104>
  101954:	e5960004 	ldr	r0, [r6, #4]
  101958:	e2800080 	add	r0, r0, #128	; 0x80
  10195c:	eb000725 	bl	1035f8 <Xil_In32>
  101960:	e5963004 	ldr	r3, [r6, #4]
  101964:	e3c01010 	bic	r1, r0, #16
  101968:	e2830080 	add	r0, r3, #128	; 0x80
  10196c:	eb000727 	bl	103610 <Xil_Out32>
  101970:	e1a01008 	mov	r1, r8
  101974:	e58d4000 	str	r4, [sp]
  101978:	e1a03009 	mov	r3, r9
  10197c:	e3e02000 	mvn	r2, #0
  101980:	e1a00006 	mov	r0, r6
  101984:	ebffff94 	bl	1017dc <XDcfg_InitiateDma>
  101988:	e1a00006 	mov	r0, r6
  10198c:	eb00009f 	bl	101c10 <XDcfg_IntrGetEnabled>
  101990:	e30f18ef 	movw	r1, #63727	; 0xf8ef
  101994:	e1a04000 	mov	r4, r0
  101998:	e34010f7 	movt	r1, #247	; 0xf7
  10199c:	e1a00006 	mov	r0, r6
  1019a0:	eb00006e 	bl	101b60 <XDcfg_IntrDisable>
  1019a4:	e5960004 	ldr	r0, [r6, #4]
  1019a8:	e280000c 	add	r0, r0, #12
  1019ac:	eb000711 	bl	1035f8 <Xil_In32>
  1019b0:	e3100a01 	tst	r0, #4096	; 0x1000
  1019b4:	0afffffa 	beq	1019a4 <XDcfg_Transfer+0x174>
  1019b8:	e1a01004 	mov	r1, r4
  1019bc:	e1a00006 	mov	r0, r6
  1019c0:	eb00003a 	bl	101ab0 <XDcfg_IntrEnable>
  1019c4:	e59d3028 	ldr	r3, [sp, #40]	; 0x28
  1019c8:	e1a00006 	mov	r0, r6
  1019cc:	e1a02007 	mov	r2, r7
  1019d0:	e3e01000 	mvn	r1, #0
  1019d4:	e58d3000 	str	r3, [sp]
  1019d8:	e3a03000 	mov	r3, #0
  1019dc:	ebffff7e 	bl	1017dc <XDcfg_InitiateDma>
  1019e0:	e3a00000 	mov	r0, #0
  1019e4:	eaffffa5 	b	101880 <XDcfg_Transfer+0x50>
  1019e8:	e3590000 	cmp	r9, #0
  1019ec:	13580000 	cmpne	r8, #0
  1019f0:	0affffcf 	beq	101934 <XDcfg_Transfer+0x104>
  1019f4:	e59d3028 	ldr	r3, [sp, #40]	; 0x28
  1019f8:	e3530000 	cmp	r3, #0
  1019fc:	13570000 	cmpne	r7, #0
  101a00:	0affffcb 	beq	101934 <XDcfg_Transfer+0x104>
  101a04:	e59d302c 	ldr	r3, [sp, #44]	; 0x2c
  101a08:	e5960004 	ldr	r0, [r6, #4]
  101a0c:	e3530005 	cmp	r3, #5
  101a10:	e2800080 	add	r0, r0, #128	; 0x80
  101a14:	0a00001f 	beq	101a98 <XDcfg_Transfer+0x268>
  101a18:	eb0006f6 	bl	1035f8 <Xil_In32>
  101a1c:	e5963004 	ldr	r3, [r6, #4]
  101a20:	e3c01010 	bic	r1, r0, #16
  101a24:	e2830080 	add	r0, r3, #128	; 0x80
  101a28:	eb0006f8 	bl	103610 <Xil_Out32>
  101a2c:	e3a01402 	mov	r1, #33554432	; 0x2000000
  101a30:	e1a00006 	mov	r0, r6
  101a34:	ebfffd88 	bl	10105c <XDcfg_SetControlRegister>
  101a38:	e59d3028 	ldr	r3, [sp, #40]	; 0x28
  101a3c:	e1a02007 	mov	r2, r7
  101a40:	e1a01008 	mov	r1, r8
  101a44:	e1a00006 	mov	r0, r6
  101a48:	e58d3000 	str	r3, [sp]
  101a4c:	e1a03009 	mov	r3, r9
  101a50:	ebffff61 	bl	1017dc <XDcfg_InitiateDma>
  101a54:	eaffffa7 	b	1018f8 <XDcfg_Transfer+0xc8>
  101a58:	e5960004 	ldr	r0, [r6, #4]
  101a5c:	e2800080 	add	r0, r0, #128	; 0x80
  101a60:	eb0006e4 	bl	1035f8 <Xil_In32>
  101a64:	e5963004 	ldr	r3, [r6, #4]
  101a68:	e3c01010 	bic	r1, r0, #16
  101a6c:	e2830080 	add	r0, r3, #128	; 0x80
  101a70:	eb0006e6 	bl	103610 <Xil_Out32>
  101a74:	e59d302c 	ldr	r3, [sp, #44]	; 0x2c
  101a78:	e3530001 	cmp	r3, #1
  101a7c:	1affffea 	bne	101a2c <XDcfg_Transfer+0x1fc>
  101a80:	e5960004 	ldr	r0, [r6, #4]
  101a84:	eb0006db 	bl	1035f8 <Xil_In32>
  101a88:	e3c01402 	bic	r1, r0, #33554432	; 0x2000000
  101a8c:	e5960004 	ldr	r0, [r6, #4]
  101a90:	eb0006de 	bl	103610 <Xil_Out32>
  101a94:	eaffffe7 	b	101a38 <XDcfg_Transfer+0x208>
  101a98:	eb0006d6 	bl	1035f8 <Xil_In32>
  101a9c:	e5963004 	ldr	r3, [r6, #4]
  101aa0:	e3801010 	orr	r1, r0, #16
  101aa4:	e2830080 	add	r0, r3, #128	; 0x80
  101aa8:	eb0006d8 	bl	103610 <Xil_Out32>
  101aac:	eafffff3 	b	101a80 <XDcfg_Transfer+0x250>

00101ab0 <XDcfg_IntrEnable>:
  101ab0:	e92d4030 	push	{r4, r5, lr}
  101ab4:	e2505000 	subs	r5, r0, #0
  101ab8:	e24dd00c 	sub	sp, sp, #12
  101abc:	0a00001e 	beq	101b3c <XDcfg_IntrEnable+0x8c>
  101ac0:	e5950008 	ldr	r0, [r5, #8]
  101ac4:	e3013111 	movw	r3, #4369	; 0x1111
  101ac8:	e3413111 	movt	r3, #4369	; 0x1111
  101acc:	e3004aec 	movw	r4, #2796	; 0xaec
  101ad0:	e3404012 	movt	r4, #18
  101ad4:	e3a02000 	mov	r2, #0
  101ad8:	e1500003 	cmp	r0, r3
  101adc:	e5842000 	str	r2, [r4]
  101ae0:	0a000007 	beq	101b04 <XDcfg_IntrEnable+0x54>
  101ae4:	e30700e8 	movw	r0, #28904	; 0x70e8
  101ae8:	e3a0105d 	mov	r1, #93	; 0x5d
  101aec:	e3400011 	movt	r0, #17
  101af0:	eb00041a 	bl	102b60 <Xil_Assert>
  101af4:	e3a03001 	mov	r3, #1
  101af8:	e5843000 	str	r3, [r4]
  101afc:	e28dd00c 	add	sp, sp, #12
  101b00:	e8bd8030 	pop	{r4, r5, pc}
  101b04:	e5950004 	ldr	r0, [r5, #4]
  101b08:	e58d1004 	str	r1, [sp, #4]
  101b0c:	e2800010 	add	r0, r0, #16
  101b10:	eb0006b8 	bl	1035f8 <Xil_In32>
  101b14:	e59d1004 	ldr	r1, [sp, #4]
  101b18:	e30f38ef 	movw	r3, #63727	; 0xf8ef
  101b1c:	e5952004 	ldr	r2, [r5, #4]
  101b20:	e34030f7 	movt	r3, #247	; 0xf7
  101b24:	e0033001 	and	r3, r3, r1
  101b28:	e1c01003 	bic	r1, r0, r3
  101b2c:	e2820010 	add	r0, r2, #16
  101b30:	e28dd00c 	add	sp, sp, #12
  101b34:	e8bd4030 	pop	{r4, r5, lr}
  101b38:	ea0006b4 	b	103610 <Xil_Out32>
  101b3c:	e30700e8 	movw	r0, #28904	; 0x70e8
  101b40:	e3a0105c 	mov	r1, #92	; 0x5c
  101b44:	e3400011 	movt	r0, #17
  101b48:	eb000404 	bl	102b60 <Xil_Assert>
  101b4c:	e3003aec 	movw	r3, #2796	; 0xaec
  101b50:	e3a02001 	mov	r2, #1
  101b54:	e3403012 	movt	r3, #18
  101b58:	e5832000 	str	r2, [r3]
  101b5c:	eaffffe6 	b	101afc <XDcfg_IntrEnable+0x4c>

00101b60 <XDcfg_IntrDisable>:
  101b60:	e92d4030 	push	{r4, r5, lr}
  101b64:	e2505000 	subs	r5, r0, #0
  101b68:	e24dd00c 	sub	sp, sp, #12
  101b6c:	0a00001e 	beq	101bec <XDcfg_IntrDisable+0x8c>
  101b70:	e5950008 	ldr	r0, [r5, #8]
  101b74:	e3013111 	movw	r3, #4369	; 0x1111
  101b78:	e3413111 	movt	r3, #4369	; 0x1111
  101b7c:	e3004aec 	movw	r4, #2796	; 0xaec
  101b80:	e3404012 	movt	r4, #18
  101b84:	e3a02000 	mov	r2, #0
  101b88:	e1500003 	cmp	r0, r3
  101b8c:	e5842000 	str	r2, [r4]
  101b90:	0a000007 	beq	101bb4 <XDcfg_IntrDisable+0x54>
  101b94:	e30700e8 	movw	r0, #28904	; 0x70e8
  101b98:	e3a01083 	mov	r1, #131	; 0x83
  101b9c:	e3400011 	movt	r0, #17
  101ba0:	eb0003ee 	bl	102b60 <Xil_Assert>
  101ba4:	e3a03001 	mov	r3, #1
  101ba8:	e5843000 	str	r3, [r4]
  101bac:	e28dd00c 	add	sp, sp, #12
  101bb0:	e8bd8030 	pop	{r4, r5, pc}
  101bb4:	e5950004 	ldr	r0, [r5, #4]
  101bb8:	e58d1004 	str	r1, [sp, #4]
  101bbc:	e2800010 	add	r0, r0, #16
  101bc0:	eb00068c 	bl	1035f8 <Xil_In32>
  101bc4:	e59d1004 	ldr	r1, [sp, #4]
  101bc8:	e30f38ef 	movw	r3, #63727	; 0xf8ef
  101bcc:	e5952004 	ldr	r2, [r5, #4]
  101bd0:	e34030f7 	movt	r3, #247	; 0xf7
  101bd4:	e0033001 	and	r3, r3, r1
  101bd8:	e1801003 	orr	r1, r0, r3
  101bdc:	e2820010 	add	r0, r2, #16
  101be0:	e28dd00c 	add	sp, sp, #12
  101be4:	e8bd4030 	pop	{r4, r5, lr}
  101be8:	ea000688 	b	103610 <Xil_Out32>
  101bec:	e30700e8 	movw	r0, #28904	; 0x70e8
  101bf0:	e3a01082 	mov	r1, #130	; 0x82
  101bf4:	e3400011 	movt	r0, #17
  101bf8:	eb0003d8 	bl	102b60 <Xil_Assert>
  101bfc:	e3003aec 	movw	r3, #2796	; 0xaec
  101c00:	e3a02001 	mov	r2, #1
  101c04:	e3403012 	movt	r3, #18
  101c08:	e5832000 	str	r2, [r3]
  101c0c:	eaffffe6 	b	101bac <XDcfg_IntrDisable+0x4c>

00101c10 <XDcfg_IntrGetEnabled>:
  101c10:	e92d4070 	push	{r4, r5, r6, lr}
  101c14:	e2506000 	subs	r6, r0, #0
  101c18:	0a000015 	beq	101c74 <XDcfg_IntrGetEnabled+0x64>
  101c1c:	e5962008 	ldr	r2, [r6, #8]
  101c20:	e3013111 	movw	r3, #4369	; 0x1111
  101c24:	e3413111 	movt	r3, #4369	; 0x1111
  101c28:	e3005aec 	movw	r5, #2796	; 0xaec
  101c2c:	e3405012 	movt	r5, #18
  101c30:	e3a04000 	mov	r4, #0
  101c34:	e1520003 	cmp	r2, r3
  101c38:	e5854000 	str	r4, [r5]
  101c3c:	0a000007 	beq	101c60 <XDcfg_IntrGetEnabled+0x50>
  101c40:	e30700e8 	movw	r0, #28904	; 0x70e8
  101c44:	e3a010a3 	mov	r1, #163	; 0xa3
  101c48:	e3400011 	movt	r0, #17
  101c4c:	eb0003c3 	bl	102b60 <Xil_Assert>
  101c50:	e3a03001 	mov	r3, #1
  101c54:	e1a00004 	mov	r0, r4
  101c58:	e5853000 	str	r3, [r5]
  101c5c:	e8bd8070 	pop	{r4, r5, r6, pc}
  101c60:	e5960004 	ldr	r0, [r6, #4]
  101c64:	e2800010 	add	r0, r0, #16
  101c68:	eb000662 	bl	1035f8 <Xil_In32>
  101c6c:	e1e00000 	mvn	r0, r0
  101c70:	e8bd8070 	pop	{r4, r5, r6, pc}
  101c74:	e30700e8 	movw	r0, #28904	; 0x70e8
  101c78:	e3a010a2 	mov	r1, #162	; 0xa2
  101c7c:	e3400011 	movt	r0, #17
  101c80:	eb0003b6 	bl	102b60 <Xil_Assert>
  101c84:	e3003aec 	movw	r3, #2796	; 0xaec
  101c88:	e3a02001 	mov	r2, #1
  101c8c:	e3403012 	movt	r3, #18
  101c90:	e1a00006 	mov	r0, r6
  101c94:	e5832000 	str	r2, [r3]
  101c98:	e8bd8070 	pop	{r4, r5, r6, pc}

00101c9c <XDcfg_IntrGetStatus>:
  101c9c:	e3500000 	cmp	r0, #0
  101ca0:	e92d4010 	push	{r4, lr}
  101ca4:	0a000014 	beq	101cfc <XDcfg_IntrGetStatus+0x60>
  101ca8:	e5901008 	ldr	r1, [r0, #8]
  101cac:	e3013111 	movw	r3, #4369	; 0x1111
  101cb0:	e3413111 	movt	r3, #4369	; 0x1111
  101cb4:	e3004aec 	movw	r4, #2796	; 0xaec
  101cb8:	e3404012 	movt	r4, #18
  101cbc:	e3a02000 	mov	r2, #0
  101cc0:	e1510003 	cmp	r1, r3
  101cc4:	e5842000 	str	r2, [r4]
  101cc8:	0a000007 	beq	101cec <XDcfg_IntrGetStatus+0x50>
  101ccc:	e30700e8 	movw	r0, #28904	; 0x70e8
  101cd0:	e3a010c1 	mov	r1, #193	; 0xc1
  101cd4:	e3400011 	movt	r0, #17
  101cd8:	eb0003a0 	bl	102b60 <Xil_Assert>
  101cdc:	e3a03001 	mov	r3, #1
  101ce0:	e5843000 	str	r3, [r4]
  101ce4:	e3a00000 	mov	r0, #0
  101ce8:	e8bd8010 	pop	{r4, pc}
  101cec:	e5900004 	ldr	r0, [r0, #4]
  101cf0:	e8bd4010 	pop	{r4, lr}
  101cf4:	e280000c 	add	r0, r0, #12
  101cf8:	ea00063e 	b	1035f8 <Xil_In32>
  101cfc:	e30700e8 	movw	r0, #28904	; 0x70e8
  101d00:	e3a010c0 	mov	r1, #192	; 0xc0
  101d04:	e3400011 	movt	r0, #17
  101d08:	eb000394 	bl	102b60 <Xil_Assert>
  101d0c:	e3003aec 	movw	r3, #2796	; 0xaec
  101d10:	e3a02001 	mov	r2, #1
  101d14:	e3403012 	movt	r3, #18
  101d18:	e5832000 	str	r2, [r3]
  101d1c:	eafffff0 	b	101ce4 <XDcfg_IntrGetStatus+0x48>

00101d20 <XDcfg_IntrClear>:
  101d20:	e3500000 	cmp	r0, #0
  101d24:	e92d4010 	push	{r4, lr}
  101d28:	0a000013 	beq	101d7c <XDcfg_IntrClear+0x5c>
  101d2c:	e590c008 	ldr	ip, [r0, #8]
  101d30:	e3013111 	movw	r3, #4369	; 0x1111
  101d34:	e3413111 	movt	r3, #4369	; 0x1111
  101d38:	e3004aec 	movw	r4, #2796	; 0xaec
  101d3c:	e3404012 	movt	r4, #18
  101d40:	e3a02000 	mov	r2, #0
  101d44:	e15c0003 	cmp	ip, r3
  101d48:	e5842000 	str	r2, [r4]
  101d4c:	0a000006 	beq	101d6c <XDcfg_IntrClear+0x4c>
  101d50:	e30700e8 	movw	r0, #28904	; 0x70e8
  101d54:	e3a010e1 	mov	r1, #225	; 0xe1
  101d58:	e3400011 	movt	r0, #17
  101d5c:	eb00037f 	bl	102b60 <Xil_Assert>
  101d60:	e3a03001 	mov	r3, #1
  101d64:	e5843000 	str	r3, [r4]
  101d68:	e8bd8010 	pop	{r4, pc}
  101d6c:	e5900004 	ldr	r0, [r0, #4]
  101d70:	e8bd4010 	pop	{r4, lr}
  101d74:	e280000c 	add	r0, r0, #12
  101d78:	ea000624 	b	103610 <Xil_Out32>
  101d7c:	e30700e8 	movw	r0, #28904	; 0x70e8
  101d80:	e3a010e0 	mov	r1, #224	; 0xe0
  101d84:	e3400011 	movt	r0, #17
  101d88:	eb000374 	bl	102b60 <Xil_Assert>
  101d8c:	e3003aec 	movw	r3, #2796	; 0xaec
  101d90:	e3a02001 	mov	r2, #1
  101d94:	e3403012 	movt	r3, #18
  101d98:	e5832000 	str	r2, [r3]
  101d9c:	e8bd8010 	pop	{r4, pc}

00101da0 <XDcfg_InterruptHandler>:
  101da0:	e92d4070 	push	{r4, r5, r6, lr}
  101da4:	e2505000 	subs	r5, r0, #0
  101da8:	0a00001c 	beq	101e20 <XDcfg_InterruptHandler+0x80>
  101dac:	e5951008 	ldr	r1, [r5, #8]
  101db0:	e3013111 	movw	r3, #4369	; 0x1111
  101db4:	e3413111 	movt	r3, #4369	; 0x1111
  101db8:	e3004aec 	movw	r4, #2796	; 0xaec
  101dbc:	e3404012 	movt	r4, #18
  101dc0:	e3a02000 	mov	r2, #0
  101dc4:	e1510003 	cmp	r1, r3
  101dc8:	e5842000 	str	r2, [r4]
  101dcc:	0a000006 	beq	101dec <XDcfg_InterruptHandler+0x4c>
  101dd0:	e30700e8 	movw	r0, #28904	; 0x70e8
  101dd4:	e3a010ff 	mov	r1, #255	; 0xff
  101dd8:	e3400011 	movt	r0, #17
  101ddc:	eb00035f 	bl	102b60 <Xil_Assert>
  101de0:	e3a03001 	mov	r3, #1
  101de4:	e5843000 	str	r3, [r4]
  101de8:	e8bd8070 	pop	{r4, r5, r6, pc}
  101dec:	e5950004 	ldr	r0, [r5, #4]
  101df0:	e280000c 	add	r0, r0, #12
  101df4:	eb0005ff 	bl	1035f8 <Xil_In32>
  101df8:	e1a04000 	mov	r4, r0
  101dfc:	e5950004 	ldr	r0, [r5, #4]
  101e00:	e1a01004 	mov	r1, r4
  101e04:	e280000c 	add	r0, r0, #12
  101e08:	eb000600 	bl	103610 <Xil_Out32>
  101e0c:	e1a01004 	mov	r1, r4
  101e10:	e5953010 	ldr	r3, [r5, #16]
  101e14:	e5950014 	ldr	r0, [r5, #20]
  101e18:	e8bd4070 	pop	{r4, r5, r6, lr}
  101e1c:	e12fff13 	bx	r3
  101e20:	e30700e8 	movw	r0, #28904	; 0x70e8
  101e24:	e3a010fe 	mov	r1, #254	; 0xfe
  101e28:	e3400011 	movt	r0, #17
  101e2c:	eb00034b 	bl	102b60 <Xil_Assert>
  101e30:	e3003aec 	movw	r3, #2796	; 0xaec
  101e34:	e3a02001 	mov	r2, #1
  101e38:	e3403012 	movt	r3, #18
  101e3c:	e5832000 	str	r2, [r3]
  101e40:	e8bd8070 	pop	{r4, r5, r6, pc}

00101e44 <XDcfg_SetHandler>:
  101e44:	e3500000 	cmp	r0, #0
  101e48:	e92d4010 	push	{r4, lr}
  101e4c:	0a000014 	beq	101ea4 <XDcfg_SetHandler+0x60>
  101e50:	e3004aec 	movw	r4, #2796	; 0xaec
  101e54:	e3510000 	cmp	r1, #0
  101e58:	e3404012 	movt	r4, #18
  101e5c:	e3a03000 	mov	r3, #0
  101e60:	e5843000 	str	r3, [r4]
  101e64:	0a000017 	beq	101ec8 <XDcfg_SetHandler+0x84>
  101e68:	e590c008 	ldr	ip, [r0, #8]
  101e6c:	e3013111 	movw	r3, #4369	; 0x1111
  101e70:	e3413111 	movt	r3, #4369	; 0x1111
  101e74:	e15c0003 	cmp	ip, r3
  101e78:	0a000006 	beq	101e98 <XDcfg_SetHandler+0x54>
  101e7c:	e30700e8 	movw	r0, #28904	; 0x70e8
  101e80:	e3001131 	movw	r1, #305	; 0x131
  101e84:	e3400011 	movt	r0, #17
  101e88:	eb000334 	bl	102b60 <Xil_Assert>
  101e8c:	e3a03001 	mov	r3, #1
  101e90:	e5843000 	str	r3, [r4]
  101e94:	e8bd8010 	pop	{r4, pc}
  101e98:	e5801010 	str	r1, [r0, #16]
  101e9c:	e5802014 	str	r2, [r0, #20]
  101ea0:	e8bd8010 	pop	{r4, pc}
  101ea4:	e30700e8 	movw	r0, #28904	; 0x70e8
  101ea8:	e300112f 	movw	r1, #303	; 0x12f
  101eac:	e3400011 	movt	r0, #17
  101eb0:	eb00032a 	bl	102b60 <Xil_Assert>
  101eb4:	e3003aec 	movw	r3, #2796	; 0xaec
  101eb8:	e3a02001 	mov	r2, #1
  101ebc:	e3403012 	movt	r3, #18
  101ec0:	e5832000 	str	r2, [r3]
  101ec4:	e8bd8010 	pop	{r4, pc}
  101ec8:	e30700e8 	movw	r0, #28904	; 0x70e8
  101ecc:	e3a01e13 	mov	r1, #304	; 0x130
  101ed0:	e3400011 	movt	r0, #17
  101ed4:	eb000321 	bl	102b60 <Xil_Assert>
  101ed8:	e3a03001 	mov	r3, #1
  101edc:	e5843000 	str	r3, [r4]
  101ee0:	e8bd8010 	pop	{r4, pc}

00101ee4 <XDcfg_SelfTest>:
  101ee4:	e92d4070 	push	{r4, r5, r6, lr}
  101ee8:	e2504000 	subs	r4, r0, #0
  101eec:	0a00001f 	beq	101f70 <XDcfg_SelfTest+0x8c>
  101ef0:	e5941008 	ldr	r1, [r4, #8]
  101ef4:	e3012111 	movw	r2, #4369	; 0x1111
  101ef8:	e3412111 	movt	r2, #4369	; 0x1111
  101efc:	e3005aec 	movw	r5, #2796	; 0xaec
  101f00:	e3405012 	movt	r5, #18
  101f04:	e3a03000 	mov	r3, #0
  101f08:	e1510002 	cmp	r1, r2
  101f0c:	e5853000 	str	r3, [r5]
  101f10:	0a000008 	beq	101f38 <XDcfg_SelfTest+0x54>
  101f14:	e30700f8 	movw	r0, #28920	; 0x70f8
  101f18:	e3a0105e 	mov	r1, #94	; 0x5e
  101f1c:	e3400011 	movt	r0, #17
  101f20:	e1a04003 	mov	r4, r3
  101f24:	eb00030d 	bl	102b60 <Xil_Assert>
  101f28:	e3a03001 	mov	r3, #1
  101f2c:	e5853000 	str	r3, [r5]
  101f30:	e1a00004 	mov	r0, r4
  101f34:	e8bd8070 	pop	{r4, r5, r6, pc}
  101f38:	ebfffc95 	bl	101194 <XDcfg_GetControlRegister>
  101f3c:	e3a01010 	mov	r1, #16
  101f40:	e1a05000 	mov	r5, r0
  101f44:	e1a00004 	mov	r0, r4
  101f48:	ebfffc43 	bl	10105c <XDcfg_SetControlRegister>
  101f4c:	e1a00004 	mov	r0, r4
  101f50:	ebfffc8f 	bl	101194 <XDcfg_GetControlRegister>
  101f54:	e2203010 	eor	r3, r0, #16
  101f58:	e1a01005 	mov	r1, r5
  101f5c:	e1a00004 	mov	r0, r4
  101f60:	e7e04253 	ubfx	r4, r3, #4, #1
  101f64:	ebfffc3c 	bl	10105c <XDcfg_SetControlRegister>
  101f68:	e1a00004 	mov	r0, r4
  101f6c:	e8bd8070 	pop	{r4, r5, r6, pc}
  101f70:	e30700f8 	movw	r0, #28920	; 0x70f8
  101f74:	e3a0105d 	mov	r1, #93	; 0x5d
  101f78:	e3400011 	movt	r0, #17
  101f7c:	eb0002f7 	bl	102b60 <Xil_Assert>
  101f80:	e3003aec 	movw	r3, #2796	; 0xaec
  101f84:	e3a02001 	mov	r2, #1
  101f88:	e3403012 	movt	r3, #18
  101f8c:	e5832000 	str	r2, [r3]
  101f90:	eaffffe6 	b	101f30 <XDcfg_SelfTest+0x4c>

00101f94 <XDcfg_LookupConfig>:
  101f94:	e3073354 	movw	r3, #29524	; 0x7354
  101f98:	e3403011 	movt	r3, #17
  101f9c:	e1d320b0 	ldrh	r2, [r3]
  101fa0:	e1520000 	cmp	r2, r0
  101fa4:	01a00003 	moveq	r0, r3
  101fa8:	13a00000 	movne	r0, #0
  101fac:	e12fff1e 	bx	lr

00101fb0 <StubHandler>:
  101fb0:	e3500000 	cmp	r0, #0
  101fb4:	0a000007 	beq	101fd8 <StubHandler+0x28>
  101fb8:	e5903008 	ldr	r3, [r0, #8]
  101fbc:	e3002aec 	movw	r2, #2796	; 0xaec
  101fc0:	e3402012 	movt	r2, #18
  101fc4:	e3a01000 	mov	r1, #0
  101fc8:	e5821000 	str	r1, [r2]
  101fcc:	e2833001 	add	r3, r3, #1
  101fd0:	e5803008 	str	r3, [r0, #8]
  101fd4:	e12fff1e 	bx	lr
  101fd8:	e307010c 	movw	r0, #28940	; 0x710c
  101fdc:	e92d4010 	push	{r4, lr}
  101fe0:	e3a01f95 	mov	r1, #596	; 0x254
  101fe4:	e3400011 	movt	r0, #17
  101fe8:	eb0002dc 	bl	102b60 <Xil_Assert>
  101fec:	e3003aec 	movw	r3, #2796	; 0xaec
  101ff0:	e3a02001 	mov	r2, #1
  101ff4:	e3403012 	movt	r3, #18
  101ff8:	e5832000 	str	r2, [r3]
  101ffc:	e8bd8010 	pop	{r4, pc}

00102000 <XScuGic_CfgInitialize>:
  102000:	e92d4070 	push	{r4, r5, r6, lr}
  102004:	e2504000 	subs	r4, r0, #0
  102008:	0a00005a 	beq	102178 <XScuGic_CfgInitialize+0x178>
  10200c:	e3005aec 	movw	r5, #2796	; 0xaec
  102010:	e3510000 	cmp	r1, #0
  102014:	e3405012 	movt	r5, #18
  102018:	e3a02000 	mov	r2, #0
  10201c:	e5852000 	str	r2, [r5]
  102020:	0a00005d 	beq	10219c <XScuGic_CfgInitialize+0x19c>
  102024:	e5940004 	ldr	r0, [r4, #4]
  102028:	e3013111 	movw	r3, #4369	; 0x1111
  10202c:	e3413111 	movt	r3, #4369	; 0x1111
  102030:	e1500003 	cmp	r0, r3
  102034:	0a00004d 	beq	102170 <XScuGic_CfgInitialize+0x170>
  102038:	e2810e61 	add	r0, r1, #1552	; 0x610
  10203c:	e301cfb0 	movw	ip, #8112	; 0x1fb0
  102040:	e2800008 	add	r0, r0, #8
  102044:	e340c010 	movt	ip, #16
  102048:	e1a03001 	mov	r3, r1
  10204c:	e8840006 	stm	r4, {r1, r2}
  102050:	e593200c 	ldr	r2, [r3, #12]
  102054:	e2833008 	add	r3, r3, #8
  102058:	e5834008 	str	r4, [r3, #8]
  10205c:	e3520000 	cmp	r2, #0
  102060:	0583c004 	streq	ip, [r3, #4]
  102064:	e1530000 	cmp	r3, r0
  102068:	1afffff8 	bne	102050 <XScuGic_CfgInitialize+0x50>
  10206c:	e5910008 	ldr	r0, [r1, #8]
  102070:	e3a01000 	mov	r1, #0
  102074:	e3a05020 	mov	r5, #32
  102078:	eb000564 	bl	103610 <Xil_Out32>
  10207c:	e5942000 	ldr	r2, [r4]
  102080:	e1a03225 	lsr	r3, r5, #4
  102084:	e3a01000 	mov	r1, #0
  102088:	e2833c03 	add	r3, r3, #768	; 0x300
  10208c:	e2855010 	add	r5, r5, #16
  102090:	e5920008 	ldr	r0, [r2, #8]
  102094:	e0800103 	add	r0, r0, r3, lsl #2
  102098:	eb00055c 	bl	103610 <Xil_Out32>
  10209c:	e35500d0 	cmp	r5, #208	; 0xd0
  1020a0:	1afffff5 	bne	10207c <XScuGic_CfgInitialize+0x7c>
  1020a4:	e3a05000 	mov	r5, #0
  1020a8:	e5942000 	ldr	r2, [r4]
  1020ac:	e3c53003 	bic	r3, r5, #3
  1020b0:	e2833b01 	add	r3, r3, #1024	; 0x400
  1020b4:	e30a10a0 	movw	r1, #41120	; 0xa0a0
  1020b8:	e2855004 	add	r5, r5, #4
  1020bc:	e34a10a0 	movt	r1, #41120	; 0xa0a0
  1020c0:	e5920008 	ldr	r0, [r2, #8]
  1020c4:	e0830000 	add	r0, r3, r0
  1020c8:	eb000550 	bl	103610 <Xil_Out32>
  1020cc:	e35500c4 	cmp	r5, #196	; 0xc4
  1020d0:	1afffff4 	bne	1020a8 <XScuGic_CfgInitialize+0xa8>
  1020d4:	e3a05020 	mov	r5, #32
  1020d8:	e5942000 	ldr	r2, [r4]
  1020dc:	e3c53003 	bic	r3, r5, #3
  1020e0:	e2833b02 	add	r3, r3, #2048	; 0x800
  1020e4:	e3001101 	movw	r1, #257	; 0x101
  1020e8:	e2855004 	add	r5, r5, #4
  1020ec:	e3401101 	movt	r1, #257	; 0x101
  1020f0:	e5920008 	ldr	r0, [r2, #8]
  1020f4:	e0830000 	add	r0, r3, r0
  1020f8:	eb000544 	bl	103610 <Xil_Out32>
  1020fc:	e35500c4 	cmp	r5, #196	; 0xc4
  102100:	1afffff4 	bne	1020d8 <XScuGic_CfgInitialize+0xd8>
  102104:	e3a05000 	mov	r5, #0
  102108:	e5942000 	ldr	r2, [r4]
  10210c:	e1a032a5 	lsr	r3, r5, #5
  102110:	e3e01000 	mvn	r1, #0
  102114:	e2833060 	add	r3, r3, #96	; 0x60
  102118:	e2855020 	add	r5, r5, #32
  10211c:	e5920008 	ldr	r0, [r2, #8]
  102120:	e0800103 	add	r0, r0, r3, lsl #2
  102124:	eb000539 	bl	103610 <Xil_Out32>
  102128:	e35500e0 	cmp	r5, #224	; 0xe0
  10212c:	1afffff5 	bne	102108 <XScuGic_CfgInitialize+0x108>
  102130:	e5943000 	ldr	r3, [r4]
  102134:	e3a01001 	mov	r1, #1
  102138:	e5930008 	ldr	r0, [r3, #8]
  10213c:	eb000533 	bl	103610 <Xil_Out32>
  102140:	e5943000 	ldr	r3, [r4]
  102144:	e3a010f0 	mov	r1, #240	; 0xf0
  102148:	e5930004 	ldr	r0, [r3, #4]
  10214c:	e2800004 	add	r0, r0, #4
  102150:	eb00052e 	bl	103610 <Xil_Out32>
  102154:	e5943000 	ldr	r3, [r4]
  102158:	e3a01007 	mov	r1, #7
  10215c:	e5930004 	ldr	r0, [r3, #4]
  102160:	eb00052a 	bl	103610 <Xil_Out32>
  102164:	e3013111 	movw	r3, #4369	; 0x1111
  102168:	e7df3813 	bfi	r3, r3, #16, #16
  10216c:	e5843004 	str	r3, [r4, #4]
  102170:	e3a00000 	mov	r0, #0
  102174:	e8bd8070 	pop	{r4, r5, r6, pc}
  102178:	e307010c 	movw	r0, #28940	; 0x710c
  10217c:	e3a01f4e 	mov	r1, #312	; 0x138
  102180:	e3400011 	movt	r0, #17
  102184:	eb000275 	bl	102b60 <Xil_Assert>
  102188:	e3003aec 	movw	r3, #2796	; 0xaec
  10218c:	e3a02001 	mov	r2, #1
  102190:	e3403012 	movt	r3, #18
  102194:	e5832000 	str	r2, [r3]
  102198:	eafffff4 	b	102170 <XScuGic_CfgInitialize+0x170>
  10219c:	e307010c 	movw	r0, #28940	; 0x710c
  1021a0:	e3001139 	movw	r1, #313	; 0x139
  1021a4:	e3400011 	movt	r0, #17
  1021a8:	eb00026c 	bl	102b60 <Xil_Assert>
  1021ac:	e3a03001 	mov	r3, #1
  1021b0:	e5853000 	str	r3, [r5]
  1021b4:	eaffffed 	b	102170 <XScuGic_CfgInitialize+0x170>

001021b8 <XScuGic_Connect>:
  1021b8:	e3500000 	cmp	r0, #0
  1021bc:	e92d4010 	push	{r4, lr}
  1021c0:	0a000022 	beq	102250 <XScuGic_Connect+0x98>
  1021c4:	e3004aec 	movw	r4, #2796	; 0xaec
  1021c8:	e35100c2 	cmp	r1, #194	; 0xc2
  1021cc:	e3404012 	movt	r4, #18
  1021d0:	e3a0c000 	mov	ip, #0
  1021d4:	e584c000 	str	ip, [r4]
  1021d8:	8a000014 	bhi	102230 <XScuGic_Connect+0x78>
  1021dc:	e3520000 	cmp	r2, #0
  1021e0:	0a000023 	beq	102274 <XScuGic_Connect+0xbc>
  1021e4:	e590e004 	ldr	lr, [r0, #4]
  1021e8:	e301c111 	movw	ip, #4369	; 0x1111
  1021ec:	e341c111 	movt	ip, #4369	; 0x1111
  1021f0:	e15e000c 	cmp	lr, ip
  1021f4:	0a000007 	beq	102218 <XScuGic_Connect+0x60>
  1021f8:	e307010c 	movw	r0, #28940	; 0x710c
  1021fc:	e300117d 	movw	r1, #381	; 0x17d
  102200:	e3400011 	movt	r0, #17
  102204:	eb000255 	bl	102b60 <Xil_Assert>
  102208:	e3a03001 	mov	r3, #1
  10220c:	e5843000 	str	r3, [r4]
  102210:	e3a00000 	mov	r0, #0
  102214:	e8bd8010 	pop	{r4, pc}
  102218:	e5900000 	ldr	r0, [r0]
  10221c:	e0801181 	add	r1, r0, r1, lsl #3
  102220:	e3a00000 	mov	r0, #0
  102224:	e581200c 	str	r2, [r1, #12]
  102228:	e5813010 	str	r3, [r1, #16]
  10222c:	e8bd8010 	pop	{r4, pc}
  102230:	e307010c 	movw	r0, #28940	; 0x710c
  102234:	e300117b 	movw	r1, #379	; 0x17b
  102238:	e3400011 	movt	r0, #17
  10223c:	eb000247 	bl	102b60 <Xil_Assert>
  102240:	e3a03001 	mov	r3, #1
  102244:	e3a00000 	mov	r0, #0
  102248:	e5843000 	str	r3, [r4]
  10224c:	e8bd8010 	pop	{r4, pc}
  102250:	e307010c 	movw	r0, #28940	; 0x710c
  102254:	e300117a 	movw	r1, #378	; 0x17a
  102258:	e3400011 	movt	r0, #17
  10225c:	eb00023f 	bl	102b60 <Xil_Assert>
  102260:	e3003aec 	movw	r3, #2796	; 0xaec
  102264:	e3a02001 	mov	r2, #1
  102268:	e3403012 	movt	r3, #18
  10226c:	e5832000 	str	r2, [r3]
  102270:	eaffffe6 	b	102210 <XScuGic_Connect+0x58>
  102274:	e307010c 	movw	r0, #28940	; 0x710c
  102278:	e3a01f5f 	mov	r1, #380	; 0x17c
  10227c:	e3400011 	movt	r0, #17
  102280:	eb000236 	bl	102b60 <Xil_Assert>
  102284:	e3a03001 	mov	r3, #1
  102288:	e5843000 	str	r3, [r4]
  10228c:	eaffffdf 	b	102210 <XScuGic_Connect+0x58>

00102290 <XScuGic_Disconnect>:
  102290:	e92d4070 	push	{r4, r5, r6, lr}
  102294:	e2506000 	subs	r6, r0, #0
  102298:	0a000029 	beq	102344 <XScuGic_Disconnect+0xb4>
  10229c:	e3004aec 	movw	r4, #2796	; 0xaec
  1022a0:	e35100c2 	cmp	r1, #194	; 0xc2
  1022a4:	e3404012 	movt	r4, #18
  1022a8:	e3a03000 	mov	r3, #0
  1022ac:	e1a05001 	mov	r5, r1
  1022b0:	e5843000 	str	r3, [r4]
  1022b4:	8a00000b 	bhi	1022e8 <XScuGic_Disconnect+0x58>
  1022b8:	e5962004 	ldr	r2, [r6, #4]
  1022bc:	e3013111 	movw	r3, #4369	; 0x1111
  1022c0:	e3413111 	movt	r3, #4369	; 0x1111
  1022c4:	e1520003 	cmp	r2, r3
  1022c8:	0a00000d 	beq	102304 <XScuGic_Disconnect+0x74>
  1022cc:	e307010c 	movw	r0, #28940	; 0x710c
  1022d0:	e30011a2 	movw	r1, #418	; 0x1a2
  1022d4:	e3400011 	movt	r0, #17
  1022d8:	eb000220 	bl	102b60 <Xil_Assert>
  1022dc:	e3a03001 	mov	r3, #1
  1022e0:	e5843000 	str	r3, [r4]
  1022e4:	e8bd8070 	pop	{r4, r5, r6, pc}
  1022e8:	e307010c 	movw	r0, #28940	; 0x710c
  1022ec:	e30011a1 	movw	r1, #417	; 0x1a1
  1022f0:	e3400011 	movt	r0, #17
  1022f4:	eb000219 	bl	102b60 <Xil_Assert>
  1022f8:	e3a03001 	mov	r3, #1
  1022fc:	e5843000 	str	r3, [r4]
  102300:	e8bd8070 	pop	{r4, r5, r6, pc}
  102304:	e5960000 	ldr	r0, [r6]
  102308:	e1a032a1 	lsr	r3, r1, #5
  10230c:	e201201f 	and	r2, r1, #31
  102310:	e2833060 	add	r3, r3, #96	; 0x60
  102314:	e3a01001 	mov	r1, #1
  102318:	e5900008 	ldr	r0, [r0, #8]
  10231c:	e1a01211 	lsl	r1, r1, r2
  102320:	e0800103 	add	r0, r0, r3, lsl #2
  102324:	eb0004b9 	bl	103610 <Xil_Out32>
  102328:	e5963000 	ldr	r3, [r6]
  10232c:	e3012fb0 	movw	r2, #8112	; 0x1fb0
  102330:	e3402010 	movt	r2, #16
  102334:	e0835185 	add	r5, r3, r5, lsl #3
  102338:	e5856010 	str	r6, [r5, #16]
  10233c:	e585200c 	str	r2, [r5, #12]
  102340:	e8bd8070 	pop	{r4, r5, r6, pc}
  102344:	e307010c 	movw	r0, #28940	; 0x710c
  102348:	e3a01e1a 	mov	r1, #416	; 0x1a0
  10234c:	e3400011 	movt	r0, #17
  102350:	eb000202 	bl	102b60 <Xil_Assert>
  102354:	e3003aec 	movw	r3, #2796	; 0xaec
  102358:	e3a02001 	mov	r2, #1
  10235c:	e3403012 	movt	r3, #18
  102360:	e5832000 	str	r2, [r3]
  102364:	e8bd8070 	pop	{r4, r5, r6, pc}

00102368 <XScuGic_Enable>:
  102368:	e3500000 	cmp	r0, #0
  10236c:	e92d4010 	push	{r4, lr}
  102370:	0a000022 	beq	102400 <XScuGic_Enable+0x98>
  102374:	e3004aec 	movw	r4, #2796	; 0xaec
  102378:	e35100c2 	cmp	r1, #194	; 0xc2
  10237c:	e3404012 	movt	r4, #18
  102380:	e3a03000 	mov	r3, #0
  102384:	e5843000 	str	r3, [r4]
  102388:	8a00000b 	bhi	1023bc <XScuGic_Enable+0x54>
  10238c:	e5902004 	ldr	r2, [r0, #4]
  102390:	e3013111 	movw	r3, #4369	; 0x1111
  102394:	e3413111 	movt	r3, #4369	; 0x1111
  102398:	e1520003 	cmp	r2, r3
  10239c:	0a00000d 	beq	1023d8 <XScuGic_Enable+0x70>
  1023a0:	e307010c 	movw	r0, #28940	; 0x710c
  1023a4:	e3a01f75 	mov	r1, #468	; 0x1d4
  1023a8:	e3400011 	movt	r0, #17
  1023ac:	eb0001eb 	bl	102b60 <Xil_Assert>
  1023b0:	e3a03001 	mov	r3, #1
  1023b4:	e5843000 	str	r3, [r4]
  1023b8:	e8bd8010 	pop	{r4, pc}
  1023bc:	e307010c 	movw	r0, #28940	; 0x710c
  1023c0:	e30011d3 	movw	r1, #467	; 0x1d3
  1023c4:	e3400011 	movt	r0, #17
  1023c8:	eb0001e4 	bl	102b60 <Xil_Assert>
  1023cc:	e3a03001 	mov	r3, #1
  1023d0:	e5843000 	str	r3, [r4]
  1023d4:	e8bd8010 	pop	{r4, pc}
  1023d8:	e5900000 	ldr	r0, [r0]
  1023dc:	e1a032a1 	lsr	r3, r1, #5
  1023e0:	e3a02001 	mov	r2, #1
  1023e4:	e8bd4010 	pop	{r4, lr}
  1023e8:	e201101f 	and	r1, r1, #31
  1023ec:	e2833040 	add	r3, r3, #64	; 0x40
  1023f0:	e5900008 	ldr	r0, [r0, #8]
  1023f4:	e1a01112 	lsl	r1, r2, r1
  1023f8:	e0800103 	add	r0, r0, r3, lsl #2
  1023fc:	ea000483 	b	103610 <Xil_Out32>
  102400:	e307010c 	movw	r0, #28940	; 0x710c
  102404:	e30011d2 	movw	r1, #466	; 0x1d2
  102408:	e3400011 	movt	r0, #17
  10240c:	eb0001d3 	bl	102b60 <Xil_Assert>
  102410:	e3003aec 	movw	r3, #2796	; 0xaec
  102414:	e3a02001 	mov	r2, #1
  102418:	e3403012 	movt	r3, #18
  10241c:	e5832000 	str	r2, [r3]
  102420:	e8bd8010 	pop	{r4, pc}

00102424 <XScuGic_Disable>:
  102424:	e3500000 	cmp	r0, #0
  102428:	e92d4010 	push	{r4, lr}
  10242c:	0a000022 	beq	1024bc <XScuGic_Disable+0x98>
  102430:	e3004aec 	movw	r4, #2796	; 0xaec
  102434:	e35100c2 	cmp	r1, #194	; 0xc2
  102438:	e3404012 	movt	r4, #18
  10243c:	e3a03000 	mov	r3, #0
  102440:	e5843000 	str	r3, [r4]
  102444:	8a00000b 	bhi	102478 <XScuGic_Disable+0x54>
  102448:	e5902004 	ldr	r2, [r0, #4]
  10244c:	e3013111 	movw	r3, #4369	; 0x1111
  102450:	e3413111 	movt	r3, #4369	; 0x1111
  102454:	e1520003 	cmp	r2, r3
  102458:	0a00000d 	beq	102494 <XScuGic_Disable+0x70>
  10245c:	e307010c 	movw	r0, #28940	; 0x710c
  102460:	e30011fe 	movw	r1, #510	; 0x1fe
  102464:	e3400011 	movt	r0, #17
  102468:	eb0001bc 	bl	102b60 <Xil_Assert>
  10246c:	e3a03001 	mov	r3, #1
  102470:	e5843000 	str	r3, [r4]
  102474:	e8bd8010 	pop	{r4, pc}
  102478:	e307010c 	movw	r0, #28940	; 0x710c
  10247c:	e30011fd 	movw	r1, #509	; 0x1fd
  102480:	e3400011 	movt	r0, #17
  102484:	eb0001b5 	bl	102b60 <Xil_Assert>
  102488:	e3a03001 	mov	r3, #1
  10248c:	e5843000 	str	r3, [r4]
  102490:	e8bd8010 	pop	{r4, pc}
  102494:	e5900000 	ldr	r0, [r0]
  102498:	e1a032a1 	lsr	r3, r1, #5
  10249c:	e3a02001 	mov	r2, #1
  1024a0:	e8bd4010 	pop	{r4, lr}
  1024a4:	e201101f 	and	r1, r1, #31
  1024a8:	e2833060 	add	r3, r3, #96	; 0x60
  1024ac:	e5900008 	ldr	r0, [r0, #8]
  1024b0:	e1a01112 	lsl	r1, r2, r1
  1024b4:	e0800103 	add	r0, r0, r3, lsl #2
  1024b8:	ea000454 	b	103610 <Xil_Out32>
  1024bc:	e307010c 	movw	r0, #28940	; 0x710c
  1024c0:	e3a01f7f 	mov	r1, #508	; 0x1fc
  1024c4:	e3400011 	movt	r0, #17
  1024c8:	eb0001a4 	bl	102b60 <Xil_Assert>
  1024cc:	e3003aec 	movw	r3, #2796	; 0xaec
  1024d0:	e3a02001 	mov	r2, #1
  1024d4:	e3403012 	movt	r3, #18
  1024d8:	e5832000 	str	r2, [r3]
  1024dc:	e8bd8010 	pop	{r4, pc}

001024e0 <XScuGic_SoftwareIntr>:
  1024e0:	e3500000 	cmp	r0, #0
  1024e4:	e92d4010 	push	{r4, lr}
  1024e8:	0a00002e 	beq	1025a8 <XScuGic_SoftwareIntr+0xc8>
  1024ec:	e590e004 	ldr	lr, [r0, #4]
  1024f0:	e3013111 	movw	r3, #4369	; 0x1111
  1024f4:	e3413111 	movt	r3, #4369	; 0x1111
  1024f8:	e3004aec 	movw	r4, #2796	; 0xaec
  1024fc:	e3404012 	movt	r4, #18
  102500:	e3a0c000 	mov	ip, #0
  102504:	e15e0003 	cmp	lr, r3
  102508:	e584c000 	str	ip, [r4]
  10250c:	1a00000b 	bne	102540 <XScuGic_SoftwareIntr+0x60>
  102510:	e351000f 	cmp	r1, #15
  102514:	8a000011 	bhi	102560 <XScuGic_SoftwareIntr+0x80>
  102518:	e35200ff 	cmp	r2, #255	; 0xff
  10251c:	9a000017 	bls	102580 <XScuGic_SoftwareIntr+0xa0>
  102520:	e307010c 	movw	r0, #28940	; 0x710c
  102524:	e300122d 	movw	r1, #557	; 0x22d
  102528:	e3400011 	movt	r0, #17
  10252c:	eb00018b 	bl	102b60 <Xil_Assert>
  102530:	e3a03001 	mov	r3, #1
  102534:	e5843000 	str	r3, [r4]
  102538:	e3a00000 	mov	r0, #0
  10253c:	e8bd8010 	pop	{r4, pc}
  102540:	e307010c 	movw	r0, #28940	; 0x710c
  102544:	e300122b 	movw	r1, #555	; 0x22b
  102548:	e3400011 	movt	r0, #17
  10254c:	eb000183 	bl	102b60 <Xil_Assert>
  102550:	e3a03001 	mov	r3, #1
  102554:	e3a00000 	mov	r0, #0
  102558:	e5843000 	str	r3, [r4]
  10255c:	e8bd8010 	pop	{r4, pc}
  102560:	e307010c 	movw	r0, #28940	; 0x710c
  102564:	e3a01f8b 	mov	r1, #556	; 0x22c
  102568:	e3400011 	movt	r0, #17
  10256c:	eb00017b 	bl	102b60 <Xil_Assert>
  102570:	e3a03001 	mov	r3, #1
  102574:	e3a00000 	mov	r0, #0
  102578:	e5843000 	str	r3, [r4]
  10257c:	e8bd8010 	pop	{r4, pc}
  102580:	e5903000 	ldr	r3, [r0]
  102584:	e1812802 	orr	r2, r1, r2, lsl #16
  102588:	e3a0100f 	mov	r1, #15
  10258c:	e34010ff 	movt	r1, #255	; 0xff
  102590:	e5930008 	ldr	r0, [r3, #8]
  102594:	e0011002 	and	r1, r1, r2
  102598:	e2800c0f 	add	r0, r0, #3840	; 0xf00
  10259c:	eb00041b 	bl	103610 <Xil_Out32>
  1025a0:	e3a00000 	mov	r0, #0
  1025a4:	e8bd8010 	pop	{r4, pc}
  1025a8:	e307010c 	movw	r0, #28940	; 0x710c
  1025ac:	e300122a 	movw	r1, #554	; 0x22a
  1025b0:	e3400011 	movt	r0, #17
  1025b4:	eb000169 	bl	102b60 <Xil_Assert>
  1025b8:	e3003aec 	movw	r3, #2796	; 0xaec
  1025bc:	e3a02001 	mov	r2, #1
  1025c0:	e3403012 	movt	r3, #18
  1025c4:	e5832000 	str	r2, [r3]
  1025c8:	eaffffda 	b	102538 <XScuGic_SoftwareIntr+0x58>

001025cc <XScuGic_SetPriorityTriggerType>:
  1025cc:	e92d4070 	push	{r4, r5, r6, lr}
  1025d0:	e2506000 	subs	r6, r0, #0
  1025d4:	e24dd008 	sub	sp, sp, #8
  1025d8:	0a000053 	beq	10272c <XScuGic_SetPriorityTriggerType+0x160>
  1025dc:	e596e004 	ldr	lr, [r6, #4]
  1025e0:	e301c111 	movw	ip, #4369	; 0x1111
  1025e4:	e341c111 	movt	ip, #4369	; 0x1111
  1025e8:	e3004aec 	movw	r4, #2796	; 0xaec
  1025ec:	e3404012 	movt	r4, #18
  1025f0:	e3a00000 	mov	r0, #0
  1025f4:	e15e000c 	cmp	lr, ip
  1025f8:	e5840000 	str	r0, [r4]
  1025fc:	1a00000e 	bne	10263c <XScuGic_SetPriorityTriggerType+0x70>
  102600:	e35100c2 	cmp	r1, #194	; 0xc2
  102604:	e1a05001 	mov	r5, r1
  102608:	8a000013 	bhi	10265c <XScuGic_SetPriorityTriggerType+0x90>
  10260c:	e3530003 	cmp	r3, #3
  102610:	8a00003e 	bhi	102710 <XScuGic_SetPriorityTriggerType+0x144>
  102614:	e35200f8 	cmp	r2, #248	; 0xf8
  102618:	9a000017 	bls	10267c <XScuGic_SetPriorityTriggerType+0xb0>
  10261c:	e307010c 	movw	r0, #28940	; 0x710c
  102620:	e3a01d0a 	mov	r1, #640	; 0x280
  102624:	e3400011 	movt	r0, #17
  102628:	eb00014c 	bl	102b60 <Xil_Assert>
  10262c:	e3a03001 	mov	r3, #1
  102630:	e5843000 	str	r3, [r4]
  102634:	e28dd008 	add	sp, sp, #8
  102638:	e8bd8070 	pop	{r4, r5, r6, pc}
  10263c:	e307010c 	movw	r0, #28940	; 0x710c
  102640:	e300127d 	movw	r1, #637	; 0x27d
  102644:	e3400011 	movt	r0, #17
  102648:	eb000144 	bl	102b60 <Xil_Assert>
  10264c:	e3a03001 	mov	r3, #1
  102650:	e5843000 	str	r3, [r4]
  102654:	e28dd008 	add	sp, sp, #8
  102658:	e8bd8070 	pop	{r4, r5, r6, pc}
  10265c:	e307010c 	movw	r0, #28940	; 0x710c
  102660:	e300127e 	movw	r1, #638	; 0x27e
  102664:	e3400011 	movt	r0, #17
  102668:	eb00013c 	bl	102b60 <Xil_Assert>
  10266c:	e3a03001 	mov	r3, #1
  102670:	e5843000 	str	r3, [r4]
  102674:	e28dd008 	add	sp, sp, #8
  102678:	e8bd8070 	pop	{r4, r5, r6, pc}
  10267c:	e5961000 	ldr	r1, [r6]
  102680:	e3c54003 	bic	r4, r5, #3
  102684:	e2844b01 	add	r4, r4, #1024	; 0x400
  102688:	e88d000c 	stm	sp, {r2, r3}
  10268c:	e5910008 	ldr	r0, [r1, #8]
  102690:	e0840000 	add	r0, r4, r0
  102694:	eb0003d7 	bl	1035f8 <Xil_In32>
  102698:	e596e000 	ldr	lr, [r6]
  10269c:	e205c003 	and	ip, r5, #3
  1026a0:	e1a0c18c 	lsl	ip, ip, #3
  1026a4:	e59d2000 	ldr	r2, [sp]
  1026a8:	e3a010ff 	mov	r1, #255	; 0xff
  1026ac:	e59ee008 	ldr	lr, [lr, #8]
  1026b0:	e1c01c11 	bic	r1, r0, r1, lsl ip
  1026b4:	e20220f8 	and	r2, r2, #248	; 0xf8
  1026b8:	e1811c12 	orr	r1, r1, r2, lsl ip
  1026bc:	e084000e 	add	r0, r4, lr
  1026c0:	e1a04225 	lsr	r4, r5, #4
  1026c4:	e205500f 	and	r5, r5, #15
  1026c8:	eb0003d0 	bl	103610 <Xil_Out32>
  1026cc:	e5962000 	ldr	r2, [r6]
  1026d0:	e2844c03 	add	r4, r4, #768	; 0x300
  1026d4:	e1a04104 	lsl	r4, r4, #2
  1026d8:	e1a05085 	lsl	r5, r5, #1
  1026dc:	e5920008 	ldr	r0, [r2, #8]
  1026e0:	e0840000 	add	r0, r4, r0
  1026e4:	eb0003c3 	bl	1035f8 <Xil_In32>
  1026e8:	e5962000 	ldr	r2, [r6]
  1026ec:	e3a01003 	mov	r1, #3
  1026f0:	e59d3004 	ldr	r3, [sp, #4]
  1026f4:	e1c01511 	bic	r1, r0, r1, lsl r5
  1026f8:	e5922008 	ldr	r2, [r2, #8]
  1026fc:	e1811513 	orr	r1, r1, r3, lsl r5
  102700:	e0840002 	add	r0, r4, r2
  102704:	e28dd008 	add	sp, sp, #8
  102708:	e8bd4070 	pop	{r4, r5, r6, lr}
  10270c:	ea0003bf 	b	103610 <Xil_Out32>
  102710:	e307010c 	movw	r0, #28940	; 0x710c
  102714:	e300127f 	movw	r1, #639	; 0x27f
  102718:	e3400011 	movt	r0, #17
  10271c:	eb00010f 	bl	102b60 <Xil_Assert>
  102720:	e3a03001 	mov	r3, #1
  102724:	e5843000 	str	r3, [r4]
  102728:	eaffffc1 	b	102634 <XScuGic_SetPriorityTriggerType+0x68>
  10272c:	e307010c 	movw	r0, #28940	; 0x710c
  102730:	e3a01f9f 	mov	r1, #636	; 0x27c
  102734:	e3400011 	movt	r0, #17
  102738:	eb000108 	bl	102b60 <Xil_Assert>
  10273c:	e3003aec 	movw	r3, #2796	; 0xaec
  102740:	e3a02001 	mov	r2, #1
  102744:	e3403012 	movt	r3, #18
  102748:	e5832000 	str	r2, [r3]
  10274c:	eaffffb8 	b	102634 <XScuGic_SetPriorityTriggerType+0x68>

00102750 <XScuGic_GetPriorityTriggerType>:
  102750:	e92d41f0 	push	{r4, r5, r6, r7, r8, lr}
  102754:	e2506000 	subs	r6, r0, #0
  102758:	0a00003c 	beq	102850 <XScuGic_GetPriorityTriggerType+0x100>
  10275c:	e5960004 	ldr	r0, [r6, #4]
  102760:	e1a04001 	mov	r4, r1
  102764:	e3011111 	movw	r1, #4369	; 0x1111
  102768:	e3005aec 	movw	r5, #2796	; 0xaec
  10276c:	e3411111 	movt	r1, #4369	; 0x1111
  102770:	e1a07003 	mov	r7, r3
  102774:	e1500001 	cmp	r0, r1
  102778:	e3405012 	movt	r5, #18
  10277c:	e3a03000 	mov	r3, #0
  102780:	e5853000 	str	r3, [r5]
  102784:	1a00001c 	bne	1027fc <XScuGic_GetPriorityTriggerType+0xac>
  102788:	e35400c2 	cmp	r4, #194	; 0xc2
  10278c:	8a000021 	bhi	102818 <XScuGic_GetPriorityTriggerType+0xc8>
  102790:	e3520000 	cmp	r2, #0
  102794:	e1a08002 	mov	r8, r2
  102798:	0a000035 	beq	102874 <XScuGic_GetPriorityTriggerType+0x124>
  10279c:	e3570000 	cmp	r7, #0
  1027a0:	0a000023 	beq	102834 <XScuGic_GetPriorityTriggerType+0xe4>
  1027a4:	e5962000 	ldr	r2, [r6]
  1027a8:	e3c43003 	bic	r3, r4, #3
  1027ac:	e2833b01 	add	r3, r3, #1024	; 0x400
  1027b0:	e5920008 	ldr	r0, [r2, #8]
  1027b4:	e0830000 	add	r0, r3, r0
  1027b8:	eb00038e 	bl	1035f8 <Xil_In32>
  1027bc:	e2041003 	and	r1, r4, #3
  1027c0:	e1a03224 	lsr	r3, r4, #4
  1027c4:	e1a01181 	lsl	r1, r1, #3
  1027c8:	e204400f 	and	r4, r4, #15
  1027cc:	e2833c03 	add	r3, r3, #768	; 0x300
  1027d0:	e1a04084 	lsl	r4, r4, #1
  1027d4:	e1a00130 	lsr	r0, r0, r1
  1027d8:	e5c80000 	strb	r0, [r8]
  1027dc:	e5962000 	ldr	r2, [r6]
  1027e0:	e5920008 	ldr	r0, [r2, #8]
  1027e4:	e0800103 	add	r0, r0, r3, lsl #2
  1027e8:	eb000382 	bl	1035f8 <Xil_In32>
  1027ec:	e1a00430 	lsr	r0, r0, r4
  1027f0:	e2004003 	and	r4, r0, #3
  1027f4:	e5c74000 	strb	r4, [r7]
  1027f8:	e8bd81f0 	pop	{r4, r5, r6, r7, r8, pc}
  1027fc:	e307010c 	movw	r0, #28940	; 0x710c
  102800:	e30012c7 	movw	r1, #711	; 0x2c7
  102804:	e3400011 	movt	r0, #17
  102808:	eb0000d4 	bl	102b60 <Xil_Assert>
  10280c:	e3a03001 	mov	r3, #1
  102810:	e5853000 	str	r3, [r5]
  102814:	e8bd81f0 	pop	{r4, r5, r6, r7, r8, pc}
  102818:	e307010c 	movw	r0, #28940	; 0x710c
  10281c:	e3a01fb2 	mov	r1, #712	; 0x2c8
  102820:	e3400011 	movt	r0, #17
  102824:	eb0000cd 	bl	102b60 <Xil_Assert>
  102828:	e3a03001 	mov	r3, #1
  10282c:	e5853000 	str	r3, [r5]
  102830:	e8bd81f0 	pop	{r4, r5, r6, r7, r8, pc}
  102834:	e307010c 	movw	r0, #28940	; 0x710c
  102838:	e30012ca 	movw	r1, #714	; 0x2ca
  10283c:	e3400011 	movt	r0, #17
  102840:	eb0000c6 	bl	102b60 <Xil_Assert>
  102844:	e3a03001 	mov	r3, #1
  102848:	e5853000 	str	r3, [r5]
  10284c:	e8bd81f0 	pop	{r4, r5, r6, r7, r8, pc}
  102850:	e307010c 	movw	r0, #28940	; 0x710c
  102854:	e30012c6 	movw	r1, #710	; 0x2c6
  102858:	e3400011 	movt	r0, #17
  10285c:	eb0000bf 	bl	102b60 <Xil_Assert>
  102860:	e3003aec 	movw	r3, #2796	; 0xaec
  102864:	e3a02001 	mov	r2, #1
  102868:	e3403012 	movt	r3, #18
  10286c:	e5832000 	str	r2, [r3]
  102870:	e8bd81f0 	pop	{r4, r5, r6, r7, r8, pc}
  102874:	e307010c 	movw	r0, #28940	; 0x710c
  102878:	e30012c9 	movw	r1, #713	; 0x2c9
  10287c:	e3400011 	movt	r0, #17
  102880:	eb0000b6 	bl	102b60 <Xil_Assert>
  102884:	e3a03001 	mov	r3, #1
  102888:	e5853000 	str	r3, [r5]
  10288c:	e8bd81f0 	pop	{r4, r5, r6, r7, r8, pc}

00102890 <XScuGic_InterruptMaptoCpu>:
  102890:	e5903000 	ldr	r3, [r0]
  102894:	e92d41f0 	push	{r4, r5, r6, r7, r8, lr}
  102898:	e1a06000 	mov	r6, r0
  10289c:	e3c25003 	bic	r5, r2, #3
  1028a0:	e1a07001 	mov	r7, r1
  1028a4:	e2855b02 	add	r5, r5, #2048	; 0x800
  1028a8:	e1a04002 	mov	r4, r2
  1028ac:	e5930008 	ldr	r0, [r3, #8]
  1028b0:	e2044003 	and	r4, r4, #3
  1028b4:	e1a04184 	lsl	r4, r4, #3
  1028b8:	e0850000 	add	r0, r5, r0
  1028bc:	eb00034d 	bl	1035f8 <Xil_In32>
  1028c0:	e5962000 	ldr	r2, [r6]
  1028c4:	e3a030ff 	mov	r3, #255	; 0xff
  1028c8:	e1c01413 	bic	r1, r0, r3, lsl r4
  1028cc:	e5922008 	ldr	r2, [r2, #8]
  1028d0:	e1811417 	orr	r1, r1, r7, lsl r4
  1028d4:	e0850002 	add	r0, r5, r2
  1028d8:	e8bd41f0 	pop	{r4, r5, r6, r7, r8, lr}
  1028dc:	ea00034b 	b	103610 <Xil_Out32>

001028e0 <XScuGic_InterruptHandler>:
  1028e0:	e92d4070 	push	{r4, r5, r6, lr}
  1028e4:	e2504000 	subs	r4, r0, #0
  1028e8:	0a000018 	beq	102950 <XScuGic_InterruptHandler+0x70>
  1028ec:	e5942000 	ldr	r2, [r4]
  1028f0:	e3003aec 	movw	r3, #2796	; 0xaec
  1028f4:	e3403012 	movt	r3, #18
  1028f8:	e3a01000 	mov	r1, #0
  1028fc:	e5831000 	str	r1, [r3]
  102900:	e5920004 	ldr	r0, [r2, #4]
  102904:	e280000c 	add	r0, r0, #12
  102908:	eb00033a 	bl	1035f8 <Xil_In32>
  10290c:	e7e92050 	ubfx	r2, r0, #0, #10
  102910:	e1a05000 	mov	r5, r0
  102914:	e35200c3 	cmp	r2, #195	; 0xc3
  102918:	e5943000 	ldr	r3, [r4]
  10291c:	8a000006 	bhi	10293c <XScuGic_InterruptHandler+0x5c>
  102920:	e0831182 	add	r1, r3, r2, lsl #3
  102924:	e371000c 	cmn	r1, #12
  102928:	0a000003 	beq	10293c <XScuGic_InterruptHandler+0x5c>
  10292c:	e591200c 	ldr	r2, [r1, #12]
  102930:	e5910010 	ldr	r0, [r1, #16]
  102934:	e12fff32 	blx	r2
  102938:	e5943000 	ldr	r3, [r4]
  10293c:	e5930004 	ldr	r0, [r3, #4]
  102940:	e1a01005 	mov	r1, r5
  102944:	e8bd4070 	pop	{r4, r5, r6, lr}
  102948:	e2800010 	add	r0, r0, #16
  10294c:	ea00032f 	b	103610 <Xil_Out32>
  102950:	e3070118 	movw	r0, #28952	; 0x7118
  102954:	e3a0107d 	mov	r1, #125	; 0x7d
  102958:	e3400011 	movt	r0, #17
  10295c:	eb00007f 	bl	102b60 <Xil_Assert>
  102960:	e3003aec 	movw	r3, #2796	; 0xaec
  102964:	e3a02001 	mov	r2, #1
  102968:	e3403012 	movt	r3, #18
  10296c:	e5832000 	str	r2, [r3]
  102970:	e8bd8070 	pop	{r4, r5, r6, pc}

00102974 <XScuGic_SelfTest>:
  102974:	e92d4070 	push	{r4, r5, r6, lr}
  102978:	e2506000 	subs	r6, r0, #0
  10297c:	0a000020 	beq	102a04 <XScuGic_SelfTest+0x90>
  102980:	e5962004 	ldr	r2, [r6, #4]
  102984:	e3013111 	movw	r3, #4369	; 0x1111
  102988:	e3413111 	movt	r3, #4369	; 0x1111
  10298c:	e3005aec 	movw	r5, #2796	; 0xaec
  102990:	e3405012 	movt	r5, #18
  102994:	e3a04000 	mov	r4, #0
  102998:	e1520003 	cmp	r2, r3
  10299c:	e5854000 	str	r4, [r5]
  1029a0:	01a05004 	moveq	r5, r4
  1029a4:	1a00000e 	bne	1029e4 <XScuGic_SelfTest+0x70>
  1029a8:	e5963000 	ldr	r3, [r6]
  1029ac:	e5933008 	ldr	r3, [r3, #8]
  1029b0:	e2830eff 	add	r0, r3, #4080	; 0xff0
  1029b4:	e0800004 	add	r0, r0, r4
  1029b8:	eb00030e 	bl	1035f8 <Xil_In32>
  1029bc:	e1a03084 	lsl	r3, r4, #1
  1029c0:	e2844004 	add	r4, r4, #4
  1029c4:	e3540010 	cmp	r4, #16
  1029c8:	e1855310 	orr	r5, r5, r0, lsl r3
  1029cc:	1afffff5 	bne	1029a8 <XScuGic_SelfTest+0x34>
  1029d0:	e30f300d 	movw	r3, #61453	; 0xf00d
  1029d4:	e34b3105 	movt	r3, #45317	; 0xb105
  1029d8:	e0550003 	subs	r0, r5, r3
  1029dc:	13a00001 	movne	r0, #1
  1029e0:	e8bd8070 	pop	{r4, r5, r6, pc}
  1029e4:	e3070128 	movw	r0, #28968	; 0x7128
  1029e8:	e3a01062 	mov	r1, #98	; 0x62
  1029ec:	e3400011 	movt	r0, #17
  1029f0:	eb00005a 	bl	102b60 <Xil_Assert>
  1029f4:	e3a03001 	mov	r3, #1
  1029f8:	e1a00004 	mov	r0, r4
  1029fc:	e5853000 	str	r3, [r5]
  102a00:	e8bd8070 	pop	{r4, r5, r6, pc}
  102a04:	e3070128 	movw	r0, #28968	; 0x7128
  102a08:	e3a01061 	mov	r1, #97	; 0x61
  102a0c:	e3400011 	movt	r0, #17
  102a10:	eb000052 	bl	102b60 <Xil_Assert>
  102a14:	e3003aec 	movw	r3, #2796	; 0xaec
  102a18:	e3a02001 	mov	r2, #1
  102a1c:	e3403012 	movt	r3, #18
  102a20:	e1a00006 	mov	r0, r6
  102a24:	e5832000 	str	r2, [r3]
  102a28:	e8bd8070 	pop	{r4, r5, r6, pc}

00102a2c <XScuGic_LookupConfig>:
  102a2c:	e307335c 	movw	r3, #29532	; 0x735c
  102a30:	e3403011 	movt	r3, #17
  102a34:	e1d320b0 	ldrh	r2, [r3]
  102a38:	e1520000 	cmp	r2, r0
  102a3c:	01a00003 	moveq	r0, r3
  102a40:	13a00000 	movne	r0, #0
  102a44:	e12fff1e 	bx	lr

00102a48 <print>:
  102a48:	e92d4010 	push	{r4, lr}
  102a4c:	e1a04000 	mov	r4, r0
  102a50:	e5d00000 	ldrb	r0, [r0]
  102a54:	e3500000 	cmp	r0, #0
  102a58:	08bd8010 	popeq	{r4, pc}
  102a5c:	eb0004de 	bl	103ddc <outbyte>
  102a60:	e5f40001 	ldrb	r0, [r4, #1]!
  102a64:	e3500000 	cmp	r0, #0
  102a68:	1afffffb 	bne	102a5c <print+0x14>
  102a6c:	e8bd8010 	pop	{r4, pc}

00102a70 <UndefinedException>:
  102a70:	e307331c 	movw	r3, #29468	; 0x731c
  102a74:	e3403011 	movt	r3, #17
  102a78:	e5932008 	ldr	r2, [r3, #8]
  102a7c:	e593000c 	ldr	r0, [r3, #12]
  102a80:	e12fff12 	bx	r2

00102a84 <FIQInterrupt>:
  102a84:	e307331c 	movw	r3, #29468	; 0x731c
  102a88:	e3403011 	movt	r3, #17
  102a8c:	e5932030 	ldr	r2, [r3, #48]	; 0x30
  102a90:	e5930034 	ldr	r0, [r3, #52]	; 0x34
  102a94:	e12fff12 	bx	r2

00102a98 <IRQInterrupt>:
  102a98:	e307331c 	movw	r3, #29468	; 0x731c
  102a9c:	e3403011 	movt	r3, #17
  102aa0:	e5932028 	ldr	r2, [r3, #40]	; 0x28
  102aa4:	e593002c 	ldr	r0, [r3, #44]	; 0x2c
  102aa8:	e12fff12 	bx	r2

00102aac <SWInterrupt>:
  102aac:	e307331c 	movw	r3, #29468	; 0x731c
  102ab0:	e3403011 	movt	r3, #17
  102ab4:	e5932010 	ldr	r2, [r3, #16]
  102ab8:	e5930014 	ldr	r0, [r3, #20]
  102abc:	e12fff12 	bx	r2

00102ac0 <DataAbortInterrupt>:
  102ac0:	e307331c 	movw	r3, #29468	; 0x731c
  102ac4:	e3403011 	movt	r3, #17
  102ac8:	e5932020 	ldr	r2, [r3, #32]
  102acc:	e5930024 	ldr	r0, [r3, #36]	; 0x24
  102ad0:	e12fff12 	bx	r2

00102ad4 <PrefetchAbortInterrupt>:
  102ad4:	e307331c 	movw	r3, #29468	; 0x731c
  102ad8:	e3403011 	movt	r3, #17
  102adc:	e5932018 	ldr	r2, [r3, #24]
  102ae0:	e593001c 	ldr	r0, [r3, #28]
  102ae4:	e12fff12 	bx	r2
  102ae8:	00120014 	.word	0x00120014
  102aec:	00120014 	.word	0x00120014
  102af0:	00120020 	.word	0x00120020
  102af4:	00120b00 	.word	0x00120b00
  102af8:	07616180 	.word	0x07616180

00102afc <_start>:
  102afc:	eb0004a7 	bl	103da0 <__cpu_init>
  102b00:	e3a00000 	mov	r0, #0
  102b04:	e51f1024 	ldr	r1, [pc, #-36]	; 102ae8 <PrefetchAbortInterrupt+0x14>
  102b08:	e51f2024 	ldr	r2, [pc, #-36]	; 102aec <PrefetchAbortInterrupt+0x18>
  102b0c:	e1510002 	cmp	r1, r2
  102b10:	aa000001 	bge	102b1c <_start+0x20>
  102b14:	e4810004 	str	r0, [r1], #4
  102b18:	eafffffb 	b	102b0c <_start+0x10>
  102b1c:	e51f1034 	ldr	r1, [pc, #-52]	; 102af0 <PrefetchAbortInterrupt+0x1c>
  102b20:	e51f2034 	ldr	r2, [pc, #-52]	; 102af4 <PrefetchAbortInterrupt+0x20>
  102b24:	e1510002 	cmp	r1, r2
  102b28:	aa000001 	bge	102b34 <_start+0x38>
  102b2c:	e4810004 	str	r0, [r1], #4
  102b30:	eafffffb 	b	102b24 <_start+0x28>
  102b34:	e51fd044 	ldr	sp, [pc, #-68]	; 102af8 <PrefetchAbortInterrupt+0x24>
  102b38:	e3a00000 	mov	r0, #0
  102b3c:	e3a01000 	mov	r1, #0
  102b40:	eb00046e 	bl	103d00 <XTime_SetTime>
  102b44:	eb00058a 	bl	104174 <__libc_init_array>
  102b48:	e3a00000 	mov	r0, #0
  102b4c:	e3a01000 	mov	r1, #0
  102b50:	eb004e0a 	bl	116380 <main>
  102b54:	eb000576 	bl	104134 <__libc_fini_array>
  102b58:	eb000568 	bl	104100 <exit>
  102b5c:	eafffffe 	b	102b5c <_start+0x60>

00102b60 <Xil_Assert>:
  102b60:	e3003050 	movw	r3, #80	; 0x50
  102b64:	e92d4010 	push	{r4, lr}
  102b68:	e3403012 	movt	r3, #18
  102b6c:	e5933000 	ldr	r3, [r3]
  102b70:	e3530000 	cmp	r3, #0
  102b74:	0a000000 	beq	102b7c <Xil_Assert+0x1c>
  102b78:	e12fff33 	blx	r3
  102b7c:	eafffffe 	b	102b7c <Xil_Assert+0x1c>

00102b80 <Xil_AssertSetCallback>:
  102b80:	e3003050 	movw	r3, #80	; 0x50
  102b84:	e3403012 	movt	r3, #18
  102b88:	e5830000 	str	r0, [r3]
  102b8c:	e12fff1e 	bx	lr

00102b90 <XNullHandler>:
  102b90:	e12fff1e 	bx	lr

00102b94 <Xil_DCacheInvalidateLine>:
  102b94:	e92d4070 	push	{r4, r5, r6, lr}
  102b98:	e1a04000 	mov	r4, r0
  102b9c:	e10f5000 	mrs	r5, CPSR
  102ba0:	e38530c0 	orr	r3, r5, #192	; 0xc0
  102ba4:	e129f003 	msr	CPSR_fc, r3
  102ba8:	e3020770 	movw	r0, #10096	; 0x2770
  102bac:	e1a01004 	mov	r1, r4
  102bb0:	e34f08f0 	movt	r0, #63728	; 0xf8f0
  102bb4:	eb000295 	bl	103610 <Xil_Out32>
  102bb8:	f57ff04f 	dsb	sy
  102bbc:	e3a03000 	mov	r3, #0
  102bc0:	ee403f10 	mcr	15, 2, r3, cr0, cr0, {0}
  102bc4:	e3c4401f 	bic	r4, r4, #31
  102bc8:	ee074f36 	mcr	15, 0, r4, cr7, cr6, {1}
  102bcc:	f57ff04f 	dsb	sy
  102bd0:	e129f005 	msr	CPSR_fc, r5
  102bd4:	e8bd8070 	pop	{r4, r5, r6, pc}

00102bd8 <Xil_DCacheFlushRange>:
  102bd8:	e92d41f0 	push	{r4, r5, r6, r7, r8, lr}
  102bdc:	e10f7000 	mrs	r7, CPSR
  102be0:	e38730c0 	orr	r3, r7, #192	; 0xc0
  102be4:	e129f003 	msr	CPSR_fc, r3
  102be8:	e3510000 	cmp	r1, #0
  102bec:	0a00000e 	beq	102c2c <Xil_DCacheFlushRange+0x54>
  102bf0:	e0805001 	add	r5, r0, r1
  102bf4:	e3c0401f 	bic	r4, r0, #31
  102bf8:	e1550004 	cmp	r5, r4
  102bfc:	9a00000a 	bls	102c2c <Xil_DCacheFlushRange+0x54>
  102c00:	e3a06a02 	mov	r6, #8192	; 0x2000
  102c04:	e34f68f0 	movt	r6, #63728	; 0xf8f0
  102c08:	ee074f3e 	mcr	15, 0, r4, cr7, cr14, {1}
  102c0c:	e3a00d9d 	mov	r0, #10048	; 0x2740
  102c10:	e58647f0 	str	r4, [r6, #2032]	; 0x7f0
  102c14:	e34f08f0 	movt	r0, #63728	; 0xf8f0
  102c18:	e2844020 	add	r4, r4, #32
  102c1c:	e3a01000 	mov	r1, #0
  102c20:	eb00027a 	bl	103610 <Xil_Out32>
  102c24:	e1550004 	cmp	r5, r4
  102c28:	8afffff6 	bhi	102c08 <Xil_DCacheFlushRange+0x30>
  102c2c:	f57ff04f 	dsb	sy
  102c30:	e129f007 	msr	CPSR_fc, r7
  102c34:	e8bd81f0 	pop	{r4, r5, r6, r7, r8, pc}

00102c38 <Xil_DCacheStoreLine>:
  102c38:	e92d4010 	push	{r4, lr}
  102c3c:	e1a01000 	mov	r1, r0
  102c40:	e10f4000 	mrs	r4, CPSR
  102c44:	e38430c0 	orr	r3, r4, #192	; 0xc0
  102c48:	e129f003 	msr	CPSR_fc, r3
  102c4c:	e3a03000 	mov	r3, #0
  102c50:	ee403f10 	mcr	15, 2, r3, cr0, cr0, {0}
  102c54:	e3c0301f 	bic	r3, r0, #31
  102c58:	ee073f3a 	mcr	15, 0, r3, cr7, cr10, {1}
  102c5c:	f57ff04f 	dsb	sy
  102c60:	e30207b0 	movw	r0, #10160	; 0x27b0
  102c64:	e34f08f0 	movt	r0, #63728	; 0xf8f0
  102c68:	eb000268 	bl	103610 <Xil_Out32>
  102c6c:	f57ff04f 	dsb	sy
  102c70:	e129f004 	msr	CPSR_fc, r4
  102c74:	e8bd8010 	pop	{r4, pc}

00102c78 <Xil_ICacheInvalidateLine>:
  102c78:	e92d4070 	push	{r4, r5, r6, lr}
  102c7c:	e1a04000 	mov	r4, r0
  102c80:	e10f5000 	mrs	r5, CPSR
  102c84:	e38530c0 	orr	r3, r5, #192	; 0xc0
  102c88:	e129f003 	msr	CPSR_fc, r3
  102c8c:	e3020770 	movw	r0, #10096	; 0x2770
  102c90:	e1a01004 	mov	r1, r4
  102c94:	e34f08f0 	movt	r0, #63728	; 0xf8f0
  102c98:	eb00025c 	bl	103610 <Xil_Out32>
  102c9c:	f57ff04f 	dsb	sy
  102ca0:	e3a03001 	mov	r3, #1
  102ca4:	ee403f10 	mcr	15, 2, r3, cr0, cr0, {0}
  102ca8:	e3c4401f 	bic	r4, r4, #31
  102cac:	ee074f35 	mcr	15, 0, r4, cr7, cr5, {1}
  102cb0:	f57ff04f 	dsb	sy
  102cb4:	e129f005 	msr	CPSR_fc, r5
  102cb8:	e8bd8070 	pop	{r4, r5, r6, pc}

00102cbc <Xil_ICacheInvalidateRange>:
  102cbc:	e10f2000 	mrs	r2, CPSR
  102cc0:	e38230c0 	orr	r3, r2, #192	; 0xc0
  102cc4:	e129f003 	msr	CPSR_fc, r3
  102cc8:	e3510000 	cmp	r1, #0
  102ccc:	0a00000d 	beq	102d08 <Xil_ICacheInvalidateRange+0x4c>
  102cd0:	e0801001 	add	r1, r0, r1
  102cd4:	e3a03001 	mov	r3, #1
  102cd8:	e3c0001f 	bic	r0, r0, #31
  102cdc:	ee403f10 	mcr	15, 2, r3, cr0, cr0, {0}
  102ce0:	e1510000 	cmp	r1, r0
  102ce4:	9a000007 	bls	102d08 <Xil_ICacheInvalidateRange+0x4c>
  102ce8:	e3a03a02 	mov	r3, #8192	; 0x2000
  102cec:	e34f38f0 	movt	r3, #63728	; 0xf8f0
  102cf0:	e5830770 	str	r0, [r3, #1904]	; 0x770
  102cf4:	f57ff04f 	dsb	sy
  102cf8:	ee070f35 	mcr	15, 0, r0, cr7, cr5, {1}
  102cfc:	e2800020 	add	r0, r0, #32
  102d00:	e1510000 	cmp	r1, r0
  102d04:	8afffff9 	bhi	102cf0 <Xil_ICacheInvalidateRange+0x34>
  102d08:	f57ff04f 	dsb	sy
  102d0c:	e129f002 	msr	CPSR_fc, r2
  102d10:	e12fff1e 	bx	lr

00102d14 <Xil_L1DCacheInvalidate>:
  102d14:	e92d41f0 	push	{r4, r5, r6, r7, r8, lr}
  102d18:	e10f7000 	mrs	r7, CPSR
  102d1c:	e38730c0 	orr	r3, r7, #192	; 0xc0
  102d20:	e129f003 	msr	CPSR_fc, r3
  102d24:	e3071980 	movw	r1, #31104	; 0x7980
  102d28:	e3080b00 	movw	r0, #35584	; 0x8b00
  102d2c:	e340062c 	movt	r0, #1580	; 0x62c
  102d30:	e3401761 	movt	r1, #1889	; 0x761
  102d34:	e0601001 	rsb	r1, r0, r1
  102d38:	e3a05000 	mov	r5, #0
  102d3c:	ebffffa5 	bl	102bd8 <Xil_DCacheFlushRange>
  102d40:	ee405f10 	mcr	15, 2, r5, cr0, cr0, {0}
  102d44:	ee304f10 	mrc	15, 1, r4, cr0, cr0, {0}
  102d48:	e7e806d4 	ubfx	r0, r4, #13, #9
  102d4c:	e7e661d4 	ubfx	r6, r4, #3, #7
  102d50:	e2800001 	add	r0, r0, #1
  102d54:	e2866001 	add	r6, r6, #1
  102d58:	e1a00380 	lsl	r0, r0, #7
  102d5c:	e1a01006 	mov	r1, r6
  102d60:	e2044007 	and	r4, r4, #7
  102d64:	eb00045b 	bl	103ed8 <__aeabi_uidiv>
  102d68:	e2844004 	add	r4, r4, #4
  102d6c:	e3a03001 	mov	r3, #1
  102d70:	e1a00430 	lsr	r0, r0, r4
  102d74:	e1a04413 	lsl	r4, r3, r4
  102d78:	e1a0ef05 	lsl	lr, r5, #30
  102d7c:	e3500000 	cmp	r0, #0
  102d80:	13a03000 	movne	r3, #0
  102d84:	11a02003 	movne	r2, r3
  102d88:	0a000005 	beq	102da4 <Xil_L1DCacheInvalidate+0x90>
  102d8c:	e182c00e 	orr	ip, r2, lr
  102d90:	ee07cf56 	mcr	15, 0, ip, cr7, cr6, {2}
  102d94:	e2833001 	add	r3, r3, #1
  102d98:	e0822004 	add	r2, r2, r4
  102d9c:	e1530000 	cmp	r3, r0
  102da0:	1afffff9 	bne	102d8c <Xil_L1DCacheInvalidate+0x78>
  102da4:	e2855001 	add	r5, r5, #1
  102da8:	e1560005 	cmp	r6, r5
  102dac:	1afffff1 	bne	102d78 <Xil_L1DCacheInvalidate+0x64>
  102db0:	f57ff04f 	dsb	sy
  102db4:	e129f007 	msr	CPSR_fc, r7
  102db8:	e8bd81f0 	pop	{r4, r5, r6, r7, r8, pc}

00102dbc <Xil_L1DCacheEnable>:
  102dbc:	e92d4010 	push	{r4, lr}
  102dc0:	ee114f10 	mrc	15, 0, r4, cr1, cr0, {0}
  102dc4:	e3140004 	tst	r4, #4
  102dc8:	18bd8010 	popne	{r4, pc}
  102dcc:	ebffffd0 	bl	102d14 <Xil_L1DCacheInvalidate>
  102dd0:	e3844004 	orr	r4, r4, #4
  102dd4:	ee014f10 	mcr	15, 0, r4, cr1, cr0, {0}
  102dd8:	e8bd8010 	pop	{r4, pc}

00102ddc <Xil_L1DCacheInvalidateLine>:
  102ddc:	e3a03000 	mov	r3, #0
  102de0:	ee403f10 	mcr	15, 2, r3, cr0, cr0, {0}
  102de4:	e3c0001f 	bic	r0, r0, #31
  102de8:	ee070f36 	mcr	15, 0, r0, cr7, cr6, {1}
  102dec:	f57ff04f 	dsb	sy
  102df0:	e12fff1e 	bx	lr

00102df4 <Xil_L1DCacheInvalidateRange>:
  102df4:	e10f3000 	mrs	r3, CPSR
  102df8:	e38320c0 	orr	r2, r3, #192	; 0xc0
  102dfc:	e129f002 	msr	CPSR_fc, r2
  102e00:	e3510000 	cmp	r1, #0
  102e04:	0a000009 	beq	102e30 <Xil_L1DCacheInvalidateRange+0x3c>
  102e08:	e0801001 	add	r1, r0, r1
  102e0c:	e3a02000 	mov	r2, #0
  102e10:	e3c0001f 	bic	r0, r0, #31
  102e14:	ee402f10 	mcr	15, 2, r2, cr0, cr0, {0}
  102e18:	e1510000 	cmp	r1, r0
  102e1c:	9a000003 	bls	102e30 <Xil_L1DCacheInvalidateRange+0x3c>
  102e20:	ee070f36 	mcr	15, 0, r0, cr7, cr6, {1}
  102e24:	e2800020 	add	r0, r0, #32
  102e28:	e1510000 	cmp	r1, r0
  102e2c:	8afffffb 	bhi	102e20 <Xil_L1DCacheInvalidateRange+0x2c>
  102e30:	f57ff04f 	dsb	sy
  102e34:	e129f003 	msr	CPSR_fc, r3
  102e38:	e12fff1e 	bx	lr

00102e3c <Xil_L1DCacheFlush>:
  102e3c:	e92d41f0 	push	{r4, r5, r6, r7, r8, lr}
  102e40:	e10f7000 	mrs	r7, CPSR
  102e44:	e38730c0 	orr	r3, r7, #192	; 0xc0
  102e48:	e129f003 	msr	CPSR_fc, r3
  102e4c:	e3a05000 	mov	r5, #0
  102e50:	ee405f10 	mcr	15, 2, r5, cr0, cr0, {0}
  102e54:	ee304f10 	mrc	15, 1, r4, cr0, cr0, {0}
  102e58:	e7e806d4 	ubfx	r0, r4, #13, #9
  102e5c:	e7e661d4 	ubfx	r6, r4, #3, #7
  102e60:	e2800001 	add	r0, r0, #1
  102e64:	e2866001 	add	r6, r6, #1
  102e68:	e1a00380 	lsl	r0, r0, #7
  102e6c:	e1a01006 	mov	r1, r6
  102e70:	e2044007 	and	r4, r4, #7
  102e74:	eb000417 	bl	103ed8 <__aeabi_uidiv>
  102e78:	e2844004 	add	r4, r4, #4
  102e7c:	e3a03001 	mov	r3, #1
  102e80:	e1a00430 	lsr	r0, r0, r4
  102e84:	e1a04413 	lsl	r4, r3, r4
  102e88:	e1a0ef05 	lsl	lr, r5, #30
  102e8c:	e3500000 	cmp	r0, #0
  102e90:	13a03000 	movne	r3, #0
  102e94:	11a02003 	movne	r2, r3
  102e98:	0a000005 	beq	102eb4 <Xil_L1DCacheFlush+0x78>
  102e9c:	e182c00e 	orr	ip, r2, lr
  102ea0:	ee07cf5e 	mcr	15, 0, ip, cr7, cr14, {2}
  102ea4:	e2833001 	add	r3, r3, #1
  102ea8:	e0822004 	add	r2, r2, r4
  102eac:	e1530000 	cmp	r3, r0
  102eb0:	1afffff9 	bne	102e9c <Xil_L1DCacheFlush+0x60>
  102eb4:	e2855001 	add	r5, r5, #1
  102eb8:	e1560005 	cmp	r6, r5
  102ebc:	1afffff1 	bne	102e88 <Xil_L1DCacheFlush+0x4c>
  102ec0:	f57ff04f 	dsb	sy
  102ec4:	e129f007 	msr	CPSR_fc, r7
  102ec8:	e8bd81f0 	pop	{r4, r5, r6, r7, r8, pc}

00102ecc <Xil_L1DCacheDisable>:
  102ecc:	e92d4010 	push	{r4, lr}
  102ed0:	ebffffd9 	bl	102e3c <Xil_L1DCacheFlush>
  102ed4:	ee113f10 	mrc	15, 0, r3, cr1, cr0, {0}
  102ed8:	e3c33004 	bic	r3, r3, #4
  102edc:	ee013f10 	mcr	15, 0, r3, cr1, cr0, {0}
  102ee0:	e8bd8010 	pop	{r4, pc}

00102ee4 <Xil_L1DCacheFlushLine>:
  102ee4:	e3a03000 	mov	r3, #0
  102ee8:	ee403f10 	mcr	15, 2, r3, cr0, cr0, {0}
  102eec:	e3c0001f 	bic	r0, r0, #31
  102ef0:	ee070f3e 	mcr	15, 0, r0, cr7, cr14, {1}
  102ef4:	f57ff04f 	dsb	sy
  102ef8:	e12fff1e 	bx	lr

00102efc <Xil_L1DCacheFlushRange>:
  102efc:	e10f3000 	mrs	r3, CPSR
  102f00:	e38320c0 	orr	r2, r3, #192	; 0xc0
  102f04:	e129f002 	msr	CPSR_fc, r2
  102f08:	e3510000 	cmp	r1, #0
  102f0c:	0a000009 	beq	102f38 <Xil_L1DCacheFlushRange+0x3c>
  102f10:	e0801001 	add	r1, r0, r1
  102f14:	e3a02000 	mov	r2, #0
  102f18:	e3c0001f 	bic	r0, r0, #31
  102f1c:	ee402f10 	mcr	15, 2, r2, cr0, cr0, {0}
  102f20:	e1510000 	cmp	r1, r0
  102f24:	9a000003 	bls	102f38 <Xil_L1DCacheFlushRange+0x3c>
  102f28:	ee070f3e 	mcr	15, 0, r0, cr7, cr14, {1}
  102f2c:	e2800020 	add	r0, r0, #32
  102f30:	e1510000 	cmp	r1, r0
  102f34:	8afffffb 	bhi	102f28 <Xil_L1DCacheFlushRange+0x2c>
  102f38:	f57ff04f 	dsb	sy
  102f3c:	e129f003 	msr	CPSR_fc, r3
  102f40:	e12fff1e 	bx	lr

00102f44 <Xil_L1DCacheStoreLine>:
  102f44:	e3a03000 	mov	r3, #0
  102f48:	ee403f10 	mcr	15, 2, r3, cr0, cr0, {0}
  102f4c:	e3c0001f 	bic	r0, r0, #31
  102f50:	ee070f3a 	mcr	15, 0, r0, cr7, cr10, {1}
  102f54:	f57ff04f 	dsb	sy
  102f58:	e12fff1e 	bx	lr

00102f5c <Xil_L1ICacheEnable>:
  102f5c:	ee113f10 	mrc	15, 0, r3, cr1, cr0, {0}
  102f60:	e2132a01 	ands	r2, r3, #4096	; 0x1000
  102f64:	112fff1e 	bxne	lr
  102f68:	ee072f15 	mcr	15, 0, r2, cr7, cr5, {0}
  102f6c:	e3833a01 	orr	r3, r3, #4096	; 0x1000
  102f70:	ee013f10 	mcr	15, 0, r3, cr1, cr0, {0}
  102f74:	e12fff1e 	bx	lr

00102f78 <Xil_L1ICacheDisable>:
  102f78:	f57ff04f 	dsb	sy
  102f7c:	e3a03000 	mov	r3, #0
  102f80:	ee073f15 	mcr	15, 0, r3, cr7, cr5, {0}
  102f84:	ee113f10 	mrc	15, 0, r3, cr1, cr0, {0}
  102f88:	e3c33a01 	bic	r3, r3, #4096	; 0x1000
  102f8c:	ee013f10 	mcr	15, 0, r3, cr1, cr0, {0}
  102f90:	e12fff1e 	bx	lr

00102f94 <Xil_L1ICacheInvalidate>:
  102f94:	e3a03001 	mov	r3, #1
  102f98:	ee403f10 	mcr	15, 2, r3, cr0, cr0, {0}
  102f9c:	e3a03000 	mov	r3, #0
  102fa0:	ee073f15 	mcr	15, 0, r3, cr7, cr5, {0}
  102fa4:	f57ff04f 	dsb	sy
  102fa8:	e12fff1e 	bx	lr

00102fac <Xil_L1ICacheInvalidateLine>:
  102fac:	e3a03001 	mov	r3, #1
  102fb0:	ee403f10 	mcr	15, 2, r3, cr0, cr0, {0}
  102fb4:	e3c0001f 	bic	r0, r0, #31
  102fb8:	ee070f35 	mcr	15, 0, r0, cr7, cr5, {1}
  102fbc:	f57ff04f 	dsb	sy
  102fc0:	e12fff1e 	bx	lr

00102fc4 <Xil_L1ICacheInvalidateRange>:
  102fc4:	e10f3000 	mrs	r3, CPSR
  102fc8:	e38320c0 	orr	r2, r3, #192	; 0xc0
  102fcc:	e129f002 	msr	CPSR_fc, r2
  102fd0:	e3510000 	cmp	r1, #0
  102fd4:	0a000009 	beq	103000 <Xil_L1ICacheInvalidateRange+0x3c>
  102fd8:	e0801001 	add	r1, r0, r1
  102fdc:	e3a02001 	mov	r2, #1
  102fe0:	e3c0001f 	bic	r0, r0, #31
  102fe4:	ee402f10 	mcr	15, 2, r2, cr0, cr0, {0}
  102fe8:	e1510000 	cmp	r1, r0
  102fec:	9a000003 	bls	103000 <Xil_L1ICacheInvalidateRange+0x3c>
  102ff0:	ee070f35 	mcr	15, 0, r0, cr7, cr5, {1}
  102ff4:	e2800020 	add	r0, r0, #32
  102ff8:	e1510000 	cmp	r1, r0
  102ffc:	8afffffb 	bhi	102ff0 <Xil_L1ICacheInvalidateRange+0x2c>
  103000:	f57ff04f 	dsb	sy
  103004:	e129f003 	msr	CPSR_fc, r3
  103008:	e12fff1e 	bx	lr

0010300c <Xil_L2CacheInvalidate>:
  10300c:	e3071980 	movw	r1, #31104	; 0x7980
  103010:	e3080b00 	movw	r0, #35584	; 0x8b00
  103014:	e340062c 	movt	r0, #1580	; 0x62c
  103018:	e3401761 	movt	r1, #1889	; 0x761
  10301c:	e0601001 	rsb	r1, r0, r1
  103020:	e92d4010 	push	{r4, lr}
  103024:	ebfffeeb 	bl	102bd8 <Xil_DCacheFlushRange>
  103028:	e302077c 	movw	r0, #10108	; 0x277c
  10302c:	e30f1fff 	movw	r1, #65535	; 0xffff
  103030:	e34f08f0 	movt	r0, #63728	; 0xf8f0
  103034:	eb000175 	bl	103610 <Xil_Out32>
  103038:	e302077c 	movw	r0, #10108	; 0x277c
  10303c:	e34f08f0 	movt	r0, #63728	; 0xf8f0
  103040:	eb00016c 	bl	1035f8 <Xil_In32>
  103044:	e6ff0070 	uxth	r0, r0
  103048:	e3500000 	cmp	r0, #0
  10304c:	1afffff9 	bne	103038 <Xil_L2CacheInvalidate+0x2c>
  103050:	e3a00d9d 	mov	r0, #10048	; 0x2740
  103054:	e3a01000 	mov	r1, #0
  103058:	e34f08f0 	movt	r0, #63728	; 0xf8f0
  10305c:	eb00016b 	bl	103610 <Xil_Out32>
  103060:	f57ff04f 	dsb	sy
  103064:	e8bd8010 	pop	{r4, pc}

00103068 <Xil_DCacheInvalidate>:
  103068:	e92d4010 	push	{r4, lr}
  10306c:	e10f4000 	mrs	r4, CPSR
  103070:	e38430c0 	orr	r3, r4, #192	; 0xc0
  103074:	e129f003 	msr	CPSR_fc, r3
  103078:	ebffffe3 	bl	10300c <Xil_L2CacheInvalidate>
  10307c:	ebffff24 	bl	102d14 <Xil_L1DCacheInvalidate>
  103080:	e129f004 	msr	CPSR_fc, r4
  103084:	e8bd8010 	pop	{r4, pc}

00103088 <Xil_ICacheInvalidate>:
  103088:	e92d4010 	push	{r4, lr}
  10308c:	e10f4000 	mrs	r4, CPSR
  103090:	e38430c0 	orr	r3, r4, #192	; 0xc0
  103094:	e129f003 	msr	CPSR_fc, r3
  103098:	ebffffdb 	bl	10300c <Xil_L2CacheInvalidate>
  10309c:	e3a03001 	mov	r3, #1
  1030a0:	ee403f10 	mcr	15, 2, r3, cr0, cr0, {0}
  1030a4:	e3a03000 	mov	r3, #0
  1030a8:	ee073f15 	mcr	15, 0, r3, cr7, cr5, {0}
  1030ac:	f57ff04f 	dsb	sy
  1030b0:	e129f004 	msr	CPSR_fc, r4
  1030b4:	e8bd8010 	pop	{r4, pc}

001030b8 <Xil_L2CacheEnable>:
  1030b8:	e3a00c21 	mov	r0, #8448	; 0x2100
  1030bc:	e92d4010 	push	{r4, lr}
  1030c0:	e34f08f0 	movt	r0, #63728	; 0xf8f0
  1030c4:	eb00014b 	bl	1035f8 <Xil_In32>
  1030c8:	e2104001 	ands	r4, r0, #1
  1030cc:	18bd8010 	popne	{r4, pc}
  1030d0:	e3020104 	movw	r0, #8452	; 0x2104
  1030d4:	e34f08f0 	movt	r0, #63728	; 0xf8f0
  1030d8:	eb000146 	bl	1035f8 <Xil_In32>
  1030dc:	e3c0180e 	bic	r1, r0, #917504	; 0xe0000
  1030e0:	e3020104 	movw	r0, #8452	; 0x2104
  1030e4:	e3811472 	orr	r1, r1, #1912602624	; 0x72000000
  1030e8:	e34f08f0 	movt	r0, #63728	; 0xf8f0
  1030ec:	e3811836 	orr	r1, r1, #3538944	; 0x360000
  1030f0:	eb000146 	bl	103610 <Xil_Out32>
  1030f4:	e3020108 	movw	r0, #8456	; 0x2108
  1030f8:	e3001111 	movw	r1, #273	; 0x111
  1030fc:	e34f08f0 	movt	r0, #63728	; 0xf8f0
  103100:	eb000142 	bl	103610 <Xil_Out32>
  103104:	e302010c 	movw	r0, #8460	; 0x210c
  103108:	e3001121 	movw	r1, #289	; 0x121
  10310c:	e34f08f0 	movt	r0, #63728	; 0xf8f0
  103110:	eb00013e 	bl	103610 <Xil_Out32>
  103114:	e302021c 	movw	r0, #8732	; 0x221c
  103118:	e34f08f0 	movt	r0, #63728	; 0xf8f0
  10311c:	eb000135 	bl	1035f8 <Xil_In32>
  103120:	e1a01000 	mov	r1, r0
  103124:	e3020220 	movw	r0, #8736	; 0x2220
  103128:	e34f08f0 	movt	r0, #63728	; 0xf8f0
  10312c:	eb000137 	bl	103610 <Xil_Out32>
  103130:	ebffffb5 	bl	10300c <Xil_L2CacheInvalidate>
  103134:	e3a00c21 	mov	r0, #8448	; 0x2100
  103138:	e34f08f0 	movt	r0, #63728	; 0xf8f0
  10313c:	eb00012d 	bl	1035f8 <Xil_In32>
  103140:	e3801001 	orr	r1, r0, #1
  103144:	e3a00c21 	mov	r0, #8448	; 0x2100
  103148:	e34f08f0 	movt	r0, #63728	; 0xf8f0
  10314c:	eb00012f 	bl	103610 <Xil_Out32>
  103150:	e3a00d9d 	mov	r0, #10048	; 0x2740
  103154:	e1a01004 	mov	r1, r4
  103158:	e34f08f0 	movt	r0, #63728	; 0xf8f0
  10315c:	eb00012b 	bl	103610 <Xil_Out32>
  103160:	f57ff04f 	dsb	sy
  103164:	e8bd8010 	pop	{r4, pc}

00103168 <Xil_DCacheEnable>:
  103168:	e92d4010 	push	{r4, lr}
  10316c:	ebffff12 	bl	102dbc <Xil_L1DCacheEnable>
  103170:	e8bd4010 	pop	{r4, lr}
  103174:	eaffffcf 	b	1030b8 <Xil_L2CacheEnable>

00103178 <Xil_ICacheEnable>:
  103178:	ee113f10 	mrc	15, 0, r3, cr1, cr0, {0}
  10317c:	e2132a01 	ands	r2, r3, #4096	; 0x1000
  103180:	1a000002 	bne	103190 <Xil_ICacheEnable+0x18>
  103184:	ee072f15 	mcr	15, 0, r2, cr7, cr5, {0}
  103188:	e3833a01 	orr	r3, r3, #4096	; 0x1000
  10318c:	ee013f10 	mcr	15, 0, r3, cr1, cr0, {0}
  103190:	eaffffc8 	b	1030b8 <Xil_L2CacheEnable>

00103194 <Xil_L2CacheInvalidateLine>:
  103194:	e1a01000 	mov	r1, r0
  103198:	e3020770 	movw	r0, #10096	; 0x2770
  10319c:	e92d4010 	push	{r4, lr}
  1031a0:	e34f08f0 	movt	r0, #63728	; 0xf8f0
  1031a4:	eb000119 	bl	103610 <Xil_Out32>
  1031a8:	f57ff04f 	dsb	sy
  1031ac:	e8bd8010 	pop	{r4, pc}

001031b0 <Xil_L2CacheInvalidateRange>:
  1031b0:	e92d41f0 	push	{r4, r5, r6, r7, r8, lr}
  1031b4:	e10f7000 	mrs	r7, CPSR
  1031b8:	e38730c0 	orr	r3, r7, #192	; 0xc0
  1031bc:	e129f003 	msr	CPSR_fc, r3
  1031c0:	e3510000 	cmp	r1, #0
  1031c4:	1a000002 	bne	1031d4 <Xil_L2CacheInvalidateRange+0x24>
  1031c8:	f57ff04f 	dsb	sy
  1031cc:	e129f007 	msr	CPSR_fc, r7
  1031d0:	e8bd81f0 	pop	{r4, r5, r6, r7, r8, pc}
  1031d4:	e1a04000 	mov	r4, r0
  1031d8:	e3a00dbd 	mov	r0, #12096	; 0x2f40
  1031dc:	e0845001 	add	r5, r4, r1
  1031e0:	e34f08f0 	movt	r0, #63728	; 0xf8f0
  1031e4:	e3c4401f 	bic	r4, r4, #31
  1031e8:	e3a01003 	mov	r1, #3
  1031ec:	eb000107 	bl	103610 <Xil_Out32>
  1031f0:	e1550004 	cmp	r5, r4
  1031f4:	83a06a02 	movhi	r6, #8192	; 0x2000
  1031f8:	834f68f0 	movthi	r6, #63728	; 0xf8f0
  1031fc:	9a000007 	bls	103220 <Xil_L2CacheInvalidateRange+0x70>
  103200:	e3a00d9d 	mov	r0, #10048	; 0x2740
  103204:	e5864770 	str	r4, [r6, #1904]	; 0x770
  103208:	e34f08f0 	movt	r0, #63728	; 0xf8f0
  10320c:	e2844020 	add	r4, r4, #32
  103210:	e3a01000 	mov	r1, #0
  103214:	eb0000fd 	bl	103610 <Xil_Out32>
  103218:	e1550004 	cmp	r5, r4
  10321c:	8afffff7 	bhi	103200 <Xil_L2CacheInvalidateRange+0x50>
  103220:	e3a00dbd 	mov	r0, #12096	; 0x2f40
  103224:	e3a01000 	mov	r1, #0
  103228:	e34f08f0 	movt	r0, #63728	; 0xf8f0
  10322c:	eb0000f7 	bl	103610 <Xil_Out32>
  103230:	eaffffe4 	b	1031c8 <Xil_L2CacheInvalidateRange+0x18>

00103234 <Xil_L2CacheFlush>:
  103234:	e3a00dbd 	mov	r0, #12096	; 0x2f40
  103238:	e3a01003 	mov	r1, #3
  10323c:	e34f08f0 	movt	r0, #63728	; 0xf8f0
  103240:	e92d4010 	push	{r4, lr}
  103244:	eb0000f1 	bl	103610 <Xil_Out32>
  103248:	e30207fc 	movw	r0, #10236	; 0x27fc
  10324c:	e30f1fff 	movw	r1, #65535	; 0xffff
  103250:	e34f08f0 	movt	r0, #63728	; 0xf8f0
  103254:	eb0000ed 	bl	103610 <Xil_Out32>
  103258:	e30207fc 	movw	r0, #10236	; 0x27fc
  10325c:	e34f08f0 	movt	r0, #63728	; 0xf8f0
  103260:	eb0000e4 	bl	1035f8 <Xil_In32>
  103264:	e6ff0070 	uxth	r0, r0
  103268:	e3500000 	cmp	r0, #0
  10326c:	1afffff9 	bne	103258 <Xil_L2CacheFlush+0x24>
  103270:	e3a00d9d 	mov	r0, #10048	; 0x2740
  103274:	e3a01000 	mov	r1, #0
  103278:	e34f08f0 	movt	r0, #63728	; 0xf8f0
  10327c:	eb0000e3 	bl	103610 <Xil_Out32>
  103280:	e3a00dbd 	mov	r0, #12096	; 0x2f40
  103284:	e3a01000 	mov	r1, #0
  103288:	e34f08f0 	movt	r0, #63728	; 0xf8f0
  10328c:	eb0000df 	bl	103610 <Xil_Out32>
  103290:	f57ff04f 	dsb	sy
  103294:	e8bd8010 	pop	{r4, pc}

00103298 <Xil_DCacheFlush>:
  103298:	e92d4010 	push	{r4, lr}
  10329c:	e10f4000 	mrs	r4, CPSR
  1032a0:	e38430c0 	orr	r3, r4, #192	; 0xc0
  1032a4:	e129f003 	msr	CPSR_fc, r3
  1032a8:	ebfffee3 	bl	102e3c <Xil_L1DCacheFlush>
  1032ac:	ebffffe0 	bl	103234 <Xil_L2CacheFlush>
  1032b0:	e129f004 	msr	CPSR_fc, r4
  1032b4:	e8bd8010 	pop	{r4, pc}

001032b8 <Xil_L2CacheDisable>:
  1032b8:	e3a00c21 	mov	r0, #8448	; 0x2100
  1032bc:	e92d4010 	push	{r4, lr}
  1032c0:	e34f08f0 	movt	r0, #63728	; 0xf8f0
  1032c4:	eb0000cb 	bl	1035f8 <Xil_In32>
  1032c8:	e3100001 	tst	r0, #1
  1032cc:	08bd8010 	popeq	{r4, pc}
  1032d0:	ebffffd7 	bl	103234 <Xil_L2CacheFlush>
  1032d4:	e3a00c21 	mov	r0, #8448	; 0x2100
  1032d8:	e34f08f0 	movt	r0, #63728	; 0xf8f0
  1032dc:	eb0000c5 	bl	1035f8 <Xil_In32>
  1032e0:	e3c01001 	bic	r1, r0, #1
  1032e4:	e3a00c21 	mov	r0, #8448	; 0x2100
  1032e8:	e34f08f0 	movt	r0, #63728	; 0xf8f0
  1032ec:	eb0000c7 	bl	103610 <Xil_Out32>
  1032f0:	f57ff04f 	dsb	sy
  1032f4:	e8bd8010 	pop	{r4, pc}

001032f8 <Xil_DCacheDisable>:
  1032f8:	e92d4010 	push	{r4, lr}
  1032fc:	ebffffed 	bl	1032b8 <Xil_L2CacheDisable>
  103300:	ebfffecd 	bl	102e3c <Xil_L1DCacheFlush>
  103304:	ee113f10 	mrc	15, 0, r3, cr1, cr0, {0}
  103308:	e3c33004 	bic	r3, r3, #4
  10330c:	ee013f10 	mcr	15, 0, r3, cr1, cr0, {0}
  103310:	e8bd8010 	pop	{r4, pc}

00103314 <Xil_ICacheDisable>:
  103314:	e92d4010 	push	{r4, lr}
  103318:	ebffffe6 	bl	1032b8 <Xil_L2CacheDisable>
  10331c:	f57ff04f 	dsb	sy
  103320:	e3a03000 	mov	r3, #0
  103324:	ee073f15 	mcr	15, 0, r3, cr7, cr5, {0}
  103328:	ee113f10 	mrc	15, 0, r3, cr1, cr0, {0}
  10332c:	e3c33a01 	bic	r3, r3, #4096	; 0x1000
  103330:	ee013f10 	mcr	15, 0, r3, cr1, cr0, {0}
  103334:	e8bd8010 	pop	{r4, pc}

00103338 <Xil_L2CacheFlushLine>:
  103338:	e92d4010 	push	{r4, lr}
  10333c:	e1a04000 	mov	r4, r0
  103340:	e30207b0 	movw	r0, #10160	; 0x27b0
  103344:	e1a01004 	mov	r1, r4
  103348:	e34f08f0 	movt	r0, #63728	; 0xf8f0
  10334c:	eb0000af 	bl	103610 <Xil_Out32>
  103350:	e3020770 	movw	r0, #10096	; 0x2770
  103354:	e1a01004 	mov	r1, r4
  103358:	e34f08f0 	movt	r0, #63728	; 0xf8f0
  10335c:	eb0000ab 	bl	103610 <Xil_Out32>
  103360:	f57ff04f 	dsb	sy
  103364:	e8bd8010 	pop	{r4, pc}

00103368 <Xil_DCacheInvalidateRange>:
  103368:	e92d41f0 	push	{r4, r5, r6, r7, r8, lr}
  10336c:	e10f7000 	mrs	r7, CPSR
  103370:	e38730c0 	orr	r3, r7, #192	; 0xc0
  103374:	e129f003 	msr	CPSR_fc, r3
  103378:	e3510000 	cmp	r1, #0
  10337c:	0a000014 	beq	1033d4 <Xil_DCacheInvalidateRange+0x6c>
  103380:	e1a04000 	mov	r4, r0
  103384:	e3a06000 	mov	r6, #0
  103388:	e0805001 	add	r5, r0, r1
  10338c:	ee406f10 	mcr	15, 2, r6, cr0, cr0, {0}
  103390:	e310001f 	tst	r0, #31
  103394:	1a000025 	bne	103430 <Xil_DCacheInvalidateRange+0xc8>
  103398:	e315001f 	tst	r5, #31
  10339c:	1a00000f 	bne	1033e0 <Xil_DCacheInvalidateRange+0x78>
  1033a0:	e1540005 	cmp	r4, r5
  1033a4:	2a00000a 	bcs	1033d4 <Xil_DCacheInvalidateRange+0x6c>
  1033a8:	e3a06a02 	mov	r6, #8192	; 0x2000
  1033ac:	e34f68f0 	movt	r6, #63728	; 0xf8f0
  1033b0:	e3a00d9d 	mov	r0, #10048	; 0x2740
  1033b4:	e5864770 	str	r4, [r6, #1904]	; 0x770
  1033b8:	e34f08f0 	movt	r0, #63728	; 0xf8f0
  1033bc:	e3a01000 	mov	r1, #0
  1033c0:	eb000092 	bl	103610 <Xil_Out32>
  1033c4:	ee074f36 	mcr	15, 0, r4, cr7, cr6, {1}
  1033c8:	e2844020 	add	r4, r4, #32
  1033cc:	e1540005 	cmp	r4, r5
  1033d0:	3afffff6 	bcc	1033b0 <Xil_DCacheInvalidateRange+0x48>
  1033d4:	f57ff04f 	dsb	sy
  1033d8:	e129f007 	msr	CPSR_fc, r7
  1033dc:	e8bd81f0 	pop	{r4, r5, r6, r7, r8, pc}
  1033e0:	e3c5501f 	bic	r5, r5, #31
  1033e4:	e3a06000 	mov	r6, #0
  1033e8:	ee406f10 	mcr	15, 2, r6, cr0, cr0, {0}
  1033ec:	ee075f3e 	mcr	15, 0, r5, cr7, cr14, {1}
  1033f0:	f57ff04f 	dsb	sy
  1033f4:	e3a00dbd 	mov	r0, #12096	; 0x2f40
  1033f8:	e3a01003 	mov	r1, #3
  1033fc:	e34f08f0 	movt	r0, #63728	; 0xf8f0
  103400:	eb000082 	bl	103610 <Xil_Out32>
  103404:	e1a00005 	mov	r0, r5
  103408:	ebffffca 	bl	103338 <Xil_L2CacheFlushLine>
  10340c:	e3a00dbd 	mov	r0, #12096	; 0x2f40
  103410:	e1a01006 	mov	r1, r6
  103414:	e34f08f0 	movt	r0, #63728	; 0xf8f0
  103418:	eb00007c 	bl	103610 <Xil_Out32>
  10341c:	e3a00d9d 	mov	r0, #10048	; 0x2740
  103420:	e1a01006 	mov	r1, r6
  103424:	e34f08f0 	movt	r0, #63728	; 0xf8f0
  103428:	eb000078 	bl	103610 <Xil_Out32>
  10342c:	eaffffdb 	b	1033a0 <Xil_DCacheInvalidateRange+0x38>
  103430:	e3c0801f 	bic	r8, r0, #31
  103434:	ee406f10 	mcr	15, 2, r6, cr0, cr0, {0}
  103438:	ee078f3e 	mcr	15, 0, r8, cr7, cr14, {1}
  10343c:	f57ff04f 	dsb	sy
  103440:	e3a00dbd 	mov	r0, #12096	; 0x2f40
  103444:	e3a01003 	mov	r1, #3
  103448:	e34f08f0 	movt	r0, #63728	; 0xf8f0
  10344c:	e2884020 	add	r4, r8, #32
  103450:	eb00006e 	bl	103610 <Xil_Out32>
  103454:	e1a00008 	mov	r0, r8
  103458:	ebffffb6 	bl	103338 <Xil_L2CacheFlushLine>
  10345c:	e3a00dbd 	mov	r0, #12096	; 0x2f40
  103460:	e1a01006 	mov	r1, r6
  103464:	e34f08f0 	movt	r0, #63728	; 0xf8f0
  103468:	eb000068 	bl	103610 <Xil_Out32>
  10346c:	e3a00d9d 	mov	r0, #10048	; 0x2740
  103470:	e1a01006 	mov	r1, r6
  103474:	e34f08f0 	movt	r0, #63728	; 0xf8f0
  103478:	eb000064 	bl	103610 <Xil_Out32>
  10347c:	e315001f 	tst	r5, #31
  103480:	0affffc6 	beq	1033a0 <Xil_DCacheInvalidateRange+0x38>
  103484:	eaffffd5 	b	1033e0 <Xil_DCacheInvalidateRange+0x78>

00103488 <Xil_DCacheFlushLine>:
  103488:	e92d41f0 	push	{r4, r5, r6, r7, r8, lr}
  10348c:	e1a07000 	mov	r7, r0
  103490:	e10f6000 	mrs	r6, CPSR
  103494:	e38630c0 	orr	r3, r6, #192	; 0xc0
  103498:	e129f003 	msr	CPSR_fc, r3
  10349c:	e3a04000 	mov	r4, #0
  1034a0:	ee404f10 	mcr	15, 2, r4, cr0, cr0, {0}
  1034a4:	e3c0301f 	bic	r3, r0, #31
  1034a8:	ee073f3e 	mcr	15, 0, r3, cr7, cr14, {1}
  1034ac:	f57ff04f 	dsb	sy
  1034b0:	e3a05dbd 	mov	r5, #12096	; 0x2f40
  1034b4:	e3a01003 	mov	r1, #3
  1034b8:	e34f58f0 	movt	r5, #63728	; 0xf8f0
  1034bc:	e1a00005 	mov	r0, r5
  1034c0:	eb000052 	bl	103610 <Xil_Out32>
  1034c4:	e1a00007 	mov	r0, r7
  1034c8:	ebffff9a 	bl	103338 <Xil_L2CacheFlushLine>
  1034cc:	e1a01004 	mov	r1, r4
  1034d0:	e1a00005 	mov	r0, r5
  1034d4:	eb00004d 	bl	103610 <Xil_Out32>
  1034d8:	e3a00d9d 	mov	r0, #10048	; 0x2740
  1034dc:	e1a01004 	mov	r1, r4
  1034e0:	e34f08f0 	movt	r0, #63728	; 0xf8f0
  1034e4:	eb000049 	bl	103610 <Xil_Out32>
  1034e8:	e129f006 	msr	CPSR_fc, r6
  1034ec:	e8bd81f0 	pop	{r4, r5, r6, r7, r8, pc}

001034f0 <Xil_L2CacheFlushRange>:
  1034f0:	e92d41f0 	push	{r4, r5, r6, r7, r8, lr}
  1034f4:	e10f7000 	mrs	r7, CPSR
  1034f8:	e38730c0 	orr	r3, r7, #192	; 0xc0
  1034fc:	e129f003 	msr	CPSR_fc, r3
  103500:	e3510000 	cmp	r1, #0
  103504:	1a000002 	bne	103514 <Xil_L2CacheFlushRange+0x24>
  103508:	f57ff04f 	dsb	sy
  10350c:	e129f007 	msr	CPSR_fc, r7
  103510:	e8bd81f0 	pop	{r4, r5, r6, r7, r8, pc}
  103514:	e1a04000 	mov	r4, r0
  103518:	e3a00dbd 	mov	r0, #12096	; 0x2f40
  10351c:	e0845001 	add	r5, r4, r1
  103520:	e34f08f0 	movt	r0, #63728	; 0xf8f0
  103524:	e3c4401f 	bic	r4, r4, #31
  103528:	e3a01003 	mov	r1, #3
  10352c:	eb000037 	bl	103610 <Xil_Out32>
  103530:	e1550004 	cmp	r5, r4
  103534:	83a06a02 	movhi	r6, #8192	; 0x2000
  103538:	834f68f0 	movthi	r6, #63728	; 0xf8f0
  10353c:	9a000007 	bls	103560 <Xil_L2CacheFlushRange+0x70>
  103540:	e3a00d9d 	mov	r0, #10048	; 0x2740
  103544:	e58647f0 	str	r4, [r6, #2032]	; 0x7f0
  103548:	e34f08f0 	movt	r0, #63728	; 0xf8f0
  10354c:	e2844020 	add	r4, r4, #32
  103550:	e3a01000 	mov	r1, #0
  103554:	eb00002d 	bl	103610 <Xil_Out32>
  103558:	e1550004 	cmp	r5, r4
  10355c:	8afffff7 	bhi	103540 <Xil_L2CacheFlushRange+0x50>
  103560:	e3a00dbd 	mov	r0, #12096	; 0x2f40
  103564:	e3a01000 	mov	r1, #0
  103568:	e34f08f0 	movt	r0, #63728	; 0xf8f0
  10356c:	eb000027 	bl	103610 <Xil_Out32>
  103570:	eaffffe4 	b	103508 <Xil_L2CacheFlushRange+0x18>

00103574 <Xil_L2CacheStoreLine>:
  103574:	e1a01000 	mov	r1, r0
  103578:	e30207b0 	movw	r0, #10160	; 0x27b0
  10357c:	e92d4010 	push	{r4, lr}
  103580:	e34f08f0 	movt	r0, #63728	; 0xf8f0
  103584:	eb000021 	bl	103610 <Xil_Out32>
  103588:	f57ff04f 	dsb	sy
  10358c:	e8bd8010 	pop	{r4, pc}

00103590 <Xil_ExceptionNullHandler>:
  103590:	eafffffe 	b	103590 <Xil_ExceptionNullHandler>

00103594 <Xil_DataAbortHandler>:
  103594:	ee153f10 	mrc	15, 0, r3, cr5, cr0, {0}
  103598:	eafffffe 	b	103598 <Xil_DataAbortHandler+0x4>

0010359c <Xil_PrefetchAbortHandler>:
  10359c:	ee153f30 	mrc	15, 0, r3, cr5, cr0, {1}
  1035a0:	eafffffe 	b	1035a0 <Xil_PrefetchAbortHandler+0x4>

001035a4 <Xil_UndefinedExceptionHandler>:
  1035a4:	eafffffe 	b	1035a4 <Xil_UndefinedExceptionHandler>

001035a8 <Xil_ExceptionInit>:
  1035a8:	e12fff1e 	bx	lr

001035ac <Xil_ExceptionRegisterHandler>:
  1035ac:	e307331c 	movw	r3, #29468	; 0x731c
  1035b0:	e3403011 	movt	r3, #17
  1035b4:	e083c180 	add	ip, r3, r0, lsl #3
  1035b8:	e7831180 	str	r1, [r3, r0, lsl #3]
  1035bc:	e58c2004 	str	r2, [ip, #4]
  1035c0:	e12fff1e 	bx	lr

001035c4 <Xil_ExceptionRemoveHandler>:
  1035c4:	e307331c 	movw	r3, #29468	; 0x731c
  1035c8:	e3032590 	movw	r2, #13712	; 0x3590
  1035cc:	e3403011 	movt	r3, #17
  1035d0:	e3402010 	movt	r2, #16
  1035d4:	e0831180 	add	r1, r3, r0, lsl #3
  1035d8:	e3a0c000 	mov	ip, #0
  1035dc:	e7832180 	str	r2, [r3, r0, lsl #3]
  1035e0:	e581c004 	str	ip, [r1, #4]
  1035e4:	e12fff1e 	bx	lr

001035e8 <Xil_In8>:
  1035e8:	e5d00000 	ldrb	r0, [r0]
  1035ec:	e12fff1e 	bx	lr

001035f0 <Xil_In16>:
  1035f0:	e1d000b0 	ldrh	r0, [r0]
  1035f4:	e12fff1e 	bx	lr

001035f8 <Xil_In32>:
  1035f8:	e5900000 	ldr	r0, [r0]
  1035fc:	e12fff1e 	bx	lr

00103600 <Xil_Out8>:
  103600:	e5c01000 	strb	r1, [r0]
  103604:	e12fff1e 	bx	lr

00103608 <Xil_Out16>:
  103608:	e1c010b0 	strh	r1, [r0]
  10360c:	e12fff1e 	bx	lr

00103610 <Xil_Out32>:
  103610:	e5801000 	str	r1, [r0]
  103614:	e12fff1e 	bx	lr

00103618 <Xil_In16BE>:
  103618:	e1d000b0 	ldrh	r0, [r0]
  10361c:	e1a03420 	lsr	r3, r0, #8
  103620:	e1830400 	orr	r0, r3, r0, lsl #8
  103624:	e6ff0070 	uxth	r0, r0
  103628:	e12fff1e 	bx	lr

0010362c <Xil_In32BE>:
  10362c:	e5900000 	ldr	r0, [r0]
  103630:	e6bf0f30 	rev	r0, r0
  103634:	e12fff1e 	bx	lr

00103638 <Xil_Out16BE>:
  103638:	e1a03421 	lsr	r3, r1, #8
  10363c:	e1831401 	orr	r1, r3, r1, lsl #8
  103640:	e6ff1071 	uxth	r1, r1
  103644:	e1c010b0 	strh	r1, [r0]
  103648:	e12fff1e 	bx	lr

0010364c <Xil_Out32BE>:
  10364c:	e6bf1f31 	rev	r1, r1
  103650:	e5801000 	str	r1, [r0]
  103654:	e12fff1e 	bx	lr

00103658 <Xil_EndianSwap16>:
  103658:	e1a03420 	lsr	r3, r0, #8
  10365c:	e1830400 	orr	r0, r3, r0, lsl #8
  103660:	e6ff0070 	uxth	r0, r0
  103664:	e12fff1e 	bx	lr

00103668 <Xil_EndianSwap32>:
  103668:	e6bf0f30 	rev	r0, r0
  10366c:	e12fff1e 	bx	lr

00103670 <getnum>:
  103670:	e590c000 	ldr	ip, [r0]
  103674:	e35c0000 	cmp	ip, #0
  103678:	0a000017 	beq	1036dc <getnum+0x6c>
  10367c:	e3072980 	movw	r2, #31104	; 0x7980
  103680:	e92d4010 	push	{r4, lr}
  103684:	e3402011 	movt	r2, #17
  103688:	e5dc3000 	ldrb	r3, [ip]
  10368c:	e5924000 	ldr	r4, [r2]
  103690:	e0843003 	add	r3, r4, r3
  103694:	e5d33001 	ldrb	r3, [r3, #1]
  103698:	e2033004 	and	r3, r3, #4
  10369c:	e21330ff 	ands	r3, r3, #255	; 0xff
  1036a0:	0a00000a 	beq	1036d0 <getnum+0x60>
  1036a4:	e3a03000 	mov	r3, #0
  1036a8:	e5dc1000 	ldrb	r1, [ip]
  1036ac:	e1a0e183 	lsl	lr, r3, #3
  1036b0:	e5fc2001 	ldrb	r2, [ip, #1]!
  1036b4:	e08e3083 	add	r3, lr, r3, lsl #1
  1036b8:	e2411030 	sub	r1, r1, #48	; 0x30
  1036bc:	e0842002 	add	r2, r4, r2
  1036c0:	e0833001 	add	r3, r3, r1
  1036c4:	e5d22001 	ldrb	r2, [r2, #1]
  1036c8:	e3120004 	tst	r2, #4
  1036cc:	1afffff5 	bne	1036a8 <getnum+0x38>
  1036d0:	e580c000 	str	ip, [r0]
  1036d4:	e1a00003 	mov	r0, r3
  1036d8:	e8bd8010 	pop	{r4, pc}
  1036dc:	e580c000 	str	ip, [r0]
  1036e0:	e1a0000c 	mov	r0, ip
  1036e4:	e12fff1e 	bx	lr

001036e8 <padding.part.0>:
  1036e8:	e92d4070 	push	{r4, r5, r6, lr}
  1036ec:	e1a05000 	mov	r5, r0
  1036f0:	e5904000 	ldr	r4, [r0]
  1036f4:	e5903004 	ldr	r3, [r0, #4]
  1036f8:	e1540003 	cmp	r4, r3
  1036fc:	a8bd8070 	popge	{r4, r5, r6, pc}
  103700:	e5d5000c 	ldrb	r0, [r5, #12]
  103704:	e2844001 	add	r4, r4, #1
  103708:	eb0001b3 	bl	103ddc <outbyte>
  10370c:	e5953004 	ldr	r3, [r5, #4]
  103710:	e1540003 	cmp	r4, r3
  103714:	bafffff9 	blt	103700 <padding.part.0+0x18>
  103718:	e8bd8070 	pop	{r4, r5, r6, pc}

0010371c <outnum>:
  10371c:	e92d47f0 	push	{r4, r5, r6, r7, r8, r9, sl, lr}
  103720:	e307913c 	movw	r9, #28988	; 0x713c
  103724:	e3409011 	movt	r9, #17
  103728:	e1a05000 	mov	r5, r0
  10372c:	e1a07001 	mov	r7, r1
  103730:	e1a08002 	mov	r8, r2
  103734:	e8b9000f 	ldm	r9!, {r0, r1, r2, r3}
  103738:	e24dd038 	sub	sp, sp, #56	; 0x38
  10373c:	e28d6017 	add	r6, sp, #23
  103740:	e28d4037 	add	r4, sp, #55	; 0x37
  103744:	e1a0c006 	mov	ip, r6
  103748:	e3a0e030 	mov	lr, #48	; 0x30
  10374c:	e28da004 	add	sl, sp, #4
  103750:	e5999000 	ldr	r9, [r9]
  103754:	e8aa000f 	stmia	sl!, {r0, r1, r2, r3}
  103758:	e5ca9000 	strb	r9, [sl]
  10375c:	e5ece001 	strb	lr, [ip, #1]!
  103760:	e15c0004 	cmp	ip, r4
  103764:	1afffffc 	bne	10375c <outnum+0x40>
  103768:	e5983018 	ldr	r3, [r8, #24]
  10376c:	e3530000 	cmp	r3, #0
  103770:	1a000039 	bne	10385c <outnum+0x140>
  103774:	e1a03fa5 	lsr	r3, r5, #31
  103778:	e357000a 	cmp	r7, #10
  10377c:	13a03000 	movne	r3, #0
  103780:	02033001 	andeq	r3, r3, #1
  103784:	e3530000 	cmp	r3, #0
  103788:	12655000 	rsbne	r5, r5, #0
  10378c:	13a0a001 	movne	sl, #1
  103790:	0a000031 	beq	10385c <outnum+0x140>
  103794:	e3a09000 	mov	r9, #0
  103798:	ea000000 	b	1037a0 <outnum+0x84>
  10379c:	e1a09004 	mov	r9, r4
  1037a0:	e1a00005 	mov	r0, r5
  1037a4:	e1a01007 	mov	r1, r7
  1037a8:	eb000245 	bl	1040c4 <__aeabi_uidivmod>
  1037ac:	e28d3038 	add	r3, sp, #56	; 0x38
  1037b0:	e1a00005 	mov	r0, r5
  1037b4:	e0831001 	add	r1, r3, r1
  1037b8:	e2894001 	add	r4, r9, #1
  1037bc:	e5513034 	ldrb	r3, [r1, #-52]	; 0xffffffcc
  1037c0:	e1a01007 	mov	r1, r7
  1037c4:	e5e63001 	strb	r3, [r6, #1]!
  1037c8:	eb0001c2 	bl	103ed8 <__aeabi_uidiv>
  1037cc:	e2505000 	subs	r5, r0, #0
  1037d0:	1afffff1 	bne	10379c <outnum+0x80>
  1037d4:	e35a0000 	cmp	sl, #0
  1037d8:	e28d5018 	add	r5, sp, #24
  1037dc:	128d3038 	addne	r3, sp, #56	; 0x38
  1037e0:	13a0202d 	movne	r2, #45	; 0x2d
  1037e4:	10833004 	addne	r3, r3, r4
  1037e8:	12894002 	addne	r4, r9, #2
  1037ec:	15432020 	strbne	r2, [r3, #-32]	; 0xffffffe0
  1037f0:	e28d3038 	add	r3, sp, #56	; 0x38
  1037f4:	e3a02000 	mov	r2, #0
  1037f8:	e0833004 	add	r3, r3, r4
  1037fc:	e1a00005 	mov	r0, r5
  103800:	e5432020 	strb	r2, [r3, #-32]	; 0xffffffe0
  103804:	fa0004bd 	blx	104b00 <strlen>
  103808:	e5983010 	ldr	r3, [r8, #16]
  10380c:	e5982014 	ldr	r2, [r8, #20]
  103810:	e5880000 	str	r0, [r8]
  103814:	e2933000 	adds	r3, r3, #0
  103818:	13a03001 	movne	r3, #1
  10381c:	e3520000 	cmp	r2, #0
  103820:	13a03000 	movne	r3, #0
  103824:	e3530000 	cmp	r3, #0
  103828:	1a000011 	bne	103874 <outnum+0x158>
  10382c:	e0854004 	add	r4, r5, r4
  103830:	e5740001 	ldrb	r0, [r4, #-1]!
  103834:	eb000168 	bl	103ddc <outbyte>
  103838:	e1540005 	cmp	r4, r5
  10383c:	1afffffb 	bne	103830 <outnum+0x114>
  103840:	e5982010 	ldr	r2, [r8, #16]
  103844:	e5983014 	ldr	r3, [r8, #20]
  103848:	e3520000 	cmp	r2, #0
  10384c:	13530000 	cmpne	r3, #0
  103850:	1a000003 	bne	103864 <outnum+0x148>
  103854:	e28dd038 	add	sp, sp, #56	; 0x38
  103858:	e8bd87f0 	pop	{r4, r5, r6, r7, r8, r9, sl, pc}
  10385c:	e3a0a000 	mov	sl, #0
  103860:	eaffffcb 	b	103794 <outnum+0x78>
  103864:	e1a00008 	mov	r0, r8
  103868:	ebffff9e 	bl	1036e8 <padding.part.0>
  10386c:	e28dd038 	add	sp, sp, #56	; 0x38
  103870:	e8bd87f0 	pop	{r4, r5, r6, r7, r8, r9, sl, pc}
  103874:	e1a00008 	mov	r0, r8
  103878:	ebffff9a 	bl	1036e8 <padding.part.0>
  10387c:	eaffffea 	b	10382c <outnum+0x110>

00103880 <xil_printf>:
  103880:	e92d000f 	push	{r0, r1, r2, r3}
  103884:	e92d40f0 	push	{r4, r5, r6, r7, lr}
  103888:	e24dd02c 	sub	sp, sp, #44	; 0x2c
  10388c:	e3074980 	movw	r4, #31104	; 0x7980
  103890:	e3a07000 	mov	r7, #0
  103894:	e3404011 	movt	r4, #17
  103898:	e28d3044 	add	r3, sp, #68	; 0x44
  10389c:	e59d2040 	ldr	r2, [sp, #64]	; 0x40
  1038a0:	e58d3004 	str	r3, [sp, #4]
  1038a4:	e58d2008 	str	r2, [sp, #8]
  1038a8:	e3520000 	cmp	r2, #0
  1038ac:	0a00000a 	beq	1038dc <xil_printf+0x5c>
  1038b0:	e5d20000 	ldrb	r0, [r2]
  1038b4:	e3500000 	cmp	r0, #0
  1038b8:	0a000007 	beq	1038dc <xil_printf+0x5c>
  1038bc:	e3500025 	cmp	r0, #37	; 0x25
  1038c0:	0a000009 	beq	1038ec <xil_printf+0x6c>
  1038c4:	eb000144 	bl	103ddc <outbyte>
  1038c8:	e59d2008 	ldr	r2, [sp, #8]
  1038cc:	e2822001 	add	r2, r2, #1
  1038d0:	e3520000 	cmp	r2, #0
  1038d4:	e58d2008 	str	r2, [sp, #8]
  1038d8:	1afffff4 	bne	1038b0 <xil_printf+0x30>
  1038dc:	e28dd02c 	add	sp, sp, #44	; 0x2c
  1038e0:	e8bd40f0 	pop	{r4, r5, r6, r7, lr}
  1038e4:	e28dd010 	add	sp, sp, #16
  1038e8:	e12fff1e 	bx	lr
  1038ec:	e3a00020 	mov	r0, #32
  1038f0:	e3071fff 	movw	r1, #32767	; 0x7fff
  1038f4:	e58d7024 	str	r7, [sp, #36]	; 0x24
  1038f8:	e1a03002 	mov	r3, r2
  1038fc:	e58d7020 	str	r7, [sp, #32]
  103900:	e3a05000 	mov	r5, #0
  103904:	e58d701c 	str	r7, [sp, #28]
  103908:	e3a06001 	mov	r6, #1
  10390c:	e58d7010 	str	r7, [sp, #16]
  103910:	e58d700c 	str	r7, [sp, #12]
  103914:	e5cd0018 	strb	r0, [sp, #24]
  103918:	e58d1014 	str	r1, [sp, #20]
  10391c:	ea00000e 	b	10395c <xil_printf+0xdc>
  103920:	e3550000 	cmp	r5, #0
  103924:	1a0000ed 	bne	103ce0 <xil_printf+0x460>
  103928:	e3500030 	cmp	r0, #48	; 0x30
  10392c:	05cd0018 	strbeq	r0, [sp, #24]
  103930:	e28d0008 	add	r0, sp, #8
  103934:	ebffff4d 	bl	103670 <getnum>
  103938:	e59d3008 	ldr	r3, [sp, #8]
  10393c:	e58d601c 	str	r6, [sp, #28]
  103940:	e58d0010 	str	r0, [sp, #16]
  103944:	e3530000 	cmp	r3, #0
  103948:	0a000071 	beq	103b14 <xil_printf+0x294>
  10394c:	e2433001 	sub	r3, r3, #1
  103950:	e3530000 	cmp	r3, #0
  103954:	e58d3008 	str	r3, [sp, #8]
  103958:	0a00006d 	beq	103b14 <xil_printf+0x294>
  10395c:	e2832001 	add	r2, r3, #1
  103960:	e3520000 	cmp	r2, #0
  103964:	e58d2008 	str	r2, [sp, #8]
  103968:	0a000069 	beq	103b14 <xil_printf+0x294>
  10396c:	e5d30001 	ldrb	r0, [r3, #1]
  103970:	e5943000 	ldr	r3, [r4]
  103974:	e0833000 	add	r3, r3, r0
  103978:	e5d33001 	ldrb	r3, [r3, #1]
  10397c:	e3130004 	tst	r3, #4
  103980:	1affffe6 	bne	103920 <xil_printf+0xa0>
  103984:	e2033003 	and	r3, r3, #3
  103988:	e3530001 	cmp	r3, #1
  10398c:	02803020 	addeq	r3, r0, #32
  103990:	11a03000 	movne	r3, r0
  103994:	e2433025 	sub	r3, r3, #37	; 0x25
  103998:	e3530053 	cmp	r3, #83	; 0x53
  10399c:	979ff103 	ldrls	pc, [pc, r3, lsl #2]
  1039a0:	ea00006a 	b	103b50 <xil_printf+0x2d0>
  1039a4:	00103bf4 	.word	0x00103bf4
  1039a8:	00103b50 	.word	0x00103b50
  1039ac:	00103b50 	.word	0x00103b50
  1039b0:	00103b50 	.word	0x00103b50
  1039b4:	00103b50 	.word	0x00103b50
  1039b8:	00103b50 	.word	0x00103b50
  1039bc:	00103b50 	.word	0x00103b50
  1039c0:	00103b50 	.word	0x00103b50
  1039c4:	00103c04 	.word	0x00103c04
  1039c8:	00103b5c 	.word	0x00103b5c
  1039cc:	00103b50 	.word	0x00103b50
  1039d0:	00103b50 	.word	0x00103b50
  1039d4:	00103b50 	.word	0x00103b50
  1039d8:	00103b50 	.word	0x00103b50
  1039dc:	00103b50 	.word	0x00103b50
  1039e0:	00103b50 	.word	0x00103b50
  1039e4:	00103b50 	.word	0x00103b50
  1039e8:	00103b50 	.word	0x00103b50
  1039ec:	00103b50 	.word	0x00103b50
  1039f0:	00103b50 	.word	0x00103b50
  1039f4:	00103b50 	.word	0x00103b50
  1039f8:	00103b50 	.word	0x00103b50
  1039fc:	00103b50 	.word	0x00103b50
  103a00:	00103b50 	.word	0x00103b50
  103a04:	00103b50 	.word	0x00103b50
  103a08:	00103b50 	.word	0x00103b50
  103a0c:	00103b50 	.word	0x00103b50
  103a10:	00103b50 	.word	0x00103b50
  103a14:	00103b50 	.word	0x00103b50
  103a18:	00103b50 	.word	0x00103b50
  103a1c:	00103b50 	.word	0x00103b50
  103a20:	00103b50 	.word	0x00103b50
  103a24:	00103b50 	.word	0x00103b50
  103a28:	00103b50 	.word	0x00103b50
  103a2c:	00103b50 	.word	0x00103b50
  103a30:	00103b50 	.word	0x00103b50
  103a34:	00103b50 	.word	0x00103b50
  103a38:	00103b50 	.word	0x00103b50
  103a3c:	00103b50 	.word	0x00103b50
  103a40:	00103b50 	.word	0x00103b50
  103a44:	00103b50 	.word	0x00103b50
  103a48:	00103b50 	.word	0x00103b50
  103a4c:	00103b50 	.word	0x00103b50
  103a50:	00103b50 	.word	0x00103b50
  103a54:	00103b50 	.word	0x00103b50
  103a58:	00103b50 	.word	0x00103b50
  103a5c:	00103b50 	.word	0x00103b50
  103a60:	00103b50 	.word	0x00103b50
  103a64:	00103b50 	.word	0x00103b50
  103a68:	00103b50 	.word	0x00103b50
  103a6c:	00103b50 	.word	0x00103b50
  103a70:	00103bdc 	.word	0x00103bdc
  103a74:	00103b50 	.word	0x00103b50
  103a78:	00103b50 	.word	0x00103b50
  103a7c:	00103b50 	.word	0x00103b50
  103a80:	00103b84 	.word	0x00103b84
  103a84:	00103b50 	.word	0x00103b50
  103a88:	00103b50 	.word	0x00103b50
  103a8c:	00103b50 	.word	0x00103b50
  103a90:	00103b50 	.word	0x00103b50
  103a94:	00103b50 	.word	0x00103b50
  103a98:	00103b50 	.word	0x00103b50
  103a9c:	00103b68 	.word	0x00103b68
  103aa0:	00103b28 	.word	0x00103b28
  103aa4:	00103b50 	.word	0x00103b50
  103aa8:	00103b50 	.word	0x00103b50
  103aac:	00103b50 	.word	0x00103b50
  103ab0:	00103b50 	.word	0x00103b50
  103ab4:	00103b28 	.word	0x00103b28
  103ab8:	00103b50 	.word	0x00103b50
  103abc:	00103b50 	.word	0x00103b50
  103ac0:	00103b08 	.word	0x00103b08
  103ac4:	00103b50 	.word	0x00103b50
  103ac8:	00103b50 	.word	0x00103b50
  103acc:	00103b50 	.word	0x00103b50
  103ad0:	00103bdc 	.word	0x00103bdc
  103ad4:	00103b50 	.word	0x00103b50
  103ad8:	00103b50 	.word	0x00103b50
  103adc:	00103c10 	.word	0x00103c10
  103ae0:	00103b50 	.word	0x00103b50
  103ae4:	00103b20 	.word	0x00103b20
  103ae8:	00103b50 	.word	0x00103b50
  103aec:	00103b50 	.word	0x00103b50
  103af0:	00103bdc 	.word	0x00103bdc
  103af4:	e3a0000d 	mov	r0, #13
  103af8:	eb0000b7 	bl	103ddc <outbyte>
  103afc:	e59d2008 	ldr	r2, [sp, #8]
  103b00:	e2822001 	add	r2, r2, #1
  103b04:	e58d2008 	str	r2, [sp, #8]
  103b08:	e1a03002 	mov	r3, r2
  103b0c:	e3530000 	cmp	r3, #0
  103b10:	1affff91 	bne	10395c <xil_printf+0xdc>
  103b14:	e3a03000 	mov	r3, #0
  103b18:	e5d33000 	ldrb	r3, [r3]
  103b1c:	e7f000f0 	udf	#0
  103b20:	e3a03001 	mov	r3, #1
  103b24:	e58d3024 	str	r3, [sp, #36]	; 0x24
  103b28:	e59d3004 	ldr	r3, [sp, #4]
  103b2c:	e28d200c 	add	r2, sp, #12
  103b30:	e3a0100a 	mov	r1, #10
  103b34:	e283c004 	add	ip, r3, #4
  103b38:	e5930000 	ldr	r0, [r3]
  103b3c:	e58dc004 	str	ip, [sp, #4]
  103b40:	ebfffef5 	bl	10371c <outnum>
  103b44:	e59d2008 	ldr	r2, [sp, #8]
  103b48:	e3520000 	cmp	r2, #0
  103b4c:	0affff62 	beq	1038dc <xil_printf+0x5c>
  103b50:	e2822001 	add	r2, r2, #1
  103b54:	e58d2008 	str	r2, [sp, #8]
  103b58:	eaffff52 	b	1038a8 <xil_printf+0x28>
  103b5c:	e3a05001 	mov	r5, #1
  103b60:	e1a03002 	mov	r3, r2
  103b64:	eaffffe8 	b	103b0c <xil_printf+0x28c>
  103b68:	e59d3004 	ldr	r3, [sp, #4]
  103b6c:	e2832004 	add	r2, r3, #4
  103b70:	e5d30000 	ldrb	r0, [r3]
  103b74:	e58d2004 	str	r2, [sp, #4]
  103b78:	eb000097 	bl	103ddc <outbyte>
  103b7c:	e59d2008 	ldr	r2, [sp, #8]
  103b80:	eafffff0 	b	103b48 <xil_printf+0x2c8>
  103b84:	e2403061 	sub	r3, r0, #97	; 0x61
  103b88:	e3530011 	cmp	r3, #17
  103b8c:	979ff103 	ldrls	pc, [pc, r3, lsl #2]
  103b90:	ea000050 	b	103cd8 <xil_printf+0x458>
  103b94:	00103ccc 	.word	0x00103ccc
  103b98:	00103cd8 	.word	0x00103cd8
  103b9c:	00103cd8 	.word	0x00103cd8
  103ba0:	00103cd8 	.word	0x00103cd8
  103ba4:	00103cd8 	.word	0x00103cd8
  103ba8:	00103cd8 	.word	0x00103cd8
  103bac:	00103cd8 	.word	0x00103cd8
  103bb0:	00103cc0 	.word	0x00103cc0
  103bb4:	00103cd8 	.word	0x00103cd8
  103bb8:	00103cd8 	.word	0x00103cd8
  103bbc:	00103cd8 	.word	0x00103cd8
  103bc0:	00103cd8 	.word	0x00103cd8
  103bc4:	00103cd8 	.word	0x00103cd8
  103bc8:	00103cac 	.word	0x00103cac
  103bcc:	00103cd8 	.word	0x00103cd8
  103bd0:	00103cd8 	.word	0x00103cd8
  103bd4:	00103cd8 	.word	0x00103cd8
  103bd8:	00103af4 	.word	0x00103af4
  103bdc:	e3a00001 	mov	r0, #1
  103be0:	e59d3004 	ldr	r3, [sp, #4]
  103be4:	e28d200c 	add	r2, sp, #12
  103be8:	e3a01010 	mov	r1, #16
  103bec:	e58d0024 	str	r0, [sp, #36]	; 0x24
  103bf0:	eaffffcf 	b	103b34 <xil_printf+0x2b4>
  103bf4:	e3a00025 	mov	r0, #37	; 0x25
  103bf8:	eb000077 	bl	103ddc <outbyte>
  103bfc:	e59d2008 	ldr	r2, [sp, #8]
  103c00:	eaffffd0 	b	103b48 <xil_printf+0x2c8>
  103c04:	e58d6020 	str	r6, [sp, #32]
  103c08:	e1a03002 	mov	r3, r2
  103c0c:	eaffffbe 	b	103b0c <xil_printf+0x28c>
  103c10:	e59d3004 	ldr	r3, [sp, #4]
  103c14:	e5935000 	ldr	r5, [r3]
  103c18:	e2833004 	add	r3, r3, #4
  103c1c:	e58d3004 	str	r3, [sp, #4]
  103c20:	e3550000 	cmp	r5, #0
  103c24:	0a000002 	beq	103c34 <xil_printf+0x3b4>
  103c28:	e1a00005 	mov	r0, r5
  103c2c:	fa0003b3 	blx	104b00 <strlen>
  103c30:	e58d000c 	str	r0, [sp, #12]
  103c34:	e59d301c 	ldr	r3, [sp, #28]
  103c38:	e59d2020 	ldr	r2, [sp, #32]
  103c3c:	e2933000 	adds	r3, r3, #0
  103c40:	13a03001 	movne	r3, #1
  103c44:	e3520000 	cmp	r2, #0
  103c48:	13a03000 	movne	r3, #0
  103c4c:	e3530000 	cmp	r3, #0
  103c50:	1a000027 	bne	103cf4 <xil_printf+0x474>
  103c54:	e5d53000 	ldrb	r3, [r5]
  103c58:	e3530000 	cmp	r3, #0
  103c5c:	1a000007 	bne	103c80 <xil_printf+0x400>
  103c60:	ea000009 	b	103c8c <xil_printf+0x40c>
  103c64:	e2433001 	sub	r3, r3, #1
  103c68:	e58d3014 	str	r3, [sp, #20]
  103c6c:	e5d50000 	ldrb	r0, [r5]
  103c70:	eb000059 	bl	103ddc <outbyte>
  103c74:	e5f53001 	ldrb	r3, [r5, #1]!
  103c78:	e3530000 	cmp	r3, #0
  103c7c:	0a000002 	beq	103c8c <xil_printf+0x40c>
  103c80:	e59d3014 	ldr	r3, [sp, #20]
  103c84:	e3530000 	cmp	r3, #0
  103c88:	1afffff5 	bne	103c64 <xil_printf+0x3e4>
  103c8c:	e59d201c 	ldr	r2, [sp, #28]
  103c90:	e59d3020 	ldr	r3, [sp, #32]
  103c94:	e3520000 	cmp	r2, #0
  103c98:	13530000 	cmpne	r3, #0
  103c9c:	0affffa8 	beq	103b44 <xil_printf+0x2c4>
  103ca0:	e28d000c 	add	r0, sp, #12
  103ca4:	ebfffe8f 	bl	1036e8 <padding.part.0>
  103ca8:	eaffffa5 	b	103b44 <xil_printf+0x2c4>
  103cac:	e3a0000d 	mov	r0, #13
  103cb0:	eb000049 	bl	103ddc <outbyte>
  103cb4:	e3a0000a 	mov	r0, #10
  103cb8:	eb000047 	bl	103ddc <outbyte>
  103cbc:	eaffff8e 	b	103afc <xil_printf+0x27c>
  103cc0:	e3a00008 	mov	r0, #8
  103cc4:	eb000044 	bl	103ddc <outbyte>
  103cc8:	eaffff8b 	b	103afc <xil_printf+0x27c>
  103ccc:	e3a00007 	mov	r0, #7
  103cd0:	eb000041 	bl	103ddc <outbyte>
  103cd4:	eaffff88 	b	103afc <xil_printf+0x27c>
  103cd8:	eb00003f 	bl	103ddc <outbyte>
  103cdc:	eaffff86 	b	103afc <xil_printf+0x27c>
  103ce0:	e28d0008 	add	r0, sp, #8
  103ce4:	ebfffe61 	bl	103670 <getnum>
  103ce8:	e59d3008 	ldr	r3, [sp, #8]
  103cec:	e58d0014 	str	r0, [sp, #20]
  103cf0:	eaffff13 	b	103944 <xil_printf+0xc4>
  103cf4:	e28d000c 	add	r0, sp, #12
  103cf8:	ebfffe7a 	bl	1036e8 <padding.part.0>
  103cfc:	eaffffd4 	b	103c54 <xil_printf+0x3d4>

00103d00 <XTime_SetTime>:
  103d00:	e92d4070 	push	{r4, r5, r6, lr}
  103d04:	e3a04f82 	mov	r4, #520	; 0x208
  103d08:	e34f48f0 	movt	r4, #63728	; 0xf8f0
  103d0c:	e1a06000 	mov	r6, r0
  103d10:	e1a05001 	mov	r5, r1
  103d14:	e1a00004 	mov	r0, r4
  103d18:	e3a01000 	mov	r1, #0
  103d1c:	ebfffe3b 	bl	103610 <Xil_Out32>
  103d20:	e3a00c02 	mov	r0, #512	; 0x200
  103d24:	e1a01006 	mov	r1, r6
  103d28:	e34f08f0 	movt	r0, #63728	; 0xf8f0
  103d2c:	ebfffe37 	bl	103610 <Xil_Out32>
  103d30:	e3a00f81 	mov	r0, #516	; 0x204
  103d34:	e1a01005 	mov	r1, r5
  103d38:	e34f08f0 	movt	r0, #63728	; 0xf8f0
  103d3c:	ebfffe33 	bl	103610 <Xil_Out32>
  103d40:	e1a00004 	mov	r0, r4
  103d44:	e3a01001 	mov	r1, #1
  103d48:	e8bd4070 	pop	{r4, r5, r6, lr}
  103d4c:	eafffe2f 	b	103610 <Xil_Out32>

00103d50 <XTime_GetTime>:
  103d50:	e92d41f0 	push	{r4, r5, r6, r7, r8, lr}
  103d54:	e1a08000 	mov	r8, r0
  103d58:	e3a00f81 	mov	r0, #516	; 0x204
  103d5c:	e34f08f0 	movt	r0, #63728	; 0xf8f0
  103d60:	ebfffe24 	bl	1035f8 <Xil_In32>
  103d64:	e1a04000 	mov	r4, r0
  103d68:	e3a00c02 	mov	r0, #512	; 0x200
  103d6c:	e34f08f0 	movt	r0, #63728	; 0xf8f0
  103d70:	ebfffe20 	bl	1035f8 <Xil_In32>
  103d74:	e1a05000 	mov	r5, r0
  103d78:	e3a00f81 	mov	r0, #516	; 0x204
  103d7c:	e34f08f0 	movt	r0, #63728	; 0xf8f0
  103d80:	ebfffe1c 	bl	1035f8 <Xil_In32>
  103d84:	e1500004 	cmp	r0, r4
  103d88:	1afffff2 	bne	103d58 <XTime_GetTime+0x8>
  103d8c:	e3a06000 	mov	r6, #0
  103d90:	e1a07000 	mov	r7, r0
  103d94:	e1866005 	orr	r6, r6, r5
  103d98:	e1c860f0 	strd	r6, [r8]
  103d9c:	e8bd81f0 	pop	{r4, r5, r6, r7, r8, pc}

00103da0 <__cpu_init>:
  103da0:	e3a00000 	mov	r0, #0
  103da4:	ee050f10 	mcr	15, 0, r0, cr5, cr0, {0}
  103da8:	ee050f30 	mcr	15, 0, r0, cr5, cr0, {1}
  103dac:	ee060f10 	mcr	15, 0, r0, cr6, cr0, {0}
  103db0:	ee060f50 	mcr	15, 0, r0, cr6, cr0, {2}
  103db4:	ee090f5d 	mcr	15, 0, r0, cr9, cr13, {2}
  103db8:	ee0d0f50 	mcr	15, 0, r0, cr13, cr0, {2}
  103dbc:	ee0d0f70 	mcr	15, 0, r0, cr13, cr0, {3}
  103dc0:	e3a02102 	mov	r2, #-2147483648	; 0x80000000
  103dc4:	ee092f7c 	mcr	15, 0, r2, cr9, cr12, {3}
  103dc8:	e3a0200d 	mov	r2, #13
  103dcc:	ee092f1c 	mcr	15, 0, r2, cr9, cr12, {0}
  103dd0:	e3a02102 	mov	r2, #-2147483648	; 0x80000000
  103dd4:	ee092f3c 	mcr	15, 0, r2, cr9, cr12, {1}
  103dd8:	e12fff1e 	bx	lr

00103ddc <outbyte>:
  103ddc:	e1a01000 	mov	r1, r0
  103de0:	e3a00a01 	mov	r0, #4096	; 0x1000
  103de4:	e34e0000 	movt	r0, #57344	; 0xe000
  103de8:	eaffffff 	b	103dec <XUartPs_SendByte>

00103dec <XUartPs_SendByte>:
  103dec:	e92d4070 	push	{r4, r5, r6, lr}
  103df0:	e1a05000 	mov	r5, r0
  103df4:	e1a06001 	mov	r6, r1
  103df8:	e280402c 	add	r4, r0, #44	; 0x2c
  103dfc:	e1a00004 	mov	r0, r4
  103e00:	ebfffdfc 	bl	1035f8 <Xil_In32>
  103e04:	e3100010 	tst	r0, #16
  103e08:	1afffffb 	bne	103dfc <XUartPs_SendByte+0x10>
  103e0c:	e1a01006 	mov	r1, r6
  103e10:	e2850030 	add	r0, r5, #48	; 0x30
  103e14:	e8bd4070 	pop	{r4, r5, r6, lr}
  103e18:	eafffdfc 	b	103610 <Xil_Out32>

00103e1c <XUartPs_RecvByte>:
  103e1c:	e92d4070 	push	{r4, r5, r6, lr}
  103e20:	e1a05000 	mov	r5, r0
  103e24:	e280402c 	add	r4, r0, #44	; 0x2c
  103e28:	e1a00004 	mov	r0, r4
  103e2c:	ebfffdf1 	bl	1035f8 <Xil_In32>
  103e30:	e3100002 	tst	r0, #2
  103e34:	1afffffb 	bne	103e28 <XUartPs_RecvByte+0xc>
  103e38:	e2850030 	add	r0, r5, #48	; 0x30
  103e3c:	ebfffded 	bl	1035f8 <Xil_In32>
  103e40:	e6ef0070 	uxtb	r0, r0
  103e44:	e8bd8070 	pop	{r4, r5, r6, pc}

00103e48 <XUartPs_ResetHw>:
  103e48:	e92d4010 	push	{r4, lr}
  103e4c:	e3031fff 	movw	r1, #16383	; 0x3fff
  103e50:	e1a04000 	mov	r4, r0
  103e54:	e280000c 	add	r0, r0, #12
  103e58:	ebfffdec 	bl	103610 <Xil_Out32>
  103e5c:	e1a00004 	mov	r0, r4
  103e60:	e3a01028 	mov	r1, #40	; 0x28
  103e64:	ebfffde9 	bl	103610 <Xil_Out32>
  103e68:	e1a00004 	mov	r0, r4
  103e6c:	e3a01003 	mov	r1, #3
  103e70:	ebfffde6 	bl	103610 <Xil_Out32>
  103e74:	e2840014 	add	r0, r4, #20
  103e78:	e3031fff 	movw	r1, #16383	; 0x3fff
  103e7c:	ebfffde3 	bl	103610 <Xil_Out32>
  103e80:	e2840004 	add	r0, r4, #4
  103e84:	e3a01000 	mov	r1, #0
  103e88:	ebfffde0 	bl	103610 <Xil_Out32>
  103e8c:	e2840020 	add	r0, r4, #32
  103e90:	e3a01020 	mov	r1, #32
  103e94:	ebfffddd 	bl	103610 <Xil_Out32>
  103e98:	e2840044 	add	r0, r4, #68	; 0x44
  103e9c:	e3a01020 	mov	r1, #32
  103ea0:	ebfffdda 	bl	103610 <Xil_Out32>
  103ea4:	e284001c 	add	r0, r4, #28
  103ea8:	e3a01000 	mov	r1, #0
  103eac:	ebfffdd7 	bl	103610 <Xil_Out32>
  103eb0:	e2840018 	add	r0, r4, #24
  103eb4:	e300128b 	movw	r1, #651	; 0x28b
  103eb8:	ebfffdd4 	bl	103610 <Xil_Out32>
  103ebc:	e2840034 	add	r0, r4, #52	; 0x34
  103ec0:	e3a0100f 	mov	r1, #15
  103ec4:	ebfffdd1 	bl	103610 <Xil_Out32>
  103ec8:	e1a00004 	mov	r0, r4
  103ecc:	e3a01f4a 	mov	r1, #296	; 0x128
  103ed0:	e8bd4010 	pop	{r4, lr}
  103ed4:	eafffdcd 	b	103610 <Xil_Out32>

00103ed8 <__aeabi_uidiv>:
  103ed8:	e2512001 	subs	r2, r1, #1
  103edc:	012fff1e 	bxeq	lr
  103ee0:	3a000074 	bcc	1040b8 <__aeabi_uidiv+0x1e0>
  103ee4:	e1500001 	cmp	r0, r1
  103ee8:	9a00006b 	bls	10409c <__aeabi_uidiv+0x1c4>
  103eec:	e1110002 	tst	r1, r2
  103ef0:	0a00006c 	beq	1040a8 <__aeabi_uidiv+0x1d0>
  103ef4:	e16f3f10 	clz	r3, r0
  103ef8:	e16f2f11 	clz	r2, r1
  103efc:	e0423003 	sub	r3, r2, r3
  103f00:	e273301f 	rsbs	r3, r3, #31
  103f04:	10833083 	addne	r3, r3, r3, lsl #1
  103f08:	e3a02000 	mov	r2, #0
  103f0c:	108ff103 	addne	pc, pc, r3, lsl #2
  103f10:	e320f000 	nop	{0}
  103f14:	e1500f81 	cmp	r0, r1, lsl #31
  103f18:	e0a22002 	adc	r2, r2, r2
  103f1c:	20400f81 	subcs	r0, r0, r1, lsl #31
  103f20:	e1500f01 	cmp	r0, r1, lsl #30
  103f24:	e0a22002 	adc	r2, r2, r2
  103f28:	20400f01 	subcs	r0, r0, r1, lsl #30
  103f2c:	e1500e81 	cmp	r0, r1, lsl #29
  103f30:	e0a22002 	adc	r2, r2, r2
  103f34:	20400e81 	subcs	r0, r0, r1, lsl #29
  103f38:	e1500e01 	cmp	r0, r1, lsl #28
  103f3c:	e0a22002 	adc	r2, r2, r2
  103f40:	20400e01 	subcs	r0, r0, r1, lsl #28
  103f44:	e1500d81 	cmp	r0, r1, lsl #27
  103f48:	e0a22002 	adc	r2, r2, r2
  103f4c:	20400d81 	subcs	r0, r0, r1, lsl #27
  103f50:	e1500d01 	cmp	r0, r1, lsl #26
  103f54:	e0a22002 	adc	r2, r2, r2
  103f58:	20400d01 	subcs	r0, r0, r1, lsl #26
  103f5c:	e1500c81 	cmp	r0, r1, lsl #25
  103f60:	e0a22002 	adc	r2, r2, r2
  103f64:	20400c81 	subcs	r0, r0, r1, lsl #25
  103f68:	e1500c01 	cmp	r0, r1, lsl #24
  103f6c:	e0a22002 	adc	r2, r2, r2
  103f70:	20400c01 	subcs	r0, r0, r1, lsl #24
  103f74:	e1500b81 	cmp	r0, r1, lsl #23
  103f78:	e0a22002 	adc	r2, r2, r2
  103f7c:	20400b81 	subcs	r0, r0, r1, lsl #23
  103f80:	e1500b01 	cmp	r0, r1, lsl #22
  103f84:	e0a22002 	adc	r2, r2, r2
  103f88:	20400b01 	subcs	r0, r0, r1, lsl #22
  103f8c:	e1500a81 	cmp	r0, r1, lsl #21
  103f90:	e0a22002 	adc	r2, r2, r2
  103f94:	20400a81 	subcs	r0, r0, r1, lsl #21
  103f98:	e1500a01 	cmp	r0, r1, lsl #20
  103f9c:	e0a22002 	adc	r2, r2, r2
  103fa0:	20400a01 	subcs	r0, r0, r1, lsl #20
  103fa4:	e1500981 	cmp	r0, r1, lsl #19
  103fa8:	e0a22002 	adc	r2, r2, r2
  103fac:	20400981 	subcs	r0, r0, r1, lsl #19
  103fb0:	e1500901 	cmp	r0, r1, lsl #18
  103fb4:	e0a22002 	adc	r2, r2, r2
  103fb8:	20400901 	subcs	r0, r0, r1, lsl #18
  103fbc:	e1500881 	cmp	r0, r1, lsl #17
  103fc0:	e0a22002 	adc	r2, r2, r2
  103fc4:	20400881 	subcs	r0, r0, r1, lsl #17
  103fc8:	e1500801 	cmp	r0, r1, lsl #16
  103fcc:	e0a22002 	adc	r2, r2, r2
  103fd0:	20400801 	subcs	r0, r0, r1, lsl #16
  103fd4:	e1500781 	cmp	r0, r1, lsl #15
  103fd8:	e0a22002 	adc	r2, r2, r2
  103fdc:	20400781 	subcs	r0, r0, r1, lsl #15
  103fe0:	e1500701 	cmp	r0, r1, lsl #14
  103fe4:	e0a22002 	adc	r2, r2, r2
  103fe8:	20400701 	subcs	r0, r0, r1, lsl #14
  103fec:	e1500681 	cmp	r0, r1, lsl #13
  103ff0:	e0a22002 	adc	r2, r2, r2
  103ff4:	20400681 	subcs	r0, r0, r1, lsl #13
  103ff8:	e1500601 	cmp	r0, r1, lsl #12
  103ffc:	e0a22002 	adc	r2, r2, r2
  104000:	20400601 	subcs	r0, r0, r1, lsl #12
  104004:	e1500581 	cmp	r0, r1, lsl #11
  104008:	e0a22002 	adc	r2, r2, r2
  10400c:	20400581 	subcs	r0, r0, r1, lsl #11
  104010:	e1500501 	cmp	r0, r1, lsl #10
  104014:	e0a22002 	adc	r2, r2, r2
  104018:	20400501 	subcs	r0, r0, r1, lsl #10
  10401c:	e1500481 	cmp	r0, r1, lsl #9
  104020:	e0a22002 	adc	r2, r2, r2
  104024:	20400481 	subcs	r0, r0, r1, lsl #9
  104028:	e1500401 	cmp	r0, r1, lsl #8
  10402c:	e0a22002 	adc	r2, r2, r2
  104030:	20400401 	subcs	r0, r0, r1, lsl #8
  104034:	e1500381 	cmp	r0, r1, lsl #7
  104038:	e0a22002 	adc	r2, r2, r2
  10403c:	20400381 	subcs	r0, r0, r1, lsl #7
  104040:	e1500301 	cmp	r0, r1, lsl #6
  104044:	e0a22002 	adc	r2, r2, r2
  104048:	20400301 	subcs	r0, r0, r1, lsl #6
  10404c:	e1500281 	cmp	r0, r1, lsl #5
  104050:	e0a22002 	adc	r2, r2, r2
  104054:	20400281 	subcs	r0, r0, r1, lsl #5
  104058:	e1500201 	cmp	r0, r1, lsl #4
  10405c:	e0a22002 	adc	r2, r2, r2
  104060:	20400201 	subcs	r0, r0, r1, lsl #4
  104064:	e1500181 	cmp	r0, r1, lsl #3
  104068:	e0a22002 	adc	r2, r2, r2
  10406c:	20400181 	subcs	r0, r0, r1, lsl #3
  104070:	e1500101 	cmp	r0, r1, lsl #2
  104074:	e0a22002 	adc	r2, r2, r2
  104078:	20400101 	subcs	r0, r0, r1, lsl #2
  10407c:	e1500081 	cmp	r0, r1, lsl #1
  104080:	e0a22002 	adc	r2, r2, r2
  104084:	20400081 	subcs	r0, r0, r1, lsl #1
  104088:	e1500001 	cmp	r0, r1
  10408c:	e0a22002 	adc	r2, r2, r2
  104090:	20400001 	subcs	r0, r0, r1
  104094:	e1a00002 	mov	r0, r2
  104098:	e12fff1e 	bx	lr
  10409c:	03a00001 	moveq	r0, #1
  1040a0:	13a00000 	movne	r0, #0
  1040a4:	e12fff1e 	bx	lr
  1040a8:	e16f2f11 	clz	r2, r1
  1040ac:	e262201f 	rsb	r2, r2, #31
  1040b0:	e1a00230 	lsr	r0, r0, r2
  1040b4:	e12fff1e 	bx	lr
  1040b8:	e3500000 	cmp	r0, #0
  1040bc:	13e00000 	mvnne	r0, #0
  1040c0:	ea000007 	b	1040e4 <__aeabi_idiv0>

001040c4 <__aeabi_uidivmod>:
  1040c4:	e3510000 	cmp	r1, #0
  1040c8:	0afffffa 	beq	1040b8 <__aeabi_uidiv+0x1e0>
  1040cc:	e92d4003 	push	{r0, r1, lr}
  1040d0:	ebffff80 	bl	103ed8 <__aeabi_uidiv>
  1040d4:	e8bd4006 	pop	{r1, r2, lr}
  1040d8:	e0030092 	mul	r3, r2, r0
  1040dc:	e0411003 	sub	r1, r1, r3
  1040e0:	e12fff1e 	bx	lr

001040e4 <__aeabi_idiv0>:
  1040e4:	e12fff1e 	bx	lr

001040e8 <__set_ctype>:
  1040e8:	e3073980 	movw	r3, #31104	; 0x7980
  1040ec:	e3062870 	movw	r2, #26736	; 0x6870
  1040f0:	e3403011 	movt	r3, #17
  1040f4:	e3402011 	movt	r2, #17
  1040f8:	e5832000 	str	r2, [r3]
  1040fc:	e12fff1e 	bx	lr

00104100 <exit>:
  104100:	e92d4010 	push	{r4, lr}
  104104:	e3a01000 	mov	r1, #0
  104108:	e1a04000 	mov	r4, r0
  10410c:	eb000f1d 	bl	107d88 <__call_exitprocs>
  104110:	e3063974 	movw	r3, #26996	; 0x6974
  104114:	e3403011 	movt	r3, #17
  104118:	e5930000 	ldr	r0, [r3]
  10411c:	e590303c 	ldr	r3, [r0, #60]	; 0x3c
  104120:	e3530000 	cmp	r3, #0
  104124:	0a000000 	beq	10412c <exit+0x2c>
  104128:	e12fff33 	blx	r3
  10412c:	e1a00004 	mov	r0, r4
  104130:	eb0030fd 	bl	11052c <_exit>

00104134 <__libc_fini_array>:
  104134:	e92d4070 	push	{r4, r5, r6, lr}
  104138:	e3003014 	movw	r3, #20
  10413c:	e3005010 	movw	r5, #16
  104140:	e3403012 	movt	r3, #18
  104144:	e3405012 	movt	r5, #18
  104148:	e0653003 	rsb	r3, r5, r3
  10414c:	e1b04143 	asrs	r4, r3, #2
  104150:	10835005 	addne	r5, r3, r5
  104154:	0a000004 	beq	10416c <__libc_fini_array+0x38>
  104158:	e2444001 	sub	r4, r4, #1
  10415c:	e5353004 	ldr	r3, [r5, #-4]!
  104160:	e12fff33 	blx	r3
  104164:	e3540000 	cmp	r4, #0
  104168:	1afffffa 	bne	104158 <__libc_fini_array+0x24>
  10416c:	e8bd4070 	pop	{r4, r5, r6, lr}
  104170:	ea00495c 	b	1166e8 <_fini>

00104174 <__libc_init_array>:
  104174:	e92d4070 	push	{r4, r5, r6, lr}
  104178:	e3006008 	movw	r6, #8
  10417c:	e3005008 	movw	r5, #8
  104180:	e3406012 	movt	r6, #18
  104184:	e3405012 	movt	r5, #18
  104188:	e0656006 	rsb	r6, r5, r6
  10418c:	e1b06146 	asrs	r6, r6, #2
  104190:	13a04000 	movne	r4, #0
  104194:	0a000004 	beq	1041ac <__libc_init_array+0x38>
  104198:	e2844001 	add	r4, r4, #1
  10419c:	e4953004 	ldr	r3, [r5], #4
  1041a0:	e12fff33 	blx	r3
  1041a4:	e1560004 	cmp	r6, r4
  1041a8:	1afffffa 	bne	104198 <__libc_init_array+0x24>
  1041ac:	e3006010 	movw	r6, #16
  1041b0:	e3005008 	movw	r5, #8
  1041b4:	e3406012 	movt	r6, #18
  1041b8:	e3405012 	movt	r5, #18
  1041bc:	e0656006 	rsb	r6, r5, r6
  1041c0:	eb004942 	bl	1166d0 <_init>
  1041c4:	e1b06146 	asrs	r6, r6, #2
  1041c8:	0a000006 	beq	1041e8 <__libc_init_array+0x74>
  1041cc:	e3a04000 	mov	r4, #0
  1041d0:	e2844001 	add	r4, r4, #1
  1041d4:	e4953004 	ldr	r3, [r5], #4
  1041d8:	e12fff33 	blx	r3
  1041dc:	e1560004 	cmp	r6, r4
  1041e0:	1afffffa 	bne	1041d0 <__libc_init_array+0x5c>
  1041e4:	e8bd8070 	pop	{r4, r5, r6, pc}
  1041e8:	e8bd8070 	pop	{r4, r5, r6, pc}

001041ec <malloc>:
  1041ec:	e3073988 	movw	r3, #31112	; 0x7988
  1041f0:	e1a01000 	mov	r1, r0
  1041f4:	e3403011 	movt	r3, #17
  1041f8:	e5930000 	ldr	r0, [r3]
  1041fc:	ea000004 	b	104214 <_malloc_r>

00104200 <free>:
  104200:	e3073988 	movw	r3, #31112	; 0x7988
  104204:	e1a01000 	mov	r1, r0
  104208:	e3403011 	movt	r3, #17
  10420c:	e5930000 	ldr	r0, [r3]
  104210:	ea001610 	b	109a58 <_free_r>

00104214 <_malloc_r>:
  104214:	e92d4ff0 	push	{r4, r5, r6, r7, r8, r9, sl, fp, lr}
  104218:	e281500b 	add	r5, r1, #11
  10421c:	e3550016 	cmp	r5, #22
  104220:	e24dd00c 	sub	sp, sp, #12
  104224:	e1a06000 	mov	r6, r0
  104228:	9a00001f 	bls	1042ac <_malloc_r+0x98>
  10422c:	e3c55007 	bic	r5, r5, #7
  104230:	e1510005 	cmp	r1, r5
  104234:	93a01000 	movls	r1, #0
  104238:	83a01001 	movhi	r1, #1
  10423c:	e1913fa5 	orrs	r3, r1, r5, lsr #31
  104240:	1a000087 	bne	104464 <_malloc_r+0x250>
  104244:	eb0001cc 	bl	10497c <__malloc_lock>
  104248:	e3550f7e 	cmp	r5, #504	; 0x1f8
  10424c:	2a00001b 	bcs	1042c0 <_malloc_r+0xac>
  104250:	e1a001a5 	lsr	r0, r5, #3
  104254:	e3077db8 	movw	r7, #32184	; 0x7db8
  104258:	e3407011 	movt	r7, #17
  10425c:	e0872180 	add	r2, r7, r0, lsl #3
  104260:	e592300c 	ldr	r3, [r2, #12]
  104264:	e1530002 	cmp	r3, r2
  104268:	0a000114 	beq	1046c0 <_malloc_r+0x4ac>
  10426c:	e5932004 	ldr	r2, [r3, #4]
  104270:	e2834008 	add	r4, r3, #8
  104274:	e593100c 	ldr	r1, [r3, #12]
  104278:	e1a00006 	mov	r0, r6
  10427c:	e3c22003 	bic	r2, r2, #3
  104280:	e593c008 	ldr	ip, [r3, #8]
  104284:	e0833002 	add	r3, r3, r2
  104288:	e5932004 	ldr	r2, [r3, #4]
  10428c:	e58c100c 	str	r1, [ip, #12]
  104290:	e3822001 	orr	r2, r2, #1
  104294:	e581c008 	str	ip, [r1, #8]
  104298:	e5832004 	str	r2, [r3, #4]
  10429c:	eb0001b7 	bl	104980 <__malloc_unlock>
  1042a0:	e1a00004 	mov	r0, r4
  1042a4:	e28dd00c 	add	sp, sp, #12
  1042a8:	e8bd8ff0 	pop	{r4, r5, r6, r7, r8, r9, sl, fp, pc}
  1042ac:	e3510010 	cmp	r1, #16
  1042b0:	8a00006b 	bhi	104464 <_malloc_r+0x250>
  1042b4:	eb0001b0 	bl	10497c <__malloc_lock>
  1042b8:	e3a05010 	mov	r5, #16
  1042bc:	eaffffe3 	b	104250 <_malloc_r+0x3c>
  1042c0:	e1b004a5 	lsrs	r0, r5, #9
  1042c4:	03a0007e 	moveq	r0, #126	; 0x7e
  1042c8:	03a0c03f 	moveq	ip, #63	; 0x3f
  1042cc:	1a00006a 	bne	10447c <_malloc_r+0x268>
  1042d0:	e3077db8 	movw	r7, #32184	; 0x7db8
  1042d4:	e3407011 	movt	r7, #17
  1042d8:	e0870100 	add	r0, r7, r0, lsl #2
  1042dc:	e590300c 	ldr	r3, [r0, #12]
  1042e0:	e1500003 	cmp	r0, r3
  1042e4:	1a000005 	bne	104300 <_malloc_r+0xec>
  1042e8:	ea00000a 	b	104318 <_malloc_r+0x104>
  1042ec:	e3510000 	cmp	r1, #0
  1042f0:	aa0000a6 	bge	104590 <_malloc_r+0x37c>
  1042f4:	e593300c 	ldr	r3, [r3, #12]
  1042f8:	e1500003 	cmp	r0, r3
  1042fc:	0a000005 	beq	104318 <_malloc_r+0x104>
  104300:	e5932004 	ldr	r2, [r3, #4]
  104304:	e3c22003 	bic	r2, r2, #3
  104308:	e0651002 	rsb	r1, r5, r2
  10430c:	e351000f 	cmp	r1, #15
  104310:	dafffff5 	ble	1042ec <_malloc_r+0xd8>
  104314:	e24cc001 	sub	ip, ip, #1
  104318:	e28c0001 	add	r0, ip, #1
  10431c:	e307edb8 	movw	lr, #32184	; 0x7db8
  104320:	e5973010 	ldr	r3, [r7, #16]
  104324:	e340e011 	movt	lr, #17
  104328:	e28ec008 	add	ip, lr, #8
  10432c:	e153000c 	cmp	r3, ip
  104330:	059e2004 	ldreq	r2, [lr, #4]
  104334:	0a000016 	beq	104394 <_malloc_r+0x180>
  104338:	e5932004 	ldr	r2, [r3, #4]
  10433c:	e3c22003 	bic	r2, r2, #3
  104340:	e0651002 	rsb	r1, r5, r2
  104344:	e351000f 	cmp	r1, #15
  104348:	ca0000ce 	bgt	104688 <_malloc_r+0x474>
  10434c:	e3510000 	cmp	r1, #0
  104350:	e58ec014 	str	ip, [lr, #20]
  104354:	e58ec010 	str	ip, [lr, #16]
  104358:	aa00004d 	bge	104494 <_malloc_r+0x280>
  10435c:	e3520c02 	cmp	r2, #512	; 0x200
  104360:	2a0000ae 	bcs	104620 <_malloc_r+0x40c>
  104364:	e1a041a2 	lsr	r4, r2, #3
  104368:	e59e1004 	ldr	r1, [lr, #4]
  10436c:	e3a09001 	mov	r9, #1
  104370:	e08e8184 	add	r8, lr, r4, lsl #3
  104374:	e1a02144 	asr	r2, r4, #2
  104378:	e1812219 	orr	r2, r1, r9, lsl r2
  10437c:	e58e2004 	str	r2, [lr, #4]
  104380:	e5981008 	ldr	r1, [r8, #8]
  104384:	e583800c 	str	r8, [r3, #12]
  104388:	e5831008 	str	r1, [r3, #8]
  10438c:	e5883008 	str	r3, [r8, #8]
  104390:	e581300c 	str	r3, [r1, #12]
  104394:	e1a03140 	asr	r3, r0, #2
  104398:	e3a0e001 	mov	lr, #1
  10439c:	e1a0e31e 	lsl	lr, lr, r3
  1043a0:	e15e0002 	cmp	lr, r2
  1043a4:	8a000044 	bhi	1044bc <_malloc_r+0x2a8>
  1043a8:	e112000e 	tst	r2, lr
  1043ac:	1a000008 	bne	1043d4 <_malloc_r+0x1c0>
  1043b0:	e1a0e08e 	lsl	lr, lr, #1
  1043b4:	e3c00003 	bic	r0, r0, #3
  1043b8:	e112000e 	tst	r2, lr
  1043bc:	e2800004 	add	r0, r0, #4
  1043c0:	1a000003 	bne	1043d4 <_malloc_r+0x1c0>
  1043c4:	e1a0e08e 	lsl	lr, lr, #1
  1043c8:	e2800004 	add	r0, r0, #4
  1043cc:	e112000e 	tst	r2, lr
  1043d0:	0afffffb 	beq	1043c4 <_malloc_r+0x1b0>
  1043d4:	e0878180 	add	r8, r7, r0, lsl #3
  1043d8:	e1a09000 	mov	r9, r0
  1043dc:	e1a04008 	mov	r4, r8
  1043e0:	e594300c 	ldr	r3, [r4, #12]
  1043e4:	e1540003 	cmp	r4, r3
  1043e8:	1a000005 	bne	104404 <_malloc_r+0x1f0>
  1043ec:	ea0000ae 	b	1046ac <_malloc_r+0x498>
  1043f0:	e3510000 	cmp	r1, #0
  1043f4:	aa0000b7 	bge	1046d8 <_malloc_r+0x4c4>
  1043f8:	e593300c 	ldr	r3, [r3, #12]
  1043fc:	e1540003 	cmp	r4, r3
  104400:	0a0000a9 	beq	1046ac <_malloc_r+0x498>
  104404:	e5932004 	ldr	r2, [r3, #4]
  104408:	e3c22003 	bic	r2, r2, #3
  10440c:	e0651002 	rsb	r1, r5, r2
  104410:	e351000f 	cmp	r1, #15
  104414:	dafffff5 	ble	1043f0 <_malloc_r+0x1dc>
  104418:	e1a04003 	mov	r4, r3
  10441c:	e593e00c 	ldr	lr, [r3, #12]
  104420:	e5b48008 	ldr	r8, [r4, #8]!
  104424:	e1a00006 	mov	r0, r6
  104428:	e3816001 	orr	r6, r1, #1
  10442c:	e0832005 	add	r2, r3, r5
  104430:	e3855001 	orr	r5, r5, #1
  104434:	e5835004 	str	r5, [r3, #4]
  104438:	e588e00c 	str	lr, [r8, #12]
  10443c:	e58e8008 	str	r8, [lr, #8]
  104440:	e5872014 	str	r2, [r7, #20]
  104444:	e5872010 	str	r2, [r7, #16]
  104448:	e582c00c 	str	ip, [r2, #12]
  10444c:	e9821040 	stmib	r2, {r6, ip}
  104450:	e7821001 	str	r1, [r2, r1]
  104454:	eb000149 	bl	104980 <__malloc_unlock>
  104458:	e1a00004 	mov	r0, r4
  10445c:	e28dd00c 	add	sp, sp, #12
  104460:	e8bd8ff0 	pop	{r4, r5, r6, r7, r8, r9, sl, fp, pc}
  104464:	e3a04000 	mov	r4, #0
  104468:	e3a0300c 	mov	r3, #12
  10446c:	e1a00004 	mov	r0, r4
  104470:	e5863000 	str	r3, [r6]
  104474:	e28dd00c 	add	sp, sp, #12
  104478:	e8bd8ff0 	pop	{r4, r5, r6, r7, r8, r9, sl, fp, pc}
  10447c:	e3500004 	cmp	r0, #4
  104480:	8a00005c 	bhi	1045f8 <_malloc_r+0x3e4>
  104484:	e1a00325 	lsr	r0, r5, #6
  104488:	e280c038 	add	ip, r0, #56	; 0x38
  10448c:	e1a0008c 	lsl	r0, ip, #1
  104490:	eaffff8e 	b	1042d0 <_malloc_r+0xbc>
  104494:	e0832002 	add	r2, r3, r2
  104498:	e2834008 	add	r4, r3, #8
  10449c:	e1a00006 	mov	r0, r6
  1044a0:	e5923004 	ldr	r3, [r2, #4]
  1044a4:	e3833001 	orr	r3, r3, #1
  1044a8:	e5823004 	str	r3, [r2, #4]
  1044ac:	eb000133 	bl	104980 <__malloc_unlock>
  1044b0:	e1a00004 	mov	r0, r4
  1044b4:	e28dd00c 	add	sp, sp, #12
  1044b8:	e8bd8ff0 	pop	{r4, r5, r6, r7, r8, r9, sl, fp, pc}
  1044bc:	e5974008 	ldr	r4, [r7, #8]
  1044c0:	e3071db8 	movw	r1, #32184	; 0x7db8
  1044c4:	e3401011 	movt	r1, #17
  1044c8:	e5943004 	ldr	r3, [r4, #4]
  1044cc:	e3c39003 	bic	r9, r3, #3
  1044d0:	e1590005 	cmp	r9, r5
  1044d4:	e0652009 	rsb	r2, r5, r9
  1044d8:	23a03000 	movcs	r3, #0
  1044dc:	33a03001 	movcc	r3, #1
  1044e0:	e352000f 	cmp	r2, #15
  1044e4:	d3833001 	orrle	r3, r3, #1
  1044e8:	e3530000 	cmp	r3, #0
  1044ec:	0a000035 	beq	1045c8 <_malloc_r+0x3b4>
  1044f0:	e3008054 	movw	r8, #84	; 0x54
  1044f4:	e5913408 	ldr	r3, [r1, #1032]	; 0x408
  1044f8:	e3408012 	movt	r8, #18
  1044fc:	e1a00006 	mov	r0, r6
  104500:	e5982000 	ldr	r2, [r8]
  104504:	e3730001 	cmn	r3, #1
  104508:	e0852002 	add	r2, r5, r2
  10450c:	12822a01 	addne	r2, r2, #4096	; 0x1000
  104510:	0282b010 	addeq	fp, r2, #16
  104514:	1282200f 	addne	r2, r2, #15
  104518:	13c2beff 	bicne	fp, r2, #4080	; 0xff0
  10451c:	13cbb00f 	bicne	fp, fp, #15
  104520:	e1a0100b 	mov	r1, fp
  104524:	eb00015b 	bl	104a98 <_sbrk_r>
  104528:	e3700001 	cmn	r0, #1
  10452c:	e1a03000 	mov	r3, r0
  104530:	0a000007 	beq	104554 <_malloc_r+0x340>
  104534:	e054a007 	subs	sl, r4, r7
  104538:	e0842009 	add	r2, r4, r9
  10453c:	13a0a001 	movne	sl, #1
  104540:	e1540007 	cmp	r4, r7
  104544:	11520000 	cmpne	r2, r0
  104548:	e3070db8 	movw	r0, #32184	; 0x7db8
  10454c:	e3400011 	movt	r0, #17
  104550:	9a000090 	bls	104798 <_malloc_r+0x584>
  104554:	e5974008 	ldr	r4, [r7, #8]
  104558:	e5943004 	ldr	r3, [r4, #4]
  10455c:	e3c33003 	bic	r3, r3, #3
  104560:	e1550003 	cmp	r5, r3
  104564:	e0652003 	rsb	r2, r5, r3
  104568:	93a03000 	movls	r3, #0
  10456c:	83a03001 	movhi	r3, #1
  104570:	e352000f 	cmp	r2, #15
  104574:	d3833001 	orrle	r3, r3, #1
  104578:	e3530000 	cmp	r3, #0
  10457c:	0a000011 	beq	1045c8 <_malloc_r+0x3b4>
  104580:	e1a00006 	mov	r0, r6
  104584:	e3a04000 	mov	r4, #0
  104588:	eb0000fc 	bl	104980 <__malloc_unlock>
  10458c:	eaffff43 	b	1042a0 <_malloc_r+0x8c>
  104590:	e0832002 	add	r2, r3, r2
  104594:	e593c00c 	ldr	ip, [r3, #12]
  104598:	e593e008 	ldr	lr, [r3, #8]
  10459c:	e1a00006 	mov	r0, r6
  1045a0:	e5921004 	ldr	r1, [r2, #4]
  1045a4:	e2834008 	add	r4, r3, #8
  1045a8:	e58ec00c 	str	ip, [lr, #12]
  1045ac:	e3813001 	orr	r3, r1, #1
  1045b0:	e58ce008 	str	lr, [ip, #8]
  1045b4:	e5823004 	str	r3, [r2, #4]
  1045b8:	eb0000f0 	bl	104980 <__malloc_unlock>
  1045bc:	e1a00004 	mov	r0, r4
  1045c0:	e28dd00c 	add	sp, sp, #12
  1045c4:	e8bd8ff0 	pop	{r4, r5, r6, r7, r8, r9, sl, fp, pc}
  1045c8:	e0843005 	add	r3, r4, r5
  1045cc:	e3822001 	orr	r2, r2, #1
  1045d0:	e1a00006 	mov	r0, r6
  1045d4:	e3855001 	orr	r5, r5, #1
  1045d8:	e5845004 	str	r5, [r4, #4]
  1045dc:	e2844008 	add	r4, r4, #8
  1045e0:	e5873008 	str	r3, [r7, #8]
  1045e4:	e5832004 	str	r2, [r3, #4]
  1045e8:	eb0000e4 	bl	104980 <__malloc_unlock>
  1045ec:	e1a00004 	mov	r0, r4
  1045f0:	e28dd00c 	add	sp, sp, #12
  1045f4:	e8bd8ff0 	pop	{r4, r5, r6, r7, r8, r9, sl, fp, pc}
  1045f8:	e3500014 	cmp	r0, #20
  1045fc:	9280c05b 	addls	ip, r0, #91	; 0x5b
  104600:	91a0008c 	lslls	r0, ip, #1
  104604:	9affff31 	bls	1042d0 <_malloc_r+0xbc>
  104608:	e3500054 	cmp	r0, #84	; 0x54
  10460c:	8a0000a9 	bhi	1048b8 <_malloc_r+0x6a4>
  104610:	e1a00625 	lsr	r0, r5, #12
  104614:	e280c06e 	add	ip, r0, #110	; 0x6e
  104618:	e1a0008c 	lsl	r0, ip, #1
  10461c:	eaffff2b 	b	1042d0 <_malloc_r+0xbc>
  104620:	e1a014a2 	lsr	r1, r2, #9
  104624:	e3510004 	cmp	r1, #4
  104628:	8a000036 	bhi	104708 <_malloc_r+0x4f4>
  10462c:	e1a01322 	lsr	r1, r2, #6
  104630:	e281e038 	add	lr, r1, #56	; 0x38
  104634:	e1a0408e 	lsl	r4, lr, #1
  104638:	e0874104 	add	r4, r7, r4, lsl #2
  10463c:	e3078db8 	movw	r8, #32184	; 0x7db8
  104640:	e3408011 	movt	r8, #17
  104644:	e5941008 	ldr	r1, [r4, #8]
  104648:	e1510004 	cmp	r1, r4
  10464c:	0a00009f 	beq	1048d0 <_malloc_r+0x6bc>
  104650:	e591e004 	ldr	lr, [r1, #4]
  104654:	e3cee003 	bic	lr, lr, #3
  104658:	e152000e 	cmp	r2, lr
  10465c:	2a000002 	bcs	10466c <_malloc_r+0x458>
  104660:	e5911008 	ldr	r1, [r1, #8]
  104664:	e1540001 	cmp	r4, r1
  104668:	1afffff8 	bne	104650 <_malloc_r+0x43c>
  10466c:	e591400c 	ldr	r4, [r1, #12]
  104670:	e5972004 	ldr	r2, [r7, #4]
  104674:	e583400c 	str	r4, [r3, #12]
  104678:	e5831008 	str	r1, [r3, #8]
  10467c:	e5843008 	str	r3, [r4, #8]
  104680:	e581300c 	str	r3, [r1, #12]
  104684:	eaffff42 	b	104394 <_malloc_r+0x180>
  104688:	e0832005 	add	r2, r3, r5
  10468c:	e1a00006 	mov	r0, r6
  104690:	e3855001 	orr	r5, r5, #1
  104694:	e3816001 	orr	r6, r1, #1
  104698:	e5835004 	str	r5, [r3, #4]
  10469c:	e2834008 	add	r4, r3, #8
  1046a0:	e58e2014 	str	r2, [lr, #20]
  1046a4:	e58e2010 	str	r2, [lr, #16]
  1046a8:	eaffff66 	b	104448 <_malloc_r+0x234>
  1046ac:	e2899001 	add	r9, r9, #1
  1046b0:	e2844008 	add	r4, r4, #8
  1046b4:	e3190003 	tst	r9, #3
  1046b8:	1affff48 	bne	1043e0 <_malloc_r+0x1cc>
  1046bc:	ea00001e 	b	10473c <_malloc_r+0x528>
  1046c0:	e2832008 	add	r2, r3, #8
  1046c4:	e5933014 	ldr	r3, [r3, #20]
  1046c8:	e1520003 	cmp	r2, r3
  1046cc:	02800002 	addeq	r0, r0, #2
  1046d0:	0affff11 	beq	10431c <_malloc_r+0x108>
  1046d4:	eafffee4 	b	10426c <_malloc_r+0x58>
  1046d8:	e0832002 	add	r2, r3, r2
  1046dc:	e1a04003 	mov	r4, r3
  1046e0:	e593100c 	ldr	r1, [r3, #12]
  1046e4:	e1a00006 	mov	r0, r6
  1046e8:	e5b4c008 	ldr	ip, [r4, #8]!
  1046ec:	e5923004 	ldr	r3, [r2, #4]
  1046f0:	e3833001 	orr	r3, r3, #1
  1046f4:	e5823004 	str	r3, [r2, #4]
  1046f8:	e58c100c 	str	r1, [ip, #12]
  1046fc:	e581c008 	str	ip, [r1, #8]
  104700:	eb00009e 	bl	104980 <__malloc_unlock>
  104704:	eafffee5 	b	1042a0 <_malloc_r+0x8c>
  104708:	e3510014 	cmp	r1, #20
  10470c:	9281e05b 	addls	lr, r1, #91	; 0x5b
  104710:	91a0408e 	lslls	r4, lr, #1
  104714:	9affffc7 	bls	104638 <_malloc_r+0x424>
  104718:	e3510054 	cmp	r1, #84	; 0x54
  10471c:	8a000087 	bhi	104940 <_malloc_r+0x72c>
  104720:	e1a01622 	lsr	r1, r2, #12
  104724:	e281e06e 	add	lr, r1, #110	; 0x6e
  104728:	e1a0408e 	lsl	r4, lr, #1
  10472c:	eaffffc1 	b	104638 <_malloc_r+0x424>
  104730:	e5988000 	ldr	r8, [r8]
  104734:	e1580003 	cmp	r8, r3
  104738:	1a00008d 	bne	104974 <_malloc_r+0x760>
  10473c:	e3100003 	tst	r0, #3
  104740:	e2483008 	sub	r3, r8, #8
  104744:	e2400001 	sub	r0, r0, #1
  104748:	1afffff8 	bne	104730 <_malloc_r+0x51c>
  10474c:	e5973004 	ldr	r3, [r7, #4]
  104750:	e1c3300e 	bic	r3, r3, lr
  104754:	e5873004 	str	r3, [r7, #4]
  104758:	e1a0e08e 	lsl	lr, lr, #1
  10475c:	e15e0003 	cmp	lr, r3
  104760:	83a02000 	movhi	r2, #0
  104764:	93a02001 	movls	r2, #1
  104768:	e35e0000 	cmp	lr, #0
  10476c:	03a02000 	moveq	r2, #0
  104770:	e3520000 	cmp	r2, #0
  104774:	0affff50 	beq	1044bc <_malloc_r+0x2a8>
  104778:	e113000e 	tst	r3, lr
  10477c:	e1a00009 	mov	r0, r9
  104780:	1affff13 	bne	1043d4 <_malloc_r+0x1c0>
  104784:	e1a0e08e 	lsl	lr, lr, #1
  104788:	e2800004 	add	r0, r0, #4
  10478c:	e113000e 	tst	r3, lr
  104790:	0afffffb 	beq	104784 <_malloc_r+0x570>
  104794:	eaffff0e 	b	1043d4 <_malloc_r+0x1c0>
  104798:	e5981004 	ldr	r1, [r8, #4]
  10479c:	e1520003 	cmp	r2, r3
  1047a0:	e08b1001 	add	r1, fp, r1
  1047a4:	e5881004 	str	r1, [r8, #4]
  1047a8:	0a000057 	beq	10490c <_malloc_r+0x6f8>
  1047ac:	e597c408 	ldr	ip, [r7, #1032]	; 0x408
  1047b0:	e3070db8 	movw	r0, #32184	; 0x7db8
  1047b4:	e3400011 	movt	r0, #17
  1047b8:	e37c0001 	cmn	ip, #1
  1047bc:	05803408 	streq	r3, [r0, #1032]	; 0x408
  1047c0:	10622003 	rsbne	r2, r2, r3
  1047c4:	e1a00006 	mov	r0, r6
  1047c8:	10811002 	addne	r1, r1, r2
  1047cc:	15881004 	strne	r1, [r8, #4]
  1047d0:	e2131007 	ands	r1, r3, #7
  1047d4:	12612008 	rsbne	r2, r1, #8
  1047d8:	12611a01 	rsbne	r1, r1, #4096	; 0x1000
  1047dc:	10833002 	addne	r3, r3, r2
  1047e0:	12811008 	addne	r1, r1, #8
  1047e4:	e083200b 	add	r2, r3, fp
  1047e8:	03a01a01 	moveq	r1, #4096	; 0x1000
  1047ec:	e7eb2052 	ubfx	r2, r2, #0, #12
  1047f0:	e58d3004 	str	r3, [sp, #4]
  1047f4:	e062b001 	rsb	fp, r2, r1
  1047f8:	e1a0100b 	mov	r1, fp
  1047fc:	eb0000a5 	bl	104a98 <_sbrk_r>
  104800:	e59d3004 	ldr	r3, [sp, #4]
  104804:	e5981004 	ldr	r1, [r8, #4]
  104808:	e5873008 	str	r3, [r7, #8]
  10480c:	e3700001 	cmn	r0, #1
  104810:	10632000 	rsbne	r2, r3, r0
  104814:	108b2002 	addne	r2, fp, r2
  104818:	03a02001 	moveq	r2, #1
  10481c:	13822001 	orrne	r2, r2, #1
  104820:	03a0b000 	moveq	fp, #0
  104824:	e35a0000 	cmp	sl, #0
  104828:	e300a054 	movw	sl, #84	; 0x54
  10482c:	e08b1001 	add	r1, fp, r1
  104830:	e5832004 	str	r2, [r3, #4]
  104834:	e5881004 	str	r1, [r8, #4]
  104838:	e340a012 	movt	sl, #18
  10483c:	0a00000f 	beq	104880 <_malloc_r+0x66c>
  104840:	e359000f 	cmp	r9, #15
  104844:	93a02001 	movls	r2, #1
  104848:	95832004 	strls	r2, [r3, #4]
  10484c:	9affff4b 	bls	104580 <_malloc_r+0x36c>
  104850:	e249300c 	sub	r3, r9, #12
  104854:	e5942004 	ldr	r2, [r4, #4]
  104858:	e3c33007 	bic	r3, r3, #7
  10485c:	e3a0c005 	mov	ip, #5
  104860:	e0840003 	add	r0, r4, r3
  104864:	e353000f 	cmp	r3, #15
  104868:	e2022001 	and	r2, r2, #1
  10486c:	e1833002 	orr	r3, r3, r2
  104870:	e5843004 	str	r3, [r4, #4]
  104874:	e580c004 	str	ip, [r0, #4]
  104878:	e580c008 	str	ip, [r0, #8]
  10487c:	8a00002a 	bhi	10492c <_malloc_r+0x718>
  104880:	e598202c 	ldr	r2, [r8, #44]	; 0x2c
  104884:	e3003054 	movw	r3, #84	; 0x54
  104888:	e3403012 	movt	r3, #18
  10488c:	e5974008 	ldr	r4, [r7, #8]
  104890:	e1510002 	cmp	r1, r2
  104894:	e5982030 	ldr	r2, [r8, #48]	; 0x30
  104898:	8583102c 	strhi	r1, [r3, #44]	; 0x2c
  10489c:	e3003054 	movw	r3, #84	; 0x54
  1048a0:	e3403012 	movt	r3, #18
  1048a4:	e1510002 	cmp	r1, r2
  1048a8:	85831030 	strhi	r1, [r3, #48]	; 0x30
  1048ac:	e5943004 	ldr	r3, [r4, #4]
  1048b0:	e3c33003 	bic	r3, r3, #3
  1048b4:	eaffff29 	b	104560 <_malloc_r+0x34c>
  1048b8:	e3500f55 	cmp	r0, #340	; 0x154
  1048bc:	8a00000a 	bhi	1048ec <_malloc_r+0x6d8>
  1048c0:	e1a007a5 	lsr	r0, r5, #15
  1048c4:	e280c077 	add	ip, r0, #119	; 0x77
  1048c8:	e1a0008c 	lsl	r0, ip, #1
  1048cc:	eafffe7f 	b	1042d0 <_malloc_r+0xbc>
  1048d0:	e5982004 	ldr	r2, [r8, #4]
  1048d4:	e1a0e14e 	asr	lr, lr, #2
  1048d8:	e3a09001 	mov	r9, #1
  1048dc:	e1a04001 	mov	r4, r1
  1048e0:	e1822e19 	orr	r2, r2, r9, lsl lr
  1048e4:	e5882004 	str	r2, [r8, #4]
  1048e8:	eaffff61 	b	104674 <_malloc_r+0x460>
  1048ec:	e3003554 	movw	r3, #1364	; 0x554
  1048f0:	e1500003 	cmp	r0, r3
  1048f4:	91a00925 	lsrls	r0, r5, #18
  1048f8:	9280c07c 	addls	ip, r0, #124	; 0x7c
  1048fc:	83a000fc 	movhi	r0, #252	; 0xfc
  104900:	83a0c07e 	movhi	ip, #126	; 0x7e
  104904:	91a0008c 	lslls	r0, ip, #1
  104908:	eafffe70 	b	1042d0 <_malloc_r+0xbc>
  10490c:	e7ebc052 	ubfx	ip, r2, #0, #12
  104910:	e35c0000 	cmp	ip, #0
  104914:	1affffa4 	bne	1047ac <_malloc_r+0x598>
  104918:	e5900008 	ldr	r0, [r0, #8]
  10491c:	e08b2009 	add	r2, fp, r9
  104920:	e3823001 	orr	r3, r2, #1
  104924:	e5803004 	str	r3, [r0, #4]
  104928:	eaffffd4 	b	104880 <_malloc_r+0x66c>
  10492c:	e2841008 	add	r1, r4, #8
  104930:	e1a00006 	mov	r0, r6
  104934:	eb001447 	bl	109a58 <_free_r>
  104938:	e59a1004 	ldr	r1, [sl, #4]
  10493c:	eaffffcf 	b	104880 <_malloc_r+0x66c>
  104940:	e3510f55 	cmp	r1, #340	; 0x154
  104944:	91a017a2 	lsrls	r1, r2, #15
  104948:	9281e077 	addls	lr, r1, #119	; 0x77
  10494c:	91a0408e 	lslls	r4, lr, #1
  104950:	9affff38 	bls	104638 <_malloc_r+0x424>
  104954:	e300e554 	movw	lr, #1364	; 0x554
  104958:	e151000e 	cmp	r1, lr
  10495c:	91a01922 	lsrls	r1, r2, #18
  104960:	9281e07c 	addls	lr, r1, #124	; 0x7c
  104964:	83a040fc 	movhi	r4, #252	; 0xfc
  104968:	83a0e07e 	movhi	lr, #126	; 0x7e
  10496c:	91a0408e 	lslls	r4, lr, #1
  104970:	eaffff30 	b	104638 <_malloc_r+0x424>
  104974:	e5973004 	ldr	r3, [r7, #4]
  104978:	eaffff76 	b	104758 <_malloc_r+0x544>

0010497c <__malloc_lock>:
  10497c:	e12fff1e 	bx	lr

00104980 <__malloc_unlock>:
  104980:	e12fff1e 	bx	lr

00104984 <_printf_r>:
  104984:	e92d000e 	push	{r1, r2, r3}
  104988:	e52de004 	push	{lr}		; (str lr, [sp, #-4]!)
  10498c:	e24dd008 	sub	sp, sp, #8
  104990:	e28dc010 	add	ip, sp, #16
  104994:	e5901008 	ldr	r1, [r0, #8]
  104998:	e59d200c 	ldr	r2, [sp, #12]
  10499c:	e1a0300c 	mov	r3, ip
  1049a0:	e58dc004 	str	ip, [sp, #4]
  1049a4:	eb000095 	bl	104c00 <_vfprintf_r>
  1049a8:	e28dd008 	add	sp, sp, #8
  1049ac:	e49de004 	pop	{lr}		; (ldr lr, [sp], #4)
  1049b0:	e28dd00c 	add	sp, sp, #12
  1049b4:	e12fff1e 	bx	lr

001049b8 <printf>:
  1049b8:	e92d000f 	push	{r0, r1, r2, r3}
  1049bc:	e3071988 	movw	r1, #31112	; 0x7988
  1049c0:	e3401011 	movt	r1, #17
  1049c4:	e52de004 	push	{lr}		; (str lr, [sp, #-4]!)
  1049c8:	e24dd00c 	sub	sp, sp, #12
  1049cc:	e5910000 	ldr	r0, [r1]
  1049d0:	e28dc014 	add	ip, sp, #20
  1049d4:	e59d2010 	ldr	r2, [sp, #16]
  1049d8:	e1a0300c 	mov	r3, ip
  1049dc:	e58dc004 	str	ip, [sp, #4]
  1049e0:	e5901008 	ldr	r1, [r0, #8]
  1049e4:	eb000085 	bl	104c00 <_vfprintf_r>
  1049e8:	e28dd00c 	add	sp, sp, #12
  1049ec:	e49de004 	pop	{lr}		; (ldr lr, [sp], #4)
  1049f0:	e28dd010 	add	sp, sp, #16
  1049f4:	e12fff1e 	bx	lr

001049f8 <_puts_r>:
  1049f8:	e92d4030 	push	{r4, r5, lr}
  1049fc:	e1a04000 	mov	r4, r0
  104a00:	e24dd024 	sub	sp, sp, #36	; 0x24
  104a04:	e1a00001 	mov	r0, r1
  104a08:	e1a05001 	mov	r5, r1
  104a0c:	fa00003b 	blx	104b00 <strlen>
  104a10:	e5943008 	ldr	r3, [r4, #8]
  104a14:	e3072154 	movw	r2, #29012	; 0x7154
  104a18:	e3402011 	movt	r2, #17
  104a1c:	e58d2018 	str	r2, [sp, #24]
  104a20:	e3a02002 	mov	r2, #2
  104a24:	e3a0c001 	mov	ip, #1
  104a28:	e1d310bc 	ldrh	r1, [r3, #12]
  104a2c:	e58dc01c 	str	ip, [sp, #28]
  104a30:	e3110a02 	tst	r1, #8192	; 0x2000
  104a34:	e58d5010 	str	r5, [sp, #16]
  104a38:	03811a02 	orreq	r1, r1, #8192	; 0x2000
  104a3c:	01c310bc 	strheq	r1, [r3, #12]
  104a40:	e1a01003 	mov	r1, r3
  104a44:	e280e001 	add	lr, r0, #1
  104a48:	e58d0014 	str	r0, [sp, #20]
  104a4c:	e28d0010 	add	r0, sp, #16
  104a50:	e98d0005 	stmib	sp, {r0, r2}
  104a54:	05932064 	ldreq	r2, [r3, #100]	; 0x64
  104a58:	e1a00004 	mov	r0, r4
  104a5c:	e58de00c 	str	lr, [sp, #12]
  104a60:	03c22a02 	biceq	r2, r2, #8192	; 0x2000
  104a64:	05832064 	streq	r2, [r3, #100]	; 0x64
  104a68:	e28d2004 	add	r2, sp, #4
  104a6c:	eb0014a5 	bl	109d08 <__sfvwrite_r>
  104a70:	e3500000 	cmp	r0, #0
  104a74:	13e00000 	mvnne	r0, #0
  104a78:	03a0000a 	moveq	r0, #10
  104a7c:	e28dd024 	add	sp, sp, #36	; 0x24
  104a80:	e8bd8030 	pop	{r4, r5, pc}

00104a84 <puts>:
  104a84:	e3073988 	movw	r3, #31112	; 0x7988
  104a88:	e1a01000 	mov	r1, r0
  104a8c:	e3403011 	movt	r3, #17
  104a90:	e5930000 	ldr	r0, [r3]
  104a94:	eaffffd7 	b	1049f8 <_puts_r>

00104a98 <_sbrk_r>:
  104a98:	e92d4070 	push	{r4, r5, r6, lr}
  104a9c:	e3004afc 	movw	r4, #2812	; 0xafc
  104aa0:	e1a05000 	mov	r5, r0
  104aa4:	e3404012 	movt	r4, #18
  104aa8:	e1a00001 	mov	r0, r1
  104aac:	e3a03000 	mov	r3, #0
  104ab0:	e5843000 	str	r3, [r4]
  104ab4:	eb002e9d 	bl	110530 <_sbrk>
  104ab8:	e3700001 	cmn	r0, #1
  104abc:	18bd8070 	popne	{r4, r5, r6, pc}
  104ac0:	e5943000 	ldr	r3, [r4]
  104ac4:	e3530000 	cmp	r3, #0
  104ac8:	15853000 	strne	r3, [r5]
  104acc:	e8bd8070 	pop	{r4, r5, r6, pc}
	...

00104b00 <strlen>:
  104b00:	f890 f000 	pld	[r0]
  104b04:	e96d 4502 	strd	r4, r5, [sp, #-8]!
  104b08:	f020 0107 	bic.w	r1, r0, #7
  104b0c:	f06f 0c00 	mvn.w	ip, #0
  104b10:	f010 0407 	ands.w	r4, r0, #7
  104b14:	f891 f020 	pld	[r1, #32]
  104b18:	f040 8049 	bne.w	104bae <strlen+0xae>
  104b1c:	f04f 0400 	mov.w	r4, #0
  104b20:	f06f 0007 	mvn.w	r0, #7
  104b24:	e9d1 2300 	ldrd	r2, r3, [r1]
  104b28:	f891 f040 	pld	[r1, #64]	; 0x40
  104b2c:	f100 0008 	add.w	r0, r0, #8
  104b30:	fa82 f24c 	uadd8	r2, r2, ip
  104b34:	faa4 f28c 	sel	r2, r4, ip
  104b38:	fa83 f34c 	uadd8	r3, r3, ip
  104b3c:	faa2 f38c 	sel	r3, r2, ip
  104b40:	bb4b      	cbnz	r3, 104b96 <strlen+0x96>
  104b42:	e9d1 2302 	ldrd	r2, r3, [r1, #8]
  104b46:	fa82 f24c 	uadd8	r2, r2, ip
  104b4a:	f100 0008 	add.w	r0, r0, #8
  104b4e:	faa4 f28c 	sel	r2, r4, ip
  104b52:	fa83 f34c 	uadd8	r3, r3, ip
  104b56:	faa2 f38c 	sel	r3, r2, ip
  104b5a:	b9e3      	cbnz	r3, 104b96 <strlen+0x96>
  104b5c:	e9d1 2304 	ldrd	r2, r3, [r1, #16]
  104b60:	fa82 f24c 	uadd8	r2, r2, ip
  104b64:	f100 0008 	add.w	r0, r0, #8
  104b68:	faa4 f28c 	sel	r2, r4, ip
  104b6c:	fa83 f34c 	uadd8	r3, r3, ip
  104b70:	faa2 f38c 	sel	r3, r2, ip
  104b74:	b97b      	cbnz	r3, 104b96 <strlen+0x96>
  104b76:	e9d1 2306 	ldrd	r2, r3, [r1, #24]
  104b7a:	f101 0120 	add.w	r1, r1, #32
  104b7e:	fa82 f24c 	uadd8	r2, r2, ip
  104b82:	f100 0008 	add.w	r0, r0, #8
  104b86:	faa4 f28c 	sel	r2, r4, ip
  104b8a:	fa83 f34c 	uadd8	r3, r3, ip
  104b8e:	faa2 f38c 	sel	r3, r2, ip
  104b92:	2b00      	cmp	r3, #0
  104b94:	d0c6      	beq.n	104b24 <strlen+0x24>
  104b96:	2a00      	cmp	r2, #0
  104b98:	bf04      	itt	eq
  104b9a:	3004      	addeq	r0, #4
  104b9c:	461a      	moveq	r2, r3
  104b9e:	ba12      	rev	r2, r2
  104ba0:	fab2 f282 	clz	r2, r2
  104ba4:	e8fd 4502 	ldrd	r4, r5, [sp], #8
  104ba8:	eb00 00d2 	add.w	r0, r0, r2, lsr #3
  104bac:	4770      	bx	lr
  104bae:	e9d1 2300 	ldrd	r2, r3, [r1]
  104bb2:	f004 0503 	and.w	r5, r4, #3
  104bb6:	f1c4 0000 	rsb	r0, r4, #0
  104bba:	ea4f 05c5 	mov.w	r5, r5, lsl #3
  104bbe:	f014 0f04 	tst.w	r4, #4
  104bc2:	f891 f040 	pld	[r1, #64]	; 0x40
  104bc6:	fa0c f505 	lsl.w	r5, ip, r5
  104bca:	ea62 0205 	orn	r2, r2, r5
  104bce:	bf1c      	itt	ne
  104bd0:	ea63 0305 	ornne	r3, r3, r5
  104bd4:	4662      	movne	r2, ip
  104bd6:	f04f 0400 	mov.w	r4, #0
  104bda:	e7a9      	b.n	104b30 <strlen+0x30>
  104bdc:	f3af 8000 	nop.w
  104be0:	f3af 8000 	nop.w
  104be4:	f3af 8000 	nop.w
  104be8:	f3af 8000 	nop.w
  104bec:	f3af 8000 	nop.w
  104bf0:	f3af 8000 	nop.w
  104bf4:	f3af 8000 	nop.w
  104bf8:	f3af 8000 	nop.w
  104bfc:	f3af 8000 	nop.w

00104c00 <_vfprintf_r>:
  104c00:	e92d4ff0 	push	{r4, r5, r6, r7, r8, r9, sl, fp, lr}
  104c04:	e1a04003 	mov	r4, r3
  104c08:	ed2d8b0a 	vpush	{d8-d12}
  104c0c:	e1a0a000 	mov	sl, r0
  104c10:	e24ddf55 	sub	sp, sp, #340	; 0x154
  104c14:	e28d8090 	add	r8, sp, #144	; 0x90
  104c18:	e58d100c 	str	r1, [sp, #12]
  104c1c:	e58d2014 	str	r2, [sp, #20]
  104c20:	eb0018f5 	bl	10affc <_localeconv_r>
  104c24:	e58d4028 	str	r4, [sp, #40]	; 0x28
  104c28:	e5903000 	ldr	r3, [r0]
  104c2c:	e1a00003 	mov	r0, r3
  104c30:	e58d3050 	str	r3, [sp, #80]	; 0x50
  104c34:	faffffb1 	blx	104b00 <strlen>
  104c38:	e3a02008 	mov	r2, #8
  104c3c:	e3a01000 	mov	r1, #0
  104c40:	e58d0054 	str	r0, [sp, #84]	; 0x54
  104c44:	e1a00008 	mov	r0, r8
  104c48:	eb001d16 	bl	10c0a8 <memset>
  104c4c:	e35a0000 	cmp	sl, #0
  104c50:	0a000002 	beq	104c60 <_vfprintf_r+0x60>
  104c54:	e59a3038 	ldr	r3, [sl, #56]	; 0x38
  104c58:	e3530000 	cmp	r3, #0
  104c5c:	0a00010d 	beq	105098 <_vfprintf_r+0x498>
  104c60:	e59d300c 	ldr	r3, [sp, #12]
  104c64:	e1d320bc 	ldrh	r2, [r3, #12]
  104c68:	e6ff3072 	uxth	r3, r2
  104c6c:	e3130a02 	tst	r3, #8192	; 0x2000
  104c70:	1a000006 	bne	104c90 <_vfprintf_r+0x90>
  104c74:	e59d100c 	ldr	r1, [sp, #12]
  104c78:	e3823a02 	orr	r3, r2, #8192	; 0x2000
  104c7c:	e5912064 	ldr	r2, [r1, #100]	; 0x64
  104c80:	e1c130bc 	strh	r3, [r1, #12]
  104c84:	e6ff3073 	uxth	r3, r3
  104c88:	e3c22a02 	bic	r2, r2, #8192	; 0x2000
  104c8c:	e5812064 	str	r2, [r1, #100]	; 0x64
  104c90:	e3130008 	tst	r3, #8
  104c94:	0a0000ce 	beq	104fd4 <_vfprintf_r+0x3d4>
  104c98:	e59d200c 	ldr	r2, [sp, #12]
  104c9c:	e5922010 	ldr	r2, [r2, #16]
  104ca0:	e3520000 	cmp	r2, #0
  104ca4:	0a0000ca 	beq	104fd4 <_vfprintf_r+0x3d4>
  104ca8:	e203301a 	and	r3, r3, #26
  104cac:	e353000a 	cmp	r3, #10
  104cb0:	0a0000ec 	beq	105068 <_vfprintf_r+0x468>
  104cb4:	eeb4bb00 	vmov.f64	d11, #64	; 0x40
  104cb8:	e308b348 	movw	fp, #33608	; 0x8348
  104cbc:	ed9f8bf9 	vldr	d8, [pc, #996]	; 1050a8 <_vfprintf_r+0x4a8>
  104cc0:	e3061667 	movw	r1, #26215	; 0x6667
  104cc4:	e340b011 	movt	fp, #17
  104cc8:	e3a03000 	mov	r3, #0
  104ccc:	e3461666 	movt	r1, #26214	; 0x6666
  104cd0:	e28d90ac 	add	r9, sp, #172	; 0xac
  104cd4:	e58d3048 	str	r3, [sp, #72]	; 0x48
  104cd8:	e58d3058 	str	r3, [sp, #88]	; 0x58
  104cdc:	e58d3064 	str	r3, [sp, #100]	; 0x64
  104ce0:	e58d304c 	str	r3, [sp, #76]	; 0x4c
  104ce4:	e58d305c 	str	r3, [sp, #92]	; 0x5c
  104ce8:	e58d3060 	str	r3, [sp, #96]	; 0x60
  104cec:	eeb39b00 	vmov.f64	d9, #48	; 0x30
  104cf0:	e58d301c 	str	r3, [sp, #28]
  104cf4:	e58d106c 	str	r1, [sp, #108]	; 0x6c
  104cf8:	e58d30a8 	str	r3, [sp, #168]	; 0xa8
  104cfc:	e58d30a4 	str	r3, [sp, #164]	; 0xa4
  104d00:	e58d90a0 	str	r9, [sp, #160]	; 0xa0
  104d04:	eeb6ab00 	vmov.f64	d10, #96	; 0x60
  104d08:	e59d4014 	ldr	r4, [sp, #20]
  104d0c:	ea000003 	b	104d20 <_vfprintf_r+0x120>
  104d10:	e59d2080 	ldr	r2, [sp, #128]	; 0x80
  104d14:	e3520025 	cmp	r2, #37	; 0x25
  104d18:	0a000015 	beq	104d74 <_vfprintf_r+0x174>
  104d1c:	e0844003 	add	r4, r4, r3
  104d20:	e59b5000 	ldr	r5, [fp]
  104d24:	eb0018a9 	bl	10afd0 <__locale_mb_cur_max>
  104d28:	e1a06000 	mov	r6, r0
  104d2c:	eb0018a4 	bl	10afc4 <__locale_charset>
  104d30:	e1a03006 	mov	r3, r6
  104d34:	e58d8004 	str	r8, [sp, #4]
  104d38:	e1a02004 	mov	r2, r4
  104d3c:	e28d1080 	add	r1, sp, #128	; 0x80
  104d40:	e58d0000 	str	r0, [sp]
  104d44:	e1a0000a 	mov	r0, sl
  104d48:	e12fff35 	blx	r5
  104d4c:	e3500000 	cmp	r0, #0
  104d50:	e1a03000 	mov	r3, r0
  104d54:	0a000006 	beq	104d74 <_vfprintf_r+0x174>
  104d58:	aaffffec 	bge	104d10 <_vfprintf_r+0x110>
  104d5c:	e3a02008 	mov	r2, #8
  104d60:	e3a01000 	mov	r1, #0
  104d64:	e1a00008 	mov	r0, r8
  104d68:	eb001cce 	bl	10c0a8 <memset>
  104d6c:	e3a03001 	mov	r3, #1
  104d70:	eaffffe9 	b	104d1c <_vfprintf_r+0x11c>
  104d74:	e59d3014 	ldr	r3, [sp, #20]
  104d78:	e1a05000 	mov	r5, r0
  104d7c:	e0546003 	subs	r6, r4, r3
  104d80:	0a00000e 	beq	104dc0 <_vfprintf_r+0x1c0>
  104d84:	e59d30a4 	ldr	r3, [sp, #164]	; 0xa4
  104d88:	e59d2014 	ldr	r2, [sp, #20]
  104d8c:	e2833001 	add	r3, r3, #1
  104d90:	e5896004 	str	r6, [r9, #4]
  104d94:	e3530007 	cmp	r3, #7
  104d98:	e58d30a4 	str	r3, [sp, #164]	; 0xa4
  104d9c:	e5892000 	str	r2, [r9]
  104da0:	d2899008 	addle	r9, r9, #8
  104da4:	e59d20a8 	ldr	r2, [sp, #168]	; 0xa8
  104da8:	e0823006 	add	r3, r2, r6
  104dac:	e58d30a8 	str	r3, [sp, #168]	; 0xa8
  104db0:	ca000092 	bgt	105000 <_vfprintf_r+0x400>
  104db4:	e59d301c 	ldr	r3, [sp, #28]
  104db8:	e0833006 	add	r3, r3, r6
  104dbc:	e58d301c 	str	r3, [sp, #28]
  104dc0:	e3550000 	cmp	r5, #0
  104dc4:	0a000852 	beq	106f14 <_vfprintf_r+0x2314>
  104dc8:	e3a03000 	mov	r3, #0
  104dcc:	e58d3020 	str	r3, [sp, #32]
  104dd0:	e5cd3077 	strb	r3, [sp, #119]	; 0x77
  104dd4:	e2841001 	add	r1, r4, #1
  104dd8:	e58d3008 	str	r3, [sp, #8]
  104ddc:	e3e07000 	mvn	r7, #0
  104de0:	e5d43001 	ldrb	r3, [r4, #1]
  104de4:	e2814001 	add	r4, r1, #1
  104de8:	e2432020 	sub	r2, r3, #32
  104dec:	e352005a 	cmp	r2, #90	; 0x5a
  104df0:	979ff102 	ldrls	pc, [pc, r2, lsl #2]
  104df4:	ea0002b6 	b	1058d4 <_vfprintf_r+0xcd4>
  104df8:	001058b4 	.word	0x001058b4
  104dfc:	001058d4 	.word	0x001058d4
  104e00:	001058d4 	.word	0x001058d4
  104e04:	00105620 	.word	0x00105620
  104e08:	001058d4 	.word	0x001058d4
  104e0c:	001058d4 	.word	0x001058d4
  104e10:	001058d4 	.word	0x001058d4
  104e14:	00104f7c 	.word	0x00104f7c
  104e18:	001058d4 	.word	0x001058d4
  104e1c:	001058d4 	.word	0x001058d4
  104e20:	001057f0 	.word	0x001057f0
  104e24:	00105638 	.word	0x00105638
  104e28:	001058d4 	.word	0x001058d4
  104e2c:	0010529c 	.word	0x0010529c
  104e30:	0010564c 	.word	0x0010564c
  104e34:	001058d4 	.word	0x001058d4
  104e38:	001055a8 	.word	0x001055a8
  104e3c:	001055f0 	.word	0x001055f0
  104e40:	001055f0 	.word	0x001055f0
  104e44:	001055f0 	.word	0x001055f0
  104e48:	001055f0 	.word	0x001055f0
  104e4c:	001055f0 	.word	0x001055f0
  104e50:	001055f0 	.word	0x001055f0
  104e54:	001055f0 	.word	0x001055f0
  104e58:	001055f0 	.word	0x001055f0
  104e5c:	001055f0 	.word	0x001055f0
  104e60:	001058d4 	.word	0x001058d4
  104e64:	001058d4 	.word	0x001058d4
  104e68:	001058d4 	.word	0x001058d4
  104e6c:	001058d4 	.word	0x001058d4
  104e70:	001058d4 	.word	0x001058d4
  104e74:	001058d4 	.word	0x001058d4
  104e78:	001058d4 	.word	0x001058d4
  104e7c:	00105818 	.word	0x00105818
  104e80:	001058d4 	.word	0x001058d4
  104e84:	00105788 	.word	0x00105788
  104e88:	001053d0 	.word	0x001053d0
  104e8c:	00105818 	.word	0x00105818
  104e90:	00105818 	.word	0x00105818
  104e94:	00105818 	.word	0x00105818
  104e98:	001058d4 	.word	0x001058d4
  104e9c:	001058d4 	.word	0x001058d4
  104ea0:	001058d4 	.word	0x001058d4
  104ea4:	001058d4 	.word	0x001058d4
  104ea8:	00105438 	.word	0x00105438
  104eac:	001058d4 	.word	0x001058d4
  104eb0:	001058d4 	.word	0x001058d4
  104eb4:	00105450 	.word	0x00105450
  104eb8:	001058d4 	.word	0x001058d4
  104ebc:	001058d4 	.word	0x001058d4
  104ec0:	001058d4 	.word	0x001058d4
  104ec4:	00105494 	.word	0x00105494
  104ec8:	001058d4 	.word	0x001058d4
  104ecc:	00105694 	.word	0x00105694
  104ed0:	001058d4 	.word	0x001058d4
  104ed4:	001058d4 	.word	0x001058d4
  104ed8:	00105354 	.word	0x00105354
  104edc:	001058d4 	.word	0x001058d4
  104ee0:	001058d4 	.word	0x001058d4
  104ee4:	001058d4 	.word	0x001058d4
  104ee8:	001058d4 	.word	0x001058d4
  104eec:	001058d4 	.word	0x001058d4
  104ef0:	001058d4 	.word	0x001058d4
  104ef4:	001058d4 	.word	0x001058d4
  104ef8:	001058d4 	.word	0x001058d4
  104efc:	00105818 	.word	0x00105818
  104f00:	001058d4 	.word	0x001058d4
  104f04:	00105788 	.word	0x00105788
  104f08:	001052b4 	.word	0x001052b4
  104f0c:	00105818 	.word	0x00105818
  104f10:	00105818 	.word	0x00105818
  104f14:	00105818 	.word	0x00105818
  104f18:	00105700 	.word	0x00105700
  104f1c:	001052b4 	.word	0x001052b4
  104f20:	00104f64 	.word	0x00104f64
  104f24:	001058d4 	.word	0x001058d4
  104f28:	00105534 	.word	0x00105534
  104f2c:	001058d4 	.word	0x001058d4
  104f30:	001055c0 	.word	0x001055c0
  104f34:	00105308 	.word	0x00105308
  104f38:	00105730 	.word	0x00105730
  104f3c:	00104f64 	.word	0x00104f64
  104f40:	001058d4 	.word	0x001058d4
  104f44:	00105494 	.word	0x00105494
  104f48:	00104fc8 	.word	0x00104fc8
  104f4c:	001050b4 	.word	0x001050b4
  104f50:	001058d4 	.word	0x001058d4
  104f54:	001058d4 	.word	0x001058d4
  104f58:	00105564 	.word	0x00105564
  104f5c:	001058d4 	.word	0x001058d4
  104f60:	00104fc8 	.word	0x00104fc8
  104f64:	e59d3008 	ldr	r3, [sp, #8]
  104f68:	e1a01004 	mov	r1, r4
  104f6c:	e3833020 	orr	r3, r3, #32
  104f70:	e58d3008 	str	r3, [sp, #8]
  104f74:	e5d43000 	ldrb	r3, [r4]
  104f78:	eaffff99 	b	104de4 <_vfprintf_r+0x1e4>
  104f7c:	e1a0000a 	mov	r0, sl
  104f80:	eb00181d 	bl	10affc <_localeconv_r>
  104f84:	e5903004 	ldr	r3, [r0, #4]
  104f88:	e1a00003 	mov	r0, r3
  104f8c:	e58d3060 	str	r3, [sp, #96]	; 0x60
  104f90:	fafffeda 	blx	104b00 <strlen>
  104f94:	e1a05000 	mov	r5, r0
  104f98:	e58d005c 	str	r0, [sp, #92]	; 0x5c
  104f9c:	e1a0000a 	mov	r0, sl
  104fa0:	eb001815 	bl	10affc <_localeconv_r>
  104fa4:	e5903008 	ldr	r3, [r0, #8]
  104fa8:	e3550000 	cmp	r5, #0
  104fac:	13530000 	cmpne	r3, #0
  104fb0:	e58d304c 	str	r3, [sp, #76]	; 0x4c
  104fb4:	0a000003 	beq	104fc8 <_vfprintf_r+0x3c8>
  104fb8:	e59d304c 	ldr	r3, [sp, #76]	; 0x4c
  104fbc:	e5d33000 	ldrb	r3, [r3]
  104fc0:	e3530000 	cmp	r3, #0
  104fc4:	1a0007a2 	bne	106e54 <_vfprintf_r+0x2254>
  104fc8:	e5d43000 	ldrb	r3, [r4]
  104fcc:	e1a01004 	mov	r1, r4
  104fd0:	eaffff83 	b	104de4 <_vfprintf_r+0x1e4>
  104fd4:	e59d100c 	ldr	r1, [sp, #12]
  104fd8:	e1a0000a 	mov	r0, sl
  104fdc:	eb000b16 	bl	107c3c <__swsetup_r>
  104fe0:	e3500000 	cmp	r0, #0
  104fe4:	059d300c 	ldreq	r3, [sp, #12]
  104fe8:	01d330bc 	ldrheq	r3, [r3, #12]
  104fec:	0affff2d 	beq	104ca8 <_vfprintf_r+0xa8>
  104ff0:	e3e00000 	mvn	r0, #0
  104ff4:	e28ddf55 	add	sp, sp, #340	; 0x154
  104ff8:	ecbd8b0a 	vpop	{d8-d12}
  104ffc:	e8bd8ff0 	pop	{r4, r5, r6, r7, r8, r9, sl, fp, pc}
  105000:	e28d20a0 	add	r2, sp, #160	; 0xa0
  105004:	e59d100c 	ldr	r1, [sp, #12]
  105008:	e1a0000a 	mov	r0, sl
  10500c:	eb00249a 	bl	10e27c <__sprint_r>
  105010:	e3500000 	cmp	r0, #0
  105014:	1a00000b 	bne	105048 <_vfprintf_r+0x448>
  105018:	e28d90ac 	add	r9, sp, #172	; 0xac
  10501c:	eaffff64 	b	104db4 <_vfprintf_r+0x1b4>
  105020:	e59d200c 	ldr	r2, [sp, #12]
  105024:	e1d230bc 	ldrh	r3, [r2, #12]
  105028:	e3833040 	orr	r3, r3, #64	; 0x40
  10502c:	e1c230bc 	strh	r3, [r2, #12]
  105030:	e59d3024 	ldr	r3, [sp, #36]	; 0x24
  105034:	e3530000 	cmp	r3, #0
  105038:	0a000002 	beq	105048 <_vfprintf_r+0x448>
  10503c:	e59d1024 	ldr	r1, [sp, #36]	; 0x24
  105040:	e1a0000a 	mov	r0, sl
  105044:	eb001283 	bl	109a58 <_free_r>
  105048:	e59d300c 	ldr	r3, [sp, #12]
  10504c:	e1d330bc 	ldrh	r3, [r3, #12]
  105050:	e3130040 	tst	r3, #64	; 0x40
  105054:	059d001c 	ldreq	r0, [sp, #28]
  105058:	1affffe4 	bne	104ff0 <_vfprintf_r+0x3f0>
  10505c:	e28ddf55 	add	sp, sp, #340	; 0x154
  105060:	ecbd8b0a 	vpop	{d8-d12}
  105064:	e8bd8ff0 	pop	{r4, r5, r6, r7, r8, r9, sl, fp, pc}
  105068:	e59d300c 	ldr	r3, [sp, #12]
  10506c:	e1d330fe 	ldrsh	r3, [r3, #14]
  105070:	e3530000 	cmp	r3, #0
  105074:	baffff0e 	blt	104cb4 <_vfprintf_r+0xb4>
  105078:	e1a03004 	mov	r3, r4
  10507c:	e59d2014 	ldr	r2, [sp, #20]
  105080:	e59d100c 	ldr	r1, [sp, #12]
  105084:	e1a0000a 	mov	r0, sl
  105088:	eb000975 	bl	107664 <__sbprintf>
  10508c:	e28ddf55 	add	sp, sp, #340	; 0x154
  105090:	ecbd8b0a 	vpop	{d8-d12}
  105094:	e8bd8ff0 	pop	{r4, r5, r6, r7, r8, r9, sl, fp, pc}
  105098:	e1a0000a 	mov	r0, sl
  10509c:	eb00121a 	bl	10990c <__sinit>
  1050a0:	eafffeee 	b	104c60 <_vfprintf_r+0x60>
  1050a4:	e320f000 	nop	{0}
	...
  1050b0:	00116988 	.word	0x00116988
  1050b4:	e58d3038 	str	r3, [sp, #56]	; 0x38
  1050b8:	e59d3008 	ldr	r3, [sp, #8]
  1050bc:	e58d4014 	str	r4, [sp, #20]
  1050c0:	e3130020 	tst	r3, #32
  1050c4:	0a00017a 	beq	1056b4 <_vfprintf_r+0xab4>
  1050c8:	e59d3028 	ldr	r3, [sp, #40]	; 0x28
  1050cc:	e3a02001 	mov	r2, #1
  1050d0:	e2833007 	add	r3, r3, #7
  1050d4:	e3c33007 	bic	r3, r3, #7
  1050d8:	e2831008 	add	r1, r3, #8
  1050dc:	e58d1028 	str	r1, [sp, #40]	; 0x28
  1050e0:	e1c340d0 	ldrd	r4, [r3]
  1050e4:	e1943005 	orrs	r3, r4, r5
  1050e8:	11a03002 	movne	r3, r2
  1050ec:	03a03000 	moveq	r3, #0
  1050f0:	e3a01000 	mov	r1, #0
  1050f4:	e5cd1077 	strb	r1, [sp, #119]	; 0x77
  1050f8:	e3570000 	cmp	r7, #0
  1050fc:	a59d1008 	ldrge	r1, [sp, #8]
  105100:	a3c11080 	bicge	r1, r1, #128	; 0x80
  105104:	a58d1008 	strge	r1, [sp, #8]
  105108:	e3570000 	cmp	r7, #0
  10510c:	13833001 	orrne	r3, r3, #1
  105110:	e3530000 	cmp	r3, #0
  105114:	0a000307 	beq	105d38 <_vfprintf_r+0x1138>
  105118:	e3520001 	cmp	r2, #1
  10511c:	0a0003f2 	beq	1060ec <_vfprintf_r+0x14ec>
  105120:	e3520002 	cmp	r2, #2
  105124:	1a0003a3 	bne	105fb8 <_vfprintf_r+0x13b8>
  105128:	e59dc058 	ldr	ip, [sp, #88]	; 0x58
  10512c:	e28d2e15 	add	r2, sp, #336	; 0x150
  105130:	e204100f 	and	r1, r4, #15
  105134:	e1a03224 	lsr	r3, r4, #4
  105138:	e1833e05 	orr	r3, r3, r5, lsl #28
  10513c:	e1a00225 	lsr	r0, r5, #4
  105140:	e7dc1001 	ldrb	r1, [ip, r1]
  105144:	e1a04003 	mov	r4, r3
  105148:	e1a05000 	mov	r5, r0
  10514c:	e1943005 	orrs	r3, r4, r5
  105150:	e5621001 	strb	r1, [r2, #-1]!
  105154:	1afffff5 	bne	105130 <_vfprintf_r+0x530>
  105158:	e1a03002 	mov	r3, r2
  10515c:	e58d202c 	str	r2, [sp, #44]	; 0x2c
  105160:	e28d2e15 	add	r2, sp, #336	; 0x150
  105164:	e0635002 	rsb	r5, r3, r2
  105168:	e3a03000 	mov	r3, #0
  10516c:	e58d3024 	str	r3, [sp, #36]	; 0x24
  105170:	e58d303c 	str	r3, [sp, #60]	; 0x3c
  105174:	e1550007 	cmp	r5, r7
  105178:	e58d3044 	str	r3, [sp, #68]	; 0x44
  10517c:	e58d3040 	str	r3, [sp, #64]	; 0x40
  105180:	a1a02005 	movge	r2, r5
  105184:	e5dd3077 	ldrb	r3, [sp, #119]	; 0x77
  105188:	b1a02007 	movlt	r2, r7
  10518c:	e58d2010 	str	r2, [sp, #16]
  105190:	e3530000 	cmp	r3, #0
  105194:	0a000002 	beq	1051a4 <_vfprintf_r+0x5a4>
  105198:	e59d2010 	ldr	r2, [sp, #16]
  10519c:	e2822001 	add	r2, r2, #1
  1051a0:	e58d2010 	str	r2, [sp, #16]
  1051a4:	e59d2008 	ldr	r2, [sp, #8]
  1051a8:	e2122002 	ands	r2, r2, #2
  1051ac:	e58d2030 	str	r2, [sp, #48]	; 0x30
  1051b0:	159d2010 	ldrne	r2, [sp, #16]
  1051b4:	12822002 	addne	r2, r2, #2
  1051b8:	158d2010 	strne	r2, [sp, #16]
  1051bc:	e59d2008 	ldr	r2, [sp, #8]
  1051c0:	e2122084 	ands	r2, r2, #132	; 0x84
  1051c4:	e58d2034 	str	r2, [sp, #52]	; 0x34
  1051c8:	1a0001dd 	bne	105944 <_vfprintf_r+0xd44>
  1051cc:	e59d2020 	ldr	r2, [sp, #32]
  1051d0:	e59d1010 	ldr	r1, [sp, #16]
  1051d4:	e0614002 	rsb	r4, r1, r2
  1051d8:	e3540000 	cmp	r4, #0
  1051dc:	da0001d8 	ble	105944 <_vfprintf_r+0xd44>
  1051e0:	e3540010 	cmp	r4, #16
  1051e4:	da00077e 	ble	106fe4 <_vfprintf_r+0x23e4>
  1051e8:	e3066978 	movw	r6, #27000	; 0x6978
  1051ec:	e58d5068 	str	r5, [sp, #104]	; 0x68
  1051f0:	e59d20a8 	ldr	r2, [sp, #168]	; 0xa8
  1051f4:	e3406011 	movt	r6, #17
  1051f8:	e59d10a4 	ldr	r1, [sp, #164]	; 0xa4
  1051fc:	e3a0c010 	mov	ip, #16
  105200:	e59d500c 	ldr	r5, [sp, #12]
  105204:	ea000002 	b	105214 <_vfprintf_r+0x614>
  105208:	e2444010 	sub	r4, r4, #16
  10520c:	e3540010 	cmp	r4, #16
  105210:	da000015 	ble	10526c <_vfprintf_r+0x66c>
  105214:	e2811001 	add	r1, r1, #1
  105218:	e2822010 	add	r2, r2, #16
  10521c:	e3510007 	cmp	r1, #7
  105220:	e8891040 	stm	r9, {r6, ip}
  105224:	e58d10a4 	str	r1, [sp, #164]	; 0xa4
  105228:	d2899008 	addle	r9, r9, #8
  10522c:	e58d20a8 	str	r2, [sp, #168]	; 0xa8
  105230:	dafffff4 	ble	105208 <_vfprintf_r+0x608>
  105234:	e28d20a0 	add	r2, sp, #160	; 0xa0
  105238:	e1a01005 	mov	r1, r5
  10523c:	e1a0000a 	mov	r0, sl
  105240:	e58dc018 	str	ip, [sp, #24]
  105244:	eb00240c 	bl	10e27c <__sprint_r>
  105248:	e28d90ac 	add	r9, sp, #172	; 0xac
  10524c:	e3500000 	cmp	r0, #0
  105250:	1affff76 	bne	105030 <_vfprintf_r+0x430>
  105254:	e2444010 	sub	r4, r4, #16
  105258:	e59d20a8 	ldr	r2, [sp, #168]	; 0xa8
  10525c:	e3540010 	cmp	r4, #16
  105260:	e59d10a4 	ldr	r1, [sp, #164]	; 0xa4
  105264:	e59dc018 	ldr	ip, [sp, #24]
  105268:	caffffe9 	bgt	105214 <_vfprintf_r+0x614>
  10526c:	e59d5068 	ldr	r5, [sp, #104]	; 0x68
  105270:	e2811001 	add	r1, r1, #1
  105274:	e0842002 	add	r2, r4, r2
  105278:	e3510007 	cmp	r1, #7
  10527c:	e58d10a4 	str	r1, [sp, #164]	; 0xa4
  105280:	e58d20a8 	str	r2, [sp, #168]	; 0xa8
  105284:	e5896000 	str	r6, [r9]
  105288:	e5894004 	str	r4, [r9, #4]
  10528c:	ca0001a4 	bgt	105924 <_vfprintf_r+0xd24>
  105290:	e2899008 	add	r9, r9, #8
  105294:	e5dd3077 	ldrb	r3, [sp, #119]	; 0x77
  105298:	ea0001aa 	b	105948 <_vfprintf_r+0xd48>
  10529c:	e1a01004 	mov	r1, r4
  1052a0:	e59d3008 	ldr	r3, [sp, #8]
  1052a4:	e3833004 	orr	r3, r3, #4
  1052a8:	e58d3008 	str	r3, [sp, #8]
  1052ac:	e5d43000 	ldrb	r3, [r4]
  1052b0:	eafffecb 	b	104de4 <_vfprintf_r+0x1e4>
  1052b4:	e58d3038 	str	r3, [sp, #56]	; 0x38
  1052b8:	e59d3008 	ldr	r3, [sp, #8]
  1052bc:	e58d4014 	str	r4, [sp, #20]
  1052c0:	e3130020 	tst	r3, #32
  1052c4:	0a000049 	beq	1053f0 <_vfprintf_r+0x7f0>
  1052c8:	e59d3028 	ldr	r3, [sp, #40]	; 0x28
  1052cc:	e2833007 	add	r3, r3, #7
  1052d0:	e3c33007 	bic	r3, r3, #7
  1052d4:	e2832008 	add	r2, r3, #8
  1052d8:	e58d2028 	str	r2, [sp, #40]	; 0x28
  1052dc:	e1c320d0 	ldrd	r2, [r3]
  1052e0:	e1a04002 	mov	r4, r2
  1052e4:	e1a05003 	mov	r5, r3
  1052e8:	e3520000 	cmp	r2, #0
  1052ec:	e2d33000 	sbcs	r3, r3, #0
  1052f0:	ba00052d 	blt	1067ac <_vfprintf_r+0x1bac>
  1052f4:	e1943005 	orrs	r3, r4, r5
  1052f8:	e3a02001 	mov	r2, #1
  1052fc:	11a03002 	movne	r3, r2
  105300:	03a03000 	moveq	r3, #0
  105304:	eaffff7b 	b	1050f8 <_vfprintf_r+0x4f8>
  105308:	e58d3038 	str	r3, [sp, #56]	; 0x38
  10530c:	e59d3008 	ldr	r3, [sp, #8]
  105310:	e58d4014 	str	r4, [sp, #20]
  105314:	e3130020 	tst	r3, #32
  105318:	0a000054 	beq	105470 <_vfprintf_r+0x870>
  10531c:	e59d3028 	ldr	r3, [sp, #40]	; 0x28
  105320:	e2833007 	add	r3, r3, #7
  105324:	e3c33007 	bic	r3, r3, #7
  105328:	e2832008 	add	r2, r3, #8
  10532c:	e58d2028 	str	r2, [sp, #40]	; 0x28
  105330:	e1c340d0 	ldrd	r4, [r3]
  105334:	e1943005 	orrs	r3, r4, r5
  105338:	e59d3008 	ldr	r3, [sp, #8]
  10533c:	e3a02000 	mov	r2, #0
  105340:	e3c33b01 	bic	r3, r3, #1024	; 0x400
  105344:	e58d3008 	str	r3, [sp, #8]
  105348:	13a03001 	movne	r3, #1
  10534c:	01a03002 	moveq	r3, r2
  105350:	eaffff66 	b	1050f0 <_vfprintf_r+0x4f0>
  105354:	e58d3038 	str	r3, [sp, #56]	; 0x38
  105358:	e307313c 	movw	r3, #28988	; 0x713c
  10535c:	e3403011 	movt	r3, #17
  105360:	e58d3058 	str	r3, [sp, #88]	; 0x58
  105364:	e59d3008 	ldr	r3, [sp, #8]
  105368:	e58d4014 	str	r4, [sp, #20]
  10536c:	e3130020 	tst	r3, #32
  105370:	0a000083 	beq	105584 <_vfprintf_r+0x984>
  105374:	e59d3028 	ldr	r3, [sp, #40]	; 0x28
  105378:	e2833007 	add	r3, r3, #7
  10537c:	e3c33007 	bic	r3, r3, #7
  105380:	e2832008 	add	r2, r3, #8
  105384:	e58d2028 	str	r2, [sp, #40]	; 0x28
  105388:	e1c340d0 	ldrd	r4, [r3]
  10538c:	e1943005 	orrs	r3, r4, r5
  105390:	e59d2008 	ldr	r2, [sp, #8]
  105394:	13a03001 	movne	r3, #1
  105398:	03a03000 	moveq	r3, #0
  10539c:	e1120003 	tst	r2, r3
  1053a0:	0a000005 	beq	1053bc <_vfprintf_r+0x7bc>
  1053a4:	e3822002 	orr	r2, r2, #2
  1053a8:	e58d2008 	str	r2, [sp, #8]
  1053ac:	e5dd2038 	ldrb	r2, [sp, #56]	; 0x38
  1053b0:	e5cd2079 	strb	r2, [sp, #121]	; 0x79
  1053b4:	e3a02030 	mov	r2, #48	; 0x30
  1053b8:	e5cd2078 	strb	r2, [sp, #120]	; 0x78
  1053bc:	e59d2008 	ldr	r2, [sp, #8]
  1053c0:	e3c22b01 	bic	r2, r2, #1024	; 0x400
  1053c4:	e58d2008 	str	r2, [sp, #8]
  1053c8:	e3a02002 	mov	r2, #2
  1053cc:	eaffff47 	b	1050f0 <_vfprintf_r+0x4f0>
  1053d0:	e58d3038 	str	r3, [sp, #56]	; 0x38
  1053d4:	e59d3008 	ldr	r3, [sp, #8]
  1053d8:	e58d4014 	str	r4, [sp, #20]
  1053dc:	e3833010 	orr	r3, r3, #16
  1053e0:	e58d3008 	str	r3, [sp, #8]
  1053e4:	e59d3008 	ldr	r3, [sp, #8]
  1053e8:	e3130020 	tst	r3, #32
  1053ec:	1affffb5 	bne	1052c8 <_vfprintf_r+0x6c8>
  1053f0:	e59d3008 	ldr	r3, [sp, #8]
  1053f4:	e3130010 	tst	r3, #16
  1053f8:	159d3028 	ldrne	r3, [sp, #40]	; 0x28
  1053fc:	1a000465 	bne	106598 <_vfprintf_r+0x1998>
  105400:	e59d3008 	ldr	r3, [sp, #8]
  105404:	e3130040 	tst	r3, #64	; 0x40
  105408:	1a00068e 	bne	106e48 <_vfprintf_r+0x2248>
  10540c:	e59d3008 	ldr	r3, [sp, #8]
  105410:	e3130c02 	tst	r3, #512	; 0x200
  105414:	e59d3028 	ldr	r3, [sp, #40]	; 0x28
  105418:	0a00045e 	beq	106598 <_vfprintf_r+0x1998>
  10541c:	e1d340d0 	ldrsb	r4, [r3]
  105420:	e1a05fc4 	asr	r5, r4, #31
  105424:	e2833004 	add	r3, r3, #4
  105428:	e1a02004 	mov	r2, r4
  10542c:	e58d3028 	str	r3, [sp, #40]	; 0x28
  105430:	e1a03005 	mov	r3, r5
  105434:	eaffffab 	b	1052e8 <_vfprintf_r+0x6e8>
  105438:	e59d3008 	ldr	r3, [sp, #8]
  10543c:	e1a01004 	mov	r1, r4
  105440:	e3833008 	orr	r3, r3, #8
  105444:	e58d3008 	str	r3, [sp, #8]
  105448:	e5d43000 	ldrb	r3, [r4]
  10544c:	eafffe64 	b	104de4 <_vfprintf_r+0x1e4>
  105450:	e58d3038 	str	r3, [sp, #56]	; 0x38
  105454:	e59d3008 	ldr	r3, [sp, #8]
  105458:	e58d4014 	str	r4, [sp, #20]
  10545c:	e3833010 	orr	r3, r3, #16
  105460:	e58d3008 	str	r3, [sp, #8]
  105464:	e59d3008 	ldr	r3, [sp, #8]
  105468:	e3130020 	tst	r3, #32
  10546c:	1affffaa 	bne	10531c <_vfprintf_r+0x71c>
  105470:	e59d3008 	ldr	r3, [sp, #8]
  105474:	e3130010 	tst	r3, #16
  105478:	0a0004df 	beq	1067fc <_vfprintf_r+0x1bfc>
  10547c:	e59d3028 	ldr	r3, [sp, #40]	; 0x28
  105480:	e3a05000 	mov	r5, #0
  105484:	e2833004 	add	r3, r3, #4
  105488:	e5134004 	ldr	r4, [r3, #-4]
  10548c:	e58d3028 	str	r3, [sp, #40]	; 0x28
  105490:	eaffffa7 	b	105334 <_vfprintf_r+0x734>
  105494:	e58d3038 	str	r3, [sp, #56]	; 0x38
  105498:	e59d3028 	ldr	r3, [sp, #40]	; 0x28
  10549c:	e58d4014 	str	r4, [sp, #20]
  1054a0:	e2833004 	add	r3, r3, #4
  1054a4:	e5132004 	ldr	r2, [r3, #-4]
  1054a8:	e58d3018 	str	r3, [sp, #24]
  1054ac:	e3a03000 	mov	r3, #0
  1054b0:	e1520003 	cmp	r2, r3
  1054b4:	e5cd3077 	strb	r3, [sp, #119]	; 0x77
  1054b8:	e58d202c 	str	r2, [sp, #44]	; 0x2c
  1054bc:	0a0006d6 	beq	10701c <_vfprintf_r+0x241c>
  1054c0:	e59d3038 	ldr	r3, [sp, #56]	; 0x38
  1054c4:	e3530053 	cmp	r3, #83	; 0x53
  1054c8:	0a000592 	beq	106b18 <_vfprintf_r+0x1f18>
  1054cc:	e59d3008 	ldr	r3, [sp, #8]
  1054d0:	e2134010 	ands	r4, r3, #16
  1054d4:	1a00058f 	bne	106b18 <_vfprintf_r+0x1f18>
  1054d8:	e3570000 	cmp	r7, #0
  1054dc:	ba000674 	blt	106eb4 <_vfprintf_r+0x22b4>
  1054e0:	e1a02007 	mov	r2, r7
  1054e4:	e1a01004 	mov	r1, r4
  1054e8:	e59d002c 	ldr	r0, [sp, #44]	; 0x2c
  1054ec:	fa0018fb 	blx	10b8e0 <memchr>
  1054f0:	e3500000 	cmp	r0, #0
  1054f4:	0a000811 	beq	107540 <_vfprintf_r+0x2940>
  1054f8:	e59d302c 	ldr	r3, [sp, #44]	; 0x2c
  1054fc:	e58d4024 	str	r4, [sp, #36]	; 0x24
  105500:	e0635000 	rsb	r5, r3, r0
  105504:	e59d3018 	ldr	r3, [sp, #24]
  105508:	e1550007 	cmp	r5, r7
  10550c:	e58d403c 	str	r4, [sp, #60]	; 0x3c
  105510:	e58d4044 	str	r4, [sp, #68]	; 0x44
  105514:	a1a05007 	movge	r5, r7
  105518:	e58d3028 	str	r3, [sp, #40]	; 0x28
  10551c:	e1c52fc5 	bic	r2, r5, r5, asr #31
  105520:	e5dd3077 	ldrb	r3, [sp, #119]	; 0x77
  105524:	e1a07004 	mov	r7, r4
  105528:	e58d2010 	str	r2, [sp, #16]
  10552c:	e58d4040 	str	r4, [sp, #64]	; 0x40
  105530:	eaffff16 	b	105190 <_vfprintf_r+0x590>
  105534:	e5d43000 	ldrb	r3, [r4]
  105538:	e353006c 	cmp	r3, #108	; 0x6c
  10553c:	02841001 	addeq	r1, r4, #1
  105540:	059d3008 	ldreq	r3, [sp, #8]
  105544:	11a01004 	movne	r1, r4
  105548:	159d2008 	ldrne	r2, [sp, #8]
  10554c:	03833020 	orreq	r3, r3, #32
  105550:	13822010 	orrne	r2, r2, #16
  105554:	058d3008 	streq	r3, [sp, #8]
  105558:	158d2008 	strne	r2, [sp, #8]
  10555c:	05d43001 	ldrbeq	r3, [r4, #1]
  105560:	eafffe1f 	b	104de4 <_vfprintf_r+0x1e4>
  105564:	e58d3038 	str	r3, [sp, #56]	; 0x38
  105568:	e3073168 	movw	r3, #29032	; 0x7168
  10556c:	e3403011 	movt	r3, #17
  105570:	e58d3058 	str	r3, [sp, #88]	; 0x58
  105574:	e59d3008 	ldr	r3, [sp, #8]
  105578:	e58d4014 	str	r4, [sp, #20]
  10557c:	e3130020 	tst	r3, #32
  105580:	1affff7b 	bne	105374 <_vfprintf_r+0x774>
  105584:	e59d3008 	ldr	r3, [sp, #8]
  105588:	e3130010 	tst	r3, #16
  10558c:	0a0004a3 	beq	106820 <_vfprintf_r+0x1c20>
  105590:	e59d3028 	ldr	r3, [sp, #40]	; 0x28
  105594:	e3a05000 	mov	r5, #0
  105598:	e2833004 	add	r3, r3, #4
  10559c:	e5134004 	ldr	r4, [r3, #-4]
  1055a0:	e58d3028 	str	r3, [sp, #40]	; 0x28
  1055a4:	eaffff78 	b	10538c <_vfprintf_r+0x78c>
  1055a8:	e59d3008 	ldr	r3, [sp, #8]
  1055ac:	e1a01004 	mov	r1, r4
  1055b0:	e3833080 	orr	r3, r3, #128	; 0x80
  1055b4:	e58d3008 	str	r3, [sp, #8]
  1055b8:	e5d43000 	ldrb	r3, [r4]
  1055bc:	eafffe08 	b	104de4 <_vfprintf_r+0x1e4>
  1055c0:	e59d3008 	ldr	r3, [sp, #8]
  1055c4:	e58d4014 	str	r4, [sp, #20]
  1055c8:	e3130020 	tst	r3, #32
  1055cc:	0a00053d 	beq	106ac8 <_vfprintf_r+0x1ec8>
  1055d0:	e59d2028 	ldr	r2, [sp, #40]	; 0x28
  1055d4:	e59d001c 	ldr	r0, [sp, #28]
  1055d8:	e2822004 	add	r2, r2, #4
  1055dc:	e5123004 	ldr	r3, [r2, #-4]
  1055e0:	e1a01fc0 	asr	r1, r0, #31
  1055e4:	e58d2028 	str	r2, [sp, #40]	; 0x28
  1055e8:	e1c300f0 	strd	r0, [r3]
  1055ec:	eafffdc5 	b	104d08 <_vfprintf_r+0x108>
  1055f0:	e2430030 	sub	r0, r3, #48	; 0x30
  1055f4:	e3a03000 	mov	r3, #0
  1055f8:	e1a02003 	mov	r2, r3
  1055fc:	e1a01182 	lsl	r1, r2, #3
  105600:	e4d43001 	ldrb	r3, [r4], #1
  105604:	e0812082 	add	r2, r1, r2, lsl #1
  105608:	e0822000 	add	r2, r2, r0
  10560c:	e2430030 	sub	r0, r3, #48	; 0x30
  105610:	e3500009 	cmp	r0, #9
  105614:	9afffff8 	bls	1055fc <_vfprintf_r+0x9fc>
  105618:	e58d2020 	str	r2, [sp, #32]
  10561c:	eafffdf1 	b	104de8 <_vfprintf_r+0x1e8>
  105620:	e59d3008 	ldr	r3, [sp, #8]
  105624:	e1a01004 	mov	r1, r4
  105628:	e3833001 	orr	r3, r3, #1
  10562c:	e58d3008 	str	r3, [sp, #8]
  105630:	e5d43000 	ldrb	r3, [r4]
  105634:	eafffdea 	b	104de4 <_vfprintf_r+0x1e4>
  105638:	e3a0302b 	mov	r3, #43	; 0x2b
  10563c:	e1a01004 	mov	r1, r4
  105640:	e5cd3077 	strb	r3, [sp, #119]	; 0x77
  105644:	e5d43000 	ldrb	r3, [r4]
  105648:	eafffde5 	b	104de4 <_vfprintf_r+0x1e4>
  10564c:	e5d43000 	ldrb	r3, [r4]
  105650:	e2841001 	add	r1, r4, #1
  105654:	e353002a 	cmp	r3, #42	; 0x2a
  105658:	0a0007e3 	beq	1075ec <_vfprintf_r+0x29ec>
  10565c:	e2430030 	sub	r0, r3, #48	; 0x30
  105660:	e1a04001 	mov	r4, r1
  105664:	e3500009 	cmp	r0, #9
  105668:	e3a07000 	mov	r7, #0
  10566c:	8afffddd 	bhi	104de8 <_vfprintf_r+0x1e8>
  105670:	e1a02187 	lsl	r2, r7, #3
  105674:	e4d43001 	ldrb	r3, [r4], #1
  105678:	e0827087 	add	r7, r2, r7, lsl #1
  10567c:	e0807007 	add	r7, r0, r7
  105680:	e2430030 	sub	r0, r3, #48	; 0x30
  105684:	e3500009 	cmp	r0, #9
  105688:	9afffff8 	bls	105670 <_vfprintf_r+0xa70>
  10568c:	e1877fc7 	orr	r7, r7, r7, asr #31
  105690:	eafffdd4 	b	104de8 <_vfprintf_r+0x1e8>
  105694:	e58d3038 	str	r3, [sp, #56]	; 0x38
  105698:	e59d3008 	ldr	r3, [sp, #8]
  10569c:	e58d4014 	str	r4, [sp, #20]
  1056a0:	e3833010 	orr	r3, r3, #16
  1056a4:	e58d3008 	str	r3, [sp, #8]
  1056a8:	e59d3008 	ldr	r3, [sp, #8]
  1056ac:	e3130020 	tst	r3, #32
  1056b0:	1afffe84 	bne	1050c8 <_vfprintf_r+0x4c8>
  1056b4:	e59d3008 	ldr	r3, [sp, #8]
  1056b8:	e3130010 	tst	r3, #16
  1056bc:	1a0003ab 	bne	106570 <_vfprintf_r+0x1970>
  1056c0:	e59d3008 	ldr	r3, [sp, #8]
  1056c4:	e3130040 	tst	r3, #64	; 0x40
  1056c8:	1a0005db 	bne	106e3c <_vfprintf_r+0x223c>
  1056cc:	e59d3008 	ldr	r3, [sp, #8]
  1056d0:	e3130c02 	tst	r3, #512	; 0x200
  1056d4:	0a0003a5 	beq	106570 <_vfprintf_r+0x1970>
  1056d8:	e59d3028 	ldr	r3, [sp, #40]	; 0x28
  1056dc:	e5d34000 	ldrb	r4, [r3]
  1056e0:	e3a05000 	mov	r5, #0
  1056e4:	e1941005 	orrs	r1, r4, r5
  1056e8:	e3a02001 	mov	r2, #1
  1056ec:	e2833004 	add	r3, r3, #4
  1056f0:	e58d3028 	str	r3, [sp, #40]	; 0x28
  1056f4:	11a03002 	movne	r3, r2
  1056f8:	03a03000 	moveq	r3, #0
  1056fc:	eafffe7b 	b	1050f0 <_vfprintf_r+0x4f0>
  105700:	e5d43000 	ldrb	r3, [r4]
  105704:	e3530068 	cmp	r3, #104	; 0x68
  105708:	02841001 	addeq	r1, r4, #1
  10570c:	059d3008 	ldreq	r3, [sp, #8]
  105710:	11a01004 	movne	r1, r4
  105714:	159d2008 	ldrne	r2, [sp, #8]
  105718:	03833c02 	orreq	r3, r3, #512	; 0x200
  10571c:	13822040 	orrne	r2, r2, #64	; 0x40
  105720:	058d3008 	streq	r3, [sp, #8]
  105724:	158d2008 	strne	r2, [sp, #8]
  105728:	05d43001 	ldrbeq	r3, [r4, #1]
  10572c:	eafffdac 	b	104de4 <_vfprintf_r+0x1e4>
  105730:	e59d1028 	ldr	r1, [sp, #40]	; 0x28
  105734:	e3070168 	movw	r0, #29032	; 0x7168
  105738:	e59dc008 	ldr	ip, [sp, #8]
  10573c:	e3a02078 	mov	r2, #120	; 0x78
  105740:	e58d4014 	str	r4, [sp, #20]
  105744:	e2811004 	add	r1, r1, #4
  105748:	e5113004 	ldr	r3, [r1, #-4]
  10574c:	e38cc002 	orr	ip, ip, #2
  105750:	e5cd2079 	strb	r2, [sp, #121]	; 0x79
  105754:	e3400011 	movt	r0, #17
  105758:	e58d2038 	str	r2, [sp, #56]	; 0x38
  10575c:	e3a05000 	mov	r5, #0
  105760:	e1a04003 	mov	r4, r3
  105764:	e2933000 	adds	r3, r3, #0
  105768:	e3a02030 	mov	r2, #48	; 0x30
  10576c:	e58dc008 	str	ip, [sp, #8]
  105770:	e5cd2078 	strb	r2, [sp, #120]	; 0x78
  105774:	13a03001 	movne	r3, #1
  105778:	e58d1028 	str	r1, [sp, #40]	; 0x28
  10577c:	e3a02002 	mov	r2, #2
  105780:	e58d0058 	str	r0, [sp, #88]	; 0x58
  105784:	eafffe59 	b	1050f0 <_vfprintf_r+0x4f0>
  105788:	e3530043 	cmp	r3, #67	; 0x43
  10578c:	e58d3038 	str	r3, [sp, #56]	; 0x38
  105790:	e58d4014 	str	r4, [sp, #20]
  105794:	0a0003a3 	beq	106628 <_vfprintf_r+0x1a28>
  105798:	e59d3008 	ldr	r3, [sp, #8]
  10579c:	e3130010 	tst	r3, #16
  1057a0:	1a0003a0 	bne	106628 <_vfprintf_r+0x1a28>
  1057a4:	e59d1028 	ldr	r1, [sp, #40]	; 0x28
  1057a8:	e3a03001 	mov	r3, #1
  1057ac:	e28d4e15 	add	r4, sp, #336	; 0x150
  1057b0:	e1a05003 	mov	r5, r3
  1057b4:	e2811004 	add	r1, r1, #4
  1057b8:	e5112004 	ldr	r2, [r1, #-4]
  1057bc:	e58d1028 	str	r1, [sp, #40]	; 0x28
  1057c0:	e5642064 	strb	r2, [r4, #-100]!	; 0xffffff9c
  1057c4:	e3a02000 	mov	r2, #0
  1057c8:	e58d3010 	str	r3, [sp, #16]
  1057cc:	e58d402c 	str	r4, [sp, #44]	; 0x2c
  1057d0:	e1a03002 	mov	r3, r2
  1057d4:	e5cd2077 	strb	r2, [sp, #119]	; 0x77
  1057d8:	e1a07002 	mov	r7, r2
  1057dc:	e58d2024 	str	r2, [sp, #36]	; 0x24
  1057e0:	e58d203c 	str	r2, [sp, #60]	; 0x3c
  1057e4:	e58d2044 	str	r2, [sp, #68]	; 0x44
  1057e8:	e58d2040 	str	r2, [sp, #64]	; 0x40
  1057ec:	eafffe6c 	b	1051a4 <_vfprintf_r+0x5a4>
  1057f0:	e59d3028 	ldr	r3, [sp, #40]	; 0x28
  1057f4:	e2833004 	add	r3, r3, #4
  1057f8:	e5132004 	ldr	r2, [r3, #-4]
  1057fc:	e3520000 	cmp	r2, #0
  105800:	e58d2020 	str	r2, [sp, #32]
  105804:	ba0005ca 	blt	106f34 <_vfprintf_r+0x2334>
  105808:	e58d3028 	str	r3, [sp, #40]	; 0x28
  10580c:	e1a01004 	mov	r1, r4
  105810:	e5d43000 	ldrb	r3, [r4]
  105814:	eafffd72 	b	104de4 <_vfprintf_r+0x1e4>
  105818:	e58d3038 	str	r3, [sp, #56]	; 0x38
  10581c:	e59d3028 	ldr	r3, [sp, #40]	; 0x28
  105820:	e58d4014 	str	r4, [sp, #20]
  105824:	e2833007 	add	r3, r3, #7
  105828:	e59d604c 	ldr	r6, [sp, #76]	; 0x4c
  10582c:	e3c33007 	bic	r3, r3, #7
  105830:	e2832008 	add	r2, r3, #8
  105834:	e58d2028 	str	r2, [sp, #40]	; 0x28
  105838:	ed938b00 	vldr	d8, [r3]
  10583c:	eeb00b48 	vmov.f64	d0, d8
  105840:	eb001f2e 	bl	10d500 <__fpclassifyd>
  105844:	e3500001 	cmp	r0, #1
  105848:	1a0003fd 	bne	106844 <_vfprintf_r+0x1c44>
  10584c:	e59d0008 	ldr	r0, [sp, #8]
  105850:	eeb58bc0 	vcmpe.f64	d8, #0.0
  105854:	e3a01003 	mov	r1, #3
  105858:	e3072158 	movw	r2, #29016	; 0x7158
  10585c:	e3c00080 	bic	r0, r0, #128	; 0x80
  105860:	e58d0008 	str	r0, [sp, #8]
  105864:	e59d0038 	ldr	r0, [sp, #56]	; 0x38
  105868:	e307415c 	movw	r4, #29020	; 0x715c
  10586c:	eef1fa10 	vmrs	APSR_nzcv, fpscr
  105870:	43a0302d 	movmi	r3, #45	; 0x2d
  105874:	55dd3077 	ldrbpl	r3, [sp, #119]	; 0x77
