
dpr_test.elf:     file format elf32-littlearm


Disassembly of section .text:

00100000 <_vector_table>:
  100000:	ea000049 	b	10012c <_boot>
  100004:	ea000025 	b	1000a0 <Undefined>
  100008:	ea00002b 	b	1000bc <SVCHandler>
  10000c:	ea00003b 	b	100100 <PrefetchAbortHandler>
  100010:	ea000032 	b	1000e0 <DataAbortHandler>
  100014:	e320f000 	nop	{0}
  100018:	ea000000 	b	100020 <IRQHandler>
  10001c:	ea00000f 	b	100060 <FIQHandler>

00100020 <IRQHandler>:
  100020:	e92d500f 	push	{r0, r1, r2, r3, ip, lr}
  100024:	ed2d0b10 	vpush	{d0-d7}
  100028:	ed6d0b20 	vpush	{d16-d31}
  10002c:	eef11a10 	vmrs	r1, fpscr
  100030:	e52d1004 	push	{r1}		; (str r1, [sp, #-4]!)
  100034:	eef81a10 	vmrs	r1, fpexc
  100038:	e52d1004 	push	{r1}		; (str r1, [sp, #-4]!)
  10003c:	eb000a95 	bl	102a98 <IRQInterrupt>
  100040:	e49d1004 	pop	{r1}		; (ldr r1, [sp], #4)
  100044:	eee81a10 	vmsr	fpexc, r1
  100048:	e49d1004 	pop	{r1}		; (ldr r1, [sp], #4)
  10004c:	eee11a10 	vmsr	fpscr, r1
  100050:	ecfd0b20 	vpop	{d16-d31}
  100054:	ecbd0b10 	vpop	{d0-d7}
  100058:	e8bd500f 	pop	{r0, r1, r2, r3, ip, lr}
  10005c:	e25ef004 	subs	pc, lr, #4

00100060 <FIQHandler>:
  100060:	e92d500f 	push	{r0, r1, r2, r3, ip, lr}
  100064:	ed2d0b10 	vpush	{d0-d7}
  100068:	ed6d0b20 	vpush	{d16-d31}
  10006c:	eef11a10 	vmrs	r1, fpscr
  100070:	e52d1004 	push	{r1}		; (str r1, [sp, #-4]!)
  100074:	eef81a10 	vmrs	r1, fpexc
  100078:	e52d1004 	push	{r1}		; (str r1, [sp, #-4]!)

0010007c <FIQLoop>:
  10007c:	eb000a80 	bl	102a84 <FIQInterrupt>
  100080:	e49d1004 	pop	{r1}		; (ldr r1, [sp], #4)
  100084:	eee81a10 	vmsr	fpexc, r1
  100088:	e49d1004 	pop	{r1}		; (ldr r1, [sp], #4)
  10008c:	eee11a10 	vmsr	fpscr, r1
  100090:	ecfd0b20 	vpop	{d16-d31}
  100094:	ecbd0b10 	vpop	{d0-d7}
  100098:	e8bd500f 	pop	{r0, r1, r2, r3, ip, lr}
  10009c:	e25ef004 	subs	pc, lr, #4

001000a0 <Undefined>:
  1000a0:	e92d500f 	push	{r0, r1, r2, r3, ip, lr}
  1000a4:	e59f0074 	ldr	r0, [pc, #116]	; 100120 <PrefetchAbortHandler+0x20>
  1000a8:	e24e1004 	sub	r1, lr, #4
  1000ac:	e5801000 	str	r1, [r0]
  1000b0:	eb000a6e 	bl	102a70 <UndefinedException>
  1000b4:	e8bd500f 	pop	{r0, r1, r2, r3, ip, lr}
  1000b8:	e1b0f00e 	movs	pc, lr

001000bc <SVCHandler>:
  1000bc:	e92d500f 	push	{r0, r1, r2, r3, ip, lr}
  1000c0:	e3100020 	tst	r0, #32
  1000c4:	115e00b2 	ldrhne	r0, [lr, #-2]
  1000c8:	13c00cff 	bicne	r0, r0, #65280	; 0xff00
  1000cc:	051e0004 	ldreq	r0, [lr, #-4]
  1000d0:	03c004ff 	biceq	r0, r0, #-16777216	; 0xff000000
  1000d4:	eb000a74 	bl	102aac <SWInterrupt>
  1000d8:	e8bd500f 	pop	{r0, r1, r2, r3, ip, lr}
  1000dc:	e1b0f00e 	movs	pc, lr

001000e0 <DataAbortHandler>:
  1000e0:	f57ff04f 	dsb	sy
  1000e4:	e92d500f 	push	{r0, r1, r2, r3, ip, lr}
  1000e8:	e59f0034 	ldr	r0, [pc, #52]	; 100124 <PrefetchAbortHandler+0x24>
  1000ec:	e24e1008 	sub	r1, lr, #8
  1000f0:	e5801000 	str	r1, [r0]
  1000f4:	eb000a71 	bl	102ac0 <DataAbortInterrupt>
  1000f8:	e8bd500f 	pop	{r0, r1, r2, r3, ip, lr}
  1000fc:	e25ef008 	subs	pc, lr, #8

00100100 <PrefetchAbortHandler>:
  100100:	f57ff04f 	dsb	sy
  100104:	e92d500f 	push	{r0, r1, r2, r3, ip, lr}
  100108:	e59f0018 	ldr	r0, [pc, #24]	; 100128 <PrefetchAbortHandler+0x28>
  10010c:	e24e1004 	sub	r1, lr, #4
  100110:	e5801000 	str	r1, [r0]
  100114:	eb000a6e 	bl	102ad4 <PrefetchAbortInterrupt>
  100118:	e8bd500f 	pop	{r0, r1, r2, r3, ip, lr}
  10011c:	e25ef004 	subs	pc, lr, #4
  100120:	00120af0 	.word	0x00120af0
  100124:	00120af8 	.word	0x00120af8
  100128:	00120af4 	.word	0x00120af4

0010012c <_boot>:
  10012c:	ee101fb0 	mrc	15, 0, r1, cr0, cr0, {5}
  100130:	e201100f 	and	r1, r1, #15
  100134:	e3510000 	cmp	r1, #0
  100138:	0a000001 	beq	100144 <OKToRun>

0010013c <EndlessLoop0>:
  10013c:	e320f002 	wfe
  100140:	eafffffd 	b	10013c <EndlessLoop0>

00100144 <OKToRun>:
  100144:	ee100f10 	mrc	15, 0, r0, cr0, cr0, {0}
  100148:	e200560f 	and	r5, r0, #15728640	; 0xf00000
  10014c:	e200600f 	and	r6, r0, #15
  100150:	e1866825 	orr	r6, r6, r5, lsr #16
  100154:	e3560022 	cmp	r6, #34	; 0x22
  100158:	de1faf30 	mrcle	15, 0, sl, cr15, cr0, {1}
  10015c:	d38aa010 	orrle	sl, sl, #16
  100160:	de0faf30 	mcrle	15, 0, sl, cr15, cr0, {1}
  100164:	e3350602 	teq	r5, #2097152	; 0x200000
  100168:	0e1faf30 	mrceq	15, 0, sl, cr15, cr0, {1}
  10016c:	038aa040 	orreq	sl, sl, #64	; 0x40
  100170:	0e0faf30 	mcreq	15, 0, sl, cr15, cr0, {1}
  100174:	e59f02a4 	ldr	r0, [pc, #676]	; 100420 <finished+0x14>
  100178:	ee0c0f10 	mcr	15, 0, r0, cr12, cr0, {0}
  10017c:	e59f72a0 	ldr	r7, [pc, #672]	; 100424 <finished+0x18>
  100180:	e59f62a0 	ldr	r6, [pc, #672]	; 100428 <finished+0x1c>
  100184:	e5876000 	str	r6, [r7]
  100188:	e3a00000 	mov	r0, #0
  10018c:	ee080f17 	mcr	15, 0, r0, cr8, cr7, {0}
  100190:	ee070f15 	mcr	15, 0, r0, cr7, cr5, {0}
  100194:	ee070fd5 	mcr	15, 0, r0, cr7, cr5, {6}
  100198:	eb00007c 	bl	100390 <invalidate_dcache>
  10019c:	ee110f10 	mrc	15, 0, r0, cr1, cr0, {0}
  1001a0:	e3c00001 	bic	r0, r0, #1
  1001a4:	ee010f10 	mcr	15, 0, r0, cr1, cr0, {0}
  1001a8:	e10f0000 	mrs	r0, CPSR
  1001ac:	e3e0101f 	mvn	r1, #31
  1001b0:	e0012000 	and	r2, r1, r0
  1001b4:	e3822012 	orr	r2, r2, #18
  1001b8:	e129f002 	msr	CPSR_fc, r2
  1001bc:	e59fd268 	ldr	sp, [pc, #616]	; 10042c <finished+0x20>
  1001c0:	e3c22c02 	bic	r2, r2, #512	; 0x200
  1001c4:	e16ff002 	msr	SPSR_fsxc, r2
  1001c8:	e10f0000 	mrs	r0, CPSR
  1001cc:	e3e0101f 	mvn	r1, #31
  1001d0:	e0012000 	and	r2, r1, r0
  1001d4:	e3822013 	orr	r2, r2, #19
  1001d8:	e129f002 	msr	CPSR_fc, r2
  1001dc:	e59fd24c 	ldr	sp, [pc, #588]	; 100430 <finished+0x24>
  1001e0:	e3c22c02 	bic	r2, r2, #512	; 0x200
  1001e4:	e16ff002 	msr	SPSR_fsxc, r2
  1001e8:	e10f0000 	mrs	r0, CPSR
  1001ec:	e3e0101f 	mvn	r1, #31
  1001f0:	e0012000 	and	r2, r1, r0
  1001f4:	e3822017 	orr	r2, r2, #23
  1001f8:	e129f002 	msr	CPSR_fc, r2
  1001fc:	e59fd230 	ldr	sp, [pc, #560]	; 100434 <finished+0x28>
  100200:	e3c22c02 	bic	r2, r2, #512	; 0x200
  100204:	e16ff002 	msr	SPSR_fsxc, r2
  100208:	e10f0000 	mrs	r0, CPSR
  10020c:	e3e0101f 	mvn	r1, #31
  100210:	e0012000 	and	r2, r1, r0
  100214:	e3822011 	orr	r2, r2, #17
  100218:	e129f002 	msr	CPSR_fc, r2
  10021c:	e59fd214 	ldr	sp, [pc, #532]	; 100438 <finished+0x2c>
  100220:	e3c22c02 	bic	r2, r2, #512	; 0x200
  100224:	e16ff002 	msr	SPSR_fsxc, r2
  100228:	e10f0000 	mrs	r0, CPSR
  10022c:	e3e0101f 	mvn	r1, #31
  100230:	e0012000 	and	r2, r1, r0
  100234:	e382201b 	orr	r2, r2, #27
  100238:	e129f002 	msr	CPSR_fc, r2
  10023c:	e59fd1f8 	ldr	sp, [pc, #504]	; 10043c <finished+0x30>
  100240:	e3c22c02 	bic	r2, r2, #512	; 0x200
  100244:	e16ff002 	msr	SPSR_fsxc, r2
  100248:	e10f0000 	mrs	r0, CPSR
  10024c:	e3e0101f 	mvn	r1, #31
  100250:	e0012000 	and	r2, r1, r0
  100254:	e382201f 	orr	r2, r2, #31
  100258:	e129f002 	msr	CPSR_fc, r2
  10025c:	e59fd1dc 	ldr	sp, [pc, #476]	; 100440 <finished+0x34>
  100260:	e59f71dc 	ldr	r7, [pc, #476]	; 100444 <finished+0x38>
  100264:	e5970000 	ldr	r0, [r7]
  100268:	e3800001 	orr	r0, r0, #1
  10026c:	e5870000 	str	r0, [r7]
  100270:	e59f01d0 	ldr	r0, [pc, #464]	; 100448 <finished+0x3c>
  100274:	e380005b 	orr	r0, r0, #91	; 0x5b
  100278:	ee020f10 	mcr	15, 0, r0, cr2, cr0, {0}
  10027c:	e3e00000 	mvn	r0, #0
  100280:	ee030f10 	mcr	15, 0, r0, cr3, cr0, {0}
  100284:	e59f01c0 	ldr	r0, [pc, #448]	; 10044c <finished+0x40>
  100288:	ee010f10 	mcr	15, 0, r0, cr1, cr0, {0}
  10028c:	f57ff04f 	dsb	sy
  100290:	f57ff06f 	isb	sy
  100294:	ee110f30 	mrc	15, 0, r0, cr1, cr0, {1}
  100298:	e3800040 	orr	r0, r0, #64	; 0x40
  10029c:	e3800001 	orr	r0, r0, #1
  1002a0:	ee010f30 	mcr	15, 0, r0, cr1, cr0, {1}
  1002a4:	e59f01a4 	ldr	r0, [pc, #420]	; 100450 <finished+0x44>
  1002a8:	e3a01000 	mov	r1, #0
  1002ac:	e5801000 	str	r1, [r0]
  1002b0:	e59f019c 	ldr	r0, [pc, #412]	; 100454 <finished+0x48>
  1002b4:	e5901000 	ldr	r1, [r0]
  1002b8:	e59f2198 	ldr	r2, [pc, #408]	; 100458 <finished+0x4c>
  1002bc:	e1811002 	orr	r1, r1, r2
  1002c0:	e5801000 	str	r1, [r0]
  1002c4:	e59f0190 	ldr	r0, [pc, #400]	; 10045c <finished+0x50>
  1002c8:	e59f1190 	ldr	r1, [pc, #400]	; 100460 <finished+0x54>
  1002cc:	e5801000 	str	r1, [r0]
  1002d0:	e59f018c 	ldr	r0, [pc, #396]	; 100464 <finished+0x58>
  1002d4:	e59f118c 	ldr	r1, [pc, #396]	; 100468 <finished+0x5c>
  1002d8:	e5801000 	str	r1, [r0]
  1002dc:	e59f0188 	ldr	r0, [pc, #392]	; 10046c <finished+0x60>
  1002e0:	e59f2140 	ldr	r2, [pc, #320]	; 100428 <finished+0x1c>
  1002e4:	e5802000 	str	r2, [r0]
  1002e8:	e59f0180 	ldr	r0, [pc, #384]	; 100470 <finished+0x64>

001002ec <Sync>:
  1002ec:	e5901000 	ldr	r1, [r0]
  1002f0:	e3510000 	cmp	r1, #0
  1002f4:	1afffffc 	bne	1002ec <Sync>
  1002f8:	e59f0174 	ldr	r0, [pc, #372]	; 100474 <finished+0x68>
  1002fc:	e5901000 	ldr	r1, [r0]
  100300:	e59f0170 	ldr	r0, [pc, #368]	; 100478 <finished+0x6c>
  100304:	e5801000 	str	r1, [r0]
  100308:	e59f016c 	ldr	r0, [pc, #364]	; 10047c <finished+0x70>
  10030c:	e59f116c 	ldr	r1, [pc, #364]	; 100480 <finished+0x74>
  100310:	e5801000 	str	r1, [r0]
  100314:	e59f0168 	ldr	r0, [pc, #360]	; 100484 <finished+0x78>
  100318:	e59f1168 	ldr	r1, [pc, #360]	; 100488 <finished+0x7c>
  10031c:	e5801000 	str	r1, [r0]
  100320:	e59f0164 	ldr	r0, [pc, #356]	; 10048c <finished+0x80>
  100324:	e59f1164 	ldr	r1, [pc, #356]	; 100490 <finished+0x84>
  100328:	e5801000 	str	r1, [r0]
  10032c:	e59f011c 	ldr	r0, [pc, #284]	; 100450 <finished+0x44>
  100330:	e5901000 	ldr	r1, [r0]
  100334:	e3a02001 	mov	r2, #1
  100338:	e1811002 	orr	r1, r1, r2
  10033c:	e5801000 	str	r1, [r0]
  100340:	e1a00000 	nop			; (mov r0, r0)
  100344:	ee111f50 	mrc	15, 0, r1, cr1, cr0, {2}
  100348:	e381160f 	orr	r1, r1, #15728640	; 0xf00000
  10034c:	ee011f50 	mcr	15, 0, r1, cr1, cr0, {2}
  100350:	eef81a10 	vmrs	r1, fpexc
  100354:	e3811101 	orr	r1, r1, #1073741824	; 0x40000000
  100358:	eee81a10 	vmsr	fpexc, r1
  10035c:	ee110f10 	mrc	15, 0, r0, cr1, cr0, {0}
  100360:	e3800b02 	orr	r0, r0, #2048	; 0x800
  100364:	ee010f10 	mcr	15, 0, r0, cr1, cr0, {0}
  100368:	ee110f30 	mrc	15, 0, r0, cr1, cr0, {1}
  10036c:	e3800004 	orr	r0, r0, #4
  100370:	e3800002 	orr	r0, r0, #2
  100374:	ee010f30 	mcr	15, 0, r0, cr1, cr0, {1}
  100378:	e10f0000 	mrs	r0, CPSR
  10037c:	e3c00c01 	bic	r0, r0, #256	; 0x100
  100380:	e12ef000 	msr	CPSR_fsx, r0
  100384:	ea0009dc 	b	102afc <_start>
  100388:	e0000000 	and	r0, r0, r0
  10038c:	eafffffe 	b	10038c <Sync+0xa0>

00100390 <invalidate_dcache>:
  100390:	ee300f30 	mrc	15, 1, r0, cr0, cr0, {1}
  100394:	e2103407 	ands	r3, r0, #117440512	; 0x7000000
  100398:	e1a03ba3 	lsr	r3, r3, #23
  10039c:	0a00001a 	beq	10040c <finished>
  1003a0:	e3a0a000 	mov	sl, #0

001003a4 <loop1>:
  1003a4:	e08a20aa 	add	r2, sl, sl, lsr #1
  1003a8:	e1a01230 	lsr	r1, r0, r2
  1003ac:	e2011007 	and	r1, r1, #7
  1003b0:	e3510002 	cmp	r1, #2
  1003b4:	ba000011 	blt	100400 <skip>
  1003b8:	ee40af10 	mcr	15, 2, sl, cr0, cr0, {0}
  1003bc:	f57ff06f 	isb	sy
  1003c0:	ee301f10 	mrc	15, 1, r1, cr0, cr0, {0}
  1003c4:	e2012007 	and	r2, r1, #7
  1003c8:	e2822004 	add	r2, r2, #4
  1003cc:	e59f40c0 	ldr	r4, [pc, #192]	; 100494 <finished+0x88>
  1003d0:	e01441a1 	ands	r4, r4, r1, lsr #3
  1003d4:	e16f5f14 	clz	r5, r4
  1003d8:	e59f70b8 	ldr	r7, [pc, #184]	; 100498 <finished+0x8c>
  1003dc:	e01776a1 	ands	r7, r7, r1, lsr #13

001003e0 <loop2>:
  1003e0:	e1a09004 	mov	r9, r4

001003e4 <loop3>:
  1003e4:	e18ab519 	orr	fp, sl, r9, lsl r5
  1003e8:	e18bb217 	orr	fp, fp, r7, lsl r2
  1003ec:	ee07bf56 	mcr	15, 0, fp, cr7, cr6, {2}
  1003f0:	e2599001 	subs	r9, r9, #1
  1003f4:	aafffffa 	bge	1003e4 <loop3>
  1003f8:	e2577001 	subs	r7, r7, #1
  1003fc:	aafffff7 	bge	1003e0 <loop2>

00100400 <skip>:
  100400:	e28aa002 	add	sl, sl, #2
  100404:	e153000a 	cmp	r3, sl
  100408:	caffffe5 	bgt	1003a4 <loop1>

0010040c <finished>:
  10040c:	e3a0a000 	mov	sl, #0
  100410:	ee40af10 	mcr	15, 2, sl, cr0, cr0, {0}
  100414:	f57ff04f 	dsb	sy
  100418:	f57ff06f 	isb	sy
  10041c:	e12fff1e 	bx	lr
  100420:	00100000 	.word	0x00100000
  100424:	f8f0000c 	.word	0xf8f0000c
  100428:	0000ffff 	.word	0x0000ffff
  10042c:	07616580 	.word	0x07616580
  100430:	07616d80 	.word	0x07616d80
  100434:	07617180 	.word	0x07617180
  100438:	07617580 	.word	0x07617580
  10043c:	07617980 	.word	0x07617980
  100440:	07616180 	.word	0x07616180
  100444:	f8f00000 	.word	0xf8f00000
  100448:	0011c000 	.word	0x0011c000
  10044c:	00001005 	.word	0x00001005
  100450:	f8f02100 	.word	0xf8f02100
  100454:	f8f02104 	.word	0xf8f02104
  100458:	72360000 	.word	0x72360000
  10045c:	f8f02108 	.word	0xf8f02108
  100460:	00000111 	.word	0x00000111
  100464:	f8f0210c 	.word	0xf8f0210c
  100468:	00000121 	.word	0x00000121
  10046c:	f8f0277c 	.word	0xf8f0277c
  100470:	f8f02730 	.word	0xf8f02730
  100474:	f8f0221c 	.word	0xf8f0221c
  100478:	f8f02220 	.word	0xf8f02220
  10047c:	f8000008 	.word	0xf8000008
  100480:	0000df0d 	.word	0x0000df0d
  100484:	f8000a1c 	.word	0xf8000a1c
  100488:	00020202 	.word	0x00020202
  10048c:	f8000004 	.word	0xf8000004
  100490:	0000767b 	.word	0x0000767b
  100494:	000003ff 	.word	0x000003ff
  100498:	00007fff 	.word	0x00007fff

0010049c <deregister_tm_clones>:
  10049c:	e59f3024 	ldr	r3, [pc, #36]	; 1004c8 <deregister_tm_clones+0x2c>
  1004a0:	e3080368 	movw	r0, #33640	; 0x8368
  1004a4:	e3400011 	movt	r0, #17
  1004a8:	e0603003 	rsb	r3, r0, r3
  1004ac:	e3530006 	cmp	r3, #6
  1004b0:	912fff1e 	bxls	lr
  1004b4:	e3003000 	movw	r3, #0
  1004b8:	e3403000 	movt	r3, #0
  1004bc:	e3530000 	cmp	r3, #0
  1004c0:	012fff1e 	bxeq	lr
  1004c4:	e12fff13 	bx	r3
  1004c8:	0011836b 	.word	0x0011836b

001004cc <register_tm_clones>:
  1004cc:	e3083368 	movw	r3, #33640	; 0x8368
  1004d0:	e3080368 	movw	r0, #33640	; 0x8368
  1004d4:	e3403011 	movt	r3, #17
  1004d8:	e3400011 	movt	r0, #17
  1004dc:	e0601003 	rsb	r1, r0, r3
  1004e0:	e1a01141 	asr	r1, r1, #2
  1004e4:	e0811fa1 	add	r1, r1, r1, lsr #31
  1004e8:	e1b010c1 	asrs	r1, r1, #1
  1004ec:	012fff1e 	bxeq	lr
  1004f0:	e3003000 	movw	r3, #0
  1004f4:	e3403000 	movt	r3, #0
  1004f8:	e3530000 	cmp	r3, #0
  1004fc:	012fff1e 	bxeq	lr
  100500:	e12fff13 	bx	r3

00100504 <__do_global_dtors_aux>:
  100504:	e92d4010 	push	{r4, lr}
  100508:	e3004020 	movw	r4, #32
  10050c:	e3404012 	movt	r4, #18
  100510:	e5d43000 	ldrb	r3, [r4]
  100514:	e3530000 	cmp	r3, #0
  100518:	18bd8010 	popne	{r4, pc}
  10051c:	ebffffde 	bl	10049c <deregister_tm_clones>
  100520:	e3003000 	movw	r3, #0
  100524:	e3403000 	movt	r3, #0
  100528:	e3530000 	cmp	r3, #0
  10052c:	0a000002 	beq	10053c <__do_global_dtors_aux+0x38>
  100530:	e3080368 	movw	r0, #33640	; 0x8368
  100534:	e3400011 	movt	r0, #17
  100538:	e320f000 	nop	{0}
  10053c:	e3a03001 	mov	r3, #1
  100540:	e5c43000 	strb	r3, [r4]
  100544:	e8bd8010 	pop	{r4, pc}

00100548 <frame_dummy>:
  100548:	e3003000 	movw	r3, #0
  10054c:	e3403000 	movt	r3, #0
  100550:	e3530000 	cmp	r3, #0
  100554:	e92d4010 	push	{r4, lr}
  100558:	0a000004 	beq	100570 <frame_dummy+0x28>
  10055c:	e3001024 	movw	r1, #36	; 0x24
  100560:	e3080368 	movw	r0, #33640	; 0x8368
  100564:	e3401012 	movt	r1, #18
  100568:	e3400011 	movt	r0, #17
  10056c:	e320f000 	nop	{0}
  100570:	e3080364 	movw	r0, #33636	; 0x8364
  100574:	e3400011 	movt	r0, #17
  100578:	e5903000 	ldr	r3, [r0]
  10057c:	e3530000 	cmp	r3, #0
  100580:	1a000001 	bne	10058c <frame_dummy+0x44>
  100584:	e8bd4010 	pop	{r4, lr}
  100588:	eaffffcf 	b	1004cc <register_tm_clones>
  10058c:	e3003000 	movw	r3, #0
  100590:	e3403000 	movt	r3, #0
  100594:	e3530000 	cmp	r3, #0
  100598:	0afffff9 	beq	100584 <frame_dummy+0x3c>
  10059c:	e12fff33 	blx	r3
  1005a0:	eafffff7 	b	100584 <frame_dummy+0x3c>

001005a4 <cordic_highlevel>:
 *  2. Cos
 *  3. Atan
 *  4. Module
 */

void cordic_highlevel(int function, u32 *ibuffer,u32 *obuffer, int n_words, u32 scaling_factor, u32 dfx_one  ){
  1005a4:	e92d4ff7 	push	{r0, r1, r2, r4, r5, r6, r7, r8, r9, sl, fp, lr}
  1005a8:	e1a04000 	mov	r4, r0
	int lk;

    for (lk=0; lk<n_words; lk++){

	    	Interrupt_flag=0;
  1005ac:	e59f9178 	ldr	r9, [pc, #376]	; 10072c <cordic_highlevel+0x188>
  1005b0:	e2828004 	add	r8, r2, #4
  1005b4:	e2816004 	add	r6, r1, #4
 */

void cordic_highlevel(int function, u32 *ibuffer,u32 *obuffer, int n_words, u32 scaling_factor, u32 dfx_one  ){
	int lk;

    for (lk=0; lk<n_words; lk++){
  1005b8:	e3a05000 	mov	r5, #0
 *  2. Cos
 *  3. Atan
 *  4. Module
 */

void cordic_highlevel(int function, u32 *ibuffer,u32 *obuffer, int n_words, u32 scaling_factor, u32 dfx_one  ){
  1005bc:	e58d3000 	str	r3, [sp]
  1005c0:	e1a0a009 	mov	sl, r9
	int lk;

    for (lk=0; lk<n_words; lk++){
  1005c4:	e59d3000 	ldr	r3, [sp]
  1005c8:	e1550003 	cmp	r5, r3
  1005cc:	aa000054 	bge	100724 <cordic_highlevel+0x180>

	    	Interrupt_flag=0;
  1005d0:	e3a03000 	mov	r3, #0


	    	data2= MY_CORDIC_mReadReg( XPAR_MY_CORDIC_0_S00_AXI_BASEADDR, MY_CORDIC_S00_AXI_SLV_REG1_OFFSET );
  1005d4:	e59f0154 	ldr	r0, [pc, #340]	; 100730 <cordic_highlevel+0x18c>
void cordic_highlevel(int function, u32 *ibuffer,u32 *obuffer, int n_words, u32 scaling_factor, u32 dfx_one  ){
	int lk;

    for (lk=0; lk<n_words; lk++){

	    	Interrupt_flag=0;
  1005d8:	e5893000 	str	r3, [r9]


	    	data2= MY_CORDIC_mReadReg( XPAR_MY_CORDIC_0_S00_AXI_BASEADDR, MY_CORDIC_S00_AXI_SLV_REG1_OFFSET );
  1005dc:	eb000c05 	bl	1035f8 <Xil_In32>
  1005e0:	e59f314c 	ldr	r3, [pc, #332]	; 100734 <cordic_highlevel+0x190>
	    	while( ((data2&0x2)==0x2) ){ //check if cordic is busy
  1005e4:	e1a0b003 	mov	fp, r3
    for (lk=0; lk<n_words; lk++){

	    	Interrupt_flag=0;


	    	data2= MY_CORDIC_mReadReg( XPAR_MY_CORDIC_0_S00_AXI_BASEADDR, MY_CORDIC_S00_AXI_SLV_REG1_OFFSET );
  1005e8:	e5830000 	str	r0, [r3]
	    	while( ((data2&0x2)==0x2) ){ //check if cordic is busy
  1005ec:	e5937000 	ldr	r7, [r3]
  1005f0:	e2177002 	ands	r7, r7, #2
  1005f4:	0a000007 	beq	100618 <cordic_highlevel+0x74>
	        	data2= MY_CORDIC_mReadReg( XPAR_MY_CORDIC_0_S00_AXI_BASEADDR, MY_CORDIC_S00_AXI_SLV_REG1_OFFSET );
  1005f8:	e59f0130 	ldr	r0, [pc, #304]	; 100730 <cordic_highlevel+0x18c>
  1005fc:	e58d3004 	str	r3, [sp, #4]
  100600:	eb000bfc 	bl	1035f8 <Xil_In32>
  100604:	e58b0000 	str	r0, [fp]
	        	printf("inside\r\n");
  100608:	e59f0128 	ldr	r0, [pc, #296]	; 100738 <cordic_highlevel+0x194>
  10060c:	eb00111c 	bl	104a84 <puts>
  100610:	e59d3004 	ldr	r3, [sp, #4]
  100614:	eafffff4 	b	1005ec <cordic_highlevel+0x48>
	    	}
	    	if (function==1){// Sine
  100618:	e3540001 	cmp	r4, #1
  10061c:	1a000007 	bne	100640 <cordic_highlevel+0x9c>
		    	MY_CORDIC_mWriteReg(XPAR_MY_CORDIC_0_S00_AXI_BASEADDR, MY_CORDIC_S00_AXI_SLV_REG2_OFFSET,scaling_factor   );
  100620:	e59d1030 	ldr	r1, [sp, #48]	; 0x30
  100624:	e59f0110 	ldr	r0, [pc, #272]	; 10073c <cordic_highlevel+0x198>
  100628:	eb000bf8 	bl	103610 <Xil_Out32>
		    	MY_CORDIC_mWriteReg(XPAR_MY_CORDIC_0_S00_AXI_BASEADDR, MY_CORDIC_S00_AXI_SLV_REG3_OFFSET,0x00000000   );
  10062c:	e1a01007 	mov	r1, r7
  100630:	e59f0108 	ldr	r0, [pc, #264]	; 100740 <cordic_highlevel+0x19c>
  100634:	eb000bf5 	bl	103610 <Xil_Out32>
		    	MY_CORDIC_mWriteReg(XPAR_MY_CORDIC_0_S00_AXI_BASEADDR, MY_CORDIC_S00_AXI_SLV_REG4_OFFSET, *ibuffer++   );
  100638:	e5161004 	ldr	r1, [r6, #-4]
  10063c:	ea000015 	b	100698 <cordic_highlevel+0xf4>
		    	MY_CORDIC_mWriteReg(XPAR_MY_CORDIC_0_S00_AXI_BASEADDR, MY_CORDIC_S00_AXI_SLV_REG0_OFFSET,0x00000001   );

	    	} else if (function==2){ //Cos
  100640:	e3540002 	cmp	r4, #2
  100644:	1a00000a 	bne	100674 <cordic_highlevel+0xd0>
		    	MY_CORDIC_mWriteReg(XPAR_MY_CORDIC_0_S00_AXI_BASEADDR, MY_CORDIC_S00_AXI_SLV_REG2_OFFSET,0x00000000);
  100648:	e1a01007 	mov	r1, r7
  10064c:	e59f00e8 	ldr	r0, [pc, #232]	; 10073c <cordic_highlevel+0x198>
  100650:	eb000bee 	bl	103610 <Xil_Out32>
		    	MY_CORDIC_mWriteReg(XPAR_MY_CORDIC_0_S00_AXI_BASEADDR, MY_CORDIC_S00_AXI_SLV_REG3_OFFSET,scaling_factor);
  100654:	e59d1030 	ldr	r1, [sp, #48]	; 0x30
  100658:	e59f00e0 	ldr	r0, [pc, #224]	; 100740 <cordic_highlevel+0x19c>
  10065c:	eb000beb 	bl	103610 <Xil_Out32>
		    	MY_CORDIC_mWriteReg(XPAR_MY_CORDIC_0_S00_AXI_BASEADDR, MY_CORDIC_S00_AXI_SLV_REG4_OFFSET, *ibuffer++   );
  100660:	e5161004 	ldr	r1, [r6, #-4]
  100664:	e59f00d8 	ldr	r0, [pc, #216]	; 100744 <cordic_highlevel+0x1a0>
  100668:	eb000be8 	bl	103610 <Xil_Out32>
		    	MY_CORDIC_mWriteReg(XPAR_MY_CORDIC_0_S00_AXI_BASEADDR, MY_CORDIC_S00_AXI_SLV_REG0_OFFSET,0x00000001   );
  10066c:	e3a01001 	mov	r1, #1
  100670:	ea000014 	b	1006c8 <cordic_highlevel+0x124>

	    	} else if (function==3){ //Atan
  100674:	e3540003 	cmp	r4, #3
	    		MY_CORDIC_mWriteReg(XPAR_MY_CORDIC_0_S00_AXI_BASEADDR, MY_CORDIC_S00_AXI_SLV_REG2_OFFSET,*ibuffer++);
  100678:	e5161004 	ldr	r1, [r6, #-4]
  10067c:	e59f00b8 	ldr	r0, [pc, #184]	; 10073c <cordic_highlevel+0x198>
		    	MY_CORDIC_mWriteReg(XPAR_MY_CORDIC_0_S00_AXI_BASEADDR, MY_CORDIC_S00_AXI_SLV_REG2_OFFSET,0x00000000);
		    	MY_CORDIC_mWriteReg(XPAR_MY_CORDIC_0_S00_AXI_BASEADDR, MY_CORDIC_S00_AXI_SLV_REG3_OFFSET,scaling_factor);
		    	MY_CORDIC_mWriteReg(XPAR_MY_CORDIC_0_S00_AXI_BASEADDR, MY_CORDIC_S00_AXI_SLV_REG4_OFFSET, *ibuffer++   );
		    	MY_CORDIC_mWriteReg(XPAR_MY_CORDIC_0_S00_AXI_BASEADDR, MY_CORDIC_S00_AXI_SLV_REG0_OFFSET,0x00000001   );

	    	} else if (function==3){ //Atan
  100680:	1a000008 	bne	1006a8 <cordic_highlevel+0x104>
	    		MY_CORDIC_mWriteReg(XPAR_MY_CORDIC_0_S00_AXI_BASEADDR, MY_CORDIC_S00_AXI_SLV_REG2_OFFSET,*ibuffer++);
  100684:	eb000be1 	bl	103610 <Xil_Out32>
	    		MY_CORDIC_mWriteReg(XPAR_MY_CORDIC_0_S00_AXI_BASEADDR, MY_CORDIC_S00_AXI_SLV_REG3_OFFSET,dfx_one);
  100688:	e59d1034 	ldr	r1, [sp, #52]	; 0x34
  10068c:	e59f00ac 	ldr	r0, [pc, #172]	; 100740 <cordic_highlevel+0x19c>
  100690:	eb000bde 	bl	103610 <Xil_Out32>
	    		MY_CORDIC_mWriteReg(XPAR_MY_CORDIC_0_S00_AXI_BASEADDR, MY_CORDIC_S00_AXI_SLV_REG4_OFFSET, 0x00000000  );
  100694:	e1a01007 	mov	r1, r7
  100698:	e59f00a4 	ldr	r0, [pc, #164]	; 100744 <cordic_highlevel+0x1a0>
  10069c:	eb000bdb 	bl	103610 <Xil_Out32>
	    		MY_CORDIC_mWriteReg(XPAR_MY_CORDIC_0_S00_AXI_BASEADDR, MY_CORDIC_S00_AXI_SLV_REG0_OFFSET,0x00000003   );
  1006a0:	e1a01004 	mov	r1, r4
  1006a4:	ea000007 	b	1006c8 <cordic_highlevel+0x124>
	    	} else { //Module
	    		MY_CORDIC_mWriteReg(XPAR_MY_CORDIC_0_S00_AXI_BASEADDR, MY_CORDIC_S00_AXI_SLV_REG2_OFFSET,*ibuffer);
  1006a8:	eb000bd8 	bl	103610 <Xil_Out32>
	    		MY_CORDIC_mWriteReg(XPAR_MY_CORDIC_0_S00_AXI_BASEADDR, MY_CORDIC_S00_AXI_SLV_REG3_OFFSET,*ibuffer++);
  1006ac:	e5161004 	ldr	r1, [r6, #-4]
  1006b0:	e59f0088 	ldr	r0, [pc, #136]	; 100740 <cordic_highlevel+0x19c>
  1006b4:	eb000bd5 	bl	103610 <Xil_Out32>
	    		MY_CORDIC_mWriteReg(XPAR_MY_CORDIC_0_S00_AXI_BASEADDR, MY_CORDIC_S00_AXI_SLV_REG4_OFFSET, 0x00000000  );
  1006b8:	e1a01007 	mov	r1, r7
  1006bc:	e59f0080 	ldr	r0, [pc, #128]	; 100744 <cordic_highlevel+0x1a0>
  1006c0:	eb000bd2 	bl	103610 <Xil_Out32>
	    		MY_CORDIC_mWriteReg(XPAR_MY_CORDIC_0_S00_AXI_BASEADDR, MY_CORDIC_S00_AXI_SLV_REG0_OFFSET,0x00000003   );
  1006c4:	e3a01003 	mov	r1, #3
  1006c8:	e59f0078 	ldr	r0, [pc, #120]	; 100748 <cordic_highlevel+0x1a4>
  1006cc:	eb000bcf 	bl	103610 <Xil_Out32>


	    	}
	    	while(Interrupt_flag==0); //while for cordic's interruption
  1006d0:	e59a3000 	ldr	r3, [sl]
  1006d4:	e3530000 	cmp	r3, #0
  1006d8:	0afffffc 	beq	1006d0 <cordic_highlevel+0x12c>
	    	if (function==1){// Sine
  1006dc:	e3540001 	cmp	r4, #1
  1006e0:	0a000001 	beq	1006ec <cordic_highlevel+0x148>
	    		*obuffer=(unsigned int)yout_data;
	    		printf("Word output_vec %d: 0x%08x\n",lk, (unsigned int)*obuffer++ );

	    	} else if (function==2){ //Cos
  1006e4:	e3540002 	cmp	r4, #2
  1006e8:	1a000001 	bne	1006f4 <cordic_highlevel+0x150>
	    		*obuffer=(unsigned int)yout_data;
  1006ec:	e59f3058 	ldr	r3, [pc, #88]	; 10074c <cordic_highlevel+0x1a8>
  1006f0:	ea000002 	b	100700 <cordic_highlevel+0x15c>
	    		printf("Word output_vec %d: 0x%08x\n",lk, (unsigned int)*obuffer++ );

	    	} else if (function==3){ //Atan
  1006f4:	e3540003 	cmp	r4, #3
	    		*obuffer=(unsigned int)zout_data;
  1006f8:	059f3050 	ldreq	r3, [pc, #80]	; 100750 <cordic_highlevel+0x1ac>
	    		printf("Word output_vec %d: 0x%08x\n",lk, (unsigned int)*obuffer++ );

	    	} else { //Module
	    		*obuffer=(unsigned int)xout_data;
  1006fc:	159f3050 	ldrne	r3, [pc, #80]	; 100754 <cordic_highlevel+0x1b0>
  100700:	e5932000 	ldr	r2, [r3]
	    		printf("Word output_vec %d: 0x%08x\n",lk, (unsigned int)*obuffer++ );
  100704:	e1a01005 	mov	r1, r5
  100708:	e59f0048 	ldr	r0, [pc, #72]	; 100758 <cordic_highlevel+0x1b4>
 */

void cordic_highlevel(int function, u32 *ibuffer,u32 *obuffer, int n_words, u32 scaling_factor, u32 dfx_one  ){
	int lk;

    for (lk=0; lk<n_words; lk++){
  10070c:	e2855001 	add	r5, r5, #1
  100710:	e2888004 	add	r8, r8, #4
  100714:	e2866004 	add	r6, r6, #4
	    	} else if (function==3){ //Atan
	    		*obuffer=(unsigned int)zout_data;
	    		printf("Word output_vec %d: 0x%08x\n",lk, (unsigned int)*obuffer++ );

	    	} else { //Module
	    		*obuffer=(unsigned int)xout_data;
  100718:	e5082008 	str	r2, [r8, #-8]
	    		printf("Word output_vec %d: 0x%08x\n",lk, (unsigned int)*obuffer++ );
  10071c:	eb0010a5 	bl	1049b8 <printf>
  100720:	eaffffa7 	b	1005c4 <cordic_highlevel+0x20>

	    	}
    }

}
  100724:	e28dd00c 	add	sp, sp, #12
  100728:	e8bd8ff0 	pop	{r4, r5, r6, r7, r8, r9, sl, fp, pc}
  10072c:	0012003c 	.word	0x0012003c
  100730:	43c00004 	.word	0x43c00004
  100734:	00120864 	.word	0x00120864
  100738:	00116b90 	.word	0x00116b90
  10073c:	43c00008 	.word	0x43c00008
  100740:	43c0000c 	.word	0x43c0000c
  100744:	43c00010 	.word	0x43c00010
  100748:	43c00000 	.word	0x43c00000
  10074c:	00120ad8 	.word	0x00120ad8
  100750:	00120860 	.word	0x00120860
  100754:	00120ae8 	.word	0x00120ae8
  100758:	00116b98 	.word	0x00116b98

0010075c <Write_outfile>:



void Write_outfile(u32 *out_buff, char *filename){
  10075c:	e92d4870 	push	{r4, r5, r6, fp, lr}
  100760:	e28db010 	add	fp, sp, #16
  100764:	e24dd00c 	sub	sp, sp, #12
  100768:	e24dde26 	sub	sp, sp, #608	; 0x260
  10076c:	e1a05000 	mov	r5, r0
  100770:	e28d401f 	add	r4, sp, #31
	FIL fil;
	FRESULT myres;
	UINT NumBytesWritten;

		   myres = f_open(&fil, filename , FA_CREATE_ALWAYS | FA_WRITE | FA_READ);
  100774:	e3a0200b 	mov	r2, #11

}



void Write_outfile(u32 *out_buff, char *filename){
  100778:	e3c4401f 	bic	r4, r4, #31
	FIL fil;
	FRESULT myres;
	UINT NumBytesWritten;

		   myres = f_open(&fil, filename , FA_CREATE_ALWAYS | FA_WRITE | FA_READ);
  10077c:	e1a00004 	mov	r0, r4
  100780:	eb004713 	bl	1123d4 <f_open>
		   	   if(myres== FR_OK){
  100784:	e2506000 	subs	r6, r0, #0
		   			 	 }else {
		   			 		 xil_printf("failed to write data\n\r");
		   			 	 }

		   	   } else {
		   		   xil_printf("failed to create file\n\r");
  100788:	159f0058 	ldrne	r0, [pc, #88]	; 1007e8 <Write_outfile+0x8c>
	FIL fil;
	FRESULT myres;
	UINT NumBytesWritten;

		   myres = f_open(&fil, filename , FA_CREATE_ALWAYS | FA_WRITE | FA_READ);
		   	   if(myres== FR_OK){
  10078c:	1a00000c 	bne	1007c4 <Write_outfile+0x68>
		   		   xil_printf("file created\n\r");
  100790:	e59f0054 	ldr	r0, [pc, #84]	; 1007ec <Write_outfile+0x90>
  100794:	eb000c39 	bl	103880 <xil_printf>
		   		   myres = f_lseek(&fil, 0);
  100798:	e1a01006 	mov	r1, r6
  10079c:	e1a00004 	mov	r0, r4
  1007a0:	eb004959 	bl	112d0c <f_lseek>
		   		   myres = f_write(&fil, (const void*)out_buff,( sizeof(*out_buff)*200),&NumBytesWritten);
  1007a4:	e24b3018 	sub	r3, fp, #24
  1007a8:	e3a02e32 	mov	r2, #800	; 0x320
  1007ac:	e1a01005 	mov	r1, r5
  1007b0:	e1a00004 	mov	r0, r4
  1007b4:	eb00484e 	bl	1128f4 <f_write>
		   			 	 if (myres== FR_OK) {
  1007b8:	e3500000 	cmp	r0, #0
		   			 		 xil_printf("data written\n\r");
  1007bc:	059f002c 	ldreq	r0, [pc, #44]	; 1007f0 <Write_outfile+0x94>
		   			 	 }else {
		   			 		 xil_printf("failed to write data\n\r");
  1007c0:	159f002c 	ldrne	r0, [pc, #44]	; 1007f4 <Write_outfile+0x98>
		   			 	 }

		   	   } else {
		   		   xil_printf("failed to create file\n\r");
  1007c4:	eb000c2d 	bl	103880 <xil_printf>
		   	   }
		    myres = f_close(&fil);
  1007c8:	e1a00004 	mov	r0, r4
  1007cc:	eb004944 	bl	112ce4 <f_close>
		   	if (myres == FR_OK){
  1007d0:	e3500000 	cmp	r0, #0
  1007d4:	1a000001 	bne	1007e0 <Write_outfile+0x84>
		   		xil_printf("file closed\n\r");
  1007d8:	e59f0018 	ldr	r0, [pc, #24]	; 1007f8 <Write_outfile+0x9c>
  1007dc:	eb000c27 	bl	103880 <xil_printf>
		   	 }
}
  1007e0:	e24bd010 	sub	sp, fp, #16
  1007e4:	e8bd8870 	pop	{r4, r5, r6, fp, pc}
  1007e8:	00116be9 	.word	0x00116be9
  1007ec:	00116bb4 	.word	0x00116bb4
  1007f0:	00116bc3 	.word	0x00116bc3
  1007f4:	00116bd2 	.word	0x00116bd2
  1007f8:	00116c01 	.word	0x00116c01

001007fc <read_inputs>:



void read_inputs(u32 *buff, char *filename) {
  1007fc:	e92d4870 	push	{r4, r5, r6, fp, lr}
  100800:	e28db010 	add	fp, sp, #16
  100804:	e24dd00c 	sub	sp, sp, #12
  100808:	e24dde26 	sub	sp, sp, #608	; 0x260
  10080c:	e1a06000 	mov	r6, r0
  100810:	e28d501f 	add	r5, sp, #31
	FRESULT myres;
	char temp1;
	u32 filesize=0;
	 FATFS *fs;
	 UINT br;
		 myres = f_open(&fil, filename, FA_READ);
  100814:	e3a02001 	mov	r2, #1
		   	 }
}



void read_inputs(u32 *buff, char *filename) {
  100818:	e3c5501f 	bic	r5, r5, #31
	FRESULT myres;
	char temp1;
	u32 filesize=0;
	 FATFS *fs;
	 UINT br;
		 myres = f_open(&fil, filename, FA_READ);
  10081c:	e1a00005 	mov	r0, r5
  100820:	eb0046eb 	bl	1123d4 <f_open>
		 	 if (myres == FR_OK) {
  100824:	e2504000 	subs	r4, r0, #0
  100828:	0a000003 	beq	10083c <read_inputs+0x40>
		 			memcpy ( &buff[jl], &line[0], 4 );
		 			printf("Word %d: 0x%08x\n",jl, (unsigned int)buff[jl] );
		 		 }
		 	 }
	// }
	 myres = f_close(&fil);
  10082c:	e1a00005 	mov	r0, r5
  100830:	eb00492b 	bl	112ce4 <f_close>

}
  100834:	e24bd010 	sub	sp, fp, #16
  100838:	e8bd8870 	pop	{r4, r5, r6, fp, pc}
	u32 filesize=0;
	 FATFS *fs;
	 UINT br;
		 myres = f_open(&fil, filename, FA_READ);
		 	 if (myres == FR_OK) {
		 		 printf("f_open \r\n");
  10083c:	e59f0074 	ldr	r0, [pc, #116]	; 1008b8 <read_inputs+0xbc>
  100840:	eb00108f 	bl	104a84 <puts>
		 		 filesize= file_size(&fil);
		 		 printf("File: input_sin_conf1.txt opened successfully \r\n" );
  100844:	e59f0070 	ldr	r0, [pc, #112]	; 1008bc <read_inputs+0xc0>
  100848:	eb00108d 	bl	104a84 <puts>

		 		 myres = f_lseek(&fil, 0 );
  10084c:	e1a01004 	mov	r1, r4
  100850:	e1a00005 	mov	r0, r5
  100854:	eb00492c 	bl	112d0c <f_lseek>

		 		 for (jl=0;jl<200; jl++ ){
		 			 myres =  f_read(&fil, (void *)line, 4, &br);
  100858:	e24b3018 	sub	r3, fp, #24
  10085c:	e3a02004 	mov	r2, #4
  100860:	e24b101c 	sub	r1, fp, #28
  100864:	e1a00005 	mov	r0, r5
  100868:	eb004780 	bl	112670 <f_read>
		 			temp1=line[0];
  10086c:	e55b301c 	ldrb	r3, [fp, #-28]	; 0xffffffe4
		 			line[3]=temp1;
		 			temp1=line[1];
		 			line[1]=line[2];
		 			line[2]=temp1;
		 			memcpy ( &buff[jl], &line[0], 4 );
		 			printf("Word %d: 0x%08x\n",jl, (unsigned int)buff[jl] );
  100870:	e1a01004 	mov	r1, r4
		 		 myres = f_lseek(&fil, 0 );

		 		 for (jl=0;jl<200; jl++ ){
		 			 myres =  f_read(&fil, (void *)line, 4, &br);
		 			temp1=line[0];
		 			line[0]=line[3];
  100874:	e55b2019 	ldrb	r2, [fp, #-25]	; 0xffffffe7
		 		 filesize= file_size(&fil);
		 		 printf("File: input_sin_conf1.txt opened successfully \r\n" );

		 		 myres = f_lseek(&fil, 0 );

		 		 for (jl=0;jl<200; jl++ ){
  100878:	e2844001 	add	r4, r4, #1
		 			 myres =  f_read(&fil, (void *)line, 4, &br);
		 			temp1=line[0];
		 			line[0]=line[3];
		 			line[3]=temp1;
  10087c:	e54b3019 	strb	r3, [fp, #-25]	; 0xffffffe7
		 		 myres = f_lseek(&fil, 0 );

		 		 for (jl=0;jl<200; jl++ ){
		 			 myres =  f_read(&fil, (void *)line, 4, &br);
		 			temp1=line[0];
		 			line[0]=line[3];
  100880:	e54b201c 	strb	r2, [fp, #-28]	; 0xffffffe4
		 			line[3]=temp1;
		 			temp1=line[1];
  100884:	e55b301b 	ldrb	r3, [fp, #-27]	; 0xffffffe5
		 			line[1]=line[2];
  100888:	e55b201a 	ldrb	r2, [fp, #-26]	; 0xffffffe6
		 			line[2]=temp1;
  10088c:	e54b301a 	strb	r3, [fp, #-26]	; 0xffffffe6
		 			memcpy ( &buff[jl], &line[0], 4 );
  100890:	e1a03006 	mov	r3, r6
		 			 myres =  f_read(&fil, (void *)line, 4, &br);
		 			temp1=line[0];
		 			line[0]=line[3];
		 			line[3]=temp1;
		 			temp1=line[1];
		 			line[1]=line[2];
  100894:	e54b201b 	strb	r2, [fp, #-27]	; 0xffffffe5
		 			line[2]=temp1;
		 			memcpy ( &buff[jl], &line[0], 4 );
  100898:	e51b001c 	ldr	r0, [fp, #-28]	; 0xffffffe4
  10089c:	e4860004 	str	r0, [r6], #4
		 			printf("Word %d: 0x%08x\n",jl, (unsigned int)buff[jl] );
  1008a0:	e59f0018 	ldr	r0, [pc, #24]	; 1008c0 <read_inputs+0xc4>
  1008a4:	e5932000 	ldr	r2, [r3]
  1008a8:	eb001042 	bl	1049b8 <printf>
		 		 filesize= file_size(&fil);
		 		 printf("File: input_sin_conf1.txt opened successfully \r\n" );

		 		 myres = f_lseek(&fil, 0 );

		 		 for (jl=0;jl<200; jl++ ){
  1008ac:	e35400c8 	cmp	r4, #200	; 0xc8
  1008b0:	1affffe8 	bne	100858 <read_inputs+0x5c>
  1008b4:	eaffffdc 	b	10082c <read_inputs+0x30>
  1008b8:	00116c0f 	.word	0x00116c0f
  1008bc:	00116c18 	.word	0x00116c18
  1008c0:	00116c48 	.word	0x00116c48

001008c4 <enable_caches>:
 #define UART_BAUD 9600
#endif

void
enable_caches()
{
  1008c4:	e12fff1e 	bx	lr

001008c8 <disable_caches>:
#endif
}

void
disable_caches()
{
  1008c8:	e92d4010 	push	{r4, lr}
    Xil_DCacheDisable();
  1008cc:	eb000a89 	bl	1032f8 <Xil_DCacheDisable>
    Xil_ICacheDisable();
}
  1008d0:	e8bd4010 	pop	{r4, lr}

void
disable_caches()
{
    Xil_DCacheDisable();
    Xil_ICacheDisable();
  1008d4:	ea000a8e 	b	103314 <Xil_ICacheDisable>

001008d8 <init_uart>:
}

void
init_uart()
{
  1008d8:	e12fff1e 	bx	lr

001008dc <init_platform>:
    /* Bootrom/BSP configures PS7/PSU UART to 115200 bps */
}

void
init_platform()
{
  1008dc:	e12fff1e 	bx	lr

001008e0 <cleanup_platform>:
}

void
cleanup_platform()
{
    disable_caches();
  1008e0:	eafffff8 	b	1008c8 <disable_caches>

001008e4 <DeviceDriverHandler>:
	}

	return Status;
}

void DeviceDriverHandler(void *CallbackRef){
  1008e4:	e92d4070 	push	{r4, r5, r6, lr}
	xil_printf("ISR:\r\n");

	xout_data = MY_CORDIC_mReadReg( XPAR_MY_CORDIC_0_S00_AXI_BASEADDR, MY_CORDIC_S00_AXI_SLV_REG1_OFFSET );
  1008e8:	e59f5080 	ldr	r5, [pc, #128]	; 100970 <DeviceDriverHandler+0x8c>
  1008ec:	e59f4080 	ldr	r4, [pc, #128]	; 100974 <DeviceDriverHandler+0x90>

	return Status;
}

void DeviceDriverHandler(void *CallbackRef){
	xil_printf("ISR:\r\n");
  1008f0:	e59f0080 	ldr	r0, [pc, #128]	; 100978 <DeviceDriverHandler+0x94>
  1008f4:	eb000be1 	bl	103880 <xil_printf>

	xout_data = MY_CORDIC_mReadReg( XPAR_MY_CORDIC_0_S00_AXI_BASEADDR, MY_CORDIC_S00_AXI_SLV_REG1_OFFSET );
  1008f8:	e1a00005 	mov	r0, r5
  1008fc:	eb000b3d 	bl	1035f8 <Xil_In32>
  100900:	e5840000 	str	r0, [r4]
	//xil_printf("	Reg1 Status: 0x%08x\n", data);
	xout_data= xout_data&(~0x1);
    MY_CORDIC_mWriteReg(XPAR_MY_CORDIC_0_S00_AXI_BASEADDR, MY_CORDIC_S00_AXI_SLV_REG1_OFFSET,xout_data   );
  100904:	e1a00005 	mov	r0, r5
void DeviceDriverHandler(void *CallbackRef){
	xil_printf("ISR:\r\n");

	xout_data = MY_CORDIC_mReadReg( XPAR_MY_CORDIC_0_S00_AXI_BASEADDR, MY_CORDIC_S00_AXI_SLV_REG1_OFFSET );
	//xil_printf("	Reg1 Status: 0x%08x\n", data);
	xout_data= xout_data&(~0x1);
  100908:	e5943000 	ldr	r3, [r4]
  10090c:	e3c33001 	bic	r3, r3, #1
  100910:	e5843000 	str	r3, [r4]
    MY_CORDIC_mWriteReg(XPAR_MY_CORDIC_0_S00_AXI_BASEADDR, MY_CORDIC_S00_AXI_SLV_REG1_OFFSET,xout_data   );
  100914:	e5941000 	ldr	r1, [r4]
  100918:	eb000b3c 	bl	103610 <Xil_Out32>

    xout_data = MY_CORDIC_mReadReg( XPAR_MY_CORDIC_0_S00_AXI_BASEADDR, MY_CORDIC_S00_AXI_SLV_REG1_OFFSET );
  10091c:	e1a00005 	mov	r0, r5
  100920:	eb000b34 	bl	1035f8 <Xil_In32>
  100924:	e5840000 	str	r0, [r4]
    xil_printf("ISR-Cleared- Reg1 Status: 0x%08x\n", xout_data);
  100928:	e59f004c 	ldr	r0, [pc, #76]	; 10097c <DeviceDriverHandler+0x98>
  10092c:	e5941000 	ldr	r1, [r4]
  100930:	eb000bd2 	bl	103880 <xil_printf>

    xout_data = MY_CORDIC_mReadReg( XPAR_MY_CORDIC_0_S00_AXI_BASEADDR, MY_CORDIC_S00_AXI_SLV_REG5_OFFSET );
  100934:	e59f0044 	ldr	r0, [pc, #68]	; 100980 <DeviceDriverHandler+0x9c>
  100938:	eb000b2e 	bl	1035f8 <Xil_In32>
  10093c:	e5840000 	str	r0, [r4]
    yout_data = MY_CORDIC_mReadReg( XPAR_MY_CORDIC_0_S00_AXI_BASEADDR, MY_CORDIC_S00_AXI_SLV_REG6_OFFSET );
  100940:	e59f003c 	ldr	r0, [pc, #60]	; 100984 <DeviceDriverHandler+0xa0>
  100944:	eb000b2b 	bl	1035f8 <Xil_In32>
  100948:	e59f3038 	ldr	r3, [pc, #56]	; 100988 <DeviceDriverHandler+0xa4>
  10094c:	e5830000 	str	r0, [r3]
    zout_data = MY_CORDIC_mReadReg( XPAR_MY_CORDIC_0_S00_AXI_BASEADDR, MY_CORDIC_S00_AXI_SLV_REG7_OFFSET );
  100950:	e59f0034 	ldr	r0, [pc, #52]	; 10098c <DeviceDriverHandler+0xa8>
  100954:	eb000b27 	bl	1035f8 <Xil_In32>
  100958:	e59f3030 	ldr	r3, [pc, #48]	; 100990 <DeviceDriverHandler+0xac>
	//InterruptProcessed = TRUE;
	Interrupt_flag =1;
  10095c:	e3a02001 	mov	r2, #1
    xout_data = MY_CORDIC_mReadReg( XPAR_MY_CORDIC_0_S00_AXI_BASEADDR, MY_CORDIC_S00_AXI_SLV_REG1_OFFSET );
    xil_printf("ISR-Cleared- Reg1 Status: 0x%08x\n", xout_data);

    xout_data = MY_CORDIC_mReadReg( XPAR_MY_CORDIC_0_S00_AXI_BASEADDR, MY_CORDIC_S00_AXI_SLV_REG5_OFFSET );
    yout_data = MY_CORDIC_mReadReg( XPAR_MY_CORDIC_0_S00_AXI_BASEADDR, MY_CORDIC_S00_AXI_SLV_REG6_OFFSET );
    zout_data = MY_CORDIC_mReadReg( XPAR_MY_CORDIC_0_S00_AXI_BASEADDR, MY_CORDIC_S00_AXI_SLV_REG7_OFFSET );
  100960:	e5830000 	str	r0, [r3]
	//InterruptProcessed = TRUE;
	Interrupt_flag =1;
  100964:	e59f3028 	ldr	r3, [pc, #40]	; 100994 <DeviceDriverHandler+0xb0>
  100968:	e5832000 	str	r2, [r3]
  10096c:	e8bd8070 	pop	{r4, r5, r6, pc}
  100970:	43c00004 	.word	0x43c00004
  100974:	00120ae8 	.word	0x00120ae8
  100978:	00116f20 	.word	0x00116f20
  10097c:	00116f27 	.word	0x00116f27
  100980:	43c00014 	.word	0x43c00014
  100984:	43c00018 	.word	0x43c00018
  100988:	00120ad8 	.word	0x00120ad8
  10098c:	43c0001c 	.word	0x43c0001c
  100990:	00120860 	.word	0x00120860
  100994:	0012003c 	.word	0x0012003c

00100998 <DcfgIntrHandler>:


 static void DcfgIntrHandler(void *CallBackRef, u32 IntrStatus)
{

	if (IntrStatus & XDCFG_IXR_DMA_DONE_MASK) {
  100998:	e3110a02 	tst	r1, #8192	; 0x2000
		DmaDone = TRUE;
  10099c:	159f303c 	ldrne	r3, [pc, #60]	; 1009e0 <DcfgIntrHandler+0x48>
  1009a0:	13a02001 	movne	r2, #1
  1009a4:	15832000 	strne	r2, [r3]
	}

	if (IntrStatus & XDCFG_IXR_D_P_DONE_MASK) {
  1009a8:	e3110a01 	tst	r1, #4096	; 0x1000
		//CntValue2 = XScuTimer_GetCounterValue(TimerInstancePtr);

		DmaPcapDone = TRUE;
  1009ac:	159f3030 	ldrne	r3, [pc, #48]	; 1009e4 <DcfgIntrHandler+0x4c>
  1009b0:	13a02001 	movne	r2, #1
  1009b4:	15832000 	strne	r2, [r3]
	}

	if (IntrStatus & XDCFG_IXR_PCFG_DONE_MASK) {
  1009b8:	e3110004 	tst	r1, #4
  1009bc:	012fff1e 	bxeq	lr

}


 static void DcfgIntrHandler(void *CallBackRef, u32 IntrStatus)
{
  1009c0:	e92d4010 	push	{r4, lr}
	if (IntrStatus & XDCFG_IXR_PCFG_DONE_MASK) {
		/*
		 * Disable PCFG DONE interrupt as this bit will remain set and will
		 * cause continuous interrupts.
		 */
		XDcfg_IntrDisable(&DcfgInstance, XDCFG_IXR_PCFG_DONE_MASK);
  1009c4:	e3a01004 	mov	r1, #4
  1009c8:	e59f0018 	ldr	r0, [pc, #24]	; 1009e8 <DcfgIntrHandler+0x50>
  1009cc:	eb000463 	bl	101b60 <XDcfg_IntrDisable>
		FpgaProgrammed = TRUE;
  1009d0:	e59f3014 	ldr	r3, [pc, #20]	; 1009ec <DcfgIntrHandler+0x54>
  1009d4:	e3a02001 	mov	r2, #1
  1009d8:	e5832000 	str	r2, [r3]
  1009dc:	e8bd8010 	pop	{r4, pc}
  1009e0:	00120048 	.word	0x00120048
  1009e4:	00120044 	.word	0x00120044
  1009e8:	00120ac0 	.word	0x00120ac0
  1009ec:	00120040 	.word	0x00120040

001009f0 <SetUpInterruptSystem>:
 *      Author: llamocca
 */

#include "support.h"

int SetUpInterruptSystem(XScuGic *XScuGicInstancePtr){
  1009f0:	e92d4010 	push	{r4, lr}

	Xil_ExceptionRegisterHandler(XIL_EXCEPTION_ID_INT,
  1009f4:	e1a02000 	mov	r2, r0
  1009f8:	e59f1018 	ldr	r1, [pc, #24]	; 100a18 <SetUpInterruptSystem+0x28>
  1009fc:	e3a00005 	mov	r0, #5
  100a00:	eb000ae9 	bl	1035ac <Xil_ExceptionRegisterHandler>
			(Xil_ExceptionHandler)XScuGic_InterruptHandler,
			XScuGicInstancePtr);


	Xil_ExceptionEnable();
  100a04:	e10f3000 	mrs	r3, CPSR
  100a08:	e3c33080 	bic	r3, r3, #128	; 0x80
  100a0c:	e129f003 	msr	CPSR_fc, r3
	return XST_SUCCESS;

}
  100a10:	e3a00000 	mov	r0, #0
  100a14:	e8bd8010 	pop	{r4, pc}
  100a18:	001028e0 	.word	0x001028e0

00100a1c <ReadBitstream>:
int ReadBitstream(char *file_name,  char *buffer, int verbose){
  100a1c:	e92d48f0 	push	{r4, r5, r6, r7, fp, lr}
  100a20:	e28db014 	add	fp, sp, #20
  100a24:	e24dd018 	sub	sp, sp, #24
  100a28:	e24dde26 	sub	sp, sp, #608	; 0x260
  100a2c:	e1a07000 	mov	r7, r0
  100a30:	e28d501f 	add	r5, sp, #31
  100a34:	e50b1028 	str	r1, [fp, #-40]	; 0xffffffd8
  100a38:	e3c5501f 	bic	r5, r5, #31
		// fre_sect = fre_clust * fs->csize;

		// printf("%10lu KiB Total Drive Capacity.\n%10lu KiB Available.\n",
		// tot_sect / 2, fre_sect / 2);
		 }
		 myres = f_open(&fil, file_name, FA_READ);
  100a3c:	e1a01000 	mov	r1, r0
  100a40:	e3a02001 	mov	r2, #1
  100a44:	e1a00005 	mov	r0, r5
  100a48:	eb004661 	bl	1123d4 <f_open>
		 	 if (myres == FR_OK) {
  100a4c:	e2504000 	subs	r4, r0, #0
  100a50:	1a00001b 	bne	100ac4 <ReadBitstream+0xa8>
		 		 filesize= file_size(&fil);
  100a54:	e595600c 	ldr	r6, [r5, #12]
		 		 printf("File: %s opened successfully \\r\n File Size: %d bytes \r\n", file_name,filesize );
  100a58:	e1a01007 	mov	r1, r7
  100a5c:	e59f007c 	ldr	r0, [pc, #124]	; 100ae0 <ReadBitstream+0xc4>
  100a60:	e1a02006 	mov	r2, r6

		 		 myres = f_lseek(&fil, 0 );

		 		 for (jl=0;jl<(filesize/8); jl++ ){
  100a64:	e1a061a6 	lsr	r6, r6, #3
		// tot_sect / 2, fre_sect / 2);
		 }
		 myres = f_open(&fil, file_name, FA_READ);
		 	 if (myres == FR_OK) {
		 		 filesize= file_size(&fil);
		 		 printf("File: %s opened successfully \\r\n File Size: %d bytes \r\n", file_name,filesize );
  100a68:	eb000fd2 	bl	1049b8 <printf>

		 		 myres = f_lseek(&fil, 0 );
  100a6c:	e1a01004 	mov	r1, r4
  100a70:	e1a00005 	mov	r0, r5
  100a74:	eb0048a4 	bl	112d0c <f_lseek>

		 		 for (jl=0;jl<(filesize/8); jl++ ){
  100a78:	e1540006 	cmp	r4, r6
  100a7c:	0a00000c 	beq	100ab4 <ReadBitstream+0x98>
		 			 myres =  f_read(&fil, (void *)line, 8, &br);
  100a80:	e24b3024 	sub	r3, fp, #36	; 0x24
  100a84:	e3a02008 	mov	r2, #8
  100a88:	e24b1020 	sub	r1, fp, #32
  100a8c:	e1a00005 	mov	r0, r5
  100a90:	eb0046f6 	bl	112670 <f_read>
		 			 memcpy ( &buffer[jl*8], &line[0], 8 );
  100a94:	e51b2028 	ldr	r2, [fp, #-40]	; 0xffffffd8
  100a98:	e24b3020 	sub	r3, fp, #32
  100a9c:	e8b30003 	ldm	r3!, {r0, r1}
  100aa0:	e082c184 	add	ip, r2, r4, lsl #3
  100aa4:	e7820184 	str	r0, [r2, r4, lsl #3]
		 		 filesize= file_size(&fil);
		 		 printf("File: %s opened successfully \\r\n File Size: %d bytes \r\n", file_name,filesize );

		 		 myres = f_lseek(&fil, 0 );

		 		 for (jl=0;jl<(filesize/8); jl++ ){
  100aa8:	e2844001 	add	r4, r4, #1
		 			 myres =  f_read(&fil, (void *)line, 8, &br);
		 			 memcpy ( &buffer[jl*8], &line[0], 8 );
  100aac:	e58c1004 	str	r1, [ip, #4]
  100ab0:	eafffff0 	b	100a78 <ReadBitstream+0x5c>

		 		}

	  			 xil_printf("Bitstream mapped in mem address: 0x%08x\r\n", &buffer);
  100ab4:	e24b1028 	sub	r1, fp, #40	; 0x28
  100ab8:	e59f0024 	ldr	r0, [pc, #36]	; 100ae4 <ReadBitstream+0xc8>
  100abc:	eb000b6f 	bl	103880 <xil_printf>
  100ac0:	ea000001 	b	100acc <ReadBitstream+0xb0>


		 	 } else {
		 		 printf("Fail to open file");
  100ac4:	e59f001c 	ldr	r0, [pc, #28]	; 100ae8 <ReadBitstream+0xcc>
  100ac8:	eb000fba 	bl	1049b8 <printf>

	 } else {
		 printf("Fail to mount media");
	 }

	 myres = f_close(&fil);
  100acc:	e1a00005 	mov	r0, r5
  100ad0:	eb004883 	bl	112ce4 <f_close>


return XST_SUCCESS;
}
  100ad4:	e3a00000 	mov	r0, #0
  100ad8:	e24bd014 	sub	sp, fp, #20
  100adc:	e8bd88f0 	pop	{r4, r5, r6, r7, fp, pc}
  100ae0:	00116f49 	.word	0x00116f49
  100ae4:	00116f81 	.word	0x00116f81
  100ae8:	00116fab 	.word	0x00116fab

00100aec <ScuGic_initialization>:

int ScuGic_initialization(u16 DeviceID){
  100aec:	e92d4070 	push	{r4, r5, r6, lr}
	int Status;

	GicConfig = XScuGic_LookupConfig(DeviceID);
  100af0:	eb0007cd 	bl	102a2c <XScuGic_LookupConfig>
	if (NULL== GicConfig){
  100af4:	e3500000 	cmp	r0, #0
}

int ScuGic_initialization(u16 DeviceID){
	int Status;

	GicConfig = XScuGic_LookupConfig(DeviceID);
  100af8:	e1a01000 	mov	r1, r0
  100afc:	e59f309c 	ldr	r3, [pc, #156]	; 100ba0 <ScuGic_initialization+0xb4>
  100b00:	e5830000 	str	r0, [r3]
	if (NULL== GicConfig){
  100b04:	1a000001 	bne	100b10 <ScuGic_initialization+0x24>
		return XST_FAILURE;
  100b08:	e3a00001 	mov	r0, #1
  100b0c:	e8bd8070 	pop	{r4, r5, r6, pc}
	}

	Status = XScuGic_CfgInitialize(&InterruptController, GicConfig,
  100b10:	e59f408c 	ldr	r4, [pc, #140]	; 100ba4 <ScuGic_initialization+0xb8>
  100b14:	e5902004 	ldr	r2, [r0, #4]
  100b18:	e1a00004 	mov	r0, r4
  100b1c:	eb000537 	bl	102000 <XScuGic_CfgInitialize>
				GicConfig->CpuBaseAddress);
	if (Status != XST_SUCCESS){
  100b20:	e3500000 	cmp	r0, #0
  100b24:	1afffff7 	bne	100b08 <ScuGic_initialization+0x1c>
		return XST_FAILURE;
	}

	Status = XScuGic_SelfTest(&InterruptController);
  100b28:	e1a00004 	mov	r0, r4
  100b2c:	eb000790 	bl	102974 <XScuGic_SelfTest>
	if (Status != XST_SUCCESS){
  100b30:	e3500000 	cmp	r0, #0
  100b34:	1afffff3 	bne	100b08 <ScuGic_initialization+0x1c>
		return XST_FAILURE;
	}
	XScuGic_CPUWriteReg(&InterruptController, XSCUGIC_EOI_OFFSET, INTC_DEVICE_INT_ID);
  100b38:	e5943000 	ldr	r3, [r4]
  100b3c:	e3a0103d 	mov	r1, #61	; 0x3d
  100b40:	e5930004 	ldr	r0, [r3, #4]
  100b44:	e2800010 	add	r0, r0, #16
  100b48:	eb000ab0 	bl	103610 <Xil_Out32>

	Status = SetUpInterruptSystem(&InterruptController);
  100b4c:	e1a00004 	mov	r0, r4
  100b50:	ebffffa6 	bl	1009f0 <SetUpInterruptSystem>
	if (Status != XST_SUCCESS){
  100b54:	e3500000 	cmp	r0, #0
  100b58:	1affffea 	bne	100b08 <ScuGic_initialization+0x1c>
		return XST_FAILURE;
	}
	Status = XScuGic_Connect(&InterruptController, INTC_DEVICE_INT_ID,
  100b5c:	e1a03004 	mov	r3, r4
  100b60:	e59f2040 	ldr	r2, [pc, #64]	; 100ba8 <ScuGic_initialization+0xbc>
  100b64:	e3a0103d 	mov	r1, #61	; 0x3d
  100b68:	e1a00004 	mov	r0, r4
  100b6c:	eb000591 	bl	1021b8 <XScuGic_Connect>
			(Xil_ExceptionHandler)DeviceDriverHandler,
			(void *)&InterruptController  );

	if (Status != XST_SUCCESS){
  100b70:	e2505000 	subs	r5, r0, #0
  100b74:	1affffe3 	bne	100b08 <ScuGic_initialization+0x1c>
		return XST_FAILURE;
	}
	Status = XScuGic_Connect(&InterruptController, DCFG_INTR_ID,
  100b78:	e1a03004 	mov	r3, r4
  100b7c:	e59f2028 	ldr	r2, [pc, #40]	; 100bac <ScuGic_initialization+0xc0>
  100b80:	e3a01028 	mov	r1, #40	; 0x28
  100b84:	e1a00004 	mov	r0, r4
  100b88:	eb00058a 	bl	1021b8 <XScuGic_Connect>
			(Xil_ExceptionHandler)DcfgIntrHandler,
			(void *)&InterruptController  );


	XScuGic_Enable(&InterruptController, INTC_DEVICE_INT_ID);
  100b8c:	e1a00004 	mov	r0, r4
  100b90:	e3a0103d 	mov	r1, #61	; 0x3d
  100b94:	eb0005f3 	bl	102368 <XScuGic_Enable>


	return XST_SUCCESS;
  100b98:	e1a00005 	mov	r0, r5

}
  100b9c:	e8bd8070 	pop	{r4, r5, r6, pc}
  100ba0:	0012004c 	.word	0x0012004c
  100ba4:	00120adc 	.word	0x00120adc
  100ba8:	001008e4 	.word	0x001008e4
  100bac:	00100998 	.word	0x00100998

00100bb0 <XDcfg_Setup_Transfer>:
		//xil_printf("Partial programmed \r\n");
	}
}
int XDcfg_Setup_Transfer(XScuGic *IntcInstPtr, XDcfg * DcfgInstPtr,
				u16 DeviceId, u16 DcfgIntrId, u32 *bitstream)
{
  100bb0:	e92d43f7 	push	{r0, r1, r2, r4, r5, r6, r7, r8, r9, lr}
  100bb4:	e1a05002 	mov	r5, r2
  100bb8:	e1a04001 	mov	r4, r1
  100bbc:	e1a08000 	mov	r8, r0
  100bc0:	e1a09003 	mov	r9, r3
	u32 StatusReg;
	u32 PartialCfg = 0;

	XDcfg_Config *ConfigPtr;

	xil_printf("XDcfg_Setup_Transfer par_bitstream_1 buffer 0x%08x \r\n",   (u32 *)bitstream);
  100bc4:	e59d1028 	ldr	r1, [sp, #40]	; 0x28
  100bc8:	e59f01b8 	ldr	r0, [pc, #440]	; 100d88 <XDcfg_Setup_Transfer+0x1d8>
  100bcc:	eb000b2b 	bl	103880 <xil_printf>


	  //
	 // Initialize the Device Configuration Interface driver.
	 //
	ConfigPtr = XDcfg_LookupConfig(DeviceId);
  100bd0:	e1a00005 	mov	r0, r5
  100bd4:	eb0004ee 	bl	101f94 <XDcfg_LookupConfig>
  100bd8:	e1a05000 	mov	r5, r0

	  //
	 // This is where the virtual address would be used, this example
	 // uses physical address.
	 //
	xil_printf("1 \r\n");
  100bdc:	e59f01a8 	ldr	r0, [pc, #424]	; 100d8c <XDcfg_Setup_Transfer+0x1dc>
  100be0:	eb000b26 	bl	103880 <xil_printf>
	Status = XDcfg_CfgInitialize(DcfgInstPtr, ConfigPtr,
  100be4:	e5952004 	ldr	r2, [r5, #4]
  100be8:	e1a01005 	mov	r1, r5
  100bec:	e1a00004 	mov	r0, r4
  100bf0:	eb0000a5 	bl	100e8c <XDcfg_CfgInitialize>
					ConfigPtr->BaseAddr);
	if (Status != XST_SUCCESS) {
  100bf4:	e3500000 	cmp	r0, #0
  100bf8:	0a000001 	beq	100c04 <XDcfg_Setup_Transfer+0x54>
		return XST_FAILURE;
  100bfc:	e3a00001 	mov	r0, #1
  100c00:	ea00005e 	b	100d80 <XDcfg_Setup_Transfer+0x1d0>
	}
	xil_printf("2 \r\n");
  100c04:	e59f0184 	ldr	r0, [pc, #388]	; 100d90 <XDcfg_Setup_Transfer+0x1e0>
  100c08:	eb000b1c 	bl	103880 <xil_printf>
	Status = XDcfg_SelfTest(DcfgInstPtr);
  100c0c:	e1a00004 	mov	r0, r4
  100c10:	eb0004b3 	bl	101ee4 <XDcfg_SelfTest>
	if (Status != XST_SUCCESS) {
  100c14:	e2505000 	subs	r5, r0, #0
  100c18:	1afffff7 	bne	100bfc <XDcfg_Setup_Transfer+0x4c>
	 //
    //Status = SetupInterruptSystem(IntcInstPtr, DcfgInstPtr, DcfgIntrId);
	//if (Status != XST_SUCCESS) {
	//	return XST_FAILURE;
	//}
	xil_printf("3 \r\n");
  100c1c:	e59f0170 	ldr	r0, [pc, #368]	; 100d94 <XDcfg_Setup_Transfer+0x1e4>
  100c20:	eb000b16 	bl	103880 <xil_printf>
	XScuGic_Enable(&InterruptController, DCFG_INTR_ID);
  100c24:	e3a01028 	mov	r1, #40	; 0x28
  100c28:	e59f0168 	ldr	r0, [pc, #360]	; 100d98 <XDcfg_Setup_Transfer+0x1e8>
  100c2c:	eb0005cd 	bl	102368 <XScuGic_Enable>

	//XDcfg_SetHandler(DcfgInstPtr, (void *)DcfgIntrHandler, DcfgInstPtr);

	DmaDone = FALSE;
  100c30:	e59f7164 	ldr	r7, [pc, #356]	; 100d9c <XDcfg_Setup_Transfer+0x1ec>
	DmaPcapDone = FALSE;
	FpgaProgrammed = FALSE;
  100c34:	e59f3164 	ldr	r3, [pc, #356]	; 100da0 <XDcfg_Setup_Transfer+0x1f0>
	XScuGic_Enable(&InterruptController, DCFG_INTR_ID);

	//XDcfg_SetHandler(DcfgInstPtr, (void *)DcfgIntrHandler, DcfgInstPtr);

	DmaDone = FALSE;
	DmaPcapDone = FALSE;
  100c38:	e59f6164 	ldr	r6, [pc, #356]	; 100da4 <XDcfg_Setup_Transfer+0x1f4>
	FpgaProgrammed = FALSE;

	//
	 // Check first time configuration or partial reconfiguration
	 //
	xil_printf("4 \r\n");
  100c3c:	e59f0164 	ldr	r0, [pc, #356]	; 100da8 <XDcfg_Setup_Transfer+0x1f8>
	xil_printf("3 \r\n");
	XScuGic_Enable(&InterruptController, DCFG_INTR_ID);

	//XDcfg_SetHandler(DcfgInstPtr, (void *)DcfgIntrHandler, DcfgInstPtr);

	DmaDone = FALSE;
  100c40:	e5875000 	str	r5, [r7]
	DmaPcapDone = FALSE;
  100c44:	e5865000 	str	r5, [r6]
	FpgaProgrammed = FALSE;
  100c48:	e5835000 	str	r5, [r3]

	//
	 // Check first time configuration or partial reconfiguration
	 //
	xil_printf("4 \r\n");
  100c4c:	eb000b0b 	bl	103880 <xil_printf>
	IntrStsReg = XDcfg_IntrGetStatus(DcfgInstPtr);
  100c50:	e1a00004 	mov	r0, r4
  100c54:	eb000410 	bl	101c9c <XDcfg_IntrGetStatus>
	if (IntrStsReg & XDCFG_IXR_DMA_DONE_MASK) {
		PartialCfg = 1;
	}
	PartialCfg = 1;
	if (PartialCfg==1){
		xil_printf("IS PARTIAL \r\n");
  100c58:	e59f014c 	ldr	r0, [pc, #332]	; 100dac <XDcfg_Setup_Transfer+0x1fc>
  100c5c:	eb000b07 	bl	103880 <xil_printf>
		xil_printf("NOT Partial \r\n");
	}
	//
	 // Enable the pcap clock.
	 //
	xil_printf("5 \r\n");
  100c60:	e59f0148 	ldr	r0, [pc, #328]	; 100db0 <XDcfg_Setup_Transfer+0x200>
  100c64:	eb000b05 	bl	103880 <xil_printf>
	StatusReg = Xil_In32(SLCR_PCAP_CLK_CTRL);
  100c68:	e59f0144 	ldr	r0, [pc, #324]	; 100db4 <XDcfg_Setup_Transfer+0x204>
  100c6c:	eb000a61 	bl	1035f8 <Xil_In32>
	if (!(StatusReg & SLCR_PCAP_CLK_CTRL_EN_MASK)) {
  100c70:	e3100001 	tst	r0, #1
	}
	//
	 // Enable the pcap clock.
	 //
	xil_printf("5 \r\n");
	StatusReg = Xil_In32(SLCR_PCAP_CLK_CTRL);
  100c74:	e1a05000 	mov	r5, r0
	if (!(StatusReg & SLCR_PCAP_CLK_CTRL_EN_MASK)) {
  100c78:	1a000008 	bne	100ca0 <XDcfg_Setup_Transfer+0xf0>
		Xil_Out32(SLCR_UNLOCK, SLCR_UNLOCK_VAL);
  100c7c:	e30d1f0d 	movw	r1, #57101	; 0xdf0d
  100c80:	e59f0130 	ldr	r0, [pc, #304]	; 100db8 <XDcfg_Setup_Transfer+0x208>
  100c84:	eb000a61 	bl	103610 <Xil_Out32>
		Xil_Out32(SLCR_PCAP_CLK_CTRL,
  100c88:	e3851001 	orr	r1, r5, #1
  100c8c:	e59f0120 	ldr	r0, [pc, #288]	; 100db4 <XDcfg_Setup_Transfer+0x204>
  100c90:	eb000a5e 	bl	103610 <Xil_Out32>
				(StatusReg | SLCR_PCAP_CLK_CTRL_EN_MASK));
		Xil_Out32(SLCR_UNLOCK, SLCR_LOCK_VAL);
  100c94:	e307167b 	movw	r1, #30331	; 0x767b
  100c98:	e59f0118 	ldr	r0, [pc, #280]	; 100db8 <XDcfg_Setup_Transfer+0x208>
  100c9c:	eb000a5b 	bl	103610 <Xil_Out32>
	}

	//
	 // Disable the level-shifters from PS to PL.
	 //
	xil_printf("6 \r\n");
  100ca0:	e59f0114 	ldr	r0, [pc, #276]	; 100dbc <XDcfg_Setup_Transfer+0x20c>
  100ca4:	eb000af5 	bl	103880 <xil_printf>
	}

	//
	 // Select PCAP interface for partial reconfiguration
	 //
	xil_printf("7 \r\n");
  100ca8:	e59f0110 	ldr	r0, [pc, #272]	; 100dc0 <XDcfg_Setup_Transfer+0x210>
  100cac:	eb000af3 	bl	103880 <xil_printf>
	if (PartialCfg) {
		XDcfg_EnablePCAP(DcfgInstPtr);
  100cb0:	e1a00004 	mov	r0, r4
  100cb4:	eb0000a4 	bl	100f4c <XDcfg_EnablePCAP>
		XDcfg_SetControlRegister(DcfgInstPtr, XDCFG_CTRL_PCAP_PR_MASK);
  100cb8:	e3a01302 	mov	r1, #134217728	; 0x8000000
  100cbc:	e1a00004 	mov	r0, r4
  100cc0:	eb0000e5 	bl	10105c <XDcfg_SetControlRegister>
	}

	//
	 //Clear the interrupt status bits
	//
	xil_printf("8 \r\n");
  100cc4:	e59f00f8 	ldr	r0, [pc, #248]	; 100dc4 <XDcfg_Setup_Transfer+0x214>
  100cc8:	eb000aec 	bl	103880 <xil_printf>
	XDcfg_IntrClear(DcfgInstPtr, (XDCFG_IXR_PCFG_DONE_MASK |
  100ccc:	e3031004 	movw	r1, #12292	; 0x3004
  100cd0:	e1a00004 	mov	r0, r4
  100cd4:	eb000411 	bl	101d20 <XDcfg_IntrClear>
					XDCFG_IXR_D_P_DONE_MASK |
					XDCFG_IXR_DMA_DONE_MASK));

	// Check if DMA command queue is full */
	StatusReg = XDcfg_ReadReg(DcfgInstPtr->Config.BaseAddr,
  100cd8:	e5940004 	ldr	r0, [r4, #4]
  100cdc:	e2800014 	add	r0, r0, #20
  100ce0:	eb000a44 	bl	1035f8 <Xil_In32>
  100ce4:	e1a05000 	mov	r5, r0
				XDCFG_STATUS_OFFSET);
	xil_printf("9 \r\n");
  100ce8:	e59f00d8 	ldr	r0, [pc, #216]	; 100dc8 <XDcfg_Setup_Transfer+0x218>
  100cec:	eb000ae3 	bl	103880 <xil_printf>
	if ((StatusReg & XDCFG_STATUS_DMA_CMD_Q_F_MASK) ==
  100cf0:	e3550000 	cmp	r5, #0
  100cf4:	baffffc0 	blt	100bfc <XDcfg_Setup_Transfer+0x4c>
			XDCFG_STATUS_DMA_CMD_Q_F_MASK) {
		return XST_FAILURE;
	}
	xil_printf("10 \r\n");
  100cf8:	e59f00cc 	ldr	r0, [pc, #204]	; 100dcc <XDcfg_Setup_Transfer+0x21c>
  100cfc:	eb000adf 	bl	103880 <xil_printf>
	///
	// Enable the DMA done, DMA_PCAP Done and PCFG Done interrupts.
	 //
	XDcfg_IntrEnable(DcfgInstPtr, (XDCFG_IXR_DMA_DONE_MASK |
  100d00:	e3031004 	movw	r1, #12292	; 0x3004
  100d04:	e1a00004 	mov	r0, r4
  100d08:	eb000368 	bl	101ab0 <XDcfg_IntrEnable>
					XDCFG_IXR_PCFG_DONE_MASK));




	xil_printf("11 \r\n");
  100d0c:	e59f00bc 	ldr	r0, [pc, #188]	; 100dd0 <XDcfg_Setup_Transfer+0x220>
  100d10:	eb000ada 	bl	103880 <xil_printf>

	//
	//Download bitstream in non secure mode
	 ///
	XDcfg_Transfer(DcfgInstPtr, (u32 *)(bitstream),
  100d14:	e3a02000 	mov	r2, #0
  100d18:	e3a03001 	mov	r3, #1
  100d1c:	e88d000c 	stm	sp, {r2, r3}
  100d20:	e1a00004 	mov	r0, r4
  100d24:	e3e03000 	mvn	r3, #0
  100d28:	e59f20a4 	ldr	r2, [pc, #164]	; 100dd4 <XDcfg_Setup_Transfer+0x224>
  100d2c:	e59d1028 	ldr	r1, [sp, #40]	; 0x28
  100d30:	eb0002be 	bl	101830 <XDcfg_Transfer>
			BIT_STREAM_SIZE_WORDS,
			(u8 *)XDCFG_DMA_INVALID_ADDRESS,
			0, XDCFG_NON_SECURE_PCAP_WRITE);

	while (!DmaDone);
  100d34:	e5973000 	ldr	r3, [r7]
  100d38:	e3530000 	cmp	r3, #0
  100d3c:	0afffffc 	beq	100d34 <XDcfg_Setup_Transfer+0x184>
	//xil_printf("12 \r\n");
	if (PartialCfg) {
		while (!DmaPcapDone);
  100d40:	e5963000 	ldr	r3, [r6]
  100d44:	e3530000 	cmp	r3, #0
  100d48:	0afffffc 	beq	100d40 <XDcfg_Setup_Transfer+0x190>
		Xil_Out32(SLCR_LVL_SHFTR_EN, 0xF);
		Xil_Out32(SLCR_LOCK, SLCR_LOCK_VAL);
	}

	Status = XST_SUCCESS;
	xil_printf("14 \r\n");
  100d4c:	e59f0084 	ldr	r0, [pc, #132]	; 100dd8 <XDcfg_Setup_Transfer+0x228>
  100d50:	eb000aca 	bl	103880 <xil_printf>
	XDcfg_IntrDisable(DcfgInstPtr, (XDCFG_IXR_DMA_DONE_MASK |
  100d54:	e3031004 	movw	r1, #12292	; 0x3004
  100d58:	e1a00004 	mov	r0, r4
  100d5c:	eb00037f 	bl	101b60 <XDcfg_IntrDisable>
					XDCFG_IXR_D_P_DONE_MASK |
					XDCFG_IXR_PCFG_DONE_MASK));

	xil_printf("15 \r\n");
  100d60:	e59f0074 	ldr	r0, [pc, #116]	; 100ddc <XDcfg_Setup_Transfer+0x22c>
  100d64:	eb000ac5 	bl	103880 <xil_printf>
	XScuGic_Disable(IntcInstPtr, DcfgIntrId);
  100d68:	e1a01009 	mov	r1, r9
  100d6c:	e1a00008 	mov	r0, r8
  100d70:	eb0005ab 	bl	102424 <XScuGic_Disable>
	xil_printf("16 \r\n");
  100d74:	e59f0064 	ldr	r0, [pc, #100]	; 100de0 <XDcfg_Setup_Transfer+0x230>
  100d78:	eb000ac0 	bl	103880 <xil_printf>
	//XScuGic_Disconnect(IntcInstPtr, DcfgIntrId);

	return Status;
  100d7c:	e3a00000 	mov	r0, #0
}
  100d80:	e28dd00c 	add	sp, sp, #12
  100d84:	e8bd83f0 	pop	{r4, r5, r6, r7, r8, r9, pc}
  100d88:	00116fd1 	.word	0x00116fd1
  100d8c:	00117035 	.word	0x00117035
  100d90:	00117007 	.word	0x00117007
  100d94:	0011700c 	.word	0x0011700c
  100d98:	00120adc 	.word	0x00120adc
  100d9c:	00120048 	.word	0x00120048
  100da0:	00120040 	.word	0x00120040
  100da4:	00120044 	.word	0x00120044
  100da8:	0011703b 	.word	0x0011703b
  100dac:	00117011 	.word	0x00117011
  100db0:	00117041 	.word	0x00117041
  100db4:	f8000168 	.word	0xf8000168
  100db8:	f8000008 	.word	0xf8000008
  100dbc:	00117047 	.word	0x00117047
  100dc0:	0011701f 	.word	0x0011701f
  100dc4:	00117024 	.word	0x00117024
  100dc8:	00117029 	.word	0x00117029
  100dcc:	0011702e 	.word	0x0011702e
  100dd0:	00117034 	.word	0x00117034
  100dd4:	00010b0c 	.word	0x00010b0c
  100dd8:	0011703a 	.word	0x0011703a
  100ddc:	00117040 	.word	0x00117040
  100de0:	00117046 	.word	0x00117046

00100de4 <Do_DPR2>:


int Do_DPR2(int config, char *bitstream_1, char *bitstream_2, char *bitstream_3){
  100de4:	e92d40f7 	push	{r0, r1, r2, r4, r5, r6, r7, lr}
  100de8:	e1a06002 	mov	r6, r2
  100dec:	e1a04000 	mov	r4, r0
	int Status=0;


	xil_printf("Do_DPR par_bitstream_1 buffer 0x%08x \r\n",   (u32 *)bitstream_1);
  100df0:	e59f0078 	ldr	r0, [pc, #120]	; 100e70 <Do_DPR2+0x8c>

	return Status;
}


int Do_DPR2(int config, char *bitstream_1, char *bitstream_2, char *bitstream_3){
  100df4:	e1a05003 	mov	r5, r3
  100df8:	e1a07001 	mov	r7, r1
	int Status=0;


	xil_printf("Do_DPR par_bitstream_1 buffer 0x%08x \r\n",   (u32 *)bitstream_1);
  100dfc:	eb000a9f 	bl	103880 <xil_printf>
	xil_printf("Do_DPR par_bitstream_2 buffer 0x%08x \r\n",   (u32 *)bitstream_2);
  100e00:	e1a01006 	mov	r1, r6
  100e04:	e59f0068 	ldr	r0, [pc, #104]	; 100e74 <Do_DPR2+0x90>
  100e08:	eb000a9c 	bl	103880 <xil_printf>
	xil_printf("Do_DPR par_bitstream_3 buffer 0x%08x \r\n",   (u32 *)bitstream_3);
  100e0c:	e1a01005 	mov	r1, r5
  100e10:	e59f0060 	ldr	r0, [pc, #96]	; 100e78 <Do_DPR2+0x94>
  100e14:	eb000a99 	bl	103880 <xil_printf>

	if (config==1){
  100e18:	e3540001 	cmp	r4, #1
	  Status =  XDcfg_Setup_Transfer(&InterruptController, &DcfgInstance,DCFG_DEVICE_ID, DCFG_INTR_ID,   (u32 *) bitstream_1);
  100e1c:	058d7000 	streq	r7, [sp]

	xil_printf("Do_DPR par_bitstream_1 buffer 0x%08x \r\n",   (u32 *)bitstream_1);
	xil_printf("Do_DPR par_bitstream_2 buffer 0x%08x \r\n",   (u32 *)bitstream_2);
	xil_printf("Do_DPR par_bitstream_3 buffer 0x%08x \r\n",   (u32 *)bitstream_3);

	if (config==1){
  100e20:	0a000002 	beq	100e30 <Do_DPR2+0x4c>
	  Status =  XDcfg_Setup_Transfer(&InterruptController, &DcfgInstance,DCFG_DEVICE_ID, DCFG_INTR_ID,   (u32 *) bitstream_1);
	  current_partial=1;
	} else if (config==2){
  100e24:	e3540002 	cmp	r4, #2
  100e28:	1a000008 	bne	100e50 <Do_DPR2+0x6c>
     Status =  XDcfg_Setup_Transfer(&InterruptController, &DcfgInstance,DCFG_DEVICE_ID, DCFG_INTR_ID,   (u32 *)bitstream_2);
  100e2c:	e58d6000 	str	r6, [sp]
  100e30:	e3a03028 	mov	r3, #40	; 0x28
  100e34:	e3a02000 	mov	r2, #0
  100e38:	e59f103c 	ldr	r1, [pc, #60]	; 100e7c <Do_DPR2+0x98>
  100e3c:	e59f003c 	ldr	r0, [pc, #60]	; 100e80 <Do_DPR2+0x9c>
  100e40:	ebffff5a 	bl	100bb0 <XDcfg_Setup_Transfer>
     current_partial=2;
  100e44:	e59f3038 	ldr	r3, [pc, #56]	; 100e84 <Do_DPR2+0xa0>
  100e48:	e5834000 	str	r4, [r3]
  100e4c:	ea000005 	b	100e68 <Do_DPR2+0x84>
	} else if (config==3) {
  100e50:	e3540003 	cmp	r4, #3
     Status =  XDcfg_Setup_Transfer(&InterruptController, &DcfgInstance,DCFG_DEVICE_ID, DCFG_INTR_ID,   (u32 *) bitstream_3);
  100e54:	058d5000 	streq	r5, [sp]
	  Status =  XDcfg_Setup_Transfer(&InterruptController, &DcfgInstance,DCFG_DEVICE_ID, DCFG_INTR_ID,   (u32 *) bitstream_1);
	  current_partial=1;
	} else if (config==2){
     Status =  XDcfg_Setup_Transfer(&InterruptController, &DcfgInstance,DCFG_DEVICE_ID, DCFG_INTR_ID,   (u32 *)bitstream_2);
     current_partial=2;
	} else if (config==3) {
  100e58:	0afffff4 	beq	100e30 <Do_DPR2+0x4c>
     Status =  XDcfg_Setup_Transfer(&InterruptController, &DcfgInstance,DCFG_DEVICE_ID, DCFG_INTR_ID,   (u32 *) bitstream_3);
     current_partial=3;
	} else {
	xil_printf("Not conf available\r\n");
  100e5c:	e59f0024 	ldr	r0, [pc, #36]	; 100e88 <Do_DPR2+0xa4>
  100e60:	eb000a86 	bl	103880 <xil_printf>
	return Status;
}


int Do_DPR2(int config, char *bitstream_1, char *bitstream_2, char *bitstream_3){
	int Status=0;
  100e64:	e3a00000 	mov	r0, #0
	} else {
	xil_printf("Not conf available\r\n");
	}

	return Status;
}
  100e68:	e28dd00c 	add	sp, sp, #12
  100e6c:	e8bd80f0 	pop	{r4, r5, r6, r7, pc}
  100e70:	0011704c 	.word	0x0011704c
  100e74:	00117074 	.word	0x00117074
  100e78:	0011709c 	.word	0x0011709c
  100e7c:	00120ac0 	.word	0x00120ac0
  100e80:	00120adc 	.word	0x00120adc
  100e84:	00117318 	.word	0x00117318
  100e88:	001170c4 	.word	0x001170c4

00100e8c <XDcfg_CfgInitialize>:
  100e8c:	e92d41f0 	push	{r4, r5, r6, r7, r8, lr}
  100e90:	e2506000 	subs	r6, r0, #0
  100e94:	0a00001a 	beq	100f04 <XDcfg_CfgInitialize+0x78>
  100e98:	e3005aec 	movw	r5, #2796	; 0xaec
  100e9c:	e3510000 	cmp	r1, #0
  100ea0:	e3405012 	movt	r5, #18
  100ea4:	e3a04000 	mov	r4, #0
  100ea8:	e1a07001 	mov	r7, r1
  100eac:	e5854000 	str	r4, [r5]
  100eb0:	0a00001d 	beq	100f2c <XDcfg_CfgInitialize+0xa0>
  100eb4:	e596100c 	ldr	r1, [r6, #12]
  100eb8:	e3023222 	movw	r3, #8738	; 0x2222
  100ebc:	e3423222 	movt	r3, #8738	; 0x2222
  100ec0:	e1510003 	cmp	r1, r3
  100ec4:	1a000001 	bne	100ed0 <XDcfg_CfgInitialize+0x44>
  100ec8:	e3a00005 	mov	r0, #5
  100ecc:	e8bd81f0 	pop	{r4, r5, r6, r7, r8, pc}
  100ed0:	e1d730b0 	ldrh	r3, [r7]
  100ed4:	e30d1f0d 	movw	r1, #57101	; 0xdf0d
  100ed8:	e2820034 	add	r0, r2, #52	; 0x34
  100edc:	e5862004 	str	r2, [r6, #4]
  100ee0:	e586400c 	str	r4, [r6, #12]
  100ee4:	e347157b 	movt	r1, #30075	; 0x757b
  100ee8:	e1c630b0 	strh	r3, [r6]
  100eec:	eb0009c7 	bl	103610 <Xil_Out32>
  100ef0:	e3013111 	movw	r3, #4369	; 0x1111
  100ef4:	e1a00004 	mov	r0, r4
  100ef8:	e7df3813 	bfi	r3, r3, #16, #16
  100efc:	e5863008 	str	r3, [r6, #8]
  100f00:	e8bd81f0 	pop	{r4, r5, r6, r7, r8, pc}
  100f04:	e30700dc 	movw	r0, #28892	; 0x70dc
  100f08:	e3a01089 	mov	r1, #137	; 0x89
  100f0c:	e3400011 	movt	r0, #17
  100f10:	eb000712 	bl	102b60 <Xil_Assert>
  100f14:	e3003aec 	movw	r3, #2796	; 0xaec
  100f18:	e3a02001 	mov	r2, #1
  100f1c:	e3403012 	movt	r3, #18
  100f20:	e1a00006 	mov	r0, r6
  100f24:	e5832000 	str	r2, [r3]
  100f28:	e8bd81f0 	pop	{r4, r5, r6, r7, r8, pc}
  100f2c:	e30700dc 	movw	r0, #28892	; 0x70dc
  100f30:	e3a0108a 	mov	r1, #138	; 0x8a
  100f34:	e3400011 	movt	r0, #17
  100f38:	eb000708 	bl	102b60 <Xil_Assert>
  100f3c:	e3a03001 	mov	r3, #1
  100f40:	e1a00007 	mov	r0, r7
  100f44:	e5853000 	str	r3, [r5]
  100f48:	e8bd81f0 	pop	{r4, r5, r6, r7, r8, pc}

00100f4c <XDcfg_EnablePCAP>:
  100f4c:	e92d4070 	push	{r4, r5, r6, lr}
  100f50:	e2505000 	subs	r5, r0, #0
  100f54:	0a000015 	beq	100fb0 <XDcfg_EnablePCAP+0x64>
  100f58:	e5951008 	ldr	r1, [r5, #8]
  100f5c:	e3013111 	movw	r3, #4369	; 0x1111
  100f60:	e3413111 	movt	r3, #4369	; 0x1111
  100f64:	e3004aec 	movw	r4, #2796	; 0xaec
  100f68:	e3404012 	movt	r4, #18
  100f6c:	e3a02000 	mov	r2, #0
  100f70:	e1510003 	cmp	r1, r3
  100f74:	e5842000 	str	r2, [r4]
  100f78:	0a000006 	beq	100f98 <XDcfg_EnablePCAP+0x4c>
  100f7c:	e30700dc 	movw	r0, #28892	; 0x70dc
  100f80:	e3a010c5 	mov	r1, #197	; 0xc5
  100f84:	e3400011 	movt	r0, #17
  100f88:	eb0006f4 	bl	102b60 <Xil_Assert>
  100f8c:	e3a03001 	mov	r3, #1
  100f90:	e5843000 	str	r3, [r4]
  100f94:	e8bd8070 	pop	{r4, r5, r6, pc}
  100f98:	e5950004 	ldr	r0, [r5, #4]
  100f9c:	eb000995 	bl	1035f8 <Xil_In32>
  100fa0:	e3801301 	orr	r1, r0, #67108864	; 0x4000000
  100fa4:	e5950004 	ldr	r0, [r5, #4]
  100fa8:	e8bd4070 	pop	{r4, r5, r6, lr}
  100fac:	ea000997 	b	103610 <Xil_Out32>
  100fb0:	e30700dc 	movw	r0, #28892	; 0x70dc
  100fb4:	e3a010c4 	mov	r1, #196	; 0xc4
  100fb8:	e3400011 	movt	r0, #17
  100fbc:	eb0006e7 	bl	102b60 <Xil_Assert>
  100fc0:	e3003aec 	movw	r3, #2796	; 0xaec
  100fc4:	e3a02001 	mov	r2, #1
  100fc8:	e3403012 	movt	r3, #18
  100fcc:	e5832000 	str	r2, [r3]
  100fd0:	e8bd8070 	pop	{r4, r5, r6, pc}

00100fd4 <XDcfg_DisablePCAP>:
  100fd4:	e92d4070 	push	{r4, r5, r6, lr}
  100fd8:	e2505000 	subs	r5, r0, #0
  100fdc:	0a000015 	beq	101038 <XDcfg_DisablePCAP+0x64>
  100fe0:	e5951008 	ldr	r1, [r5, #8]
  100fe4:	e3013111 	movw	r3, #4369	; 0x1111
  100fe8:	e3413111 	movt	r3, #4369	; 0x1111
  100fec:	e3004aec 	movw	r4, #2796	; 0xaec
  100ff0:	e3404012 	movt	r4, #18
  100ff4:	e3a02000 	mov	r2, #0
  100ff8:	e1510003 	cmp	r1, r3
  100ffc:	e5842000 	str	r2, [r4]
  101000:	0a000006 	beq	101020 <XDcfg_DisablePCAP+0x4c>
  101004:	e30700dc 	movw	r0, #28892	; 0x70dc
  101008:	e3a010e4 	mov	r1, #228	; 0xe4
  10100c:	e3400011 	movt	r0, #17
  101010:	eb0006d2 	bl	102b60 <Xil_Assert>
  101014:	e3a03001 	mov	r3, #1
  101018:	e5843000 	str	r3, [r4]
  10101c:	e8bd8070 	pop	{r4, r5, r6, pc}
  101020:	e5950004 	ldr	r0, [r5, #4]
  101024:	eb000973 	bl	1035f8 <Xil_In32>
  101028:	e3c01301 	bic	r1, r0, #67108864	; 0x4000000
  10102c:	e5950004 	ldr	r0, [r5, #4]
  101030:	e8bd4070 	pop	{r4, r5, r6, lr}
  101034:	ea000975 	b	103610 <Xil_Out32>
  101038:	e30700dc 	movw	r0, #28892	; 0x70dc
  10103c:	e3a010e3 	mov	r1, #227	; 0xe3
  101040:	e3400011 	movt	r0, #17
  101044:	eb0006c5 	bl	102b60 <Xil_Assert>
  101048:	e3003aec 	movw	r3, #2796	; 0xaec
  10104c:	e3a02001 	mov	r2, #1
  101050:	e3403012 	movt	r3, #18
  101054:	e5832000 	str	r2, [r3]
  101058:	e8bd8070 	pop	{r4, r5, r6, pc}

0010105c <XDcfg_SetControlRegister>:
  10105c:	e92d4030 	push	{r4, r5, lr}
  101060:	e2505000 	subs	r5, r0, #0
  101064:	e24dd00c 	sub	sp, sp, #12
  101068:	0a000019 	beq	1010d4 <XDcfg_SetControlRegister+0x78>
  10106c:	e5950008 	ldr	r0, [r5, #8]
  101070:	e3013111 	movw	r3, #4369	; 0x1111
  101074:	e3413111 	movt	r3, #4369	; 0x1111
  101078:	e3004aec 	movw	r4, #2796	; 0xaec
  10107c:	e3404012 	movt	r4, #18
  101080:	e3a02000 	mov	r2, #0
  101084:	e1500003 	cmp	r0, r3
  101088:	e5842000 	str	r2, [r4]
  10108c:	0a000007 	beq	1010b0 <XDcfg_SetControlRegister+0x54>
  101090:	e30700dc 	movw	r0, #28892	; 0x70dc
  101094:	e3a01f41 	mov	r1, #260	; 0x104
  101098:	e3400011 	movt	r0, #17
  10109c:	eb0006af 	bl	102b60 <Xil_Assert>
  1010a0:	e3a03001 	mov	r3, #1
  1010a4:	e5843000 	str	r3, [r4]
  1010a8:	e28dd00c 	add	sp, sp, #12
  1010ac:	e8bd8030 	pop	{r4, r5, pc}
  1010b0:	e5950004 	ldr	r0, [r5, #4]
  1010b4:	e58d1004 	str	r1, [sp, #4]
  1010b8:	eb00094e 	bl	1035f8 <Xil_In32>
  1010bc:	e59d1004 	ldr	r1, [sp, #4]
  1010c0:	e1801001 	orr	r1, r0, r1
  1010c4:	e5950004 	ldr	r0, [r5, #4]
  1010c8:	e28dd00c 	add	sp, sp, #12
  1010cc:	e8bd4030 	pop	{r4, r5, lr}
  1010d0:	ea00094e 	b	103610 <Xil_Out32>
  1010d4:	e30700dc 	movw	r0, #28892	; 0x70dc
  1010d8:	e3001103 	movw	r1, #259	; 0x103
  1010dc:	e3400011 	movt	r0, #17
  1010e0:	eb00069e 	bl	102b60 <Xil_Assert>
  1010e4:	e3003aec 	movw	r3, #2796	; 0xaec
  1010e8:	e3a02001 	mov	r2, #1
  1010ec:	e3403012 	movt	r3, #18
  1010f0:	e5832000 	str	r2, [r3]
  1010f4:	eaffffeb 	b	1010a8 <XDcfg_SetControlRegister+0x4c>

001010f8 <XDcfg_ClearControlRegister>:
  1010f8:	e92d4030 	push	{r4, r5, lr}
  1010fc:	e2505000 	subs	r5, r0, #0
  101100:	e24dd00c 	sub	sp, sp, #12
  101104:	0a000019 	beq	101170 <XDcfg_ClearControlRegister+0x78>
  101108:	e5950008 	ldr	r0, [r5, #8]
  10110c:	e3013111 	movw	r3, #4369	; 0x1111
  101110:	e3413111 	movt	r3, #4369	; 0x1111
  101114:	e3004aec 	movw	r4, #2796	; 0xaec
  101118:	e3404012 	movt	r4, #18
  10111c:	e3a02000 	mov	r2, #0
  101120:	e1500003 	cmp	r0, r3
  101124:	e5842000 	str	r2, [r4]
  101128:	0a000007 	beq	10114c <XDcfg_ClearControlRegister+0x54>
  10112c:	e30700dc 	movw	r0, #28892	; 0x70dc
  101130:	e3001123 	movw	r1, #291	; 0x123
  101134:	e3400011 	movt	r0, #17
  101138:	eb000688 	bl	102b60 <Xil_Assert>
  10113c:	e3a03001 	mov	r3, #1
  101140:	e5843000 	str	r3, [r4]
  101144:	e28dd00c 	add	sp, sp, #12
  101148:	e8bd8030 	pop	{r4, r5, pc}
  10114c:	e5950004 	ldr	r0, [r5, #4]
  101150:	e58d1004 	str	r1, [sp, #4]
  101154:	eb000927 	bl	1035f8 <Xil_In32>
  101158:	e59d1004 	ldr	r1, [sp, #4]
  10115c:	e1c01001 	bic	r1, r0, r1
  101160:	e5950004 	ldr	r0, [r5, #4]
  101164:	e28dd00c 	add	sp, sp, #12
  101168:	e8bd4030 	pop	{r4, r5, lr}
  10116c:	ea000927 	b	103610 <Xil_Out32>
  101170:	e30700dc 	movw	r0, #28892	; 0x70dc
  101174:	e3001122 	movw	r1, #290	; 0x122
  101178:	e3400011 	movt	r0, #17
  10117c:	eb000677 	bl	102b60 <Xil_Assert>
  101180:	e3003aec 	movw	r3, #2796	; 0xaec
  101184:	e3a02001 	mov	r2, #1
  101188:	e3403012 	movt	r3, #18
  10118c:	e5832000 	str	r2, [r3]
  101190:	eaffffeb 	b	101144 <XDcfg_ClearControlRegister+0x4c>

00101194 <XDcfg_GetControlRegister>:
  101194:	e3500000 	cmp	r0, #0
  101198:	e92d4010 	push	{r4, lr}
  10119c:	0a000013 	beq	1011f0 <XDcfg_GetControlRegister+0x5c>
  1011a0:	e5901008 	ldr	r1, [r0, #8]
  1011a4:	e3013111 	movw	r3, #4369	; 0x1111
  1011a8:	e3413111 	movt	r3, #4369	; 0x1111
  1011ac:	e3004aec 	movw	r4, #2796	; 0xaec
  1011b0:	e3404012 	movt	r4, #18
  1011b4:	e3a02000 	mov	r2, #0
  1011b8:	e1510003 	cmp	r1, r3
  1011bc:	e5842000 	str	r2, [r4]
  1011c0:	0a000007 	beq	1011e4 <XDcfg_GetControlRegister+0x50>
  1011c4:	e30700dc 	movw	r0, #28892	; 0x70dc
  1011c8:	e3001143 	movw	r1, #323	; 0x143
  1011cc:	e3400011 	movt	r0, #17
  1011d0:	eb000662 	bl	102b60 <Xil_Assert>
  1011d4:	e3a03001 	mov	r3, #1
  1011d8:	e5843000 	str	r3, [r4]
  1011dc:	e3a00000 	mov	r0, #0
  1011e0:	e8bd8010 	pop	{r4, pc}
  1011e4:	e5900004 	ldr	r0, [r0, #4]
  1011e8:	e8bd4010 	pop	{r4, lr}
  1011ec:	ea000901 	b	1035f8 <Xil_In32>
  1011f0:	e30700dc 	movw	r0, #28892	; 0x70dc
  1011f4:	e3001142 	movw	r1, #322	; 0x142
  1011f8:	e3400011 	movt	r0, #17
  1011fc:	eb000657 	bl	102b60 <Xil_Assert>
  101200:	e3003aec 	movw	r3, #2796	; 0xaec
  101204:	e3a02001 	mov	r2, #1
  101208:	e3403012 	movt	r3, #18
  10120c:	e5832000 	str	r2, [r3]
  101210:	eafffff1 	b	1011dc <XDcfg_GetControlRegister+0x48>

00101214 <XDcfg_SetLockRegister>:
  101214:	e3500000 	cmp	r0, #0
  101218:	e92d4010 	push	{r4, lr}
  10121c:	0a000013 	beq	101270 <XDcfg_SetLockRegister+0x5c>
  101220:	e590c008 	ldr	ip, [r0, #8]
  101224:	e3013111 	movw	r3, #4369	; 0x1111
  101228:	e3413111 	movt	r3, #4369	; 0x1111
  10122c:	e3004aec 	movw	r4, #2796	; 0xaec
  101230:	e3404012 	movt	r4, #18
  101234:	e3a02000 	mov	r2, #0
  101238:	e15c0003 	cmp	ip, r3
  10123c:	e5842000 	str	r2, [r4]
  101240:	0a000006 	beq	101260 <XDcfg_SetLockRegister+0x4c>
  101244:	e30700dc 	movw	r0, #28892	; 0x70dc
  101248:	e300115f 	movw	r1, #351	; 0x15f
  10124c:	e3400011 	movt	r0, #17
  101250:	eb000642 	bl	102b60 <Xil_Assert>
  101254:	e3a03001 	mov	r3, #1
  101258:	e5843000 	str	r3, [r4]
  10125c:	e8bd8010 	pop	{r4, pc}
  101260:	e5900004 	ldr	r0, [r0, #4]
  101264:	e8bd4010 	pop	{r4, lr}
  101268:	e2800004 	add	r0, r0, #4
  10126c:	ea0008e7 	b	103610 <Xil_Out32>
  101270:	e30700dc 	movw	r0, #28892	; 0x70dc
  101274:	e300115e 	movw	r1, #350	; 0x15e
  101278:	e3400011 	movt	r0, #17
  10127c:	eb000637 	bl	102b60 <Xil_Assert>
  101280:	e3003aec 	movw	r3, #2796	; 0xaec
  101284:	e3a02001 	mov	r2, #1
  101288:	e3403012 	movt	r3, #18
  10128c:	e5832000 	str	r2, [r3]
  101290:	e8bd8010 	pop	{r4, pc}

00101294 <XDcfg_GetLockRegister>:
  101294:	e3500000 	cmp	r0, #0
  101298:	e92d4010 	push	{r4, lr}
  10129c:	0a000014 	beq	1012f4 <XDcfg_GetLockRegister+0x60>
  1012a0:	e5901008 	ldr	r1, [r0, #8]
  1012a4:	e3013111 	movw	r3, #4369	; 0x1111
  1012a8:	e3413111 	movt	r3, #4369	; 0x1111
  1012ac:	e3004aec 	movw	r4, #2796	; 0xaec
  1012b0:	e3404012 	movt	r4, #18
  1012b4:	e3a02000 	mov	r2, #0
  1012b8:	e1510003 	cmp	r1, r3
  1012bc:	e5842000 	str	r2, [r4]
  1012c0:	0a000007 	beq	1012e4 <XDcfg_GetLockRegister+0x50>
  1012c4:	e30700dc 	movw	r0, #28892	; 0x70dc
  1012c8:	e300117a 	movw	r1, #378	; 0x17a
  1012cc:	e3400011 	movt	r0, #17
  1012d0:	eb000622 	bl	102b60 <Xil_Assert>
  1012d4:	e3a03001 	mov	r3, #1
  1012d8:	e5843000 	str	r3, [r4]
  1012dc:	e3a00000 	mov	r0, #0
  1012e0:	e8bd8010 	pop	{r4, pc}
  1012e4:	e5900004 	ldr	r0, [r0, #4]
  1012e8:	e8bd4010 	pop	{r4, lr}
  1012ec:	e2800004 	add	r0, r0, #4
  1012f0:	ea0008c0 	b	1035f8 <Xil_In32>
  1012f4:	e30700dc 	movw	r0, #28892	; 0x70dc
  1012f8:	e3001179 	movw	r1, #377	; 0x179
  1012fc:	e3400011 	movt	r0, #17
  101300:	eb000616 	bl	102b60 <Xil_Assert>
  101304:	e3003aec 	movw	r3, #2796	; 0xaec
  101308:	e3a02001 	mov	r2, #1
  10130c:	e3403012 	movt	r3, #18
  101310:	e5832000 	str	r2, [r3]
  101314:	eafffff0 	b	1012dc <XDcfg_GetLockRegister+0x48>

00101318 <XDcfg_SetConfigRegister>:
  101318:	e3500000 	cmp	r0, #0
  10131c:	e92d4010 	push	{r4, lr}
  101320:	0a000013 	beq	101374 <XDcfg_SetConfigRegister+0x5c>
  101324:	e590c008 	ldr	ip, [r0, #8]
  101328:	e3013111 	movw	r3, #4369	; 0x1111
  10132c:	e3413111 	movt	r3, #4369	; 0x1111
  101330:	e3004aec 	movw	r4, #2796	; 0xaec
  101334:	e3404012 	movt	r4, #18
  101338:	e3a02000 	mov	r2, #0
  10133c:	e15c0003 	cmp	ip, r3
  101340:	e5842000 	str	r2, [r4]
  101344:	0a000006 	beq	101364 <XDcfg_SetConfigRegister+0x4c>
  101348:	e30700dc 	movw	r0, #28892	; 0x70dc
  10134c:	e3001196 	movw	r1, #406	; 0x196
  101350:	e3400011 	movt	r0, #17
  101354:	eb000601 	bl	102b60 <Xil_Assert>
  101358:	e3a03001 	mov	r3, #1
  10135c:	e5843000 	str	r3, [r4]
  101360:	e8bd8010 	pop	{r4, pc}
  101364:	e5900004 	ldr	r0, [r0, #4]
  101368:	e8bd4010 	pop	{r4, lr}
  10136c:	e2800008 	add	r0, r0, #8
  101370:	ea0008a6 	b	103610 <Xil_Out32>
  101374:	e30700dc 	movw	r0, #28892	; 0x70dc
  101378:	e3001195 	movw	r1, #405	; 0x195
  10137c:	e3400011 	movt	r0, #17
  101380:	eb0005f6 	bl	102b60 <Xil_Assert>
  101384:	e3003aec 	movw	r3, #2796	; 0xaec
  101388:	e3a02001 	mov	r2, #1
  10138c:	e3403012 	movt	r3, #18
  101390:	e5832000 	str	r2, [r3]
  101394:	e8bd8010 	pop	{r4, pc}

00101398 <XDcfg_GetConfigRegister>:
  101398:	e3500000 	cmp	r0, #0
  10139c:	e92d4010 	push	{r4, lr}
  1013a0:	0a000014 	beq	1013f8 <XDcfg_GetConfigRegister+0x60>
  1013a4:	e5901008 	ldr	r1, [r0, #8]
  1013a8:	e3013111 	movw	r3, #4369	; 0x1111
  1013ac:	e3413111 	movt	r3, #4369	; 0x1111
  1013b0:	e3004aec 	movw	r4, #2796	; 0xaec
  1013b4:	e3404012 	movt	r4, #18
  1013b8:	e3a02000 	mov	r2, #0
  1013bc:	e1510003 	cmp	r1, r3
  1013c0:	e5842000 	str	r2, [r4]
  1013c4:	0a000007 	beq	1013e8 <XDcfg_GetConfigRegister+0x50>
  1013c8:	e30700dc 	movw	r0, #28892	; 0x70dc
  1013cc:	e30011b2 	movw	r1, #434	; 0x1b2
  1013d0:	e3400011 	movt	r0, #17
  1013d4:	eb0005e1 	bl	102b60 <Xil_Assert>
  1013d8:	e3a03001 	mov	r3, #1
  1013dc:	e5843000 	str	r3, [r4]
  1013e0:	e3a00000 	mov	r0, #0
  1013e4:	e8bd8010 	pop	{r4, pc}
  1013e8:	e5900004 	ldr	r0, [r0, #4]
  1013ec:	e8bd4010 	pop	{r4, lr}
  1013f0:	e2800008 	add	r0, r0, #8
  1013f4:	ea00087f 	b	1035f8 <Xil_In32>
  1013f8:	e30700dc 	movw	r0, #28892	; 0x70dc
  1013fc:	e30011b1 	movw	r1, #433	; 0x1b1
  101400:	e3400011 	movt	r0, #17
  101404:	eb0005d5 	bl	102b60 <Xil_Assert>
  101408:	e3003aec 	movw	r3, #2796	; 0xaec
  10140c:	e3a02001 	mov	r2, #1
  101410:	e3403012 	movt	r3, #18
  101414:	e5832000 	str	r2, [r3]
  101418:	eafffff0 	b	1013e0 <XDcfg_GetConfigRegister+0x48>

0010141c <XDcfg_SetStatusRegister>:
  10141c:	e3500000 	cmp	r0, #0
  101420:	e92d4010 	push	{r4, lr}
  101424:	0a000013 	beq	101478 <XDcfg_SetStatusRegister+0x5c>
  101428:	e590c008 	ldr	ip, [r0, #8]
  10142c:	e3013111 	movw	r3, #4369	; 0x1111
  101430:	e3413111 	movt	r3, #4369	; 0x1111
  101434:	e3004aec 	movw	r4, #2796	; 0xaec
  101438:	e3404012 	movt	r4, #18
  10143c:	e3a02000 	mov	r2, #0
  101440:	e15c0003 	cmp	ip, r3
  101444:	e5842000 	str	r2, [r4]
  101448:	0a000006 	beq	101468 <XDcfg_SetStatusRegister+0x4c>
  10144c:	e30700dc 	movw	r0, #28892	; 0x70dc
  101450:	e30011cb 	movw	r1, #459	; 0x1cb
  101454:	e3400011 	movt	r0, #17
  101458:	eb0005c0 	bl	102b60 <Xil_Assert>
  10145c:	e3a03001 	mov	r3, #1
  101460:	e5843000 	str	r3, [r4]
  101464:	e8bd8010 	pop	{r4, pc}
  101468:	e5900004 	ldr	r0, [r0, #4]
  10146c:	e8bd4010 	pop	{r4, lr}
  101470:	e2800014 	add	r0, r0, #20
  101474:	ea000865 	b	103610 <Xil_Out32>
  101478:	e30700dc 	movw	r0, #28892	; 0x70dc
  10147c:	e30011ca 	movw	r1, #458	; 0x1ca
  101480:	e3400011 	movt	r0, #17
  101484:	eb0005b5 	bl	102b60 <Xil_Assert>
  101488:	e3003aec 	movw	r3, #2796	; 0xaec
  10148c:	e3a02001 	mov	r2, #1
  101490:	e3403012 	movt	r3, #18
  101494:	e5832000 	str	r2, [r3]
  101498:	e8bd8010 	pop	{r4, pc}

0010149c <XDcfg_GetStatusRegister>:
  10149c:	e3500000 	cmp	r0, #0
  1014a0:	e92d4010 	push	{r4, lr}
  1014a4:	0a000014 	beq	1014fc <XDcfg_GetStatusRegister+0x60>
  1014a8:	e5901008 	ldr	r1, [r0, #8]
  1014ac:	e3013111 	movw	r3, #4369	; 0x1111
  1014b0:	e3413111 	movt	r3, #4369	; 0x1111
  1014b4:	e3004aec 	movw	r4, #2796	; 0xaec
  1014b8:	e3404012 	movt	r4, #18
  1014bc:	e3a02000 	mov	r2, #0
  1014c0:	e1510003 	cmp	r1, r3
  1014c4:	e5842000 	str	r2, [r4]
  1014c8:	0a000007 	beq	1014ec <XDcfg_GetStatusRegister+0x50>
  1014cc:	e30700dc 	movw	r0, #28892	; 0x70dc
  1014d0:	e30011e6 	movw	r1, #486	; 0x1e6
  1014d4:	e3400011 	movt	r0, #17
  1014d8:	eb0005a0 	bl	102b60 <Xil_Assert>
  1014dc:	e3a03001 	mov	r3, #1
  1014e0:	e5843000 	str	r3, [r4]
  1014e4:	e3a00000 	mov	r0, #0
  1014e8:	e8bd8010 	pop	{r4, pc}
  1014ec:	e5900004 	ldr	r0, [r0, #4]
  1014f0:	e8bd4010 	pop	{r4, lr}
  1014f4:	e2800014 	add	r0, r0, #20
  1014f8:	ea00083e 	b	1035f8 <Xil_In32>
  1014fc:	e30700dc 	movw	r0, #28892	; 0x70dc
  101500:	e30011e5 	movw	r1, #485	; 0x1e5
  101504:	e3400011 	movt	r0, #17
  101508:	eb000594 	bl	102b60 <Xil_Assert>
  10150c:	e3003aec 	movw	r3, #2796	; 0xaec
  101510:	e3a02001 	mov	r2, #1
  101514:	e3403012 	movt	r3, #18
  101518:	e5832000 	str	r2, [r3]
  10151c:	eafffff0 	b	1014e4 <XDcfg_GetStatusRegister+0x48>

00101520 <XDcfg_SetRomShadowRegister>:
  101520:	e3500000 	cmp	r0, #0
  101524:	e92d4010 	push	{r4, lr}
  101528:	0a000013 	beq	10157c <XDcfg_SetRomShadowRegister+0x5c>
  10152c:	e590c008 	ldr	ip, [r0, #8]
  101530:	e3013111 	movw	r3, #4369	; 0x1111
  101534:	e3413111 	movt	r3, #4369	; 0x1111
  101538:	e3004aec 	movw	r4, #2796	; 0xaec
  10153c:	e3404012 	movt	r4, #18
  101540:	e3a02000 	mov	r2, #0
  101544:	e15c0003 	cmp	ip, r3
  101548:	e5842000 	str	r2, [r4]
  10154c:	0a000006 	beq	10156c <XDcfg_SetRomShadowRegister+0x4c>
  101550:	e30700dc 	movw	r0, #28892	; 0x70dc
  101554:	e3001202 	movw	r1, #514	; 0x202
  101558:	e3400011 	movt	r0, #17
  10155c:	eb00057f 	bl	102b60 <Xil_Assert>
  101560:	e3a03001 	mov	r3, #1
  101564:	e5843000 	str	r3, [r4]
  101568:	e8bd8010 	pop	{r4, pc}
  10156c:	e5900004 	ldr	r0, [r0, #4]
  101570:	e8bd4010 	pop	{r4, lr}
  101574:	e2800028 	add	r0, r0, #40	; 0x28
  101578:	ea000824 	b	103610 <Xil_Out32>
  10157c:	e30700dc 	movw	r0, #28892	; 0x70dc
  101580:	e3001201 	movw	r1, #513	; 0x201
  101584:	e3400011 	movt	r0, #17
  101588:	eb000574 	bl	102b60 <Xil_Assert>
  10158c:	e3003aec 	movw	r3, #2796	; 0xaec
  101590:	e3a02001 	mov	r2, #1
  101594:	e3403012 	movt	r3, #18
  101598:	e5832000 	str	r2, [r3]
  10159c:	e8bd8010 	pop	{r4, pc}

001015a0 <XDcfg_GetSoftwareIdRegister>:
  1015a0:	e3500000 	cmp	r0, #0
  1015a4:	e92d4010 	push	{r4, lr}
  1015a8:	0a000014 	beq	101600 <XDcfg_GetSoftwareIdRegister+0x60>
  1015ac:	e5901008 	ldr	r1, [r0, #8]
  1015b0:	e3013111 	movw	r3, #4369	; 0x1111
  1015b4:	e3413111 	movt	r3, #4369	; 0x1111
  1015b8:	e3004aec 	movw	r4, #2796	; 0xaec
  1015bc:	e3404012 	movt	r4, #18
  1015c0:	e3a02000 	mov	r2, #0
  1015c4:	e1510003 	cmp	r1, r3
  1015c8:	e5842000 	str	r2, [r4]
  1015cc:	0a000007 	beq	1015f0 <XDcfg_GetSoftwareIdRegister+0x50>
  1015d0:	e30700dc 	movw	r0, #28892	; 0x70dc
  1015d4:	e3a01f87 	mov	r1, #540	; 0x21c
  1015d8:	e3400011 	movt	r0, #17
  1015dc:	eb00055f 	bl	102b60 <Xil_Assert>
  1015e0:	e3a03001 	mov	r3, #1
  1015e4:	e5843000 	str	r3, [r4]
  1015e8:	e3a00000 	mov	r0, #0
  1015ec:	e8bd8010 	pop	{r4, pc}
  1015f0:	e5900004 	ldr	r0, [r0, #4]
  1015f4:	e8bd4010 	pop	{r4, lr}
  1015f8:	e2800030 	add	r0, r0, #48	; 0x30
  1015fc:	ea0007fd 	b	1035f8 <Xil_In32>
  101600:	e30700dc 	movw	r0, #28892	; 0x70dc
  101604:	e300121b 	movw	r1, #539	; 0x21b
  101608:	e3400011 	movt	r0, #17
  10160c:	eb000553 	bl	102b60 <Xil_Assert>
  101610:	e3003aec 	movw	r3, #2796	; 0xaec
  101614:	e3a02001 	mov	r2, #1
  101618:	e3403012 	movt	r3, #18
  10161c:	e5832000 	str	r2, [r3]
  101620:	eafffff0 	b	1015e8 <XDcfg_GetSoftwareIdRegister+0x48>

00101624 <XDcfg_SetMiscControlRegister>:
  101624:	e92d4030 	push	{r4, r5, lr}
  101628:	e2505000 	subs	r5, r0, #0
  10162c:	e24dd00c 	sub	sp, sp, #12
  101630:	0a00001b 	beq	1016a4 <XDcfg_SetMiscControlRegister+0x80>
  101634:	e5950008 	ldr	r0, [r5, #8]
  101638:	e3013111 	movw	r3, #4369	; 0x1111
  10163c:	e3413111 	movt	r3, #4369	; 0x1111
  101640:	e3004aec 	movw	r4, #2796	; 0xaec
  101644:	e3404012 	movt	r4, #18
  101648:	e3a02000 	mov	r2, #0
  10164c:	e1500003 	cmp	r0, r3
  101650:	e5842000 	str	r2, [r4]
  101654:	0a000007 	beq	101678 <XDcfg_SetMiscControlRegister+0x54>
  101658:	e30700dc 	movw	r0, #28892	; 0x70dc
  10165c:	e300123a 	movw	r1, #570	; 0x23a
  101660:	e3400011 	movt	r0, #17
  101664:	eb00053d 	bl	102b60 <Xil_Assert>
  101668:	e3a03001 	mov	r3, #1
  10166c:	e5843000 	str	r3, [r4]
  101670:	e28dd00c 	add	sp, sp, #12
  101674:	e8bd8030 	pop	{r4, r5, pc}
  101678:	e5950004 	ldr	r0, [r5, #4]
  10167c:	e58d1004 	str	r1, [sp, #4]
  101680:	e2800080 	add	r0, r0, #128	; 0x80
  101684:	eb0007db 	bl	1035f8 <Xil_In32>
  101688:	e5953004 	ldr	r3, [r5, #4]
  10168c:	e59d1004 	ldr	r1, [sp, #4]
  101690:	e1801001 	orr	r1, r0, r1
  101694:	e2830080 	add	r0, r3, #128	; 0x80
  101698:	e28dd00c 	add	sp, sp, #12
  10169c:	e8bd4030 	pop	{r4, r5, lr}
  1016a0:	ea0007da 	b	103610 <Xil_Out32>
  1016a4:	e30700dc 	movw	r0, #28892	; 0x70dc
  1016a8:	e3001239 	movw	r1, #569	; 0x239
  1016ac:	e3400011 	movt	r0, #17
  1016b0:	eb00052a 	bl	102b60 <Xil_Assert>
  1016b4:	e3003aec 	movw	r3, #2796	; 0xaec
  1016b8:	e3a02001 	mov	r2, #1
  1016bc:	e3403012 	movt	r3, #18
  1016c0:	e5832000 	str	r2, [r3]
  1016c4:	eaffffe9 	b	101670 <XDcfg_SetMiscControlRegister+0x4c>

001016c8 <XDcfg_GetMiscControlRegister>:
  1016c8:	e3500000 	cmp	r0, #0
  1016cc:	e92d4010 	push	{r4, lr}
  1016d0:	0a000014 	beq	101728 <XDcfg_GetMiscControlRegister+0x60>
  1016d4:	e5901008 	ldr	r1, [r0, #8]
  1016d8:	e3013111 	movw	r3, #4369	; 0x1111
  1016dc:	e3413111 	movt	r3, #4369	; 0x1111
  1016e0:	e3004aec 	movw	r4, #2796	; 0xaec
  1016e4:	e3404012 	movt	r4, #18
  1016e8:	e3a02000 	mov	r2, #0
  1016ec:	e1510003 	cmp	r1, r3
  1016f0:	e5842000 	str	r2, [r4]
  1016f4:	0a000007 	beq	101718 <XDcfg_GetMiscControlRegister+0x50>
  1016f8:	e30700dc 	movw	r0, #28892	; 0x70dc
  1016fc:	e3001257 	movw	r1, #599	; 0x257
  101700:	e3400011 	movt	r0, #17
  101704:	eb000515 	bl	102b60 <Xil_Assert>
  101708:	e3a03001 	mov	r3, #1
  10170c:	e5843000 	str	r3, [r4]
  101710:	e3a00000 	mov	r0, #0
  101714:	e8bd8010 	pop	{r4, pc}
  101718:	e5900004 	ldr	r0, [r0, #4]
  10171c:	e8bd4010 	pop	{r4, lr}
  101720:	e2800080 	add	r0, r0, #128	; 0x80
  101724:	ea0007b3 	b	1035f8 <Xil_In32>
  101728:	e30700dc 	movw	r0, #28892	; 0x70dc
  10172c:	e3001256 	movw	r1, #598	; 0x256
  101730:	e3400011 	movt	r0, #17
  101734:	eb000509 	bl	102b60 <Xil_Assert>
  101738:	e3003aec 	movw	r3, #2796	; 0xaec
  10173c:	e3a02001 	mov	r2, #1
  101740:	e3403012 	movt	r3, #18
  101744:	e5832000 	str	r2, [r3]
  101748:	eafffff0 	b	101710 <XDcfg_GetMiscControlRegister+0x48>

0010174c <XDcfg_IsDmaBusy>:
  10174c:	e92d4070 	push	{r4, r5, r6, lr}
  101750:	e2506000 	subs	r6, r0, #0
  101754:	0a000016 	beq	1017b4 <XDcfg_IsDmaBusy+0x68>
  101758:	e5962008 	ldr	r2, [r6, #8]
  10175c:	e3013111 	movw	r3, #4369	; 0x1111
  101760:	e3413111 	movt	r3, #4369	; 0x1111
  101764:	e3005aec 	movw	r5, #2796	; 0xaec
  101768:	e3405012 	movt	r5, #18
  10176c:	e3a04000 	mov	r4, #0
  101770:	e1520003 	cmp	r2, r3
  101774:	e5854000 	str	r4, [r5]
  101778:	0a000007 	beq	10179c <XDcfg_IsDmaBusy+0x50>
  10177c:	e30700dc 	movw	r0, #28892	; 0x70dc
  101780:	e3001272 	movw	r1, #626	; 0x272
  101784:	e3400011 	movt	r0, #17
  101788:	eb0004f4 	bl	102b60 <Xil_Assert>
  10178c:	e3a03001 	mov	r3, #1
  101790:	e1a00004 	mov	r0, r4
  101794:	e5853000 	str	r3, [r5]
  101798:	e8bd8070 	pop	{r4, r5, r6, pc}
  10179c:	e5960004 	ldr	r0, [r6, #4]
  1017a0:	e2800014 	add	r0, r0, #20
  1017a4:	eb000793 	bl	1035f8 <Xil_In32>
  1017a8:	e1e00000 	mvn	r0, r0
  1017ac:	e1a00fa0 	lsr	r0, r0, #31
  1017b0:	e8bd8070 	pop	{r4, r5, r6, pc}
  1017b4:	e30700dc 	movw	r0, #28892	; 0x70dc
  1017b8:	e3001271 	movw	r1, #625	; 0x271
  1017bc:	e3400011 	movt	r0, #17
  1017c0:	eb0004e6 	bl	102b60 <Xil_Assert>
  1017c4:	e3003aec 	movw	r3, #2796	; 0xaec
  1017c8:	e3a02001 	mov	r2, #1
  1017cc:	e3403012 	movt	r3, #18
  1017d0:	e1a00006 	mov	r0, r6
  1017d4:	e5832000 	str	r2, [r3]
  1017d8:	e8bd8070 	pop	{r4, r5, r6, pc}

001017dc <XDcfg_InitiateDma>:
  1017dc:	e92d41f0 	push	{r4, r5, r6, r7, r8, lr}
  1017e0:	e1a04000 	mov	r4, r0
  1017e4:	e5900004 	ldr	r0, [r0, #4]
  1017e8:	e1a07002 	mov	r7, r2
  1017ec:	e1a06003 	mov	r6, r3
  1017f0:	e59d5018 	ldr	r5, [sp, #24]
  1017f4:	e2800018 	add	r0, r0, #24
  1017f8:	eb000784 	bl	103610 <Xil_Out32>
  1017fc:	e5940004 	ldr	r0, [r4, #4]
  101800:	e1a01007 	mov	r1, r7
  101804:	e280001c 	add	r0, r0, #28
  101808:	eb000780 	bl	103610 <Xil_Out32>
  10180c:	e5940004 	ldr	r0, [r4, #4]
  101810:	e1a01006 	mov	r1, r6
  101814:	e2800020 	add	r0, r0, #32
  101818:	eb00077c 	bl	103610 <Xil_Out32>
  10181c:	e5940004 	ldr	r0, [r4, #4]
  101820:	e1a01005 	mov	r1, r5
  101824:	e8bd41f0 	pop	{r4, r5, r6, r7, r8, lr}
  101828:	e2800024 	add	r0, r0, #36	; 0x24
  10182c:	ea000777 	b	103610 <Xil_Out32>

00101830 <XDcfg_Transfer>:
  101830:	e92d43f0 	push	{r4, r5, r6, r7, r8, r9, lr}
  101834:	e2506000 	subs	r6, r0, #0
  101838:	e24dd00c 	sub	sp, sp, #12
  10183c:	0a00002f 	beq	101900 <XDcfg_Transfer+0xd0>
  101840:	e596e008 	ldr	lr, [r6, #8]
  101844:	e301c111 	movw	ip, #4369	; 0x1111
  101848:	e341c111 	movt	ip, #4369	; 0x1111
  10184c:	e3005aec 	movw	r5, #2796	; 0xaec
  101850:	e3405012 	movt	r5, #18
  101854:	e3a04000 	mov	r4, #0
  101858:	e15e000c 	cmp	lr, ip
  10185c:	e5854000 	str	r4, [r5]
  101860:	0a000008 	beq	101888 <XDcfg_Transfer+0x58>
  101864:	e30700dc 	movw	r0, #28892	; 0x70dc
  101868:	e300131f 	movw	r1, #799	; 0x31f
  10186c:	e3400011 	movt	r0, #17
  101870:	eb0004ba 	bl	102b60 <Xil_Assert>
  101874:	e1a00004 	mov	r0, r4
  101878:	e3a03001 	mov	r3, #1
  10187c:	e5853000 	str	r3, [r5]
  101880:	e28dd00c 	add	sp, sp, #12
  101884:	e8bd83f0 	pop	{r4, r5, r6, r7, r8, r9, pc}
  101888:	e1a08001 	mov	r8, r1
  10188c:	e1a09002 	mov	r9, r2
  101890:	e1a07003 	mov	r7, r3
  101894:	ebffffac 	bl	10174c <XDcfg_IsDmaBusy>
  101898:	e3500000 	cmp	r0, #0
  10189c:	03a00015 	moveq	r0, #21
  1018a0:	0afffff6 	beq	101880 <XDcfg_Transfer+0x50>
  1018a4:	e5960004 	ldr	r0, [r6, #4]
  1018a8:	e2800014 	add	r0, r0, #20
  1018ac:	eb000751 	bl	1035f8 <Xil_In32>
  1018b0:	e59d302c 	ldr	r3, [sp, #44]	; 0x2c
  1018b4:	e2200010 	eor	r0, r0, #16
  1018b8:	e2533005 	subs	r3, r3, #5
  1018bc:	13a03001 	movne	r3, #1
  1018c0:	e0133220 	ands	r3, r3, r0, lsr #4
  1018c4:	13a00001 	movne	r0, #1
  1018c8:	1affffec 	bne	101880 <XDcfg_Transfer+0x50>
  1018cc:	e59d302c 	ldr	r3, [sp, #44]	; 0x2c
  1018d0:	e2433001 	sub	r3, r3, #1
  1018d4:	e3530001 	cmp	r3, #1
  1018d8:	9a000012 	bls	101928 <XDcfg_Transfer+0xf8>
  1018dc:	e59d302c 	ldr	r3, [sp, #44]	; 0x2c
  1018e0:	e3530003 	cmp	r3, #3
  1018e4:	0a000014 	beq	10193c <XDcfg_Transfer+0x10c>
  1018e8:	e59d302c 	ldr	r3, [sp, #44]	; 0x2c
  1018ec:	e2433004 	sub	r3, r3, #4
  1018f0:	e3530001 	cmp	r3, #1
  1018f4:	9a00003b 	bls	1019e8 <XDcfg_Transfer+0x1b8>
  1018f8:	e3a00000 	mov	r0, #0
  1018fc:	eaffffdf 	b	101880 <XDcfg_Transfer+0x50>
  101900:	e30700dc 	movw	r0, #28892	; 0x70dc
  101904:	e300131e 	movw	r1, #798	; 0x31e
  101908:	e3400011 	movt	r0, #17
  10190c:	eb000493 	bl	102b60 <Xil_Assert>
  101910:	e3003aec 	movw	r3, #2796	; 0xaec
  101914:	e3a02001 	mov	r2, #1
  101918:	e3403012 	movt	r3, #18
  10191c:	e1a00006 	mov	r0, r6
  101920:	e5832000 	str	r2, [r3]
  101924:	eaffffd5 	b	101880 <XDcfg_Transfer+0x50>
  101928:	e3590000 	cmp	r9, #0
  10192c:	13580000 	cmpne	r8, #0
  101930:	1a000048 	bne	101a58 <XDcfg_Transfer+0x228>
  101934:	e3a0000f 	mov	r0, #15
  101938:	eaffffd0 	b	101880 <XDcfg_Transfer+0x50>
  10193c:	e59d3028 	ldr	r3, [sp, #40]	; 0x28
  101940:	e3530000 	cmp	r3, #0
  101944:	13570000 	cmpne	r7, #0
  101948:	03a04001 	moveq	r4, #1
  10194c:	13a04000 	movne	r4, #0
  101950:	0afffff7 	beq	101934 <XDcfg_Transfer+0x104>
  101954:	e5960004 	ldr	r0, [r6, #4]
  101958:	e2800080 	add	r0, r0, #128	; 0x80
  10195c:	eb000725 	bl	1035f8 <Xil_In32>
  101960:	e5963004 	ldr	r3, [r6, #4]
  101964:	e3c01010 	bic	r1, r0, #16
  101968:	e2830080 	add	r0, r3, #128	; 0x80
  10196c:	eb000727 	bl	103610 <Xil_Out32>
  101970:	e1a01008 	mov	r1, r8
  101974:	e58d4000 	str	r4, [sp]
  101978:	e1a03009 	mov	r3, r9
  10197c:	e3e02000 	mvn	r2, #0
  101980:	e1a00006 	mov	r0, r6
  101984:	ebffff94 	bl	1017dc <XDcfg_InitiateDma>
  101988:	e1a00006 	mov	r0, r6
  10198c:	eb00009f 	bl	101c10 <XDcfg_IntrGetEnabled>
  101990:	e30f18ef 	movw	r1, #63727	; 0xf8ef
  101994:	e1a04000 	mov	r4, r0
  101998:	e34010f7 	movt	r1, #247	; 0xf7
  10199c:	e1a00006 	mov	r0, r6
  1019a0:	eb00006e 	bl	101b60 <XDcfg_IntrDisable>
  1019a4:	e5960004 	ldr	r0, [r6, #4]
  1019a8:	e280000c 	add	r0, r0, #12
  1019ac:	eb000711 	bl	1035f8 <Xil_In32>
  1019b0:	e3100a01 	tst	r0, #4096	; 0x1000
  1019b4:	0afffffa 	beq	1019a4 <XDcfg_Transfer+0x174>
  1019b8:	e1a01004 	mov	r1, r4
  1019bc:	e1a00006 	mov	r0, r6
  1019c0:	eb00003a 	bl	101ab0 <XDcfg_IntrEnable>
  1019c4:	e59d3028 	ldr	r3, [sp, #40]	; 0x28
  1019c8:	e1a00006 	mov	r0, r6
  1019cc:	e1a02007 	mov	r2, r7
  1019d0:	e3e01000 	mvn	r1, #0
  1019d4:	e58d3000 	str	r3, [sp]
  1019d8:	e3a03000 	mov	r3, #0
  1019dc:	ebffff7e 	bl	1017dc <XDcfg_InitiateDma>
  1019e0:	e3a00000 	mov	r0, #0
  1019e4:	eaffffa5 	b	101880 <XDcfg_Transfer+0x50>
  1019e8:	e3590000 	cmp	r9, #0
  1019ec:	13580000 	cmpne	r8, #0
  1019f0:	0affffcf 	beq	101934 <XDcfg_Transfer+0x104>
  1019f4:	e59d3028 	ldr	r3, [sp, #40]	; 0x28
  1019f8:	e3530000 	cmp	r3, #0
  1019fc:	13570000 	cmpne	r7, #0
  101a00:	0affffcb 	beq	101934 <XDcfg_Transfer+0x104>
  101a04:	e59d302c 	ldr	r3, [sp, #44]	; 0x2c
  101a08:	e5960004 	ldr	r0, [r6, #4]
  101a0c:	e3530005 	cmp	r3, #5
  101a10:	e2800080 	add	r0, r0, #128	; 0x80
  101a14:	0a00001f 	beq	101a98 <XDcfg_Transfer+0x268>
  101a18:	eb0006f6 	bl	1035f8 <Xil_In32>
  101a1c:	e5963004 	ldr	r3, [r6, #4]
  101a20:	e3c01010 	bic	r1, r0, #16
  101a24:	e2830080 	add	r0, r3, #128	; 0x80
  101a28:	eb0006f8 	bl	103610 <Xil_Out32>
  101a2c:	e3a01402 	mov	r1, #33554432	; 0x2000000
  101a30:	e1a00006 	mov	r0, r6
  101a34:	ebfffd88 	bl	10105c <XDcfg_SetControlRegister>
  101a38:	e59d3028 	ldr	r3, [sp, #40]	; 0x28
  101a3c:	e1a02007 	mov	r2, r7
  101a40:	e1a01008 	mov	r1, r8
  101a44:	e1a00006 	mov	r0, r6
  101a48:	e58d3000 	str	r3, [sp]
  101a4c:	e1a03009 	mov	r3, r9
  101a50:	ebffff61 	bl	1017dc <XDcfg_InitiateDma>
  101a54:	eaffffa7 	b	1018f8 <XDcfg_Transfer+0xc8>
  101a58:	e5960004 	ldr	r0, [r6, #4]
  101a5c:	e2800080 	add	r0, r0, #128	; 0x80
  101a60:	eb0006e4 	bl	1035f8 <Xil_In32>
  101a64:	e5963004 	ldr	r3, [r6, #4]
  101a68:	e3c01010 	bic	r1, r0, #16
  101a6c:	e2830080 	add	r0, r3, #128	; 0x80
  101a70:	eb0006e6 	bl	103610 <Xil_Out32>
  101a74:	e59d302c 	ldr	r3, [sp, #44]	; 0x2c
  101a78:	e3530001 	cmp	r3, #1
  101a7c:	1affffea 	bne	101a2c <XDcfg_Transfer+0x1fc>
  101a80:	e5960004 	ldr	r0, [r6, #4]
  101a84:	eb0006db 	bl	1035f8 <Xil_In32>
  101a88:	e3c01402 	bic	r1, r0, #33554432	; 0x2000000
  101a8c:	e5960004 	ldr	r0, [r6, #4]
  101a90:	eb0006de 	bl	103610 <Xil_Out32>
  101a94:	eaffffe7 	b	101a38 <XDcfg_Transfer+0x208>
  101a98:	eb0006d6 	bl	1035f8 <Xil_In32>
  101a9c:	e5963004 	ldr	r3, [r6, #4]
  101aa0:	e3801010 	orr	r1, r0, #16
  101aa4:	e2830080 	add	r0, r3, #128	; 0x80
  101aa8:	eb0006d8 	bl	103610 <Xil_Out32>
  101aac:	eafffff3 	b	101a80 <XDcfg_Transfer+0x250>

00101ab0 <XDcfg_IntrEnable>:
  101ab0:	e92d4030 	push	{r4, r5, lr}
  101ab4:	e2505000 	subs	r5, r0, #0
  101ab8:	e24dd00c 	sub	sp, sp, #12
  101abc:	0a00001e 	beq	101b3c <XDcfg_IntrEnable+0x8c>
  101ac0:	e5950008 	ldr	r0, [r5, #8]
  101ac4:	e3013111 	movw	r3, #4369	; 0x1111
  101ac8:	e3413111 	movt	r3, #4369	; 0x1111
  101acc:	e3004aec 	movw	r4, #2796	; 0xaec
  101ad0:	e3404012 	movt	r4, #18
  101ad4:	e3a02000 	mov	r2, #0
  101ad8:	e1500003 	cmp	r0, r3
  101adc:	e5842000 	str	r2, [r4]
  101ae0:	0a000007 	beq	101b04 <XDcfg_IntrEnable+0x54>
  101ae4:	e30700e8 	movw	r0, #28904	; 0x70e8
  101ae8:	e3a0105d 	mov	r1, #93	; 0x5d
  101aec:	e3400011 	movt	r0, #17
  101af0:	eb00041a 	bl	102b60 <Xil_Assert>
  101af4:	e3a03001 	mov	r3, #1
  101af8:	e5843000 	str	r3, [r4]
  101afc:	e28dd00c 	add	sp, sp, #12
  101b00:	e8bd8030 	pop	{r4, r5, pc}
  101b04:	e5950004 	ldr	r0, [r5, #4]
  101b08:	e58d1004 	str	r1, [sp, #4]
  101b0c:	e2800010 	add	r0, r0, #16
  101b10:	eb0006b8 	bl	1035f8 <Xil_In32>
  101b14:	e59d1004 	ldr	r1, [sp, #4]
  101b18:	e30f38ef 	movw	r3, #63727	; 0xf8ef
  101b1c:	e5952004 	ldr	r2, [r5, #4]
  101b20:	e34030f7 	movt	r3, #247	; 0xf7
  101b24:	e0033001 	and	r3, r3, r1
  101b28:	e1c01003 	bic	r1, r0, r3
  101b2c:	e2820010 	add	r0, r2, #16
  101b30:	e28dd00c 	add	sp, sp, #12
  101b34:	e8bd4030 	pop	{r4, r5, lr}
  101b38:	ea0006b4 	b	103610 <Xil_Out32>
  101b3c:	e30700e8 	movw	r0, #28904	; 0x70e8
  101b40:	e3a0105c 	mov	r1, #92	; 0x5c
  101b44:	e3400011 	movt	r0, #17
  101b48:	eb000404 	bl	102b60 <Xil_Assert>
  101b4c:	e3003aec 	movw	r3, #2796	; 0xaec
  101b50:	e3a02001 	mov	r2, #1
  101b54:	e3403012 	movt	r3, #18
  101b58:	e5832000 	str	r2, [r3]
  101b5c:	eaffffe6 	b	101afc <XDcfg_IntrEnable+0x4c>

00101b60 <XDcfg_IntrDisable>:
  101b60:	e92d4030 	push	{r4, r5, lr}
  101b64:	e2505000 	subs	r5, r0, #0
  101b68:	e24dd00c 	sub	sp, sp, #12
  101b6c:	0a00001e 	beq	101bec <XDcfg_IntrDisable+0x8c>
  101b70:	e5950008 	ldr	r0, [r5, #8]
  101b74:	e3013111 	movw	r3, #4369	; 0x1111
  101b78:	e3413111 	movt	r3, #4369	; 0x1111
  101b7c:	e3004aec 	movw	r4, #2796	; 0xaec
  101b80:	e3404012 	movt	r4, #18
  101b84:	e3a02000 	mov	r2, #0
  101b88:	e1500003 	cmp	r0, r3
  101b8c:	e5842000 	str	r2, [r4]
  101b90:	0a000007 	beq	101bb4 <XDcfg_IntrDisable+0x54>
  101b94:	e30700e8 	movw	r0, #28904	; 0x70e8
  101b98:	e3a01083 	mov	r1, #131	; 0x83
  101b9c:	e3400011 	movt	r0, #17
  101ba0:	eb0003ee 	bl	102b60 <Xil_Assert>
  101ba4:	e3a03001 	mov	r3, #1
  101ba8:	e5843000 	str	r3, [r4]
  101bac:	e28dd00c 	add	sp, sp, #12
  101bb0:	e8bd8030 	pop	{r4, r5, pc}
  101bb4:	e5950004 	ldr	r0, [r5, #4]
  101bb8:	e58d1004 	str	r1, [sp, #4]
  101bbc:	e2800010 	add	r0, r0, #16
  101bc0:	eb00068c 	bl	1035f8 <Xil_In32>
  101bc4:	e59d1004 	ldr	r1, [sp, #4]
  101bc8:	e30f38ef 	movw	r3, #63727	; 0xf8ef
  101bcc:	e5952004 	ldr	r2, [r5, #4]
  101bd0:	e34030f7 	movt	r3, #247	; 0xf7
  101bd4:	e0033001 	and	r3, r3, r1
  101bd8:	e1801003 	orr	r1, r0, r3
  101bdc:	e2820010 	add	r0, r2, #16
  101be0:	e28dd00c 	add	sp, sp, #12
  101be4:	e8bd4030 	pop	{r4, r5, lr}
  101be8:	ea000688 	b	103610 <Xil_Out32>
  101bec:	e30700e8 	movw	r0, #28904	; 0x70e8
  101bf0:	e3a01082 	mov	r1, #130	; 0x82
  101bf4:	e3400011 	movt	r0, #17
  101bf8:	eb0003d8 	bl	102b60 <Xil_Assert>
  101bfc:	e3003aec 	movw	r3, #2796	; 0xaec
  101c00:	e3a02001 	mov	r2, #1
  101c04:	e3403012 	movt	r3, #18
  101c08:	e5832000 	str	r2, [r3]
  101c0c:	eaffffe6 	b	101bac <XDcfg_IntrDisable+0x4c>

00101c10 <XDcfg_IntrGetEnabled>:
  101c10:	e92d4070 	push	{r4, r5, r6, lr}
  101c14:	e2506000 	subs	r6, r0, #0
  101c18:	0a000015 	beq	101c74 <XDcfg_IntrGetEnabled+0x64>
  101c1c:	e5962008 	ldr	r2, [r6, #8]
  101c20:	e3013111 	movw	r3, #4369	; 0x1111
  101c24:	e3413111 	movt	r3, #4369	; 0x1111
  101c28:	e3005aec 	movw	r5, #2796	; 0xaec
  101c2c:	e3405012 	movt	r5, #18
  101c30:	e3a04000 	mov	r4, #0
  101c34:	e1520003 	cmp	r2, r3
  101c38:	e5854000 	str	r4, [r5]
  101c3c:	0a000007 	beq	101c60 <XDcfg_IntrGetEnabled+0x50>
  101c40:	e30700e8 	movw	r0, #28904	; 0x70e8
  101c44:	e3a010a3 	mov	r1, #163	; 0xa3
  101c48:	e3400011 	movt	r0, #17
  101c4c:	eb0003c3 	bl	102b60 <Xil_Assert>
  101c50:	e3a03001 	mov	r3, #1
  101c54:	e1a00004 	mov	r0, r4
  101c58:	e5853000 	str	r3, [r5]
  101c5c:	e8bd8070 	pop	{r4, r5, r6, pc}
  101c60:	e5960004 	ldr	r0, [r6, #4]
  101c64:	e2800010 	add	r0, r0, #16
  101c68:	eb000662 	bl	1035f8 <Xil_In32>
  101c6c:	e1e00000 	mvn	r0, r0
  101c70:	e8bd8070 	pop	{r4, r5, r6, pc}
  101c74:	e30700e8 	movw	r0, #28904	; 0x70e8
  101c78:	e3a010a2 	mov	r1, #162	; 0xa2
  101c7c:	e3400011 	movt	r0, #17
  101c80:	eb0003b6 	bl	102b60 <Xil_Assert>
  101c84:	e3003aec 	movw	r3, #2796	; 0xaec
  101c88:	e3a02001 	mov	r2, #1
  101c8c:	e3403012 	movt	r3, #18
  101c90:	e1a00006 	mov	r0, r6
  101c94:	e5832000 	str	r2, [r3]
  101c98:	e8bd8070 	pop	{r4, r5, r6, pc}

00101c9c <XDcfg_IntrGetStatus>:
  101c9c:	e3500000 	cmp	r0, #0
  101ca0:	e92d4010 	push	{r4, lr}
  101ca4:	0a000014 	beq	101cfc <XDcfg_IntrGetStatus+0x60>
  101ca8:	e5901008 	ldr	r1, [r0, #8]
  101cac:	e3013111 	movw	r3, #4369	; 0x1111
  101cb0:	e3413111 	movt	r3, #4369	; 0x1111
  101cb4:	e3004aec 	movw	r4, #2796	; 0xaec
  101cb8:	e3404012 	movt	r4, #18
  101cbc:	e3a02000 	mov	r2, #0
  101cc0:	e1510003 	cmp	r1, r3
  101cc4:	e5842000 	str	r2, [r4]
  101cc8:	0a000007 	beq	101cec <XDcfg_IntrGetStatus+0x50>
  101ccc:	e30700e8 	movw	r0, #28904	; 0x70e8
  101cd0:	e3a010c1 	mov	r1, #193	; 0xc1
  101cd4:	e3400011 	movt	r0, #17
  101cd8:	eb0003a0 	bl	102b60 <Xil_Assert>
  101cdc:	e3a03001 	mov	r3, #1
  101ce0:	e5843000 	str	r3, [r4]
  101ce4:	e3a00000 	mov	r0, #0
  101ce8:	e8bd8010 	pop	{r4, pc}
  101cec:	e5900004 	ldr	r0, [r0, #4]
  101cf0:	e8bd4010 	pop	{r4, lr}
  101cf4:	e280000c 	add	r0, r0, #12
  101cf8:	ea00063e 	b	1035f8 <Xil_In32>
  101cfc:	e30700e8 	movw	r0, #28904	; 0x70e8
  101d00:	e3a010c0 	mov	r1, #192	; 0xc0
  101d04:	e3400011 	movt	r0, #17
  101d08:	eb000394 	bl	102b60 <Xil_Assert>
  101d0c:	e3003aec 	movw	r3, #2796	; 0xaec
  101d10:	e3a02001 	mov	r2, #1
  101d14:	e3403012 	movt	r3, #18
  101d18:	e5832000 	str	r2, [r3]
  101d1c:	eafffff0 	b	101ce4 <XDcfg_IntrGetStatus+0x48>

00101d20 <XDcfg_IntrClear>:
  101d20:	e3500000 	cmp	r0, #0
  101d24:	e92d4010 	push	{r4, lr}
  101d28:	0a000013 	beq	101d7c <XDcfg_IntrClear+0x5c>
  101d2c:	e590c008 	ldr	ip, [r0, #8]
  101d30:	e3013111 	movw	r3, #4369	; 0x1111
  101d34:	e3413111 	movt	r3, #4369	; 0x1111
  101d38:	e3004aec 	movw	r4, #2796	; 0xaec
  101d3c:	e3404012 	movt	r4, #18
  101d40:	e3a02000 	mov	r2, #0
  101d44:	e15c0003 	cmp	ip, r3
  101d48:	e5842000 	str	r2, [r4]
  101d4c:	0a000006 	beq	101d6c <XDcfg_IntrClear+0x4c>
  101d50:	e30700e8 	movw	r0, #28904	; 0x70e8
  101d54:	e3a010e1 	mov	r1, #225	; 0xe1
  101d58:	e3400011 	movt	r0, #17
  101d5c:	eb00037f 	bl	102b60 <Xil_Assert>
  101d60:	e3a03001 	mov	r3, #1
  101d64:	e5843000 	str	r3, [r4]
  101d68:	e8bd8010 	pop	{r4, pc}
  101d6c:	e5900004 	ldr	r0, [r0, #4]
  101d70:	e8bd4010 	pop	{r4, lr}
  101d74:	e280000c 	add	r0, r0, #12
  101d78:	ea000624 	b	103610 <Xil_Out32>
  101d7c:	e30700e8 	movw	r0, #28904	; 0x70e8
  101d80:	e3a010e0 	mov	r1, #224	; 0xe0
  101d84:	e3400011 	movt	r0, #17
  101d88:	eb000374 	bl	102b60 <Xil_Assert>
  101d8c:	e3003aec 	movw	r3, #2796	; 0xaec
  101d90:	e3a02001 	mov	r2, #1
  101d94:	e3403012 	movt	r3, #18
  101d98:	e5832000 	str	r2, [r3]
  101d9c:	e8bd8010 	pop	{r4, pc}

00101da0 <XDcfg_InterruptHandler>:
  101da0:	e92d4070 	push	{r4, r5, r6, lr}
  101da4:	e2505000 	subs	r5, r0, #0
  101da8:	0a00001c 	beq	101e20 <XDcfg_InterruptHandler+0x80>
  101dac:	e5951008 	ldr	r1, [r5, #8]
  101db0:	e3013111 	movw	r3, #4369	; 0x1111
  101db4:	e3413111 	movt	r3, #4369	; 0x1111
  101db8:	e3004aec 	movw	r4, #2796	; 0xaec
  101dbc:	e3404012 	movt	r4, #18
  101dc0:	e3a02000 	mov	r2, #0
  101dc4:	e1510003 	cmp	r1, r3
  101dc8:	e5842000 	str	r2, [r4]
  101dcc:	0a000006 	beq	101dec <XDcfg_InterruptHandler+0x4c>
  101dd0:	e30700e8 	movw	r0, #28904	; 0x70e8
  101dd4:	e3a010ff 	mov	r1, #255	; 0xff
  101dd8:	e3400011 	movt	r0, #17
  101ddc:	eb00035f 	bl	102b60 <Xil_Assert>
  101de0:	e3a03001 	mov	r3, #1
  101de4:	e5843000 	str	r3, [r4]
  101de8:	e8bd8070 	pop	{r4, r5, r6, pc}
  101dec:	e5950004 	ldr	r0, [r5, #4]
  101df0:	e280000c 	add	r0, r0, #12
  101df4:	eb0005ff 	bl	1035f8 <Xil_In32>
  101df8:	e1a04000 	mov	r4, r0
  101dfc:	e5950004 	ldr	r0, [r5, #4]
  101e00:	e1a01004 	mov	r1, r4
  101e04:	e280000c 	add	r0, r0, #12
  101e08:	eb000600 	bl	103610 <Xil_Out32>
  101e0c:	e1a01004 	mov	r1, r4
  101e10:	e5953010 	ldr	r3, [r5, #16]
  101e14:	e5950014 	ldr	r0, [r5, #20]
  101e18:	e8bd4070 	pop	{r4, r5, r6, lr}
  101e1c:	e12fff13 	bx	r3
  101e20:	e30700e8 	movw	r0, #28904	; 0x70e8
  101e24:	e3a010fe 	mov	r1, #254	; 0xfe
  101e28:	e3400011 	movt	r0, #17
  101e2c:	eb00034b 	bl	102b60 <Xil_Assert>
  101e30:	e3003aec 	movw	r3, #2796	; 0xaec
  101e34:	e3a02001 	mov	r2, #1
  101e38:	e3403012 	movt	r3, #18
  101e3c:	e5832000 	str	r2, [r3]
  101e40:	e8bd8070 	pop	{r4, r5, r6, pc}

00101e44 <XDcfg_SetHandler>:
  101e44:	e3500000 	cmp	r0, #0
  101e48:	e92d4010 	push	{r4, lr}
  101e4c:	0a000014 	beq	101ea4 <XDcfg_SetHandler+0x60>
  101e50:	e3004aec 	movw	r4, #2796	; 0xaec
  101e54:	e3510000 	cmp	r1, #0
  101e58:	e3404012 	movt	r4, #18
  101e5c:	e3a03000 	mov	r3, #0
  101e60:	e5843000 	str	r3, [r4]
  101e64:	0a000017 	beq	101ec8 <XDcfg_SetHandler+0x84>
  101e68:	e590c008 	ldr	ip, [r0, #8]
  101e6c:	e3013111 	movw	r3, #4369	; 0x1111
  101e70:	e3413111 	movt	r3, #4369	; 0x1111
  101e74:	e15c0003 	cmp	ip, r3
  101e78:	0a000006 	beq	101e98 <XDcfg_SetHandler+0x54>
  101e7c:	e30700e8 	movw	r0, #28904	; 0x70e8
  101e80:	e3001131 	movw	r1, #305	; 0x131
  101e84:	e3400011 	movt	r0, #17
  101e88:	eb000334 	bl	102b60 <Xil_Assert>
  101e8c:	e3a03001 	mov	r3, #1
  101e90:	e5843000 	str	r3, [r4]
  101e94:	e8bd8010 	pop	{r4, pc}
  101e98:	e5801010 	str	r1, [r0, #16]
  101e9c:	e5802014 	str	r2, [r0, #20]
  101ea0:	e8bd8010 	pop	{r4, pc}
  101ea4:	e30700e8 	movw	r0, #28904	; 0x70e8
  101ea8:	e300112f 	movw	r1, #303	; 0x12f
  101eac:	e3400011 	movt	r0, #17
  101eb0:	eb00032a 	bl	102b60 <Xil_Assert>
  101eb4:	e3003aec 	movw	r3, #2796	; 0xaec
  101eb8:	e3a02001 	mov	r2, #1
  101ebc:	e3403012 	movt	r3, #18
  101ec0:	e5832000 	str	r2, [r3]
  101ec4:	e8bd8010 	pop	{r4, pc}
  101ec8:	e30700e8 	movw	r0, #28904	; 0x70e8
  101ecc:	e3a01e13 	mov	r1, #304	; 0x130
  101ed0:	e3400011 	movt	r0, #17
  101ed4:	eb000321 	bl	102b60 <Xil_Assert>
  101ed8:	e3a03001 	mov	r3, #1
  101edc:	e5843000 	str	r3, [r4]
  101ee0:	e8bd8010 	pop	{r4, pc}

00101ee4 <XDcfg_SelfTest>:
  101ee4:	e92d4070 	push	{r4, r5, r6, lr}
  101ee8:	e2504000 	subs	r4, r0, #0
  101eec:	0a00001f 	beq	101f70 <XDcfg_SelfTest+0x8c>
  101ef0:	e5941008 	ldr	r1, [r4, #8]
  101ef4:	e3012111 	movw	r2, #4369	; 0x1111
  101ef8:	e3412111 	movt	r2, #4369	; 0x1111
  101efc:	e3005aec 	movw	r5, #2796	; 0xaec
  101f00:	e3405012 	movt	r5, #18
  101f04:	e3a03000 	mov	r3, #0
  101f08:	e1510002 	cmp	r1, r2
  101f0c:	e5853000 	str	r3, [r5]
  101f10:	0a000008 	beq	101f38 <XDcfg_SelfTest+0x54>
  101f14:	e30700f8 	movw	r0, #28920	; 0x70f8
  101f18:	e3a0105e 	mov	r1, #94	; 0x5e
  101f1c:	e3400011 	movt	r0, #17
  101f20:	e1a04003 	mov	r4, r3
  101f24:	eb00030d 	bl	102b60 <Xil_Assert>
  101f28:	e3a03001 	mov	r3, #1
  101f2c:	e5853000 	str	r3, [r5]
  101f30:	e1a00004 	mov	r0, r4
  101f34:	e8bd8070 	pop	{r4, r5, r6, pc}
  101f38:	ebfffc95 	bl	101194 <XDcfg_GetControlRegister>
  101f3c:	e3a01010 	mov	r1, #16
  101f40:	e1a05000 	mov	r5, r0
  101f44:	e1a00004 	mov	r0, r4
  101f48:	ebfffc43 	bl	10105c <XDcfg_SetControlRegister>
  101f4c:	e1a00004 	mov	r0, r4
  101f50:	ebfffc8f 	bl	101194 <XDcfg_GetControlRegister>
  101f54:	e2203010 	eor	r3, r0, #16
  101f58:	e1a01005 	mov	r1, r5
  101f5c:	e1a00004 	mov	r0, r4
  101f60:	e7e04253 	ubfx	r4, r3, #4, #1
  101f64:	ebfffc3c 	bl	10105c <XDcfg_SetControlRegister>
  101f68:	e1a00004 	mov	r0, r4
  101f6c:	e8bd8070 	pop	{r4, r5, r6, pc}
  101f70:	e30700f8 	movw	r0, #28920	; 0x70f8
  101f74:	e3a0105d 	mov	r1, #93	; 0x5d
  101f78:	e3400011 	movt	r0, #17
  101f7c:	eb0002f7 	bl	102b60 <Xil_Assert>
  101f80:	e3003aec 	movw	r3, #2796	; 0xaec
  101f84:	e3a02001 	mov	r2, #1
  101f88:	e3403012 	movt	r3, #18
  101f8c:	e5832000 	str	r2, [r3]
  101f90:	eaffffe6 	b	101f30 <XDcfg_SelfTest+0x4c>

00101f94 <XDcfg_LookupConfig>:
  101f94:	e3073354 	movw	r3, #29524	; 0x7354
  101f98:	e3403011 	movt	r3, #17
  101f9c:	e1d320b0 	ldrh	r2, [r3]
  101fa0:	e1520000 	cmp	r2, r0
  101fa4:	01a00003 	moveq	r0, r3
  101fa8:	13a00000 	movne	r0, #0
  101fac:	e12fff1e 	bx	lr

00101fb0 <StubHandler>:
  101fb0:	e3500000 	cmp	r0, #0
  101fb4:	0a000007 	beq	101fd8 <StubHandler+0x28>
  101fb8:	e5903008 	ldr	r3, [r0, #8]
  101fbc:	e3002aec 	movw	r2, #2796	; 0xaec
  101fc0:	e3402012 	movt	r2, #18
  101fc4:	e3a01000 	mov	r1, #0
  101fc8:	e5821000 	str	r1, [r2]
  101fcc:	e2833001 	add	r3, r3, #1
  101fd0:	e5803008 	str	r3, [r0, #8]
  101fd4:	e12fff1e 	bx	lr
  101fd8:	e307010c 	movw	r0, #28940	; 0x710c
  101fdc:	e92d4010 	push	{r4, lr}
  101fe0:	e3a01f95 	mov	r1, #596	; 0x254
  101fe4:	e3400011 	movt	r0, #17
  101fe8:	eb0002dc 	bl	102b60 <Xil_Assert>
  101fec:	e3003aec 	movw	r3, #2796	; 0xaec
  101ff0:	e3a02001 	mov	r2, #1
  101ff4:	e3403012 	movt	r3, #18
  101ff8:	e5832000 	str	r2, [r3]
  101ffc:	e8bd8010 	pop	{r4, pc}

00102000 <XScuGic_CfgInitialize>:
  102000:	e92d4070 	push	{r4, r5, r6, lr}
  102004:	e2504000 	subs	r4, r0, #0
  102008:	0a00005a 	beq	102178 <XScuGic_CfgInitialize+0x178>
  10200c:	e3005aec 	movw	r5, #2796	; 0xaec
  102010:	e3510000 	cmp	r1, #0
  102014:	e3405012 	movt	r5, #18
  102018:	e3a02000 	mov	r2, #0
  10201c:	e5852000 	str	r2, [r5]
  102020:	0a00005d 	beq	10219c <XScuGic_CfgInitialize+0x19c>
  102024:	e5940004 	ldr	r0, [r4, #4]
  102028:	e3013111 	movw	r3, #4369	; 0x1111
  10202c:	e3413111 	movt	r3, #4369	; 0x1111
  102030:	e1500003 	cmp	r0, r3
  102034:	0a00004d 	beq	102170 <XScuGic_CfgInitialize+0x170>
  102038:	e2810e61 	add	r0, r1, #1552	; 0x610
  10203c:	e301cfb0 	movw	ip, #8112	; 0x1fb0
  102040:	e2800008 	add	r0, r0, #8
  102044:	e340c010 	movt	ip, #16
  102048:	e1a03001 	mov	r3, r1
  10204c:	e8840006 	stm	r4, {r1, r2}
  102050:	e593200c 	ldr	r2, [r3, #12]
  102054:	e2833008 	add	r3, r3, #8
  102058:	e5834008 	str	r4, [r3, #8]
  10205c:	e3520000 	cmp	r2, #0
  102060:	0583c004 	streq	ip, [r3, #4]
  102064:	e1530000 	cmp	r3, r0
  102068:	1afffff8 	bne	102050 <XScuGic_CfgInitialize+0x50>
  10206c:	e5910008 	ldr	r0, [r1, #8]
  102070:	e3a01000 	mov	r1, #0
  102074:	e3a05020 	mov	r5, #32
  102078:	eb000564 	bl	103610 <Xil_Out32>
  10207c:	e5942000 	ldr	r2, [r4]
  102080:	e1a03225 	lsr	r3, r5, #4
  102084:	e3a01000 	mov	r1, #0
  102088:	e2833c03 	add	r3, r3, #768	; 0x300
  10208c:	e2855010 	add	r5, r5, #16
  102090:	e5920008 	ldr	r0, [r2, #8]
  102094:	e0800103 	add	r0, r0, r3, lsl #2
  102098:	eb00055c 	bl	103610 <Xil_Out32>
  10209c:	e35500d0 	cmp	r5, #208	; 0xd0
  1020a0:	1afffff5 	bne	10207c <XScuGic_CfgInitialize+0x7c>
  1020a4:	e3a05000 	mov	r5, #0
  1020a8:	e5942000 	ldr	r2, [r4]
  1020ac:	e3c53003 	bic	r3, r5, #3
  1020b0:	e2833b01 	add	r3, r3, #1024	; 0x400
  1020b4:	e30a10a0 	movw	r1, #41120	; 0xa0a0
  1020b8:	e2855004 	add	r5, r5, #4
  1020bc:	e34a10a0 	movt	r1, #41120	; 0xa0a0
  1020c0:	e5920008 	ldr	r0, [r2, #8]
  1020c4:	e0830000 	add	r0, r3, r0
  1020c8:	eb000550 	bl	103610 <Xil_Out32>
  1020cc:	e35500c4 	cmp	r5, #196	; 0xc4
  1020d0:	1afffff4 	bne	1020a8 <XScuGic_CfgInitialize+0xa8>
  1020d4:	e3a05020 	mov	r5, #32
  1020d8:	e5942000 	ldr	r2, [r4]
  1020dc:	e3c53003 	bic	r3, r5, #3
  1020e0:	e2833b02 	add	r3, r3, #2048	; 0x800
  1020e4:	e3001101 	movw	r1, #257	; 0x101
  1020e8:	e2855004 	add	r5, r5, #4
  1020ec:	e3401101 	movt	r1, #257	; 0x101
  1020f0:	e5920008 	ldr	r0, [r2, #8]
  1020f4:	e0830000 	add	r0, r3, r0
  1020f8:	eb000544 	bl	103610 <Xil_Out32>
  1020fc:	e35500c4 	cmp	r5, #196	; 0xc4
  102100:	1afffff4 	bne	1020d8 <XScuGic_CfgInitialize+0xd8>
  102104:	e3a05000 	mov	r5, #0
  102108:	e5942000 	ldr	r2, [r4]
  10210c:	e1a032a5 	lsr	r3, r5, #5
  102110:	e3e01000 	mvn	r1, #0
  102114:	e2833060 	add	r3, r3, #96	; 0x60
  102118:	e2855020 	add	r5, r5, #32
  10211c:	e5920008 	ldr	r0, [r2, #8]
  102120:	e0800103 	add	r0, r0, r3, lsl #2
  102124:	eb000539 	bl	103610 <Xil_Out32>
  102128:	e35500e0 	cmp	r5, #224	; 0xe0
  10212c:	1afffff5 	bne	102108 <XScuGic_CfgInitialize+0x108>
  102130:	e5943000 	ldr	r3, [r4]
  102134:	e3a01001 	mov	r1, #1
  102138:	e5930008 	ldr	r0, [r3, #8]
  10213c:	eb000533 	bl	103610 <Xil_Out32>
  102140:	e5943000 	ldr	r3, [r4]
  102144:	e3a010f0 	mov	r1, #240	; 0xf0
  102148:	e5930004 	ldr	r0, [r3, #4]
  10214c:	e2800004 	add	r0, r0, #4
  102150:	eb00052e 	bl	103610 <Xil_Out32>
  102154:	e5943000 	ldr	r3, [r4]
  102158:	e3a01007 	mov	r1, #7
  10215c:	e5930004 	ldr	r0, [r3, #4]
  102160:	eb00052a 	bl	103610 <Xil_Out32>
  102164:	e3013111 	movw	r3, #4369	; 0x1111
  102168:	e7df3813 	bfi	r3, r3, #16, #16
  10216c:	e5843004 	str	r3, [r4, #4]
  102170:	e3a00000 	mov	r0, #0
  102174:	e8bd8070 	pop	{r4, r5, r6, pc}
  102178:	e307010c 	movw	r0, #28940	; 0x710c
  10217c:	e3a01f4e 	mov	r1, #312	; 0x138
  102180:	e3400011 	movt	r0, #17
  102184:	eb000275 	bl	102b60 <Xil_Assert>
  102188:	e3003aec 	movw	r3, #2796	; 0xaec
  10218c:	e3a02001 	mov	r2, #1
  102190:	e3403012 	movt	r3, #18
  102194:	e5832000 	str	r2, [r3]
  102198:	eafffff4 	b	102170 <XScuGic_CfgInitialize+0x170>
  10219c:	e307010c 	movw	r0, #28940	; 0x710c
  1021a0:	e3001139 	movw	r1, #313	; 0x139
  1021a4:	e3400011 	movt	r0, #17
  1021a8:	eb00026c 	bl	102b60 <Xil_Assert>
  1021ac:	e3a03001 	mov	r3, #1
  1021b0:	e5853000 	str	r3, [r5]
  1021b4:	eaffffed 	b	102170 <XScuGic_CfgInitialize+0x170>

001021b8 <XScuGic_Connect>:
  1021b8:	e3500000 	cmp	r0, #0
  1021bc:	e92d4010 	push	{r4, lr}
  1021c0:	0a000022 	beq	102250 <XScuGic_Connect+0x98>
  1021c4:	e3004aec 	movw	r4, #2796	; 0xaec
  1021c8:	e35100c2 	cmp	r1, #194	; 0xc2
  1021cc:	e3404012 	movt	r4, #18
  1021d0:	e3a0c000 	mov	ip, #0
  1021d4:	e584c000 	str	ip, [r4]
  1021d8:	8a000014 	bhi	102230 <XScuGic_Connect+0x78>
  1021dc:	e3520000 	cmp	r2, #0
  1021e0:	0a000023 	beq	102274 <XScuGic_Connect+0xbc>
  1021e4:	e590e004 	ldr	lr, [r0, #4]
  1021e8:	e301c111 	movw	ip, #4369	; 0x1111
  1021ec:	e341c111 	movt	ip, #4369	; 0x1111
  1021f0:	e15e000c 	cmp	lr, ip
  1021f4:	0a000007 	beq	102218 <XScuGic_Connect+0x60>
  1021f8:	e307010c 	movw	r0, #28940	; 0x710c
  1021fc:	e300117d 	movw	r1, #381	; 0x17d
  102200:	e3400011 	movt	r0, #17
  102204:	eb000255 	bl	102b60 <Xil_Assert>
  102208:	e3a03001 	mov	r3, #1
  10220c:	e5843000 	str	r3, [r4]
  102210:	e3a00000 	mov	r0, #0
  102214:	e8bd8010 	pop	{r4, pc}
  102218:	e5900000 	ldr	r0, [r0]
  10221c:	e0801181 	add	r1, r0, r1, lsl #3
  102220:	e3a00000 	mov	r0, #0
  102224:	e581200c 	str	r2, [r1, #12]
  102228:	e5813010 	str	r3, [r1, #16]
  10222c:	e8bd8010 	pop	{r4, pc}
  102230:	e307010c 	movw	r0, #28940	; 0x710c
  102234:	e300117b 	movw	r1, #379	; 0x17b
  102238:	e3400011 	movt	r0, #17
  10223c:	eb000247 	bl	102b60 <Xil_Assert>
  102240:	e3a03001 	mov	r3, #1
  102244:	e3a00000 	mov	r0, #0
  102248:	e5843000 	str	r3, [r4]
  10224c:	e8bd8010 	pop	{r4, pc}
  102250:	e307010c 	movw	r0, #28940	; 0x710c
  102254:	e300117a 	movw	r1, #378	; 0x17a
  102258:	e3400011 	movt	r0, #17
  10225c:	eb00023f 	bl	102b60 <Xil_Assert>
  102260:	e3003aec 	movw	r3, #2796	; 0xaec
  102264:	e3a02001 	mov	r2, #1
  102268:	e3403012 	movt	r3, #18
  10226c:	e5832000 	str	r2, [r3]
  102270:	eaffffe6 	b	102210 <XScuGic_Connect+0x58>
  102274:	e307010c 	movw	r0, #28940	; 0x710c
  102278:	e3a01f5f 	mov	r1, #380	; 0x17c
  10227c:	e3400011 	movt	r0, #17
  102280:	eb000236 	bl	102b60 <Xil_Assert>
  102284:	e3a03001 	mov	r3, #1
  102288:	e5843000 	str	r3, [r4]
  10228c:	eaffffdf 	b	102210 <XScuGic_Connect+0x58>

00102290 <XScuGic_Disconnect>:
  102290:	e92d4070 	push	{r4, r5, r6, lr}
  102294:	e2506000 	subs	r6, r0, #0
  102298:	0a000029 	beq	102344 <XScuGic_Disconnect+0xb4>
  10229c:	e3004aec 	movw	r4, #2796	; 0xaec
  1022a0:	e35100c2 	cmp	r1, #194	; 0xc2
  1022a4:	e3404012 	movt	r4, #18
  1022a8:	e3a03000 	mov	r3, #0
  1022ac:	e1a05001 	mov	r5, r1
  1022b0:	e5843000 	str	r3, [r4]
  1022b4:	8a00000b 	bhi	1022e8 <XScuGic_Disconnect+0x58>
  1022b8:	e5962004 	ldr	r2, [r6, #4]
  1022bc:	e3013111 	movw	r3, #4369	; 0x1111
  1022c0:	e3413111 	movt	r3, #4369	; 0x1111
  1022c4:	e1520003 	cmp	r2, r3
  1022c8:	0a00000d 	beq	102304 <XScuGic_Disconnect+0x74>
  1022cc:	e307010c 	movw	r0, #28940	; 0x710c
  1022d0:	e30011a2 	movw	r1, #418	; 0x1a2
  1022d4:	e3400011 	movt	r0, #17
  1022d8:	eb000220 	bl	102b60 <Xil_Assert>
  1022dc:	e3a03001 	mov	r3, #1
  1022e0:	e5843000 	str	r3, [r4]
  1022e4:	e8bd8070 	pop	{r4, r5, r6, pc}
  1022e8:	e307010c 	movw	r0, #28940	; 0x710c
  1022ec:	e30011a1 	movw	r1, #417	; 0x1a1
  1022f0:	e3400011 	movt	r0, #17
  1022f4:	eb000219 	bl	102b60 <Xil_Assert>
  1022f8:	e3a03001 	mov	r3, #1
  1022fc:	e5843000 	str	r3, [r4]
  102300:	e8bd8070 	pop	{r4, r5, r6, pc}
  102304:	e5960000 	ldr	r0, [r6]
  102308:	e1a032a1 	lsr	r3, r1, #5
  10230c:	e201201f 	and	r2, r1, #31
  102310:	e2833060 	add	r3, r3, #96	; 0x60
  102314:	e3a01001 	mov	r1, #1
  102318:	e5900008 	ldr	r0, [r0, #8]
  10231c:	e1a01211 	lsl	r1, r1, r2
  102320:	e0800103 	add	r0, r0, r3, lsl #2
  102324:	eb0004b9 	bl	103610 <Xil_Out32>
  102328:	e5963000 	ldr	r3, [r6]
  10232c:	e3012fb0 	movw	r2, #8112	; 0x1fb0
  102330:	e3402010 	movt	r2, #16
  102334:	e0835185 	add	r5, r3, r5, lsl #3
  102338:	e5856010 	str	r6, [r5, #16]
  10233c:	e585200c 	str	r2, [r5, #12]
  102340:	e8bd8070 	pop	{r4, r5, r6, pc}
  102344:	e307010c 	movw	r0, #28940	; 0x710c
  102348:	e3a01e1a 	mov	r1, #416	; 0x1a0
  10234c:	e3400011 	movt	r0, #17
  102350:	eb000202 	bl	102b60 <Xil_Assert>
  102354:	e3003aec 	movw	r3, #2796	; 0xaec
  102358:	e3a02001 	mov	r2, #1
  10235c:	e3403012 	movt	r3, #18
  102360:	e5832000 	str	r2, [r3]
  102364:	e8bd8070 	pop	{r4, r5, r6, pc}

00102368 <XScuGic_Enable>:
  102368:	e3500000 	cmp	r0, #0
  10236c:	e92d4010 	push	{r4, lr}
  102370:	0a000022 	beq	102400 <XScuGic_Enable+0x98>
  102374:	e3004aec 	movw	r4, #2796	; 0xaec
  102378:	e35100c2 	cmp	r1, #194	; 0xc2
  10237c:	e3404012 	movt	r4, #18
  102380:	e3a03000 	mov	r3, #0
  102384:	e5843000 	str	r3, [r4]
  102388:	8a00000b 	bhi	1023bc <XScuGic_Enable+0x54>
  10238c:	e5902004 	ldr	r2, [r0, #4]
  102390:	e3013111 	movw	r3, #4369	; 0x1111
  102394:	e3413111 	movt	r3, #4369	; 0x1111
  102398:	e1520003 	cmp	r2, r3
  10239c:	0a00000d 	beq	1023d8 <XScuGic_Enable+0x70>
  1023a0:	e307010c 	movw	r0, #28940	; 0x710c
  1023a4:	e3a01f75 	mov	r1, #468	; 0x1d4
  1023a8:	e3400011 	movt	r0, #17
  1023ac:	eb0001eb 	bl	102b60 <Xil_Assert>
  1023b0:	e3a03001 	mov	r3, #1
  1023b4:	e5843000 	str	r3, [r4]
  1023b8:	e8bd8010 	pop	{r4, pc}
  1023bc:	e307010c 	movw	r0, #28940	; 0x710c
  1023c0:	e30011d3 	movw	r1, #467	; 0x1d3
  1023c4:	e3400011 	movt	r0, #17
  1023c8:	eb0001e4 	bl	102b60 <Xil_Assert>
  1023cc:	e3a03001 	mov	r3, #1
  1023d0:	e5843000 	str	r3, [r4]
  1023d4:	e8bd8010 	pop	{r4, pc}
  1023d8:	e5900000 	ldr	r0, [r0]
  1023dc:	e1a032a1 	lsr	r3, r1, #5
  1023e0:	e3a02001 	mov	r2, #1
  1023e4:	e8bd4010 	pop	{r4, lr}
  1023e8:	e201101f 	and	r1, r1, #31
  1023ec:	e2833040 	add	r3, r3, #64	; 0x40
  1023f0:	e5900008 	ldr	r0, [r0, #8]
  1023f4:	e1a01112 	lsl	r1, r2, r1
  1023f8:	e0800103 	add	r0, r0, r3, lsl #2
  1023fc:	ea000483 	b	103610 <Xil_Out32>
  102400:	e307010c 	movw	r0, #28940	; 0x710c
  102404:	e30011d2 	movw	r1, #466	; 0x1d2
  102408:	e3400011 	movt	r0, #17
  10240c:	eb0001d3 	bl	102b60 <Xil_Assert>
  102410:	e3003aec 	movw	r3, #2796	; 0xaec
  102414:	e3a02001 	mov	r2, #1
  102418:	e3403012 	movt	r3, #18
  10241c:	e5832000 	str	r2, [r3]
  102420:	e8bd8010 	pop	{r4, pc}

00102424 <XScuGic_Disable>:
  102424:	e3500000 	cmp	r0, #0
  102428:	e92d4010 	push	{r4, lr}
  10242c:	0a000022 	beq	1024bc <XScuGic_Disable+0x98>
  102430:	e3004aec 	movw	r4, #2796	; 0xaec
  102434:	e35100c2 	cmp	r1, #194	; 0xc2
  102438:	e3404012 	movt	r4, #18
  10243c:	e3a03000 	mov	r3, #0
  102440:	e5843000 	str	r3, [r4]
  102444:	8a00000b 	bhi	102478 <XScuGic_Disable+0x54>
  102448:	e5902004 	ldr	r2, [r0, #4]
  10244c:	e3013111 	movw	r3, #4369	; 0x1111
  102450:	e3413111 	movt	r3, #4369	; 0x1111
  102454:	e1520003 	cmp	r2, r3
  102458:	0a00000d 	beq	102494 <XScuGic_Disable+0x70>
  10245c:	e307010c 	movw	r0, #28940	; 0x710c
  102460:	e30011fe 	movw	r1, #510	; 0x1fe
  102464:	e3400011 	movt	r0, #17
  102468:	eb0001bc 	bl	102b60 <Xil_Assert>
  10246c:	e3a03001 	mov	r3, #1
  102470:	e5843000 	str	r3, [r4]
  102474:	e8bd8010 	pop	{r4, pc}
  102478:	e307010c 	movw	r0, #28940	; 0x710c
  10247c:	e30011fd 	movw	r1, #509	; 0x1fd
  102480:	e3400011 	movt	r0, #17
  102484:	eb0001b5 	bl	102b60 <Xil_Assert>
  102488:	e3a03001 	mov	r3, #1
  10248c:	e5843000 	str	r3, [r4]
  102490:	e8bd8010 	pop	{r4, pc}
  102494:	e5900000 	ldr	r0, [r0]
  102498:	e1a032a1 	lsr	r3, r1, #5
  10249c:	e3a02001 	mov	r2, #1
  1024a0:	e8bd4010 	pop	{r4, lr}
  1024a4:	e201101f 	and	r1, r1, #31
  1024a8:	e2833060 	add	r3, r3, #96	; 0x60
  1024ac:	e5900008 	ldr	r0, [r0, #8]
  1024b0:	e1a01112 	lsl	r1, r2, r1
  1024b4:	e0800103 	add	r0, r0, r3, lsl #2
  1024b8:	ea000454 	b	103610 <Xil_Out32>
  1024bc:	e307010c 	movw	r0, #28940	; 0x710c
  1024c0:	e3a01f7f 	mov	r1, #508	; 0x1fc
  1024c4:	e3400011 	movt	r0, #17
  1024c8:	eb0001a4 	bl	102b60 <Xil_Assert>
  1024cc:	e3003aec 	movw	r3, #2796	; 0xaec
  1024d0:	e3a02001 	mov	r2, #1
  1024d4:	e3403012 	movt	r3, #18
  1024d8:	e5832000 	str	r2, [r3]
  1024dc:	e8bd8010 	pop	{r4, pc}

001024e0 <XScuGic_SoftwareIntr>:
  1024e0:	e3500000 	cmp	r0, #0
  1024e4:	e92d4010 	push	{r4, lr}
  1024e8:	0a00002e 	beq	1025a8 <XScuGic_SoftwareIntr+0xc8>
  1024ec:	e590e004 	ldr	lr, [r0, #4]
  1024f0:	e3013111 	movw	r3, #4369	; 0x1111
  1024f4:	e3413111 	movt	r3, #4369	; 0x1111
  1024f8:	e3004aec 	movw	r4, #2796	; 0xaec
  1024fc:	e3404012 	movt	r4, #18
  102500:	e3a0c000 	mov	ip, #0
  102504:	e15e0003 	cmp	lr, r3
  102508:	e584c000 	str	ip, [r4]
  10250c:	1a00000b 	bne	102540 <XScuGic_SoftwareIntr+0x60>
  102510:	e351000f 	cmp	r1, #15
  102514:	8a000011 	bhi	102560 <XScuGic_SoftwareIntr+0x80>
  102518:	e35200ff 	cmp	r2, #255	; 0xff
  10251c:	9a000017 	bls	102580 <XScuGic_SoftwareIntr+0xa0>
  102520:	e307010c 	movw	r0, #28940	; 0x710c
  102524:	e300122d 	movw	r1, #557	; 0x22d
  102528:	e3400011 	movt	r0, #17
  10252c:	eb00018b 	bl	102b60 <Xil_Assert>
  102530:	e3a03001 	mov	r3, #1
  102534:	e5843000 	str	r3, [r4]
  102538:	e3a00000 	mov	r0, #0
  10253c:	e8bd8010 	pop	{r4, pc}
  102540:	e307010c 	movw	r0, #28940	; 0x710c
  102544:	e300122b 	movw	r1, #555	; 0x22b
  102548:	e3400011 	movt	r0, #17
  10254c:	eb000183 	bl	102b60 <Xil_Assert>
  102550:	e3a03001 	mov	r3, #1
  102554:	e3a00000 	mov	r0, #0
  102558:	e5843000 	str	r3, [r4]
  10255c:	e8bd8010 	pop	{r4, pc}
  102560:	e307010c 	movw	r0, #28940	; 0x710c
  102564:	e3a01f8b 	mov	r1, #556	; 0x22c
  102568:	e3400011 	movt	r0, #17
  10256c:	eb00017b 	bl	102b60 <Xil_Assert>
  102570:	e3a03001 	mov	r3, #1
  102574:	e3a00000 	mov	r0, #0
  102578:	e5843000 	str	r3, [r4]
  10257c:	e8bd8010 	pop	{r4, pc}
  102580:	e5903000 	ldr	r3, [r0]
  102584:	e1812802 	orr	r2, r1, r2, lsl #16
  102588:	e3a0100f 	mov	r1, #15
  10258c:	e34010ff 	movt	r1, #255	; 0xff
  102590:	e5930008 	ldr	r0, [r3, #8]
  102594:	e0011002 	and	r1, r1, r2
  102598:	e2800c0f 	add	r0, r0, #3840	; 0xf00
  10259c:	eb00041b 	bl	103610 <Xil_Out32>
  1025a0:	e3a00000 	mov	r0, #0
  1025a4:	e8bd8010 	pop	{r4, pc}
  1025a8:	e307010c 	movw	r0, #28940	; 0x710c
  1025ac:	e300122a 	movw	r1, #554	; 0x22a
  1025b0:	e3400011 	movt	r0, #17
  1025b4:	eb000169 	bl	102b60 <Xil_Assert>
  1025b8:	e3003aec 	movw	r3, #2796	; 0xaec
  1025bc:	e3a02001 	mov	r2, #1
  1025c0:	e3403012 	movt	r3, #18
  1025c4:	e5832000 	str	r2, [r3]
  1025c8:	eaffffda 	b	102538 <XScuGic_SoftwareIntr+0x58>

001025cc <XScuGic_SetPriorityTriggerType>:
  1025cc:	e92d4070 	push	{r4, r5, r6, lr}
  1025d0:	e2506000 	subs	r6, r0, #0
  1025d4:	e24dd008 	sub	sp, sp, #8
  1025d8:	0a000053 	beq	10272c <XScuGic_SetPriorityTriggerType+0x160>
  1025dc:	e596e004 	ldr	lr, [r6, #4]
  1025e0:	e301c111 	movw	ip, #4369	; 0x1111
  1025e4:	e341c111 	movt	ip, #4369	; 0x1111
  1025e8:	e3004aec 	movw	r4, #2796	; 0xaec
  1025ec:	e3404012 	movt	r4, #18
  1025f0:	e3a00000 	mov	r0, #0
  1025f4:	e15e000c 	cmp	lr, ip
  1025f8:	e5840000 	str	r0, [r4]
  1025fc:	1a00000e 	bne	10263c <XScuGic_SetPriorityTriggerType+0x70>
  102600:	e35100c2 	cmp	r1, #194	; 0xc2
  102604:	e1a05001 	mov	r5, r1
  102608:	8a000013 	bhi	10265c <XScuGic_SetPriorityTriggerType+0x90>
  10260c:	e3530003 	cmp	r3, #3
  102610:	8a00003e 	bhi	102710 <XScuGic_SetPriorityTriggerType+0x144>
  102614:	e35200f8 	cmp	r2, #248	; 0xf8
  102618:	9a000017 	bls	10267c <XScuGic_SetPriorityTriggerType+0xb0>
  10261c:	e307010c 	movw	r0, #28940	; 0x710c
  102620:	e3a01d0a 	mov	r1, #640	; 0x280
  102624:	e3400011 	movt	r0, #17
  102628:	eb00014c 	bl	102b60 <Xil_Assert>
  10262c:	e3a03001 	mov	r3, #1
  102630:	e5843000 	str	r3, [r4]
  102634:	e28dd008 	add	sp, sp, #8
  102638:	e8bd8070 	pop	{r4, r5, r6, pc}
  10263c:	e307010c 	movw	r0, #28940	; 0x710c
  102640:	e300127d 	movw	r1, #637	; 0x27d
  102644:	e3400011 	movt	r0, #17
  102648:	eb000144 	bl	102b60 <Xil_Assert>
  10264c:	e3a03001 	mov	r3, #1
  102650:	e5843000 	str	r3, [r4]
  102654:	e28dd008 	add	sp, sp, #8
  102658:	e8bd8070 	pop	{r4, r5, r6, pc}
  10265c:	e307010c 	movw	r0, #28940	; 0x710c
  102660:	e300127e 	movw	r1, #638	; 0x27e
  102664:	e3400011 	movt	r0, #17
  102668:	eb00013c 	bl	102b60 <Xil_Assert>
  10266c:	e3a03001 	mov	r3, #1
  102670:	e5843000 	str	r3, [r4]
  102674:	e28dd008 	add	sp, sp, #8
  102678:	e8bd8070 	pop	{r4, r5, r6, pc}
  10267c:	e5961000 	ldr	r1, [r6]
  102680:	e3c54003 	bic	r4, r5, #3
  102684:	e2844b01 	add	r4, r4, #1024	; 0x400
  102688:	e88d000c 	stm	sp, {r2, r3}
  10268c:	e5910008 	ldr	r0, [r1, #8]
  102690:	e0840000 	add	r0, r4, r0
  102694:	eb0003d7 	bl	1035f8 <Xil_In32>
  102698:	e596e000 	ldr	lr, [r6]
  10269c:	e205c003 	and	ip, r5, #3
  1026a0:	e1a0c18c 	lsl	ip, ip, #3
  1026a4:	e59d2000 	ldr	r2, [sp]
  1026a8:	e3a010ff 	mov	r1, #255	; 0xff
  1026ac:	e59ee008 	ldr	lr, [lr, #8]
  1026b0:	e1c01c11 	bic	r1, r0, r1, lsl ip
  1026b4:	e20220f8 	and	r2, r2, #248	; 0xf8
  1026b8:	e1811c12 	orr	r1, r1, r2, lsl ip
  1026bc:	e084000e 	add	r0, r4, lr
  1026c0:	e1a04225 	lsr	r4, r5, #4
  1026c4:	e205500f 	and	r5, r5, #15
  1026c8:	eb0003d0 	bl	103610 <Xil_Out32>
  1026cc:	e5962000 	ldr	r2, [r6]
  1026d0:	e2844c03 	add	r4, r4, #768	; 0x300
  1026d4:	e1a04104 	lsl	r4, r4, #2
  1026d8:	e1a05085 	lsl	r5, r5, #1
  1026dc:	e5920008 	ldr	r0, [r2, #8]
  1026e0:	e0840000 	add	r0, r4, r0
  1026e4:	eb0003c3 	bl	1035f8 <Xil_In32>
  1026e8:	e5962000 	ldr	r2, [r6]
  1026ec:	e3a01003 	mov	r1, #3
  1026f0:	e59d3004 	ldr	r3, [sp, #4]
  1026f4:	e1c01511 	bic	r1, r0, r1, lsl r5
  1026f8:	e5922008 	ldr	r2, [r2, #8]
  1026fc:	e1811513 	orr	r1, r1, r3, lsl r5
  102700:	e0840002 	add	r0, r4, r2
  102704:	e28dd008 	add	sp, sp, #8
  102708:	e8bd4070 	pop	{r4, r5, r6, lr}
  10270c:	ea0003bf 	b	103610 <Xil_Out32>
  102710:	e307010c 	movw	r0, #28940	; 0x710c
  102714:	e300127f 	movw	r1, #639	; 0x27f
  102718:	e3400011 	movt	r0, #17
  10271c:	eb00010f 	bl	102b60 <Xil_Assert>
  102720:	e3a03001 	mov	r3, #1
  102724:	e5843000 	str	r3, [r4]
  102728:	eaffffc1 	b	102634 <XScuGic_SetPriorityTriggerType+0x68>
  10272c:	e307010c 	movw	r0, #28940	; 0x710c
  102730:	e3a01f9f 	mov	r1, #636	; 0x27c
  102734:	e3400011 	movt	r0, #17
  102738:	eb000108 	bl	102b60 <Xil_Assert>
  10273c:	e3003aec 	movw	r3, #2796	; 0xaec
  102740:	e3a02001 	mov	r2, #1
  102744:	e3403012 	movt	r3, #18
  102748:	e5832000 	str	r2, [r3]
  10274c:	eaffffb8 	b	102634 <XScuGic_SetPriorityTriggerType+0x68>

00102750 <XScuGic_GetPriorityTriggerType>:
  102750:	e92d41f0 	push	{r4, r5, r6, r7, r8, lr}
  102754:	e2506000 	subs	r6, r0, #0
  102758:	0a00003c 	beq	102850 <XScuGic_GetPriorityTriggerType+0x100>
  10275c:	e5960004 	ldr	r0, [r6, #4]
  102760:	e1a04001 	mov	r4, r1
  102764:	e3011111 	movw	r1, #4369	; 0x1111
  102768:	e3005aec 	movw	r5, #2796	; 0xaec
  10276c:	e3411111 	movt	r1, #4369	; 0x1111
  102770:	e1a07003 	mov	r7, r3
  102774:	e1500001 	cmp	r0, r1
  102778:	e3405012 	movt	r5, #18
  10277c:	e3a03000 	mov	r3, #0
  102780:	e5853000 	str	r3, [r5]
  102784:	1a00001c 	bne	1027fc <XScuGic_GetPriorityTriggerType+0xac>
  102788:	e35400c2 	cmp	r4, #194	; 0xc2
  10278c:	8a000021 	bhi	102818 <XScuGic_GetPriorityTriggerType+0xc8>
  102790:	e3520000 	cmp	r2, #0
  102794:	e1a08002 	mov	r8, r2
  102798:	0a000035 	beq	102874 <XScuGic_GetPriorityTriggerType+0x124>
  10279c:	e3570000 	cmp	r7, #0
  1027a0:	0a000023 	beq	102834 <XScuGic_GetPriorityTriggerType+0xe4>
  1027a4:	e5962000 	ldr	r2, [r6]
  1027a8:	e3c43003 	bic	r3, r4, #3
  1027ac:	e2833b01 	add	r3, r3, #1024	; 0x400
  1027b0:	e5920008 	ldr	r0, [r2, #8]
  1027b4:	e0830000 	add	r0, r3, r0
  1027b8:	eb00038e 	bl	1035f8 <Xil_In32>
  1027bc:	e2041003 	and	r1, r4, #3
  1027c0:	e1a03224 	lsr	r3, r4, #4
  1027c4:	e1a01181 	lsl	r1, r1, #3
  1027c8:	e204400f 	and	r4, r4, #15
  1027cc:	e2833c03 	add	r3, r3, #768	; 0x300
  1027d0:	e1a04084 	lsl	r4, r4, #1
  1027d4:	e1a00130 	lsr	r0, r0, r1
  1027d8:	e5c80000 	strb	r0, [r8]
  1027dc:	e5962000 	ldr	r2, [r6]
  1027e0:	e5920008 	ldr	r0, [r2, #8]
  1027e4:	e0800103 	add	r0, r0, r3, lsl #2
  1027e8:	eb000382 	bl	1035f8 <Xil_In32>
  1027ec:	e1a00430 	lsr	r0, r0, r4
  1027f0:	e2004003 	and	r4, r0, #3
  1027f4:	e5c74000 	strb	r4, [r7]
  1027f8:	e8bd81f0 	pop	{r4, r5, r6, r7, r8, pc}
  1027fc:	e307010c 	movw	r0, #28940	; 0x710c
  102800:	e30012c7 	movw	r1, #711	; 0x2c7
  102804:	e3400011 	movt	r0, #17
  102808:	eb0000d4 	bl	102b60 <Xil_Assert>
  10280c:	e3a03001 	mov	r3, #1
  102810:	e5853000 	str	r3, [r5]
  102814:	e8bd81f0 	pop	{r4, r5, r6, r7, r8, pc}
  102818:	e307010c 	movw	r0, #28940	; 0x710c
  10281c:	e3a01fb2 	mov	r1, #712	; 0x2c8
  102820:	e3400011 	movt	r0, #17
  102824:	eb0000cd 	bl	102b60 <Xil_Assert>
  102828:	e3a03001 	mov	r3, #1
  10282c:	e5853000 	str	r3, [r5]
  102830:	e8bd81f0 	pop	{r4, r5, r6, r7, r8, pc}
  102834:	e307010c 	movw	r0, #28940	; 0x710c
  102838:	e30012ca 	movw	r1, #714	; 0x2ca
  10283c:	e3400011 	movt	r0, #17
  102840:	eb0000c6 	bl	102b60 <Xil_Assert>
  102844:	e3a03001 	mov	r3, #1
  102848:	e5853000 	str	r3, [r5]
  10284c:	e8bd81f0 	pop	{r4, r5, r6, r7, r8, pc}
  102850:	e307010c 	movw	r0, #28940	; 0x710c
  102854:	e30012c6 	movw	r1, #710	; 0x2c6
  102858:	e3400011 	movt	r0, #17
  10285c:	eb0000bf 	bl	102b60 <Xil_Assert>
  102860:	e3003aec 	movw	r3, #2796	; 0xaec
  102864:	e3a02001 	mov	r2, #1
  102868:	e3403012 	movt	r3, #18
  10286c:	e5832000 	str	r2, [r3]
  102870:	e8bd81f0 	pop	{r4, r5, r6, r7, r8, pc}
  102874:	e307010c 	movw	r0, #28940	; 0x710c
  102878:	e30012c9 	movw	r1, #713	; 0x2c9
  10287c:	e3400011 	movt	r0, #17
  102880:	eb0000b6 	bl	102b60 <Xil_Assert>
  102884:	e3a03001 	mov	r3, #1
  102888:	e5853000 	str	r3, [r5]
  10288c:	e8bd81f0 	pop	{r4, r5, r6, r7, r8, pc}

00102890 <XScuGic_InterruptMaptoCpu>:
  102890:	e5903000 	ldr	r3, [r0]
  102894:	e92d41f0 	push	{r4, r5, r6, r7, r8, lr}
  102898:	e1a06000 	mov	r6, r0
  10289c:	e3c25003 	bic	r5, r2, #3
  1028a0:	e1a07001 	mov	r7, r1
  1028a4:	e2855b02 	add	r5, r5, #2048	; 0x800
  1028a8:	e1a04002 	mov	r4, r2
  1028ac:	e5930008 	ldr	r0, [r3, #8]
  1028b0:	e2044003 	and	r4, r4, #3
  1028b4:	e1a04184 	lsl	r4, r4, #3
  1028b8:	e0850000 	add	r0, r5, r0
  1028bc:	eb00034d 	bl	1035f8 <Xil_In32>
  1028c0:	e5962000 	ldr	r2, [r6]
  1028c4:	e3a030ff 	mov	r3, #255	; 0xff
  1028c8:	e1c01413 	bic	r1, r0, r3, lsl r4
  1028cc:	e5922008 	ldr	r2, [r2, #8]
  1028d0:	e1811417 	orr	r1, r1, r7, lsl r4
  1028d4:	e0850002 	add	r0, r5, r2
  1028d8:	e8bd41f0 	pop	{r4, r5, r6, r7, r8, lr}
  1028dc:	ea00034b 	b	103610 <Xil_Out32>

001028e0 <XScuGic_InterruptHandler>:
  1028e0:	e92d4070 	push	{r4, r5, r6, lr}
  1028e4:	e2504000 	subs	r4, r0, #0
  1028e8:	0a000018 	beq	102950 <XScuGic_InterruptHandler+0x70>
  1028ec:	e5942000 	ldr	r2, [r4]
  1028f0:	e3003aec 	movw	r3, #2796	; 0xaec
  1028f4:	e3403012 	movt	r3, #18
  1028f8:	e3a01000 	mov	r1, #0
  1028fc:	e5831000 	str	r1, [r3]
  102900:	e5920004 	ldr	r0, [r2, #4]
  102904:	e280000c 	add	r0, r0, #12
  102908:	eb00033a 	bl	1035f8 <Xil_In32>
  10290c:	e7e92050 	ubfx	r2, r0, #0, #10
  102910:	e1a05000 	mov	r5, r0
  102914:	e35200c3 	cmp	r2, #195	; 0xc3
  102918:	e5943000 	ldr	r3, [r4]
  10291c:	8a000006 	bhi	10293c <XScuGic_InterruptHandler+0x5c>
  102920:	e0831182 	add	r1, r3, r2, lsl #3
  102924:	e371000c 	cmn	r1, #12
  102928:	0a000003 	beq	10293c <XScuGic_InterruptHandler+0x5c>
  10292c:	e591200c 	ldr	r2, [r1, #12]
  102930:	e5910010 	ldr	r0, [r1, #16]
  102934:	e12fff32 	blx	r2
  102938:	e5943000 	ldr	r3, [r4]
  10293c:	e5930004 	ldr	r0, [r3, #4]
  102940:	e1a01005 	mov	r1, r5
  102944:	e8bd4070 	pop	{r4, r5, r6, lr}
  102948:	e2800010 	add	r0, r0, #16
  10294c:	ea00032f 	b	103610 <Xil_Out32>
  102950:	e3070118 	movw	r0, #28952	; 0x7118
  102954:	e3a0107d 	mov	r1, #125	; 0x7d
  102958:	e3400011 	movt	r0, #17
  10295c:	eb00007f 	bl	102b60 <Xil_Assert>
  102960:	e3003aec 	movw	r3, #2796	; 0xaec
  102964:	e3a02001 	mov	r2, #1
  102968:	e3403012 	movt	r3, #18
  10296c:	e5832000 	str	r2, [r3]
  102970:	e8bd8070 	pop	{r4, r5, r6, pc}

00102974 <XScuGic_SelfTest>:
  102974:	e92d4070 	push	{r4, r5, r6, lr}
  102978:	e2506000 	subs	r6, r0, #0
  10297c:	0a000020 	beq	102a04 <XScuGic_SelfTest+0x90>
  102980:	e5962004 	ldr	r2, [r6, #4]
  102984:	e3013111 	movw	r3, #4369	; 0x1111
  102988:	e3413111 	movt	r3, #4369	; 0x1111
  10298c:	e3005aec 	movw	r5, #2796	; 0xaec
  102990:	e3405012 	movt	r5, #18
  102994:	e3a04000 	mov	r4, #0
  102998:	e1520003 	cmp	r2, r3
  10299c:	e5854000 	str	r4, [r5]
  1029a0:	01a05004 	moveq	r5, r4
  1029a4:	1a00000e 	bne	1029e4 <XScuGic_SelfTest+0x70>
  1029a8:	e5963000 	ldr	r3, [r6]
  1029ac:	e5933008 	ldr	r3, [r3, #8]
  1029b0:	e2830eff 	add	r0, r3, #4080	; 0xff0
  1029b4:	e0800004 	add	r0, r0, r4
  1029b8:	eb00030e 	bl	1035f8 <Xil_In32>
  1029bc:	e1a03084 	lsl	r3, r4, #1
  1029c0:	e2844004 	add	r4, r4, #4
  1029c4:	e3540010 	cmp	r4, #16
  1029c8:	e1855310 	orr	r5, r5, r0, lsl r3
  1029cc:	1afffff5 	bne	1029a8 <XScuGic_SelfTest+0x34>
  1029d0:	e30f300d 	movw	r3, #61453	; 0xf00d
  1029d4:	e34b3105 	movt	r3, #45317	; 0xb105
  1029d8:	e0550003 	subs	r0, r5, r3
  1029dc:	13a00001 	movne	r0, #1
  1029e0:	e8bd8070 	pop	{r4, r5, r6, pc}
  1029e4:	e3070128 	movw	r0, #28968	; 0x7128
  1029e8:	e3a01062 	mov	r1, #98	; 0x62
  1029ec:	e3400011 	movt	r0, #17
  1029f0:	eb00005a 	bl	102b60 <Xil_Assert>
  1029f4:	e3a03001 	mov	r3, #1
  1029f8:	e1a00004 	mov	r0, r4
  1029fc:	e5853000 	str	r3, [r5]
  102a00:	e8bd8070 	pop	{r4, r5, r6, pc}
  102a04:	e3070128 	movw	r0, #28968	; 0x7128
  102a08:	e3a01061 	mov	r1, #97	; 0x61
  102a0c:	e3400011 	movt	r0, #17
  102a10:	eb000052 	bl	102b60 <Xil_Assert>
  102a14:	e3003aec 	movw	r3, #2796	; 0xaec
  102a18:	e3a02001 	mov	r2, #1
  102a1c:	e3403012 	movt	r3, #18
  102a20:	e1a00006 	mov	r0, r6
  102a24:	e5832000 	str	r2, [r3]
  102a28:	e8bd8070 	pop	{r4, r5, r6, pc}

00102a2c <XScuGic_LookupConfig>:
  102a2c:	e307335c 	movw	r3, #29532	; 0x735c
  102a30:	e3403011 	movt	r3, #17
  102a34:	e1d320b0 	ldrh	r2, [r3]
  102a38:	e1520000 	cmp	r2, r0
  102a3c:	01a00003 	moveq	r0, r3
  102a40:	13a00000 	movne	r0, #0
  102a44:	e12fff1e 	bx	lr

00102a48 <print>:
  102a48:	e92d4010 	push	{r4, lr}
  102a4c:	e1a04000 	mov	r4, r0
  102a50:	e5d00000 	ldrb	r0, [r0]
  102a54:	e3500000 	cmp	r0, #0
  102a58:	08bd8010 	popeq	{r4, pc}
  102a5c:	eb0004de 	bl	103ddc <outbyte>
  102a60:	e5f40001 	ldrb	r0, [r4, #1]!
  102a64:	e3500000 	cmp	r0, #0
  102a68:	1afffffb 	bne	102a5c <print+0x14>
  102a6c:	e8bd8010 	pop	{r4, pc}

00102a70 <UndefinedException>:
  102a70:	e307331c 	movw	r3, #29468	; 0x731c
  102a74:	e3403011 	movt	r3, #17
  102a78:	e5932008 	ldr	r2, [r3, #8]
  102a7c:	e593000c 	ldr	r0, [r3, #12]
  102a80:	e12fff12 	bx	r2

00102a84 <FIQInterrupt>:
  102a84:	e307331c 	movw	r3, #29468	; 0x731c
  102a88:	e3403011 	movt	r3, #17
  102a8c:	e5932030 	ldr	r2, [r3, #48]	; 0x30
  102a90:	e5930034 	ldr	r0, [r3, #52]	; 0x34
  102a94:	e12fff12 	bx	r2

00102a98 <IRQInterrupt>:
  102a98:	e307331c 	movw	r3, #29468	; 0x731c
  102a9c:	e3403011 	movt	r3, #17
  102aa0:	e5932028 	ldr	r2, [r3, #40]	; 0x28
  102aa4:	e593002c 	ldr	r0, [r3, #44]	; 0x2c
  102aa8:	e12fff12 	bx	r2

00102aac <SWInterrupt>:
  102aac:	e307331c 	movw	r3, #29468	; 0x731c
  102ab0:	e3403011 	movt	r3, #17
  102ab4:	e5932010 	ldr	r2, [r3, #16]
  102ab8:	e5930014 	ldr	r0, [r3, #20]
  102abc:	e12fff12 	bx	r2

00102ac0 <DataAbortInterrupt>:
  102ac0:	e307331c 	movw	r3, #29468	; 0x731c
  102ac4:	e3403011 	movt	r3, #17
  102ac8:	e5932020 	ldr	r2, [r3, #32]
  102acc:	e5930024 	ldr	r0, [r3, #36]	; 0x24
  102ad0:	e12fff12 	bx	r2

00102ad4 <PrefetchAbortInterrupt>:
  102ad4:	e307331c 	movw	r3, #29468	; 0x731c
  102ad8:	e3403011 	movt	r3, #17
  102adc:	e5932018 	ldr	r2, [r3, #24]
  102ae0:	e593001c 	ldr	r0, [r3, #28]
  102ae4:	e12fff12 	bx	r2
  102ae8:	00120014 	.word	0x00120014
  102aec:	00120014 	.word	0x00120014
  102af0:	00120020 	.word	0x00120020
  102af4:	00120b00 	.word	0x00120b00
  102af8:	07616180 	.word	0x07616180

00102afc <_start>:
  102afc:	eb0004a7 	bl	103da0 <__cpu_init>
  102b00:	e3a00000 	mov	r0, #0
  102b04:	e51f1024 	ldr	r1, [pc, #-36]	; 102ae8 <PrefetchAbortInterrupt+0x14>
  102b08:	e51f2024 	ldr	r2, [pc, #-36]	; 102aec <PrefetchAbortInterrupt+0x18>
  102b0c:	e1510002 	cmp	r1, r2
  102b10:	aa000001 	bge	102b1c <_start+0x20>
  102b14:	e4810004 	str	r0, [r1], #4
  102b18:	eafffffb 	b	102b0c <_start+0x10>
  102b1c:	e51f1034 	ldr	r1, [pc, #-52]	; 102af0 <PrefetchAbortInterrupt+0x1c>
  102b20:	e51f2034 	ldr	r2, [pc, #-52]	; 102af4 <PrefetchAbortInterrupt+0x20>
  102b24:	e1510002 	cmp	r1, r2
  102b28:	aa000001 	bge	102b34 <_start+0x38>
  102b2c:	e4810004 	str	r0, [r1], #4
  102b30:	eafffffb 	b	102b24 <_start+0x28>
  102b34:	e51fd044 	ldr	sp, [pc, #-68]	; 102af8 <PrefetchAbortInterrupt+0x24>
  102b38:	e3a00000 	mov	r0, #0
  102b3c:	e3a01000 	mov	r1, #0
  102b40:	eb00046e 	bl	103d00 <XTime_SetTime>
  102b44:	eb00058a 	bl	104174 <__libc_init_array>
  102b48:	e3a00000 	mov	r0, #0
  102b4c:	e3a01000 	mov	r1, #0
  102b50:	eb004e0a 	bl	116380 <main>
  102b54:	eb000576 	bl	104134 <__libc_fini_array>
  102b58:	eb000568 	bl	104100 <exit>
  102b5c:	eafffffe 	b	102b5c <_start+0x60>

00102b60 <Xil_Assert>:
  102b60:	e3003050 	movw	r3, #80	; 0x50
  102b64:	e92d4010 	push	{r4, lr}
  102b68:	e3403012 	movt	r3, #18
  102b6c:	e5933000 	ldr	r3, [r3]
  102b70:	e3530000 	cmp	r3, #0
  102b74:	0a000000 	beq	102b7c <Xil_Assert+0x1c>
  102b78:	e12fff33 	blx	r3
  102b7c:	eafffffe 	b	102b7c <Xil_Assert+0x1c>

00102b80 <Xil_AssertSetCallback>:
  102b80:	e3003050 	movw	r3, #80	; 0x50
  102b84:	e3403012 	movt	r3, #18
  102b88:	e5830000 	str	r0, [r3]
  102b8c:	e12fff1e 	bx	lr

00102b90 <XNullHandler>:
  102b90:	e12fff1e 	bx	lr

00102b94 <Xil_DCacheInvalidateLine>:
  102b94:	e92d4070 	push	{r4, r5, r6, lr}
  102b98:	e1a04000 	mov	r4, r0
  102b9c:	e10f5000 	mrs	r5, CPSR
  102ba0:	e38530c0 	orr	r3, r5, #192	; 0xc0
  102ba4:	e129f003 	msr	CPSR_fc, r3
  102ba8:	e3020770 	movw	r0, #10096	; 0x2770
  102bac:	e1a01004 	mov	r1, r4
  102bb0:	e34f08f0 	movt	r0, #63728	; 0xf8f0
  102bb4:	eb000295 	bl	103610 <Xil_Out32>
  102bb8:	f57ff04f 	dsb	sy
  102bbc:	e3a03000 	mov	r3, #0
  102bc0:	ee403f10 	mcr	15, 2, r3, cr0, cr0, {0}
  102bc4:	e3c4401f 	bic	r4, r4, #31
  102bc8:	ee074f36 	mcr	15, 0, r4, cr7, cr6, {1}
  102bcc:	f57ff04f 	dsb	sy
  102bd0:	e129f005 	msr	CPSR_fc, r5
  102bd4:	e8bd8070 	pop	{r4, r5, r6, pc}

00102bd8 <Xil_DCacheFlushRange>:
  102bd8:	e92d41f0 	push	{r4, r5, r6, r7, r8, lr}
  102bdc:	e10f7000 	mrs	r7, CPSR
  102be0:	e38730c0 	orr	r3, r7, #192	; 0xc0
  102be4:	e129f003 	msr	CPSR_fc, r3
  102be8:	e3510000 	cmp	r1, #0
  102bec:	0a00000e 	beq	102c2c <Xil_DCacheFlushRange+0x54>
  102bf0:	e0805001 	add	r5, r0, r1
  102bf4:	e3c0401f 	bic	r4, r0, #31
  102bf8:	e1550004 	cmp	r5, r4
  102bfc:	9a00000a 	bls	102c2c <Xil_DCacheFlushRange+0x54>
  102c00:	e3a06a02 	mov	r6, #8192	; 0x2000
  102c04:	e34f68f0 	movt	r6, #63728	; 0xf8f0
  102c08:	ee074f3e 	mcr	15, 0, r4, cr7, cr14, {1}
  102c0c:	e3a00d9d 	mov	r0, #10048	; 0x2740
  102c10:	e58647f0 	str	r4, [r6, #2032]	; 0x7f0
  102c14:	e34f08f0 	movt	r0, #63728	; 0xf8f0
  102c18:	e2844020 	add	r4, r4, #32
  102c1c:	e3a01000 	mov	r1, #0
  102c20:	eb00027a 	bl	103610 <Xil_Out32>
  102c24:	e1550004 	cmp	r5, r4
  102c28:	8afffff6 	bhi	102c08 <Xil_DCacheFlushRange+0x30>
  102c2c:	f57ff04f 	dsb	sy
  102c30:	e129f007 	msr	CPSR_fc, r7
  102c34:	e8bd81f0 	pop	{r4, r5, r6, r7, r8, pc}

00102c38 <Xil_DCacheStoreLine>:
  102c38:	e92d4010 	push	{r4, lr}
  102c3c:	e1a01000 	mov	r1, r0
  102c40:	e10f4000 	mrs	r4, CPSR
  102c44:	e38430c0 	orr	r3, r4, #192	; 0xc0
  102c48:	e129f003 	msr	CPSR_fc, r3
  102c4c:	e3a03000 	mov	r3, #0
  102c50:	ee403f10 	mcr	15, 2, r3, cr0, cr0, {0}
  102c54:	e3c0301f 	bic	r3, r0, #31
  102c58:	ee073f3a 	mcr	15, 0, r3, cr7, cr10, {1}
  102c5c:	f57ff04f 	dsb	sy
  102c60:	e30207b0 	movw	r0, #10160	; 0x27b0
  102c64:	e34f08f0 	movt	r0, #63728	; 0xf8f0
  102c68:	eb000268 	bl	103610 <Xil_Out32>
  102c6c:	f57ff04f 	dsb	sy
  102c70:	e129f004 	msr	CPSR_fc, r4
  102c74:	e8bd8010 	pop	{r4, pc}

00102c78 <Xil_ICacheInvalidateLine>:
  102c78:	e92d4070 	push	{r4, r5, r6, lr}
  102c7c:	e1a04000 	mov	r4, r0
  102c80:	e10f5000 	mrs	r5, CPSR
  102c84:	e38530c0 	orr	r3, r5, #192	; 0xc0
  102c88:	e129f003 	msr	CPSR_fc, r3
  102c8c:	e3020770 	movw	r0, #10096	; 0x2770
  102c90:	e1a01004 	mov	r1, r4
  102c94:	e34f08f0 	movt	r0, #63728	; 0xf8f0
  102c98:	eb00025c 	bl	103610 <Xil_Out32>
  102c9c:	f57ff04f 	dsb	sy
  102ca0:	e3a03001 	mov	r3, #1
  102ca4:	ee403f10 	mcr	15, 2, r3, cr0, cr0, {0}
  102ca8:	e3c4401f 	bic	r4, r4, #31
  102cac:	ee074f35 	mcr	15, 0, r4, cr7, cr5, {1}
  102cb0:	f57ff04f 	dsb	sy
  102cb4:	e129f005 	msr	CPSR_fc, r5
  102cb8:	e8bd8070 	pop	{r4, r5, r6, pc}

00102cbc <Xil_ICacheInvalidateRange>:
  102cbc:	e10f2000 	mrs	r2, CPSR
  102cc0:	e38230c0 	orr	r3, r2, #192	; 0xc0
  102cc4:	e129f003 	msr	CPSR_fc, r3
  102cc8:	e3510000 	cmp	r1, #0
  102ccc:	0a00000d 	beq	102d08 <Xil_ICacheInvalidateRange+0x4c>
  102cd0:	e0801001 	add	r1, r0, r1
  102cd4:	e3a03001 	mov	r3, #1
  102cd8:	e3c0001f 	bic	r0, r0, #31
  102cdc:	ee403f10 	mcr	15, 2, r3, cr0, cr0, {0}
  102ce0:	e1510000 	cmp	r1, r0
  102ce4:	9a000007 	bls	102d08 <Xil_ICacheInvalidateRange+0x4c>
  102ce8:	e3a03a02 	mov	r3, #8192	; 0x2000
  102cec:	e34f38f0 	movt	r3, #63728	; 0xf8f0
  102cf0:	e5830770 	str	r0, [r3, #1904]	; 0x770
  102cf4:	f57ff04f 	dsb	sy
  102cf8:	ee070f35 	mcr	15, 0, r0, cr7, cr5, {1}
  102cfc:	e2800020 	add	r0, r0, #32
  102d00:	e1510000 	cmp	r1, r0
  102d04:	8afffff9 	bhi	102cf0 <Xil_ICacheInvalidateRange+0x34>
  102d08:	f57ff04f 	dsb	sy
  102d0c:	e129f002 	msr	CPSR_fc, r2
  102d10:	e12fff1e 	bx	lr

00102d14 <Xil_L1DCacheInvalidate>:
  102d14:	e92d41f0 	push	{r4, r5, r6, r7, r8, lr}
  102d18:	e10f7000 	mrs	r7, CPSR
  102d1c:	e38730c0 	orr	r3, r7, #192	; 0xc0
  102d20:	e129f003 	msr	CPSR_fc, r3
  102d24:	e3071980 	movw	r1, #31104	; 0x7980
  102d28:	e3080b00 	movw	r0, #35584	; 0x8b00
  102d2c:	e340062c 	movt	r0, #1580	; 0x62c
  102d30:	e3401761 	movt	r1, #1889	; 0x761
  102d34:	e0601001 	rsb	r1, r0, r1
  102d38:	e3a05000 	mov	r5, #0
  102d3c:	ebffffa5 	bl	102bd8 <Xil_DCacheFlushRange>
  102d40:	ee405f10 	mcr	15, 2, r5, cr0, cr0, {0}
  102d44:	ee304f10 	mrc	15, 1, r4, cr0, cr0, {0}
  102d48:	e7e806d4 	ubfx	r0, r4, #13, #9
  102d4c:	e7e661d4 	ubfx	r6, r4, #3, #7
  102d50:	e2800001 	add	r0, r0, #1
  102d54:	e2866001 	add	r6, r6, #1
  102d58:	e1a00380 	lsl	r0, r0, #7
  102d5c:	e1a01006 	mov	r1, r6
  102d60:	e2044007 	and	r4, r4, #7
  102d64:	eb00045b 	bl	103ed8 <__aeabi_uidiv>
  102d68:	e2844004 	add	r4, r4, #4
  102d6c:	e3a03001 	mov	r3, #1
  102d70:	e1a00430 	lsr	r0, r0, r4
  102d74:	e1a04413 	lsl	r4, r3, r4
  102d78:	e1a0ef05 	lsl	lr, r5, #30
  102d7c:	e3500000 	cmp	r0, #0
  102d80:	13a03000 	movne	r3, #0
  102d84:	11a02003 	movne	r2, r3
  102d88:	0a000005 	beq	102da4 <Xil_L1DCacheInvalidate+0x90>
  102d8c:	e182c00e 	orr	ip, r2, lr
  102d90:	ee07cf56 	mcr	15, 0, ip, cr7, cr6, {2}
  102d94:	e2833001 	add	r3, r3, #1
  102d98:	e0822004 	add	r2, r2, r4
  102d9c:	e1530000 	cmp	r3, r0
  102da0:	1afffff9 	bne	102d8c <Xil_L1DCacheInvalidate+0x78>
  102da4:	e2855001 	add	r5, r5, #1
  102da8:	e1560005 	cmp	r6, r5
  102dac:	1afffff1 	bne	102d78 <Xil_L1DCacheInvalidate+0x64>
  102db0:	f57ff04f 	dsb	sy
  102db4:	e129f007 	msr	CPSR_fc, r7
  102db8:	e8bd81f0 	pop	{r4, r5, r6, r7, r8, pc}

00102dbc <Xil_L1DCacheEnable>:
  102dbc:	e92d4010 	push	{r4, lr}
  102dc0:	ee114f10 	mrc	15, 0, r4, cr1, cr0, {0}
  102dc4:	e3140004 	tst	r4, #4
  102dc8:	18bd8010 	popne	{r4, pc}
  102dcc:	ebffffd0 	bl	102d14 <Xil_L1DCacheInvalidate>
  102dd0:	e3844004 	orr	r4, r4, #4
  102dd4:	ee014f10 	mcr	15, 0, r4, cr1, cr0, {0}
  102dd8:	e8bd8010 	pop	{r4, pc}

00102ddc <Xil_L1DCacheInvalidateLine>:
  102ddc:	e3a03000 	mov	r3, #0
  102de0:	ee403f10 	mcr	15, 2, r3, cr0, cr0, {0}
  102de4:	e3c0001f 	bic	r0, r0, #31
  102de8:	ee070f36 	mcr	15, 0, r0, cr7, cr6, {1}
  102dec:	f57ff04f 	dsb	sy
  102df0:	e12fff1e 	bx	lr

00102df4 <Xil_L1DCacheInvalidateRange>:
  102df4:	e10f3000 	mrs	r3, CPSR
  102df8:	e38320c0 	orr	r2, r3, #192	; 0xc0
  102dfc:	e129f002 	msr	CPSR_fc, r2
  102e00:	e3510000 	cmp	r1, #0
  102e04:	0a000009 	beq	102e30 <Xil_L1DCacheInvalidateRange+0x3c>
  102e08:	e0801001 	add	r1, r0, r1
  102e0c:	e3a02000 	mov	r2, #0
  102e10:	e3c0001f 	bic	r0, r0, #31
  102e14:	ee402f10 	mcr	15, 2, r2, cr0, cr0, {0}
  102e18:	e1510000 	cmp	r1, r0
  102e1c:	9a000003 	bls	102e30 <Xil_L1DCacheInvalidateRange+0x3c>
  102e20:	ee070f36 	mcr	15, 0, r0, cr7, cr6, {1}
  102e24:	e2800020 	add	r0, r0, #32
  102e28:	e1510000 	cmp	r1, r0
  102e2c:	8afffffb 	bhi	102e20 <Xil_L1DCacheInvalidateRange+0x2c>
  102e30:	f57ff04f 	dsb	sy
  102e34:	e129f003 	msr	CPSR_fc, r3
  102e38:	e12fff1e 	bx	lr

00102e3c <Xil_L1DCacheFlush>:
  102e3c:	e92d41f0 	push	{r4, r5, r6, r7, r8, lr}
  102e40:	e10f7000 	mrs	r7, CPSR
  102e44:	e38730c0 	orr	r3, r7, #192	; 0xc0
  102e48:	e129f003 	msr	CPSR_fc, r3
  102e4c:	e3a05000 	mov	r5, #0
  102e50:	ee405f10 	mcr	15, 2, r5, cr0, cr0, {0}
  102e54:	ee304f10 	mrc	15, 1, r4, cr0, cr0, {0}
  102e58:	e7e806d4 	ubfx	r0, r4, #13, #9
  102e5c:	e7e661d4 	ubfx	r6, r4, #3, #7
  102e60:	e2800001 	add	r0, r0, #1
  102e64:	e2866001 	add	r6, r6, #1
  102e68:	e1a00380 	lsl	r0, r0, #7
  102e6c:	e1a01006 	mov	r1, r6
  102e70:	e2044007 	and	r4, r4, #7
  102e74:	eb000417 	bl	103ed8 <__aeabi_uidiv>
  102e78:	e2844004 	add	r4, r4, #4
  102e7c:	e3a03001 	mov	r3, #1
  102e80:	e1a00430 	lsr	r0, r0, r4
  102e84:	e1a04413 	lsl	r4, r3, r4
  102e88:	e1a0ef05 	lsl	lr, r5, #30
  102e8c:	e3500000 	cmp	r0, #0
  102e90:	13a03000 	movne	r3, #0
  102e94:	11a02003 	movne	r2, r3
  102e98:	0a000005 	beq	102eb4 <Xil_L1DCacheFlush+0x78>
  102e9c:	e182c00e 	orr	ip, r2, lr
  102ea0:	ee07cf5e 	mcr	15, 0, ip, cr7, cr14, {2}
  102ea4:	e2833001 	add	r3, r3, #1
  102ea8:	e0822004 	add	r2, r2, r4
  102eac:	e1530000 	cmp	r3, r0
  102eb0:	1afffff9 	bne	102e9c <Xil_L1DCacheFlush+0x60>
  102eb4:	e2855001 	add	r5, r5, #1
  102eb8:	e1560005 	cmp	r6, r5
  102ebc:	1afffff1 	bne	102e88 <Xil_L1DCacheFlush+0x4c>
  102ec0:	f57ff04f 	dsb	sy
  102ec4:	e129f007 	msr	CPSR_fc, r7
  102ec8:	e8bd81f0 	pop	{r4, r5, r6, r7, r8, pc}

00102ecc <Xil_L1DCacheDisable>:
  102ecc:	e92d4010 	push	{r4, lr}
  102ed0:	ebffffd9 	bl	102e3c <Xil_L1DCacheFlush>
  102ed4:	ee113f10 	mrc	15, 0, r3, cr1, cr0, {0}
  102ed8:	e3c33004 	bic	r3, r3, #4
  102edc:	ee013f10 	mcr	15, 0, r3, cr1, cr0, {0}
  102ee0:	e8bd8010 	pop	{r4, pc}

00102ee4 <Xil_L1DCacheFlushLine>:
  102ee4:	e3a03000 	mov	r3, #0
  102ee8:	ee403f10 	mcr	15, 2, r3, cr0, cr0, {0}
  102eec:	e3c0001f 	bic	r0, r0, #31
  102ef0:	ee070f3e 	mcr	15, 0, r0, cr7, cr14, {1}
  102ef4:	f57ff04f 	dsb	sy
  102ef8:	e12fff1e 	bx	lr

00102efc <Xil_L1DCacheFlushRange>:
  102efc:	e10f3000 	mrs	r3, CPSR
  102f00:	e38320c0 	orr	r2, r3, #192	; 0xc0
  102f04:	e129f002 	msr	CPSR_fc, r2
  102f08:	e3510000 	cmp	r1, #0
  102f0c:	0a000009 	beq	102f38 <Xil_L1DCacheFlushRange+0x3c>
  102f10:	e0801001 	add	r1, r0, r1
  102f14:	e3a02000 	mov	r2, #0
  102f18:	e3c0001f 	bic	r0, r0, #31
  102f1c:	ee402f10 	mcr	15, 2, r2, cr0, cr0, {0}
  102f20:	e1510000 	cmp	r1, r0
  102f24:	9a000003 	bls	102f38 <Xil_L1DCacheFlushRange+0x3c>
  102f28:	ee070f3e 	mcr	15, 0, r0, cr7, cr14, {1}
  102f2c:	e2800020 	add	r0, r0, #32
  102f30:	e1510000 	cmp	r1, r0
  102f34:	8afffffb 	bhi	102f28 <Xil_L1DCacheFlushRange+0x2c>
  102f38:	f57ff04f 	dsb	sy
  102f3c:	e129f003 	msr	CPSR_fc, r3
  102f40:	e12fff1e 	bx	lr

00102f44 <Xil_L1DCacheStoreLine>:
  102f44:	e3a03000 	mov	r3, #0
  102f48:	ee403f10 	mcr	15, 2, r3, cr0, cr0, {0}
  102f4c:	e3c0001f 	bic	r0, r0, #31
  102f50:	ee070f3a 	mcr	15, 0, r0, cr7, cr10, {1}
  102f54:	f57ff04f 	dsb	sy
  102f58:	e12fff1e 	bx	lr

00102f5c <Xil_L1ICacheEnable>:
  102f5c:	ee113f10 	mrc	15, 0, r3, cr1, cr0, {0}
  102f60:	e2132a01 	ands	r2, r3, #4096	; 0x1000
  102f64:	112fff1e 	bxne	lr
  102f68:	ee072f15 	mcr	15, 0, r2, cr7, cr5, {0}
  102f6c:	e3833a01 	orr	r3, r3, #4096	; 0x1000
  102f70:	ee013f10 	mcr	15, 0, r3, cr1, cr0, {0}
  102f74:	e12fff1e 	bx	lr

00102f78 <Xil_L1ICacheDisable>:
  102f78:	f57ff04f 	dsb	sy
  102f7c:	e3a03000 	mov	r3, #0
  102f80:	ee073f15 	mcr	15, 0, r3, cr7, cr5, {0}
  102f84:	ee113f10 	mrc	15, 0, r3, cr1, cr0, {0}
  102f88:	e3c33a01 	bic	r3, r3, #4096	; 0x1000
  102f8c:	ee013f10 	mcr	15, 0, r3, cr1, cr0, {0}
  102f90:	e12fff1e 	bx	lr

00102f94 <Xil_L1ICacheInvalidate>:
  102f94:	e3a03001 	mov	r3, #1
  102f98:	ee403f10 	mcr	15, 2, r3, cr0, cr0, {0}
  102f9c:	e3a03000 	mov	r3, #0
  102fa0:	ee073f15 	mcr	15, 0, r3, cr7, cr5, {0}
  102fa4:	f57ff04f 	dsb	sy
  102fa8:	e12fff1e 	bx	lr

00102fac <Xil_L1ICacheInvalidateLine>:
  102fac:	e3a03001 	mov	r3, #1
  102fb0:	ee403f10 	mcr	15, 2, r3, cr0, cr0, {0}
  102fb4:	e3c0001f 	bic	r0, r0, #31
  102fb8:	ee070f35 	mcr	15, 0, r0, cr7, cr5, {1}
  102fbc:	f57ff04f 	dsb	sy
  102fc0:	e12fff1e 	bx	lr

00102fc4 <Xil_L1ICacheInvalidateRange>:
  102fc4:	e10f3000 	mrs	r3, CPSR
  102fc8:	e38320c0 	orr	r2, r3, #192	; 0xc0
  102fcc:	e129f002 	msr	CPSR_fc, r2
  102fd0:	e3510000 	cmp	r1, #0
  102fd4:	0a000009 	beq	103000 <Xil_L1ICacheInvalidateRange+0x3c>
  102fd8:	e0801001 	add	r1, r0, r1
  102fdc:	e3a02001 	mov	r2, #1
  102fe0:	e3c0001f 	bic	r0, r0, #31
  102fe4:	ee402f10 	mcr	15, 2, r2, cr0, cr0, {0}
  102fe8:	e1510000 	cmp	r1, r0
  102fec:	9a000003 	bls	103000 <Xil_L1ICacheInvalidateRange+0x3c>
  102ff0:	ee070f35 	mcr	15, 0, r0, cr7, cr5, {1}
  102ff4:	e2800020 	add	r0, r0, #32
  102ff8:	e1510000 	cmp	r1, r0
  102ffc:	8afffffb 	bhi	102ff0 <Xil_L1ICacheInvalidateRange+0x2c>
  103000:	f57ff04f 	dsb	sy
  103004:	e129f003 	msr	CPSR_fc, r3
  103008:	e12fff1e 	bx	lr

0010300c <Xil_L2CacheInvalidate>:
  10300c:	e3071980 	movw	r1, #31104	; 0x7980
  103010:	e3080b00 	movw	r0, #35584	; 0x8b00
  103014:	e340062c 	movt	r0, #1580	; 0x62c
  103018:	e3401761 	movt	r1, #1889	; 0x761
  10301c:	e0601001 	rsb	r1, r0, r1
  103020:	e92d4010 	push	{r4, lr}
  103024:	ebfffeeb 	bl	102bd8 <Xil_DCacheFlushRange>
  103028:	e302077c 	movw	r0, #10108	; 0x277c
  10302c:	e30f1fff 	movw	r1, #65535	; 0xffff
  103030:	e34f08f0 	movt	r0, #63728	; 0xf8f0
  103034:	eb000175 	bl	103610 <Xil_Out32>
  103038:	e302077c 	movw	r0, #10108	; 0x277c
  10303c:	e34f08f0 	movt	r0, #63728	; 0xf8f0
  103040:	eb00016c 	bl	1035f8 <Xil_In32>
  103044:	e6ff0070 	uxth	r0, r0
  103048:	e3500000 	cmp	r0, #0
  10304c:	1afffff9 	bne	103038 <Xil_L2CacheInvalidate+0x2c>
  103050:	e3a00d9d 	mov	r0, #10048	; 0x2740
  103054:	e3a01000 	mov	r1, #0
  103058:	e34f08f0 	movt	r0, #63728	; 0xf8f0
  10305c:	eb00016b 	bl	103610 <Xil_Out32>
  103060:	f57ff04f 	dsb	sy
  103064:	e8bd8010 	pop	{r4, pc}

00103068 <Xil_DCacheInvalidate>:
  103068:	e92d4010 	push	{r4, lr}
  10306c:	e10f4000 	mrs	r4, CPSR
  103070:	e38430c0 	orr	r3, r4, #192	; 0xc0
  103074:	e129f003 	msr	CPSR_fc, r3
  103078:	ebffffe3 	bl	10300c <Xil_L2CacheInvalidate>
  10307c:	ebffff24 	bl	102d14 <Xil_L1DCacheInvalidate>
  103080:	e129f004 	msr	CPSR_fc, r4
  103084:	e8bd8010 	pop	{r4, pc}

00103088 <Xil_ICacheInvalidate>:
  103088:	e92d4010 	push	{r4, lr}
  10308c:	e10f4000 	mrs	r4, CPSR
  103090:	e38430c0 	orr	r3, r4, #192	; 0xc0
  103094:	e129f003 	msr	CPSR_fc, r3
  103098:	ebffffdb 	bl	10300c <Xil_L2CacheInvalidate>
  10309c:	e3a03001 	mov	r3, #1
  1030a0:	ee403f10 	mcr	15, 2, r3, cr0, cr0, {0}
  1030a4:	e3a03000 	mov	r3, #0
  1030a8:	ee073f15 	mcr	15, 0, r3, cr7, cr5, {0}
  1030ac:	f57ff04f 	dsb	sy
  1030b0:	e129f004 	msr	CPSR_fc, r4
  1030b4:	e8bd8010 	pop	{r4, pc}

001030b8 <Xil_L2CacheEnable>:
  1030b8:	e3a00c21 	mov	r0, #8448	; 0x2100
  1030bc:	e92d4010 	push	{r4, lr}
  1030c0:	e34f08f0 	movt	r0, #63728	; 0xf8f0
  1030c4:	eb00014b 	bl	1035f8 <Xil_In32>
  1030c8:	e2104001 	ands	r4, r0, #1
  1030cc:	18bd8010 	popne	{r4, pc}
  1030d0:	e3020104 	movw	r0, #8452	; 0x2104
  1030d4:	e34f08f0 	movt	r0, #63728	; 0xf8f0
  1030d8:	eb000146 	bl	1035f8 <Xil_In32>
  1030dc:	e3c0180e 	bic	r1, r0, #917504	; 0xe0000
  1030e0:	e3020104 	movw	r0, #8452	; 0x2104
  1030e4:	e3811472 	orr	r1, r1, #1912602624	; 0x72000000
  1030e8:	e34f08f0 	movt	r0, #63728	; 0xf8f0
  1030ec:	e3811836 	orr	r1, r1, #3538944	; 0x360000
  1030f0:	eb000146 	bl	103610 <Xil_Out32>
  1030f4:	e3020108 	movw	r0, #8456	; 0x2108
  1030f8:	e3001111 	movw	r1, #273	; 0x111
  1030fc:	e34f08f0 	movt	r0, #63728	; 0xf8f0
  103100:	eb000142 	bl	103610 <Xil_Out32>
  103104:	e302010c 	movw	r0, #8460	; 0x210c
  103108:	e3001121 	movw	r1, #289	; 0x121
  10310c:	e34f08f0 	movt	r0, #63728	; 0xf8f0
  103110:	eb00013e 	bl	103610 <Xil_Out32>
  103114:	e302021c 	movw	r0, #8732	; 0x221c
  103118:	e34f08f0 	movt	r0, #63728	; 0xf8f0
  10311c:	eb000135 	bl	1035f8 <Xil_In32>
  103120:	e1a01000 	mov	r1, r0
  103124:	e3020220 	movw	r0, #8736	; 0x2220
  103128:	e34f08f0 	movt	r0, #63728	; 0xf8f0
  10312c:	eb000137 	bl	103610 <Xil_Out32>
  103130:	ebffffb5 	bl	10300c <Xil_L2CacheInvalidate>
  103134:	e3a00c21 	mov	r0, #8448	; 0x2100
  103138:	e34f08f0 	movt	r0, #63728	; 0xf8f0
  10313c:	eb00012d 	bl	1035f8 <Xil_In32>
  103140:	e3801001 	orr	r1, r0, #1
  103144:	e3a00c21 	mov	r0, #8448	; 0x2100
  103148:	e34f08f0 	movt	r0, #63728	; 0xf8f0
  10314c:	eb00012f 	bl	103610 <Xil_Out32>
  103150:	e3a00d9d 	mov	r0, #10048	; 0x2740
  103154:	e1a01004 	mov	r1, r4
  103158:	e34f08f0 	movt	r0, #63728	; 0xf8f0
  10315c:	eb00012b 	bl	103610 <Xil_Out32>
  103160:	f57ff04f 	dsb	sy
  103164:	e8bd8010 	pop	{r4, pc}

00103168 <Xil_DCacheEnable>:
  103168:	e92d4010 	push	{r4, lr}
  10316c:	ebffff12 	bl	102dbc <Xil_L1DCacheEnable>
  103170:	e8bd4010 	pop	{r4, lr}
  103174:	eaffffcf 	b	1030b8 <Xil_L2CacheEnable>

00103178 <Xil_ICacheEnable>:
  103178:	ee113f10 	mrc	15, 0, r3, cr1, cr0, {0}
  10317c:	e2132a01 	ands	r2, r3, #4096	; 0x1000
  103180:	1a000002 	bne	103190 <Xil_ICacheEnable+0x18>
  103184:	ee072f15 	mcr	15, 0, r2, cr7, cr5, {0}
  103188:	e3833a01 	orr	r3, r3, #4096	; 0x1000
  10318c:	ee013f10 	mcr	15, 0, r3, cr1, cr0, {0}
  103190:	eaffffc8 	b	1030b8 <Xil_L2CacheEnable>

00103194 <Xil_L2CacheInvalidateLine>:
  103194:	e1a01000 	mov	r1, r0
  103198:	e3020770 	movw	r0, #10096	; 0x2770
  10319c:	e92d4010 	push	{r4, lr}
  1031a0:	e34f08f0 	movt	r0, #63728	; 0xf8f0
  1031a4:	eb000119 	bl	103610 <Xil_Out32>
  1031a8:	f57ff04f 	dsb	sy
  1031ac:	e8bd8010 	pop	{r4, pc}

001031b0 <Xil_L2CacheInvalidateRange>:
  1031b0:	e92d41f0 	push	{r4, r5, r6, r7, r8, lr}
  1031b4:	e10f7000 	mrs	r7, CPSR
  1031b8:	e38730c0 	orr	r3, r7, #192	; 0xc0
  1031bc:	e129f003 	msr	CPSR_fc, r3
  1031c0:	e3510000 	cmp	r1, #0
  1031c4:	1a000002 	bne	1031d4 <Xil_L2CacheInvalidateRange+0x24>
  1031c8:	f57ff04f 	dsb	sy
  1031cc:	e129f007 	msr	CPSR_fc, r7
  1031d0:	e8bd81f0 	pop	{r4, r5, r6, r7, r8, pc}
  1031d4:	e1a04000 	mov	r4, r0
  1031d8:	e3a00dbd 	mov	r0, #12096	; 0x2f40
  1031dc:	e0845001 	add	r5, r4, r1
  1031e0:	e34f08f0 	movt	r0, #63728	; 0xf8f0
  1031e4:	e3c4401f 	bic	r4, r4, #31
  1031e8:	e3a01003 	mov	r1, #3
  1031ec:	eb000107 	bl	103610 <Xil_Out32>
  1031f0:	e1550004 	cmp	r5, r4
  1031f4:	83a06a02 	movhi	r6, #8192	; 0x2000
  1031f8:	834f68f0 	movthi	r6, #63728	; 0xf8f0
  1031fc:	9a000007 	bls	103220 <Xil_L2CacheInvalidateRange+0x70>
  103200:	e3a00d9d 	mov	r0, #10048	; 0x2740
  103204:	e5864770 	str	r4, [r6, #1904]	; 0x770
  103208:	e34f08f0 	movt	r0, #63728	; 0xf8f0
  10320c:	e2844020 	add	r4, r4, #32
  103210:	e3a01000 	mov	r1, #0
  103214:	eb0000fd 	bl	103610 <Xil_Out32>
  103218:	e1550004 	cmp	r5, r4
  10321c:	8afffff7 	bhi	103200 <Xil_L2CacheInvalidateRange+0x50>
  103220:	e3a00dbd 	mov	r0, #12096	; 0x2f40
  103224:	e3a01000 	mov	r1, #0
  103228:	e34f08f0 	movt	r0, #63728	; 0xf8f0
  10322c:	eb0000f7 	bl	103610 <Xil_Out32>
  103230:	eaffffe4 	b	1031c8 <Xil_L2CacheInvalidateRange+0x18>

00103234 <Xil_L2CacheFlush>:
  103234:	e3a00dbd 	mov	r0, #12096	; 0x2f40
  103238:	e3a01003 	mov	r1, #3
  10323c:	e34f08f0 	movt	r0, #63728	; 0xf8f0
  103240:	e92d4010 	push	{r4, lr}
  103244:	eb0000f1 	bl	103610 <Xil_Out32>
  103248:	e30207fc 	movw	r0, #10236	; 0x27fc
  10324c:	e30f1fff 	movw	r1, #65535	; 0xffff
  103250:	e34f08f0 	movt	r0, #63728	; 0xf8f0
  103254:	eb0000ed 	bl	103610 <Xil_Out32>
  103258:	e30207fc 	movw	r0, #10236	; 0x27fc
  10325c:	e34f08f0 	movt	r0, #63728	; 0xf8f0
  103260:	eb0000e4 	bl	1035f8 <Xil_In32>
  103264:	e6ff0070 	uxth	r0, r0
  103268:	e3500000 	cmp	r0, #0
  10326c:	1afffff9 	bne	103258 <Xil_L2CacheFlush+0x24>
  103270:	e3a00d9d 	mov	r0, #10048	; 0x2740
  103274:	e3a01000 	mov	r1, #0
  103278:	e34f08f0 	movt	r0, #63728	; 0xf8f0
  10327c:	eb0000e3 	bl	103610 <Xil_Out32>
  103280:	e3a00dbd 	mov	r0, #12096	; 0x2f40
  103284:	e3a01000 	mov	r1, #0
  103288:	e34f08f0 	movt	r0, #63728	; 0xf8f0
  10328c:	eb0000df 	bl	103610 <Xil_Out32>
  103290:	f57ff04f 	dsb	sy
  103294:	e8bd8010 	pop	{r4, pc}

00103298 <Xil_DCacheFlush>:
  103298:	e92d4010 	push	{r4, lr}
  10329c:	e10f4000 	mrs	r4, CPSR
  1032a0:	e38430c0 	orr	r3, r4, #192	; 0xc0
  1032a4:	e129f003 	msr	CPSR_fc, r3
  1032a8:	ebfffee3 	bl	102e3c <Xil_L1DCacheFlush>
  1032ac:	ebffffe0 	bl	103234 <Xil_L2CacheFlush>
  1032b0:	e129f004 	msr	CPSR_fc, r4
  1032b4:	e8bd8010 	pop	{r4, pc}

001032b8 <Xil_L2CacheDisable>:
  1032b8:	e3a00c21 	mov	r0, #8448	; 0x2100
  1032bc:	e92d4010 	push	{r4, lr}
  1032c0:	e34f08f0 	movt	r0, #63728	; 0xf8f0
  1032c4:	eb0000cb 	bl	1035f8 <Xil_In32>
  1032c8:	e3100001 	tst	r0, #1
  1032cc:	08bd8010 	popeq	{r4, pc}
  1032d0:	ebffffd7 	bl	103234 <Xil_L2CacheFlush>
  1032d4:	e3a00c21 	mov	r0, #8448	; 0x2100
  1032d8:	e34f08f0 	movt	r0, #63728	; 0xf8f0
  1032dc:	eb0000c5 	bl	1035f8 <Xil_In32>
  1032e0:	e3c01001 	bic	r1, r0, #1
  1032e4:	e3a00c21 	mov	r0, #8448	; 0x2100
  1032e8:	e34f08f0 	movt	r0, #63728	; 0xf8f0
  1032ec:	eb0000c7 	bl	103610 <Xil_Out32>
  1032f0:	f57ff04f 	dsb	sy
  1032f4:	e8bd8010 	pop	{r4, pc}

001032f8 <Xil_DCacheDisable>:
  1032f8:	e92d4010 	push	{r4, lr}
  1032fc:	ebffffed 	bl	1032b8 <Xil_L2CacheDisable>
  103300:	ebfffecd 	bl	102e3c <Xil_L1DCacheFlush>
  103304:	ee113f10 	mrc	15, 0, r3, cr1, cr0, {0}
  103308:	e3c33004 	bic	r3, r3, #4
  10330c:	ee013f10 	mcr	15, 0, r3, cr1, cr0, {0}
  103310:	e8bd8010 	pop	{r4, pc}

00103314 <Xil_ICacheDisable>:
  103314:	e92d4010 	push	{r4, lr}
  103318:	ebffffe6 	bl	1032b8 <Xil_L2CacheDisable>
  10331c:	f57ff04f 	dsb	sy
  103320:	e3a03000 	mov	r3, #0
  103324:	ee073f15 	mcr	15, 0, r3, cr7, cr5, {0}
  103328:	ee113f10 	mrc	15, 0, r3, cr1, cr0, {0}
  10332c:	e3c33a01 	bic	r3, r3, #4096	; 0x1000
  103330:	ee013f10 	mcr	15, 0, r3, cr1, cr0, {0}
  103334:	e8bd8010 	pop	{r4, pc}

00103338 <Xil_L2CacheFlushLine>:
  103338:	e92d4010 	push	{r4, lr}
  10333c:	e1a04000 	mov	r4, r0
  103340:	e30207b0 	movw	r0, #10160	; 0x27b0
  103344:	e1a01004 	mov	r1, r4
  103348:	e34f08f0 	movt	r0, #63728	; 0xf8f0
  10334c:	eb0000af 	bl	103610 <Xil_Out32>
  103350:	e3020770 	movw	r0, #10096	; 0x2770
  103354:	e1a01004 	mov	r1, r4
  103358:	e34f08f0 	movt	r0, #63728	; 0xf8f0
  10335c:	eb0000ab 	bl	103610 <Xil_Out32>
  103360:	f57ff04f 	dsb	sy
  103364:	e8bd8010 	pop	{r4, pc}

00103368 <Xil_DCacheInvalidateRange>:
  103368:	e92d41f0 	push	{r4, r5, r6, r7, r8, lr}
  10336c:	e10f7000 	mrs	r7, CPSR
  103370:	e38730c0 	orr	r3, r7, #192	; 0xc0
  103374:	e129f003 	msr	CPSR_fc, r3
  103378:	e3510000 	cmp	r1, #0
  10337c:	0a000014 	beq	1033d4 <Xil_DCacheInvalidateRange+0x6c>
  103380:	e1a04000 	mov	r4, r0
  103384:	e3a06000 	mov	r6, #0
  103388:	e0805001 	add	r5, r0, r1
  10338c:	ee406f10 	mcr	15, 2, r6, cr0, cr0, {0}
  103390:	e310001f 	tst	r0, #31
  103394:	1a000025 	bne	103430 <Xil_DCacheInvalidateRange+0xc8>
  103398:	e315001f 	tst	r5, #31
  10339c:	1a00000f 	bne	1033e0 <Xil_DCacheInvalidateRange+0x78>
  1033a0:	e1540005 	cmp	r4, r5
  1033a4:	2a00000a 	bcs	1033d4 <Xil_DCacheInvalidateRange+0x6c>
  1033a8:	e3a06a02 	mov	r6, #8192	; 0x2000
  1033ac:	e34f68f0 	movt	r6, #63728	; 0xf8f0
  1033b0:	e3a00d9d 	mov	r0, #10048	; 0x2740
  1033b4:	e5864770 	str	r4, [r6, #1904]	; 0x770
  1033b8:	e34f08f0 	movt	r0, #63728	; 0xf8f0
  1033bc:	e3a01000 	mov	r1, #0
  1033c0:	eb000092 	bl	103610 <Xil_Out32>
  1033c4:	ee074f36 	mcr	15, 0, r4, cr7, cr6, {1}
  1033c8:	e2844020 	add	r4, r4, #32
  1033cc:	e1540005 	cmp	r4, r5
  1033d0:	3afffff6 	bcc	1033b0 <Xil_DCacheInvalidateRange+0x48>
  1033d4:	f57ff04f 	dsb	sy
  1033d8:	e129f007 	msr	CPSR_fc, r7
  1033dc:	e8bd81f0 	pop	{r4, r5, r6, r7, r8, pc}
  1033e0:	e3c5501f 	bic	r5, r5, #31
  1033e4:	e3a06000 	mov	r6, #0
  1033e8:	ee406f10 	mcr	15, 2, r6, cr0, cr0, {0}
  1033ec:	ee075f3e 	mcr	15, 0, r5, cr7, cr14, {1}
  1033f0:	f57ff04f 	dsb	sy
  1033f4:	e3a00dbd 	mov	r0, #12096	; 0x2f40
  1033f8:	e3a01003 	mov	r1, #3
  1033fc:	e34f08f0 	movt	r0, #63728	; 0xf8f0
  103400:	eb000082 	bl	103610 <Xil_Out32>
  103404:	e1a00005 	mov	r0, r5
  103408:	ebffffca 	bl	103338 <Xil_L2CacheFlushLine>
  10340c:	e3a00dbd 	mov	r0, #12096	; 0x2f40
  103410:	e1a01006 	mov	r1, r6
  103414:	e34f08f0 	movt	r0, #63728	; 0xf8f0
  103418:	eb00007c 	bl	103610 <Xil_Out32>
  10341c:	e3a00d9d 	mov	r0, #10048	; 0x2740
  103420:	e1a01006 	mov	r1, r6
  103424:	e34f08f0 	movt	r0, #63728	; 0xf8f0
  103428:	eb000078 	bl	103610 <Xil_Out32>
  10342c:	eaffffdb 	b	1033a0 <Xil_DCacheInvalidateRange+0x38>
  103430:	e3c0801f 	bic	r8, r0, #31
  103434:	ee406f10 	mcr	15, 2, r6, cr0, cr0, {0}
  103438:	ee078f3e 	mcr	15, 0, r8, cr7, cr14, {1}
  10343c:	f57ff04f 	dsb	sy
  103440:	e3a00dbd 	mov	r0, #12096	; 0x2f40
  103444:	e3a01003 	mov	r1, #3
  103448:	e34f08f0 	movt	r0, #63728	; 0xf8f0
  10344c:	e2884020 	add	r4, r8, #32
  103450:	eb00006e 	bl	103610 <Xil_Out32>
  103454:	e1a00008 	mov	r0, r8
  103458:	ebffffb6 	bl	103338 <Xil_L2CacheFlushLine>
  10345c:	e3a00dbd 	mov	r0, #12096	; 0x2f40
  103460:	e1a01006 	mov	r1, r6
  103464:	e34f08f0 	movt	r0, #63728	; 0xf8f0
  103468:	eb000068 	bl	103610 <Xil_Out32>
  10346c:	e3a00d9d 	mov	r0, #10048	; 0x2740
  103470:	e1a01006 	mov	r1, r6
  103474:	e34f08f0 	movt	r0, #63728	; 0xf8f0
  103478:	eb000064 	bl	103610 <Xil_Out32>
  10347c:	e315001f 	tst	r5, #31
  103480:	0affffc6 	beq	1033a0 <Xil_DCacheInvalidateRange+0x38>
  103484:	eaffffd5 	b	1033e0 <Xil_DCacheInvalidateRange+0x78>

00103488 <Xil_DCacheFlushLine>:
  103488:	e92d41f0 	push	{r4, r5, r6, r7, r8, lr}
  10348c:	e1a07000 	mov	r7, r0
  103490:	e10f6000 	mrs	r6, CPSR
  103494:	e38630c0 	orr	r3, r6, #192	; 0xc0
  103498:	e129f003 	msr	CPSR_fc, r3
  10349c:	e3a04000 	mov	r4, #0
  1034a0:	ee404f10 	mcr	15, 2, r4, cr0, cr0, {0}
  1034a4:	e3c0301f 	bic	r3, r0, #31
  1034a8:	ee073f3e 	mcr	15, 0, r3, cr7, cr14, {1}
  1034ac:	f57ff04f 	dsb	sy
  1034b0:	e3a05dbd 	mov	r5, #12096	; 0x2f40
  1034b4:	e3a01003 	mov	r1, #3
  1034b8:	e34f58f0 	movt	r5, #63728	; 0xf8f0
  1034bc:	e1a00005 	mov	r0, r5
  1034c0:	eb000052 	bl	103610 <Xil_Out32>
  1034c4:	e1a00007 	mov	r0, r7
  1034c8:	ebffff9a 	bl	103338 <Xil_L2CacheFlushLine>
  1034cc:	e1a01004 	mov	r1, r4
  1034d0:	e1a00005 	mov	r0, r5
  1034d4:	eb00004d 	bl	103610 <Xil_Out32>
  1034d8:	e3a00d9d 	mov	r0, #10048	; 0x2740
  1034dc:	e1a01004 	mov	r1, r4
  1034e0:	e34f08f0 	movt	r0, #63728	; 0xf8f0
  1034e4:	eb000049 	bl	103610 <Xil_Out32>
  1034e8:	e129f006 	msr	CPSR_fc, r6
  1034ec:	e8bd81f0 	pop	{r4, r5, r6, r7, r8, pc}

001034f0 <Xil_L2CacheFlushRange>:
  1034f0:	e92d41f0 	push	{r4, r5, r6, r7, r8, lr}
  1034f4:	e10f7000 	mrs	r7, CPSR
  1034f8:	e38730c0 	orr	r3, r7, #192	; 0xc0
  1034fc:	e129f003 	msr	CPSR_fc, r3
  103500:	e3510000 	cmp	r1, #0
  103504:	1a000002 	bne	103514 <Xil_L2CacheFlushRange+0x24>
  103508:	f57ff04f 	dsb	sy
  10350c:	e129f007 	msr	CPSR_fc, r7
  103510:	e8bd81f0 	pop	{r4, r5, r6, r7, r8, pc}
  103514:	e1a04000 	mov	r4, r0
  103518:	e3a00dbd 	mov	r0, #12096	; 0x2f40
  10351c:	e0845001 	add	r5, r4, r1
  103520:	e34f08f0 	movt	r0, #63728	; 0xf8f0
  103524:	e3c4401f 	bic	r4, r4, #31
  103528:	e3a01003 	mov	r1, #3
  10352c:	eb000037 	bl	103610 <Xil_Out32>
  103530:	e1550004 	cmp	r5, r4
  103534:	83a06a02 	movhi	r6, #8192	; 0x2000
  103538:	834f68f0 	movthi	r6, #63728	; 0xf8f0
  10353c:	9a000007 	bls	103560 <Xil_L2CacheFlushRange+0x70>
  103540:	e3a00d9d 	mov	r0, #10048	; 0x2740
  103544:	e58647f0 	str	r4, [r6, #2032]	; 0x7f0
  103548:	e34f08f0 	movt	r0, #63728	; 0xf8f0
  10354c:	e2844020 	add	r4, r4, #32
  103550:	e3a01000 	mov	r1, #0
  103554:	eb00002d 	bl	103610 <Xil_Out32>
  103558:	e1550004 	cmp	r5, r4
  10355c:	8afffff7 	bhi	103540 <Xil_L2CacheFlushRange+0x50>
  103560:	e3a00dbd 	mov	r0, #12096	; 0x2f40
  103564:	e3a01000 	mov	r1, #0
  103568:	e34f08f0 	movt	r0, #63728	; 0xf8f0
  10356c:	eb000027 	bl	103610 <Xil_Out32>
  103570:	eaffffe4 	b	103508 <Xil_L2CacheFlushRange+0x18>

00103574 <Xil_L2CacheStoreLine>:
  103574:	e1a01000 	mov	r1, r0
  103578:	e30207b0 	movw	r0, #10160	; 0x27b0
  10357c:	e92d4010 	push	{r4, lr}
  103580:	e34f08f0 	movt	r0, #63728	; 0xf8f0
  103584:	eb000021 	bl	103610 <Xil_Out32>
  103588:	f57ff04f 	dsb	sy
  10358c:	e8bd8010 	pop	{r4, pc}

00103590 <Xil_ExceptionNullHandler>:
  103590:	eafffffe 	b	103590 <Xil_ExceptionNullHandler>

00103594 <Xil_DataAbortHandler>:
  103594:	ee153f10 	mrc	15, 0, r3, cr5, cr0, {0}
  103598:	eafffffe 	b	103598 <Xil_DataAbortHandler+0x4>

0010359c <Xil_PrefetchAbortHandler>:
  10359c:	ee153f30 	mrc	15, 0, r3, cr5, cr0, {1}
  1035a0:	eafffffe 	b	1035a0 <Xil_PrefetchAbortHandler+0x4>

001035a4 <Xil_UndefinedExceptionHandler>:
  1035a4:	eafffffe 	b	1035a4 <Xil_UndefinedExceptionHandler>

001035a8 <Xil_ExceptionInit>:
  1035a8:	e12fff1e 	bx	lr

001035ac <Xil_ExceptionRegisterHandler>:
  1035ac:	e307331c 	movw	r3, #29468	; 0x731c
  1035b0:	e3403011 	movt	r3, #17
  1035b4:	e083c180 	add	ip, r3, r0, lsl #3
  1035b8:	e7831180 	str	r1, [r3, r0, lsl #3]
  1035bc:	e58c2004 	str	r2, [ip, #4]
  1035c0:	e12fff1e 	bx	lr

001035c4 <Xil_ExceptionRemoveHandler>:
  1035c4:	e307331c 	movw	r3, #29468	; 0x731c
  1035c8:	e3032590 	movw	r2, #13712	; 0x3590
  1035cc:	e3403011 	movt	r3, #17
  1035d0:	e3402010 	movt	r2, #16
  1035d4:	e0831180 	add	r1, r3, r0, lsl #3
  1035d8:	e3a0c000 	mov	ip, #0
  1035dc:	e7832180 	str	r2, [r3, r0, lsl #3]
  1035e0:	e581c004 	str	ip, [r1, #4]
  1035e4:	e12fff1e 	bx	lr

001035e8 <Xil_In8>:
  1035e8:	e5d00000 	ldrb	r0, [r0]
  1035ec:	e12fff1e 	bx	lr

001035f0 <Xil_In16>:
  1035f0:	e1d000b0 	ldrh	r0, [r0]
  1035f4:	e12fff1e 	bx	lr

001035f8 <Xil_In32>:
  1035f8:	e5900000 	ldr	r0, [r0]
  1035fc:	e12fff1e 	bx	lr

00103600 <Xil_Out8>:
  103600:	e5c01000 	strb	r1, [r0]
  103604:	e12fff1e 	bx	lr

00103608 <Xil_Out16>:
  103608:	e1c010b0 	strh	r1, [r0]
  10360c:	e12fff1e 	bx	lr

00103610 <Xil_Out32>:
  103610:	e5801000 	str	r1, [r0]
  103614:	e12fff1e 	bx	lr

00103618 <Xil_In16BE>:
  103618:	e1d000b0 	ldrh	r0, [r0]
  10361c:	e1a03420 	lsr	r3, r0, #8
  103620:	e1830400 	orr	r0, r3, r0, lsl #8
  103624:	e6ff0070 	uxth	r0, r0
  103628:	e12fff1e 	bx	lr

0010362c <Xil_In32BE>:
  10362c:	e5900000 	ldr	r0, [r0]
  103630:	e6bf0f30 	rev	r0, r0
  103634:	e12fff1e 	bx	lr

00103638 <Xil_Out16BE>:
  103638:	e1a03421 	lsr	r3, r1, #8
  10363c:	e1831401 	orr	r1, r3, r1, lsl #8
  103640:	e6ff1071 	uxth	r1, r1
  103644:	e1c010b0 	strh	r1, [r0]
  103648:	e12fff1e 	bx	lr

0010364c <Xil_Out32BE>:
  10364c:	e6bf1f31 	rev	r1, r1
  103650:	e5801000 	str	r1, [r0]
  103654:	e12fff1e 	bx	lr

00103658 <Xil_EndianSwap16>:
  103658:	e1a03420 	lsr	r3, r0, #8
  10365c:	e1830400 	orr	r0, r3, r0, lsl #8
  103660:	e6ff0070 	uxth	r0, r0
  103664:	e12fff1e 	bx	lr

00103668 <Xil_EndianSwap32>:
  103668:	e6bf0f30 	rev	r0, r0
  10366c:	e12fff1e 	bx	lr

00103670 <getnum>:
  103670:	e590c000 	ldr	ip, [r0]
  103674:	e35c0000 	cmp	ip, #0
  103678:	0a000017 	beq	1036dc <getnum+0x6c>
  10367c:	e3072980 	movw	r2, #31104	; 0x7980
  103680:	e92d4010 	push	{r4, lr}
  103684:	e3402011 	movt	r2, #17
  103688:	e5dc3000 	ldrb	r3, [ip]
  10368c:	e5924000 	ldr	r4, [r2]
  103690:	e0843003 	add	r3, r4, r3
  103694:	e5d33001 	ldrb	r3, [r3, #1]
  103698:	e2033004 	and	r3, r3, #4
  10369c:	e21330ff 	ands	r3, r3, #255	; 0xff
  1036a0:	0a00000a 	beq	1036d0 <getnum+0x60>
  1036a4:	e3a03000 	mov	r3, #0
  1036a8:	e5dc1000 	ldrb	r1, [ip]
  1036ac:	e1a0e183 	lsl	lr, r3, #3
  1036b0:	e5fc2001 	ldrb	r2, [ip, #1]!
  1036b4:	e08e3083 	add	r3, lr, r3, lsl #1
  1036b8:	e2411030 	sub	r1, r1, #48	; 0x30
  1036bc:	e0842002 	add	r2, r4, r2
  1036c0:	e0833001 	add	r3, r3, r1
  1036c4:	e5d22001 	ldrb	r2, [r2, #1]
  1036c8:	e3120004 	tst	r2, #4
  1036cc:	1afffff5 	bne	1036a8 <getnum+0x38>
  1036d0:	e580c000 	str	ip, [r0]
  1036d4:	e1a00003 	mov	r0, r3
  1036d8:	e8bd8010 	pop	{r4, pc}
  1036dc:	e580c000 	str	ip, [r0]
  1036e0:	e1a0000c 	mov	r0, ip
  1036e4:	e12fff1e 	bx	lr

001036e8 <padding.part.0>:
  1036e8:	e92d4070 	push	{r4, r5, r6, lr}
  1036ec:	e1a05000 	mov	r5, r0
  1036f0:	e5904000 	ldr	r4, [r0]
  1036f4:	e5903004 	ldr	r3, [r0, #4]
  1036f8:	e1540003 	cmp	r4, r3
  1036fc:	a8bd8070 	popge	{r4, r5, r6, pc}
  103700:	e5d5000c 	ldrb	r0, [r5, #12]
  103704:	e2844001 	add	r4, r4, #1
  103708:	eb0001b3 	bl	103ddc <outbyte>
  10370c:	e5953004 	ldr	r3, [r5, #4]
  103710:	e1540003 	cmp	r4, r3
  103714:	bafffff9 	blt	103700 <padding.part.0+0x18>
  103718:	e8bd8070 	pop	{r4, r5, r6, pc}

0010371c <outnum>:
  10371c:	e92d47f0 	push	{r4, r5, r6, r7, r8, r9, sl, lr}
  103720:	e307913c 	movw	r9, #28988	; 0x713c
  103724:	e3409011 	movt	r9, #17
  103728:	e1a05000 	mov	r5, r0
  10372c:	e1a07001 	mov	r7, r1
  103730:	e1a08002 	mov	r8, r2
  103734:	e8b9000f 	ldm	r9!, {r0, r1, r2, r3}
  103738:	e24dd038 	sub	sp, sp, #56	; 0x38
  10373c:	e28d6017 	add	r6, sp, #23
  103740:	e28d4037 	add	r4, sp, #55	; 0x37
  103744:	e1a0c006 	mov	ip, r6
  103748:	e3a0e030 	mov	lr, #48	; 0x30
  10374c:	e28da004 	add	sl, sp, #4
  103750:	e5999000 	ldr	r9, [r9]
  103754:	e8aa000f 	stmia	sl!, {r0, r1, r2, r3}
  103758:	e5ca9000 	strb	r9, [sl]
  10375c:	e5ece001 	strb	lr, [ip, #1]!
  103760:	e15c0004 	cmp	ip, r4
  103764:	1afffffc 	bne	10375c <outnum+0x40>
  103768:	e5983018 	ldr	r3, [r8, #24]
  10376c:	e3530000 	cmp	r3, #0
  103770:	1a000039 	bne	10385c <outnum+0x140>
  103774:	e1a03fa5 	lsr	r3, r5, #31
  103778:	e357000a 	cmp	r7, #10
  10377c:	13a03000 	movne	r3, #0
  103780:	02033001 	andeq	r3, r3, #1
  103784:	e3530000 	cmp	r3, #0
  103788:	12655000 	rsbne	r5, r5, #0
  10378c:	13a0a001 	movne	sl, #1
  103790:	0a000031 	beq	10385c <outnum+0x140>
  103794:	e3a09000 	mov	r9, #0
  103798:	ea000000 	b	1037a0 <outnum+0x84>
  10379c:	e1a09004 	mov	r9, r4
  1037a0:	e1a00005 	mov	r0, r5
  1037a4:	e1a01007 	mov	r1, r7
  1037a8:	eb000245 	bl	1040c4 <__aeabi_uidivmod>
  1037ac:	e28d3038 	add	r3, sp, #56	; 0x38
  1037b0:	e1a00005 	mov	r0, r5
  1037b4:	e0831001 	add	r1, r3, r1
  1037b8:	e2894001 	add	r4, r9, #1
  1037bc:	e5513034 	ldrb	r3, [r1, #-52]	; 0xffffffcc
  1037c0:	e1a01007 	mov	r1, r7
  1037c4:	e5e63001 	strb	r3, [r6, #1]!
  1037c8:	eb0001c2 	bl	103ed8 <__aeabi_uidiv>
  1037cc:	e2505000 	subs	r5, r0, #0
  1037d0:	1afffff1 	bne	10379c <outnum+0x80>
  1037d4:	e35a0000 	cmp	sl, #0
  1037d8:	e28d5018 	add	r5, sp, #24
  1037dc:	128d3038 	addne	r3, sp, #56	; 0x38
  1037e0:	13a0202d 	movne	r2, #45	; 0x2d
  1037e4:	10833004 	addne	r3, r3, r4
  1037e8:	12894002 	addne	r4, r9, #2
  1037ec:	15432020 	strbne	r2, [r3, #-32]	; 0xffffffe0
  1037f0:	e28d3038 	add	r3, sp, #56	; 0x38
  1037f4:	e3a02000 	mov	r2, #0
  1037f8:	e0833004 	add	r3, r3, r4
  1037fc:	e1a00005 	mov	r0, r5
  103800:	e5432020 	strb	r2, [r3, #-32]	; 0xffffffe0
  103804:	fa0004bd 	blx	104b00 <strlen>
  103808:	e5983010 	ldr	r3, [r8, #16]
  10380c:	e5982014 	ldr	r2, [r8, #20]
  103810:	e5880000 	str	r0, [r8]
  103814:	e2933000 	adds	r3, r3, #0
  103818:	13a03001 	movne	r3, #1
  10381c:	e3520000 	cmp	r2, #0
  103820:	13a03000 	movne	r3, #0
  103824:	e3530000 	cmp	r3, #0
  103828:	1a000011 	bne	103874 <outnum+0x158>
  10382c:	e0854004 	add	r4, r5, r4
  103830:	e5740001 	ldrb	r0, [r4, #-1]!
  103834:	eb000168 	bl	103ddc <outbyte>
  103838:	e1540005 	cmp	r4, r5
  10383c:	1afffffb 	bne	103830 <outnum+0x114>
  103840:	e5982010 	ldr	r2, [r8, #16]
  103844:	e5983014 	ldr	r3, [r8, #20]
  103848:	e3520000 	cmp	r2, #0
  10384c:	13530000 	cmpne	r3, #0
  103850:	1a000003 	bne	103864 <outnum+0x148>
  103854:	e28dd038 	add	sp, sp, #56	; 0x38
  103858:	e8bd87f0 	pop	{r4, r5, r6, r7, r8, r9, sl, pc}
  10385c:	e3a0a000 	mov	sl, #0
  103860:	eaffffcb 	b	103794 <outnum+0x78>
  103864:	e1a00008 	mov	r0, r8
  103868:	ebffff9e 	bl	1036e8 <padding.part.0>
  10386c:	e28dd038 	add	sp, sp, #56	; 0x38
  103870:	e8bd87f0 	pop	{r4, r5, r6, r7, r8, r9, sl, pc}
  103874:	e1a00008 	mov	r0, r8
  103878:	ebffff9a 	bl	1036e8 <padding.part.0>
  10387c:	eaffffea 	b	10382c <outnum+0x110>

00103880 <xil_printf>:
  103880:	e92d000f 	push	{r0, r1, r2, r3}
  103884:	e92d40f0 	push	{r4, r5, r6, r7, lr}
  103888:	e24dd02c 	sub	sp, sp, #44	; 0x2c
  10388c:	e3074980 	movw	r4, #31104	; 0x7980
  103890:	e3a07000 	mov	r7, #0
  103894:	e3404011 	movt	r4, #17
  103898:	e28d3044 	add	r3, sp, #68	; 0x44
  10389c:	e59d2040 	ldr	r2, [sp, #64]	; 0x40
  1038a0:	e58d3004 	str	r3, [sp, #4]
  1038a4:	e58d2008 	str	r2, [sp, #8]
  1038a8:	e3520000 	cmp	r2, #0
  1038ac:	0a00000a 	beq	1038dc <xil_printf+0x5c>
  1038b0:	e5d20000 	ldrb	r0, [r2]
  1038b4:	e3500000 	cmp	r0, #0
  1038b8:	0a000007 	beq	1038dc <xil_printf+0x5c>
  1038bc:	e3500025 	cmp	r0, #37	; 0x25
  1038c0:	0a000009 	beq	1038ec <xil_printf+0x6c>
  1038c4:	eb000144 	bl	103ddc <outbyte>
  1038c8:	e59d2008 	ldr	r2, [sp, #8]
  1038cc:	e2822001 	add	r2, r2, #1
  1038d0:	e3520000 	cmp	r2, #0
  1038d4:	e58d2008 	str	r2, [sp, #8]
  1038d8:	1afffff4 	bne	1038b0 <xil_printf+0x30>
  1038dc:	e28dd02c 	add	sp, sp, #44	; 0x2c
  1038e0:	e8bd40f0 	pop	{r4, r5, r6, r7, lr}
  1038e4:	e28dd010 	add	sp, sp, #16
  1038e8:	e12fff1e 	bx	lr
  1038ec:	e3a00020 	mov	r0, #32
  1038f0:	e3071fff 	movw	r1, #32767	; 0x7fff
  1038f4:	e58d7024 	str	r7, [sp, #36]	; 0x24
  1038f8:	e1a03002 	mov	r3, r2
  1038fc:	e58d7020 	str	r7, [sp, #32]
  103900:	e3a05000 	mov	r5, #0
  103904:	e58d701c 	str	r7, [sp, #28]
  103908:	e3a06001 	mov	r6, #1
  10390c:	e58d7010 	str	r7, [sp, #16]
  103910:	e58d700c 	str	r7, [sp, #12]
  103914:	e5cd0018 	strb	r0, [sp, #24]
  103918:	e58d1014 	str	r1, [sp, #20]
  10391c:	ea00000e 	b	10395c <xil_printf+0xdc>
  103920:	e3550000 	cmp	r5, #0
  103924:	1a0000ed 	bne	103ce0 <xil_printf+0x460>
  103928:	e3500030 	cmp	r0, #48	; 0x30
  10392c:	05cd0018 	strbeq	r0, [sp, #24]
  103930:	e28d0008 	add	r0, sp, #8
  103934:	ebffff4d 	bl	103670 <getnum>
  103938:	e59d3008 	ldr	r3, [sp, #8]
  10393c:	e58d601c 	str	r6, [sp, #28]
  103940:	e58d0010 	str	r0, [sp, #16]
  103944:	e3530000 	cmp	r3, #0
  103948:	0a000071 	beq	103b14 <xil_printf+0x294>
  10394c:	e2433001 	sub	r3, r3, #1
  103950:	e3530000 	cmp	r3, #0
  103954:	e58d3008 	str	r3, [sp, #8]
  103958:	0a00006d 	beq	103b14 <xil_printf+0x294>
  10395c:	e2832001 	add	r2, r3, #1
  103960:	e3520000 	cmp	r2, #0
  103964:	e58d2008 	str	r2, [sp, #8]
  103968:	0a000069 	beq	103b14 <xil_printf+0x294>
  10396c:	e5d30001 	ldrb	r0, [r3, #1]
  103970:	e5943000 	ldr	r3, [r4]
  103974:	e0833000 	add	r3, r3, r0
  103978:	e5d33001 	ldrb	r3, [r3, #1]
  10397c:	e3130004 	tst	r3, #4
  103980:	1affffe6 	bne	103920 <xil_printf+0xa0>
  103984:	e2033003 	and	r3, r3, #3
  103988:	e3530001 	cmp	r3, #1
  10398c:	02803020 	addeq	r3, r0, #32
  103990:	11a03000 	movne	r3, r0
  103994:	e2433025 	sub	r3, r3, #37	; 0x25
  103998:	e3530053 	cmp	r3, #83	; 0x53
  10399c:	979ff103 	ldrls	pc, [pc, r3, lsl #2]
  1039a0:	ea00006a 	b	103b50 <xil_printf+0x2d0>
  1039a4:	00103bf4 	.word	0x00103bf4
  1039a8:	00103b50 	.word	0x00103b50
  1039ac:	00103b50 	.word	0x00103b50
  1039b0:	00103b50 	.word	0x00103b50
  1039b4:	00103b50 	.word	0x00103b50
  1039b8:	00103b50 	.word	0x00103b50
  1039bc:	00103b50 	.word	0x00103b50
  1039c0:	00103b50 	.word	0x00103b50
  1039c4:	00103c04 	.word	0x00103c04
  1039c8:	00103b5c 	.word	0x00103b5c
  1039cc:	00103b50 	.word	0x00103b50
  1039d0:	00103b50 	.word	0x00103b50
  1039d4:	00103b50 	.word	0x00103b50
  1039d8:	00103b50 	.word	0x00103b50
  1039dc:	00103b50 	.word	0x00103b50
  1039e0:	00103b50 	.word	0x00103b50
  1039e4:	00103b50 	.word	0x00103b50
  1039e8:	00103b50 	.word	0x00103b50
  1039ec:	00103b50 	.word	0x00103b50
  1039f0:	00103b50 	.word	0x00103b50
  1039f4:	00103b50 	.word	0x00103b50
  1039f8:	00103b50 	.word	0x00103b50
  1039fc:	00103b50 	.word	0x00103b50
  103a00:	00103b50 	.word	0x00103b50
  103a04:	00103b50 	.word	0x00103b50
  103a08:	00103b50 	.word	0x00103b50
  103a0c:	00103b50 	.word	0x00103b50
  103a10:	00103b50 	.word	0x00103b50
  103a14:	00103b50 	.word	0x00103b50
  103a18:	00103b50 	.word	0x00103b50
  103a1c:	00103b50 	.word	0x00103b50
  103a20:	00103b50 	.word	0x00103b50
  103a24:	00103b50 	.word	0x00103b50
  103a28:	00103b50 	.word	0x00103b50
  103a2c:	00103b50 	.word	0x00103b50
  103a30:	00103b50 	.word	0x00103b50
  103a34:	00103b50 	.word	0x00103b50
  103a38:	00103b50 	.word	0x00103b50
  103a3c:	00103b50 	.word	0x00103b50
  103a40:	00103b50 	.word	0x00103b50
  103a44:	00103b50 	.word	0x00103b50
  103a48:	00103b50 	.word	0x00103b50
  103a4c:	00103b50 	.word	0x00103b50
  103a50:	00103b50 	.word	0x00103b50
  103a54:	00103b50 	.word	0x00103b50
  103a58:	00103b50 	.word	0x00103b50
  103a5c:	00103b50 	.word	0x00103b50
  103a60:	00103b50 	.word	0x00103b50
  103a64:	00103b50 	.word	0x00103b50
  103a68:	00103b50 	.word	0x00103b50
  103a6c:	00103b50 	.word	0x00103b50
  103a70:	00103bdc 	.word	0x00103bdc
  103a74:	00103b50 	.word	0x00103b50
  103a78:	00103b50 	.word	0x00103b50
  103a7c:	00103b50 	.word	0x00103b50
  103a80:	00103b84 	.word	0x00103b84
  103a84:	00103b50 	.word	0x00103b50
  103a88:	00103b50 	.word	0x00103b50
  103a8c:	00103b50 	.word	0x00103b50
  103a90:	00103b50 	.word	0x00103b50
  103a94:	00103b50 	.word	0x00103b50
  103a98:	00103b50 	.word	0x00103b50
  103a9c:	00103b68 	.word	0x00103b68
  103aa0:	00103b28 	.word	0x00103b28
  103aa4:	00103b50 	.word	0x00103b50
  103aa8:	00103b50 	.word	0x00103b50
  103aac:	00103b50 	.word	0x00103b50
  103ab0:	00103b50 	.word	0x00103b50
  103ab4:	00103b28 	.word	0x00103b28
  103ab8:	00103b50 	.word	0x00103b50
  103abc:	00103b50 	.word	0x00103b50
  103ac0:	00103b08 	.word	0x00103b08
  103ac4:	00103b50 	.word	0x00103b50
  103ac8:	00103b50 	.word	0x00103b50
  103acc:	00103b50 	.word	0x00103b50
  103ad0:	00103bdc 	.word	0x00103bdc
  103ad4:	00103b50 	.word	0x00103b50
  103ad8:	00103b50 	.word	0x00103b50
  103adc:	00103c10 	.word	0x00103c10
  103ae0:	00103b50 	.word	0x00103b50
  103ae4:	00103b20 	.word	0x00103b20
  103ae8:	00103b50 	.word	0x00103b50
  103aec:	00103b50 	.word	0x00103b50
  103af0:	00103bdc 	.word	0x00103bdc
  103af4:	e3a0000d 	mov	r0, #13
  103af8:	eb0000b7 	bl	103ddc <outbyte>
  103afc:	e59d2008 	ldr	r2, [sp, #8]
  103b00:	e2822001 	add	r2, r2, #1
  103b04:	e58d2008 	str	r2, [sp, #8]
  103b08:	e1a03002 	mov	r3, r2
  103b0c:	e3530000 	cmp	r3, #0
  103b10:	1affff91 	bne	10395c <xil_printf+0xdc>
  103b14:	e3a03000 	mov	r3, #0
  103b18:	e5d33000 	ldrb	r3, [r3]
  103b1c:	e7f000f0 	udf	#0
  103b20:	e3a03001 	mov	r3, #1
  103b24:	e58d3024 	str	r3, [sp, #36]	; 0x24
  103b28:	e59d3004 	ldr	r3, [sp, #4]
  103b2c:	e28d200c 	add	r2, sp, #12
  103b30:	e3a0100a 	mov	r1, #10
  103b34:	e283c004 	add	ip, r3, #4
  103b38:	e5930000 	ldr	r0, [r3]
  103b3c:	e58dc004 	str	ip, [sp, #4]
  103b40:	ebfffef5 	bl	10371c <outnum>
  103b44:	e59d2008 	ldr	r2, [sp, #8]
  103b48:	e3520000 	cmp	r2, #0
  103b4c:	0affff62 	beq	1038dc <xil_printf+0x5c>
  103b50:	e2822001 	add	r2, r2, #1
  103b54:	e58d2008 	str	r2, [sp, #8]
  103b58:	eaffff52 	b	1038a8 <xil_printf+0x28>
  103b5c:	e3a05001 	mov	r5, #1
  103b60:	e1a03002 	mov	r3, r2
  103b64:	eaffffe8 	b	103b0c <xil_printf+0x28c>
  103b68:	e59d3004 	ldr	r3, [sp, #4]
  103b6c:	e2832004 	add	r2, r3, #4
  103b70:	e5d30000 	ldrb	r0, [r3]
  103b74:	e58d2004 	str	r2, [sp, #4]
  103b78:	eb000097 	bl	103ddc <outbyte>
  103b7c:	e59d2008 	ldr	r2, [sp, #8]
  103b80:	eafffff0 	b	103b48 <xil_printf+0x2c8>
  103b84:	e2403061 	sub	r3, r0, #97	; 0x61
  103b88:	e3530011 	cmp	r3, #17
  103b8c:	979ff103 	ldrls	pc, [pc, r3, lsl #2]
  103b90:	ea000050 	b	103cd8 <xil_printf+0x458>
  103b94:	00103ccc 	.word	0x00103ccc
  103b98:	00103cd8 	.word	0x00103cd8
  103b9c:	00103cd8 	.word	0x00103cd8
  103ba0:	00103cd8 	.word	0x00103cd8
  103ba4:	00103cd8 	.word	0x00103cd8
  103ba8:	00103cd8 	.word	0x00103cd8
  103bac:	00103cd8 	.word	0x00103cd8
  103bb0:	00103cc0 	.word	0x00103cc0
  103bb4:	00103cd8 	.word	0x00103cd8
  103bb8:	00103cd8 	.word	0x00103cd8
  103bbc:	00103cd8 	.word	0x00103cd8
  103bc0:	00103cd8 	.word	0x00103cd8
  103bc4:	00103cd8 	.word	0x00103cd8
  103bc8:	00103cac 	.word	0x00103cac
  103bcc:	00103cd8 	.word	0x00103cd8
  103bd0:	00103cd8 	.word	0x00103cd8
  103bd4:	00103cd8 	.word	0x00103cd8
  103bd8:	00103af4 	.word	0x00103af4
  103bdc:	e3a00001 	mov	r0, #1
  103be0:	e59d3004 	ldr	r3, [sp, #4]
  103be4:	e28d200c 	add	r2, sp, #12
  103be8:	e3a01010 	mov	r1, #16
  103bec:	e58d0024 	str	r0, [sp, #36]	; 0x24
  103bf0:	eaffffcf 	b	103b34 <xil_printf+0x2b4>
  103bf4:	e3a00025 	mov	r0, #37	; 0x25
  103bf8:	eb000077 	bl	103ddc <outbyte>
  103bfc:	e59d2008 	ldr	r2, [sp, #8]
  103c00:	eaffffd0 	b	103b48 <xil_printf+0x2c8>
  103c04:	e58d6020 	str	r6, [sp, #32]
  103c08:	e1a03002 	mov	r3, r2
  103c0c:	eaffffbe 	b	103b0c <xil_printf+0x28c>
  103c10:	e59d3004 	ldr	r3, [sp, #4]
  103c14:	e5935000 	ldr	r5, [r3]
  103c18:	e2833004 	add	r3, r3, #4
  103c1c:	e58d3004 	str	r3, [sp, #4]
  103c20:	e3550000 	cmp	r5, #0
  103c24:	0a000002 	beq	103c34 <xil_printf+0x3b4>
  103c28:	e1a00005 	mov	r0, r5
  103c2c:	fa0003b3 	blx	104b00 <strlen>
  103c30:	e58d000c 	str	r0, [sp, #12]
  103c34:	e59d301c 	ldr	r3, [sp, #28]
  103c38:	e59d2020 	ldr	r2, [sp, #32]
  103c3c:	e2933000 	adds	r3, r3, #0
  103c40:	13a03001 	movne	r3, #1
  103c44:	e3520000 	cmp	r2, #0
  103c48:	13a03000 	movne	r3, #0
  103c4c:	e3530000 	cmp	r3, #0
  103c50:	1a000027 	bne	103cf4 <xil_printf+0x474>
  103c54:	e5d53000 	ldrb	r3, [r5]
  103c58:	e3530000 	cmp	r3, #0
  103c5c:	1a000007 	bne	103c80 <xil_printf+0x400>
  103c60:	ea000009 	b	103c8c <xil_printf+0x40c>
  103c64:	e2433001 	sub	r3, r3, #1
  103c68:	e58d3014 	str	r3, [sp, #20]
  103c6c:	e5d50000 	ldrb	r0, [r5]
  103c70:	eb000059 	bl	103ddc <outbyte>
  103c74:	e5f53001 	ldrb	r3, [r5, #1]!
  103c78:	e3530000 	cmp	r3, #0
  103c7c:	0a000002 	beq	103c8c <xil_printf+0x40c>
  103c80:	e59d3014 	ldr	r3, [sp, #20]
  103c84:	e3530000 	cmp	r3, #0
  103c88:	1afffff5 	bne	103c64 <xil_printf+0x3e4>
  103c8c:	e59d201c 	ldr	r2, [sp, #28]
  103c90:	e59d3020 	ldr	r3, [sp, #32]
  103c94:	e3520000 	cmp	r2, #0
  103c98:	13530000 	cmpne	r3, #0
  103c9c:	0affffa8 	beq	103b44 <xil_printf+0x2c4>
  103ca0:	e28d000c 	add	r0, sp, #12
  103ca4:	ebfffe8f 	bl	1036e8 <padding.part.0>
  103ca8:	eaffffa5 	b	103b44 <xil_printf+0x2c4>
  103cac:	e3a0000d 	mov	r0, #13
  103cb0:	eb000049 	bl	103ddc <outbyte>
  103cb4:	e3a0000a 	mov	r0, #10
  103cb8:	eb000047 	bl	103ddc <outbyte>
  103cbc:	eaffff8e 	b	103afc <xil_printf+0x27c>
  103cc0:	e3a00008 	mov	r0, #8
  103cc4:	eb000044 	bl	103ddc <outbyte>
  103cc8:	eaffff8b 	b	103afc <xil_printf+0x27c>
  103ccc:	e3a00007 	mov	r0, #7
  103cd0:	eb000041 	bl	103ddc <outbyte>
  103cd4:	eaffff88 	b	103afc <xil_printf+0x27c>
  103cd8:	eb00003f 	bl	103ddc <outbyte>
  103cdc:	eaffff86 	b	103afc <xil_printf+0x27c>
  103ce0:	e28d0008 	add	r0, sp, #8
  103ce4:	ebfffe61 	bl	103670 <getnum>
  103ce8:	e59d3008 	ldr	r3, [sp, #8]
  103cec:	e58d0014 	str	r0, [sp, #20]
  103cf0:	eaffff13 	b	103944 <xil_printf+0xc4>
  103cf4:	e28d000c 	add	r0, sp, #12
  103cf8:	ebfffe7a 	bl	1036e8 <padding.part.0>
  103cfc:	eaffffd4 	b	103c54 <xil_printf+0x3d4>

00103d00 <XTime_SetTime>:
  103d00:	e92d4070 	push	{r4, r5, r6, lr}
  103d04:	e3a04f82 	mov	r4, #520	; 0x208
  103d08:	e34f48f0 	movt	r4, #63728	; 0xf8f0
  103d0c:	e1a06000 	mov	r6, r0
  103d10:	e1a05001 	mov	r5, r1
  103d14:	e1a00004 	mov	r0, r4
  103d18:	e3a01000 	mov	r1, #0
  103d1c:	ebfffe3b 	bl	103610 <Xil_Out32>
  103d20:	e3a00c02 	mov	r0, #512	; 0x200
  103d24:	e1a01006 	mov	r1, r6
  103d28:	e34f08f0 	movt	r0, #63728	; 0xf8f0
  103d2c:	ebfffe37 	bl	103610 <Xil_Out32>
  103d30:	e3a00f81 	mov	r0, #516	; 0x204
  103d34:	e1a01005 	mov	r1, r5
  103d38:	e34f08f0 	movt	r0, #63728	; 0xf8f0
  103d3c:	ebfffe33 	bl	103610 <Xil_Out32>
  103d40:	e1a00004 	mov	r0, r4
  103d44:	e3a01001 	mov	r1, #1
  103d48:	e8bd4070 	pop	{r4, r5, r6, lr}
  103d4c:	eafffe2f 	b	103610 <Xil_Out32>

00103d50 <XTime_GetTime>:
  103d50:	e92d41f0 	push	{r4, r5, r6, r7, r8, lr}
  103d54:	e1a08000 	mov	r8, r0
  103d58:	e3a00f81 	mov	r0, #516	; 0x204
  103d5c:	e34f08f0 	movt	r0, #63728	; 0xf8f0
  103d60:	ebfffe24 	bl	1035f8 <Xil_In32>
  103d64:	e1a04000 	mov	r4, r0
  103d68:	e3a00c02 	mov	r0, #512	; 0x200
  103d6c:	e34f08f0 	movt	r0, #63728	; 0xf8f0
  103d70:	ebfffe20 	bl	1035f8 <Xil_In32>
  103d74:	e1a05000 	mov	r5, r0
  103d78:	e3a00f81 	mov	r0, #516	; 0x204
  103d7c:	e34f08f0 	movt	r0, #63728	; 0xf8f0
  103d80:	ebfffe1c 	bl	1035f8 <Xil_In32>
  103d84:	e1500004 	cmp	r0, r4
  103d88:	1afffff2 	bne	103d58 <XTime_GetTime+0x8>
  103d8c:	e3a06000 	mov	r6, #0
  103d90:	e1a07000 	mov	r7, r0
  103d94:	e1866005 	orr	r6, r6, r5
  103d98:	e1c860f0 	strd	r6, [r8]
  103d9c:	e8bd81f0 	pop	{r4, r5, r6, r7, r8, pc}

00103da0 <__cpu_init>:
  103da0:	e3a00000 	mov	r0, #0
  103da4:	ee050f10 	mcr	15, 0, r0, cr5, cr0, {0}
  103da8:	ee050f30 	mcr	15, 0, r0, cr5, cr0, {1}
  103dac:	ee060f10 	mcr	15, 0, r0, cr6, cr0, {0}
  103db0:	ee060f50 	mcr	15, 0, r0, cr6, cr0, {2}
  103db4:	ee090f5d 	mcr	15, 0, r0, cr9, cr13, {2}
  103db8:	ee0d0f50 	mcr	15, 0, r0, cr13, cr0, {2}
  103dbc:	ee0d0f70 	mcr	15, 0, r0, cr13, cr0, {3}
  103dc0:	e3a02102 	mov	r2, #-2147483648	; 0x80000000
  103dc4:	ee092f7c 	mcr	15, 0, r2, cr9, cr12, {3}
  103dc8:	e3a0200d 	mov	r2, #13
  103dcc:	ee092f1c 	mcr	15, 0, r2, cr9, cr12, {0}
  103dd0:	e3a02102 	mov	r2, #-2147483648	; 0x80000000
  103dd4:	ee092f3c 	mcr	15, 0, r2, cr9, cr12, {1}
  103dd8:	e12fff1e 	bx	lr

00103ddc <outbyte>:
  103ddc:	e1a01000 	mov	r1, r0
  103de0:	e3a00a01 	mov	r0, #4096	; 0x1000
  103de4:	e34e0000 	movt	r0, #57344	; 0xe000
  103de8:	eaffffff 	b	103dec <XUartPs_SendByte>

00103dec <XUartPs_SendByte>:
  103dec:	e92d4070 	push	{r4, r5, r6, lr}
  103df0:	e1a05000 	mov	r5, r0
  103df4:	e1a06001 	mov	r6, r1
  103df8:	e280402c 	add	r4, r0, #44	; 0x2c
  103dfc:	e1a00004 	mov	r0, r4
  103e00:	ebfffdfc 	bl	1035f8 <Xil_In32>
  103e04:	e3100010 	tst	r0, #16
  103e08:	1afffffb 	bne	103dfc <XUartPs_SendByte+0x10>
  103e0c:	e1a01006 	mov	r1, r6
  103e10:	e2850030 	add	r0, r5, #48	; 0x30
  103e14:	e8bd4070 	pop	{r4, r5, r6, lr}
  103e18:	eafffdfc 	b	103610 <Xil_Out32>

00103e1c <XUartPs_RecvByte>:
  103e1c:	e92d4070 	push	{r4, r5, r6, lr}
  103e20:	e1a05000 	mov	r5, r0
  103e24:	e280402c 	add	r4, r0, #44	; 0x2c
  103e28:	e1a00004 	mov	r0, r4
  103e2c:	ebfffdf1 	bl	1035f8 <Xil_In32>
  103e30:	e3100002 	tst	r0, #2
  103e34:	1afffffb 	bne	103e28 <XUartPs_RecvByte+0xc>
  103e38:	e2850030 	add	r0, r5, #48	; 0x30
  103e3c:	ebfffded 	bl	1035f8 <Xil_In32>
  103e40:	e6ef0070 	uxtb	r0, r0
  103e44:	e8bd8070 	pop	{r4, r5, r6, pc}

00103e48 <XUartPs_ResetHw>:
  103e48:	e92d4010 	push	{r4, lr}
  103e4c:	e3031fff 	movw	r1, #16383	; 0x3fff
  103e50:	e1a04000 	mov	r4, r0
  103e54:	e280000c 	add	r0, r0, #12
  103e58:	ebfffdec 	bl	103610 <Xil_Out32>
  103e5c:	e1a00004 	mov	r0, r4
  103e60:	e3a01028 	mov	r1, #40	; 0x28
  103e64:	ebfffde9 	bl	103610 <Xil_Out32>
  103e68:	e1a00004 	mov	r0, r4
  103e6c:	e3a01003 	mov	r1, #3
  103e70:	ebfffde6 	bl	103610 <Xil_Out32>
  103e74:	e2840014 	add	r0, r4, #20
  103e78:	e3031fff 	movw	r1, #16383	; 0x3fff
  103e7c:	ebfffde3 	bl	103610 <Xil_Out32>
  103e80:	e2840004 	add	r0, r4, #4
  103e84:	e3a01000 	mov	r1, #0
  103e88:	ebfffde0 	bl	103610 <Xil_Out32>
  103e8c:	e2840020 	add	r0, r4, #32
  103e90:	e3a01020 	mov	r1, #32
  103e94:	ebfffddd 	bl	103610 <Xil_Out32>
  103e98:	e2840044 	add	r0, r4, #68	; 0x44
  103e9c:	e3a01020 	mov	r1, #32
  103ea0:	ebfffdda 	bl	103610 <Xil_Out32>
  103ea4:	e284001c 	add	r0, r4, #28
  103ea8:	e3a01000 	mov	r1, #0
  103eac:	ebfffdd7 	bl	103610 <Xil_Out32>
  103eb0:	e2840018 	add	r0, r4, #24
  103eb4:	e300128b 	movw	r1, #651	; 0x28b
  103eb8:	ebfffdd4 	bl	103610 <Xil_Out32>
  103ebc:	e2840034 	add	r0, r4, #52	; 0x34
  103ec0:	e3a0100f 	mov	r1, #15
  103ec4:	ebfffdd1 	bl	103610 <Xil_Out32>
  103ec8:	e1a00004 	mov	r0, r4
  103ecc:	e3a01f4a 	mov	r1, #296	; 0x128
  103ed0:	e8bd4010 	pop	{r4, lr}
  103ed4:	eafffdcd 	b	103610 <Xil_Out32>

00103ed8 <__aeabi_uidiv>:
  103ed8:	e2512001 	subs	r2, r1, #1
  103edc:	012fff1e 	bxeq	lr
  103ee0:	3a000074 	bcc	1040b8 <__aeabi_uidiv+0x1e0>
  103ee4:	e1500001 	cmp	r0, r1
  103ee8:	9a00006b 	bls	10409c <__aeabi_uidiv+0x1c4>
  103eec:	e1110002 	tst	r1, r2
  103ef0:	0a00006c 	beq	1040a8 <__aeabi_uidiv+0x1d0>
  103ef4:	e16f3f10 	clz	r3, r0
  103ef8:	e16f2f11 	clz	r2, r1
  103efc:	e0423003 	sub	r3, r2, r3
  103f00:	e273301f 	rsbs	r3, r3, #31
  103f04:	10833083 	addne	r3, r3, r3, lsl #1
  103f08:	e3a02000 	mov	r2, #0
  103f0c:	108ff103 	addne	pc, pc, r3, lsl #2
  103f10:	e320f000 	nop	{0}
  103f14:	e1500f81 	cmp	r0, r1, lsl #31
  103f18:	e0a22002 	adc	r2, r2, r2
  103f1c:	20400f81 	subcs	r0, r0, r1, lsl #31
  103f20:	e1500f01 	cmp	r0, r1, lsl #30
  103f24:	e0a22002 	adc	r2, r2, r2
  103f28:	20400f01 	subcs	r0, r0, r1, lsl #30
  103f2c:	e1500e81 	cmp	r0, r1, lsl #29
  103f30:	e0a22002 	adc	r2, r2, r2
  103f34:	20400e81 	subcs	r0, r0, r1, lsl #29
  103f38:	e1500e01 	cmp	r0, r1, lsl #28
  103f3c:	e0a22002 	adc	r2, r2, r2
  103f40:	20400e01 	subcs	r0, r0, r1, lsl #28
  103f44:	e1500d81 	cmp	r0, r1, lsl #27
  103f48:	e0a22002 	adc	r2, r2, r2
  103f4c:	20400d81 	subcs	r0, r0, r1, lsl #27
  103f50:	e1500d01 	cmp	r0, r1, lsl #26
  103f54:	e0a22002 	adc	r2, r2, r2
  103f58:	20400d01 	subcs	r0, r0, r1, lsl #26
  103f5c:	e1500c81 	cmp	r0, r1, lsl #25
  103f60:	e0a22002 	adc	r2, r2, r2
  103f64:	20400c81 	subcs	r0, r0, r1, lsl #25
  103f68:	e1500c01 	cmp	r0, r1, lsl #24
  103f6c:	e0a22002 	adc	r2, r2, r2
  103f70:	20400c01 	subcs	r0, r0, r1, lsl #24
  103f74:	e1500b81 	cmp	r0, r1, lsl #23
  103f78:	e0a22002 	adc	r2, r2, r2
  103f7c:	20400b81 	subcs	r0, r0, r1, lsl #23
  103f80:	e1500b01 	cmp	r0, r1, lsl #22
  103f84:	e0a22002 	adc	r2, r2, r2
  103f88:	20400b01 	subcs	r0, r0, r1, lsl #22
  103f8c:	e1500a81 	cmp	r0, r1, lsl #21
  103f90:	e0a22002 	adc	r2, r2, r2
  103f94:	20400a81 	subcs	r0, r0, r1, lsl #21
  103f98:	e1500a01 	cmp	r0, r1, lsl #20
  103f9c:	e0a22002 	adc	r2, r2, r2
  103fa0:	20400a01 	subcs	r0, r0, r1, lsl #20
  103fa4:	e1500981 	cmp	r0, r1, lsl #19
  103fa8:	e0a22002 	adc	r2, r2, r2
  103fac:	20400981 	subcs	r0, r0, r1, lsl #19
  103fb0:	e1500901 	cmp	r0, r1, lsl #18
  103fb4:	e0a22002 	adc	r2, r2, r2
  103fb8:	20400901 	subcs	r0, r0, r1, lsl #18
  103fbc:	e1500881 	cmp	r0, r1, lsl #17
  103fc0:	e0a22002 	adc	r2, r2, r2
  103fc4:	20400881 	subcs	r0, r0, r1, lsl #17
  103fc8:	e1500801 	cmp	r0, r1, lsl #16
  103fcc:	e0a22002 	adc	r2, r2, r2
  103fd0:	20400801 	subcs	r0, r0, r1, lsl #16
  103fd4:	e1500781 	cmp	r0, r1, lsl #15
  103fd8:	e0a22002 	adc	r2, r2, r2
  103fdc:	20400781 	subcs	r0, r0, r1, lsl #15
  103fe0:	e1500701 	cmp	r0, r1, lsl #14
  103fe4:	e0a22002 	adc	r2, r2, r2
  103fe8:	20400701 	subcs	r0, r0, r1, lsl #14
  103fec:	e1500681 	cmp	r0, r1, lsl #13
  103ff0:	e0a22002 	adc	r2, r2, r2
  103ff4:	20400681 	subcs	r0, r0, r1, lsl #13
  103ff8:	e1500601 	cmp	r0, r1, lsl #12
  103ffc:	e0a22002 	adc	r2, r2, r2
  104000:	20400601 	subcs	r0, r0, r1, lsl #12
  104004:	e1500581 	cmp	r0, r1, lsl #11
  104008:	e0a22002 	adc	r2, r2, r2
  10400c:	20400581 	subcs	r0, r0, r1, lsl #11
  104010:	e1500501 	cmp	r0, r1, lsl #10
  104014:	e0a22002 	adc	r2, r2, r2
  104018:	20400501 	subcs	r0, r0, r1, lsl #10
  10401c:	e1500481 	cmp	r0, r1, lsl #9
  104020:	e0a22002 	adc	r2, r2, r2
  104024:	20400481 	subcs	r0, r0, r1, lsl #9
  104028:	e1500401 	cmp	r0, r1, lsl #8
  10402c:	e0a22002 	adc	r2, r2, r2
  104030:	20400401 	subcs	r0, r0, r1, lsl #8
  104034:	e1500381 	cmp	r0, r1, lsl #7
  104038:	e0a22002 	adc	r2, r2, r2
  10403c:	20400381 	subcs	r0, r0, r1, lsl #7
  104040:	e1500301 	cmp	r0, r1, lsl #6
  104044:	e0a22002 	adc	r2, r2, r2
  104048:	20400301 	subcs	r0, r0, r1, lsl #6
  10404c:	e1500281 	cmp	r0, r1, lsl #5
  104050:	e0a22002 	adc	r2, r2, r2
  104054:	20400281 	subcs	r0, r0, r1, lsl #5
  104058:	e1500201 	cmp	r0, r1, lsl #4
  10405c:	e0a22002 	adc	r2, r2, r2
  104060:	20400201 	subcs	r0, r0, r1, lsl #4
  104064:	e1500181 	cmp	r0, r1, lsl #3
  104068:	e0a22002 	adc	r2, r2, r2
  10406c:	20400181 	subcs	r0, r0, r1, lsl #3
  104070:	e1500101 	cmp	r0, r1, lsl #2
  104074:	e0a22002 	adc	r2, r2, r2
  104078:	20400101 	subcs	r0, r0, r1, lsl #2
  10407c:	e1500081 	cmp	r0, r1, lsl #1
  104080:	e0a22002 	adc	r2, r2, r2
  104084:	20400081 	subcs	r0, r0, r1, lsl #1
  104088:	e1500001 	cmp	r0, r1
  10408c:	e0a22002 	adc	r2, r2, r2
  104090:	20400001 	subcs	r0, r0, r1
  104094:	e1a00002 	mov	r0, r2
  104098:	e12fff1e 	bx	lr
  10409c:	03a00001 	moveq	r0, #1
  1040a0:	13a00000 	movne	r0, #0
  1040a4:	e12fff1e 	bx	lr
  1040a8:	e16f2f11 	clz	r2, r1
  1040ac:	e262201f 	rsb	r2, r2, #31
  1040b0:	e1a00230 	lsr	r0, r0, r2
  1040b4:	e12fff1e 	bx	lr
  1040b8:	e3500000 	cmp	r0, #0
  1040bc:	13e00000 	mvnne	r0, #0
  1040c0:	ea000007 	b	1040e4 <__aeabi_idiv0>

001040c4 <__aeabi_uidivmod>:
  1040c4:	e3510000 	cmp	r1, #0
  1040c8:	0afffffa 	beq	1040b8 <__aeabi_uidiv+0x1e0>
  1040cc:	e92d4003 	push	{r0, r1, lr}
  1040d0:	ebffff80 	bl	103ed8 <__aeabi_uidiv>
  1040d4:	e8bd4006 	pop	{r1, r2, lr}
  1040d8:	e0030092 	mul	r3, r2, r0
  1040dc:	e0411003 	sub	r1, r1, r3
  1040e0:	e12fff1e 	bx	lr

001040e4 <__aeabi_idiv0>:
  1040e4:	e12fff1e 	bx	lr

001040e8 <__set_ctype>:
  1040e8:	e3073980 	movw	r3, #31104	; 0x7980
  1040ec:	e3062870 	movw	r2, #26736	; 0x6870
  1040f0:	e3403011 	movt	r3, #17
  1040f4:	e3402011 	movt	r2, #17
  1040f8:	e5832000 	str	r2, [r3]
  1040fc:	e12fff1e 	bx	lr

00104100 <exit>:
  104100:	e92d4010 	push	{r4, lr}
  104104:	e3a01000 	mov	r1, #0
  104108:	e1a04000 	mov	r4, r0
  10410c:	eb000f1d 	bl	107d88 <__call_exitprocs>
  104110:	e3063974 	movw	r3, #26996	; 0x6974
  104114:	e3403011 	movt	r3, #17
  104118:	e5930000 	ldr	r0, [r3]
  10411c:	e590303c 	ldr	r3, [r0, #60]	; 0x3c
  104120:	e3530000 	cmp	r3, #0
  104124:	0a000000 	beq	10412c <exit+0x2c>
  104128:	e12fff33 	blx	r3
  10412c:	e1a00004 	mov	r0, r4
  104130:	eb0030fd 	bl	11052c <_exit>

00104134 <__libc_fini_array>:
  104134:	e92d4070 	push	{r4, r5, r6, lr}
  104138:	e3003014 	movw	r3, #20
  10413c:	e3005010 	movw	r5, #16
  104140:	e3403012 	movt	r3, #18
  104144:	e3405012 	movt	r5, #18
  104148:	e0653003 	rsb	r3, r5, r3
  10414c:	e1b04143 	asrs	r4, r3, #2
  104150:	10835005 	addne	r5, r3, r5
  104154:	0a000004 	beq	10416c <__libc_fini_array+0x38>
  104158:	e2444001 	sub	r4, r4, #1
  10415c:	e5353004 	ldr	r3, [r5, #-4]!
  104160:	e12fff33 	blx	r3
  104164:	e3540000 	cmp	r4, #0
  104168:	1afffffa 	bne	104158 <__libc_fini_array+0x24>
  10416c:	e8bd4070 	pop	{r4, r5, r6, lr}
  104170:	ea00495c 	b	1166e8 <_fini>

00104174 <__libc_init_array>:
  104174:	e92d4070 	push	{r4, r5, r6, lr}
  104178:	e3006008 	movw	r6, #8
  10417c:	e3005008 	movw	r5, #8
  104180:	e3406012 	movt	r6, #18
  104184:	e3405012 	movt	r5, #18
  104188:	e0656006 	rsb	r6, r5, r6
  10418c:	e1b06146 	asrs	r6, r6, #2
  104190:	13a04000 	movne	r4, #0
  104194:	0a000004 	beq	1041ac <__libc_init_array+0x38>
  104198:	e2844001 	add	r4, r4, #1
  10419c:	e4953004 	ldr	r3, [r5], #4
  1041a0:	e12fff33 	blx	r3
  1041a4:	e1560004 	cmp	r6, r4
  1041a8:	1afffffa 	bne	104198 <__libc_init_array+0x24>
  1041ac:	e3006010 	movw	r6, #16
  1041b0:	e3005008 	movw	r5, #8
  1041b4:	e3406012 	movt	r6, #18
  1041b8:	e3405012 	movt	r5, #18
  1041bc:	e0656006 	rsb	r6, r5, r6
  1041c0:	eb004942 	bl	1166d0 <_init>
  1041c4:	e1b06146 	asrs	r6, r6, #2
  1041c8:	0a000006 	beq	1041e8 <__libc_init_array+0x74>
  1041cc:	e3a04000 	mov	r4, #0
  1041d0:	e2844001 	add	r4, r4, #1
  1041d4:	e4953004 	ldr	r3, [r5], #4
  1041d8:	e12fff33 	blx	r3
  1041dc:	e1560004 	cmp	r6, r4
  1041e0:	1afffffa 	bne	1041d0 <__libc_init_array+0x5c>
  1041e4:	e8bd8070 	pop	{r4, r5, r6, pc}
  1041e8:	e8bd8070 	pop	{r4, r5, r6, pc}

001041ec <malloc>:
  1041ec:	e3073988 	movw	r3, #31112	; 0x7988
  1041f0:	e1a01000 	mov	r1, r0
  1041f4:	e3403011 	movt	r3, #17
  1041f8:	e5930000 	ldr	r0, [r3]
  1041fc:	ea000004 	b	104214 <_malloc_r>

00104200 <free>:
  104200:	e3073988 	movw	r3, #31112	; 0x7988
  104204:	e1a01000 	mov	r1, r0
  104208:	e3403011 	movt	r3, #17
  10420c:	e5930000 	ldr	r0, [r3]
  104210:	ea001610 	b	109a58 <_free_r>

00104214 <_malloc_r>:
  104214:	e92d4ff0 	push	{r4, r5, r6, r7, r8, r9, sl, fp, lr}
  104218:	e281500b 	add	r5, r1, #11
  10421c:	e3550016 	cmp	r5, #22
  104220:	e24dd00c 	sub	sp, sp, #12
  104224:	e1a06000 	mov	r6, r0
  104228:	9a00001f 	bls	1042ac <_malloc_r+0x98>
  10422c:	e3c55007 	bic	r5, r5, #7
  104230:	e1510005 	cmp	r1, r5
  104234:	93a01000 	movls	r1, #0
  104238:	83a01001 	movhi	r1, #1
  10423c:	e1913fa5 	orrs	r3, r1, r5, lsr #31
  104240:	1a000087 	bne	104464 <_malloc_r+0x250>
  104244:	eb0001cc 	bl	10497c <__malloc_lock>
  104248:	e3550f7e 	cmp	r5, #504	; 0x1f8
  10424c:	2a00001b 	bcs	1042c0 <_malloc_r+0xac>
  104250:	e1a001a5 	lsr	r0, r5, #3
  104254:	e3077db8 	movw	r7, #32184	; 0x7db8
  104258:	e3407011 	movt	r7, #17
  10425c:	e0872180 	add	r2, r7, r0, lsl #3
  104260:	e592300c 	ldr	r3, [r2, #12]
  104264:	e1530002 	cmp	r3, r2
  104268:	0a000114 	beq	1046c0 <_malloc_r+0x4ac>
  10426c:	e5932004 	ldr	r2, [r3, #4]
  104270:	e2834008 	add	r4, r3, #8
  104274:	e593100c 	ldr	r1, [r3, #12]
  104278:	e1a00006 	mov	r0, r6
  10427c:	e3c22003 	bic	r2, r2, #3
  104280:	e593c008 	ldr	ip, [r3, #8]
  104284:	e0833002 	add	r3, r3, r2
  104288:	e5932004 	ldr	r2, [r3, #4]
  10428c:	e58c100c 	str	r1, [ip, #12]
  104290:	e3822001 	orr	r2, r2, #1
  104294:	e581c008 	str	ip, [r1, #8]
  104298:	e5832004 	str	r2, [r3, #4]
  10429c:	eb0001b7 	bl	104980 <__malloc_unlock>
  1042a0:	e1a00004 	mov	r0, r4
  1042a4:	e28dd00c 	add	sp, sp, #12
  1042a8:	e8bd8ff0 	pop	{r4, r5, r6, r7, r8, r9, sl, fp, pc}
  1042ac:	e3510010 	cmp	r1, #16
  1042b0:	8a00006b 	bhi	104464 <_malloc_r+0x250>
  1042b4:	eb0001b0 	bl	10497c <__malloc_lock>
  1042b8:	e3a05010 	mov	r5, #16
  1042bc:	eaffffe3 	b	104250 <_malloc_r+0x3c>
  1042c0:	e1b004a5 	lsrs	r0, r5, #9
  1042c4:	03a0007e 	moveq	r0, #126	; 0x7e
  1042c8:	03a0c03f 	moveq	ip, #63	; 0x3f
  1042cc:	1a00006a 	bne	10447c <_malloc_r+0x268>
  1042d0:	e3077db8 	movw	r7, #32184	; 0x7db8
  1042d4:	e3407011 	movt	r7, #17
  1042d8:	e0870100 	add	r0, r7, r0, lsl #2
  1042dc:	e590300c 	ldr	r3, [r0, #12]
  1042e0:	e1500003 	cmp	r0, r3
  1042e4:	1a000005 	bne	104300 <_malloc_r+0xec>
  1042e8:	ea00000a 	b	104318 <_malloc_r+0x104>
  1042ec:	e3510000 	cmp	r1, #0
  1042f0:	aa0000a6 	bge	104590 <_malloc_r+0x37c>
  1042f4:	e593300c 	ldr	r3, [r3, #12]
  1042f8:	e1500003 	cmp	r0, r3
  1042fc:	0a000005 	beq	104318 <_malloc_r+0x104>
  104300:	e5932004 	ldr	r2, [r3, #4]
  104304:	e3c22003 	bic	r2, r2, #3
  104308:	e0651002 	rsb	r1, r5, r2
  10430c:	e351000f 	cmp	r1, #15
  104310:	dafffff5 	ble	1042ec <_malloc_r+0xd8>
  104314:	e24cc001 	sub	ip, ip, #1
  104318:	e28c0001 	add	r0, ip, #1
  10431c:	e307edb8 	movw	lr, #32184	; 0x7db8
  104320:	e5973010 	ldr	r3, [r7, #16]
  104324:	e340e011 	movt	lr, #17
  104328:	e28ec008 	add	ip, lr, #8
  10432c:	e153000c 	cmp	r3, ip
  104330:	059e2004 	ldreq	r2, [lr, #4]
  104334:	0a000016 	beq	104394 <_malloc_r+0x180>
  104338:	e5932004 	ldr	r2, [r3, #4]
  10433c:	e3c22003 	bic	r2, r2, #3
  104340:	e0651002 	rsb	r1, r5, r2
  104344:	e351000f 	cmp	r1, #15
  104348:	ca0000ce 	bgt	104688 <_malloc_r+0x474>
  10434c:	e3510000 	cmp	r1, #0
  104350:	e58ec014 	str	ip, [lr, #20]
  104354:	e58ec010 	str	ip, [lr, #16]
  104358:	aa00004d 	bge	104494 <_malloc_r+0x280>
  10435c:	e3520c02 	cmp	r2, #512	; 0x200
  104360:	2a0000ae 	bcs	104620 <_malloc_r+0x40c>
  104364:	e1a041a2 	lsr	r4, r2, #3
  104368:	e59e1004 	ldr	r1, [lr, #4]
  10436c:	e3a09001 	mov	r9, #1
  104370:	e08e8184 	add	r8, lr, r4, lsl #3
  104374:	e1a02144 	asr	r2, r4, #2
  104378:	e1812219 	orr	r2, r1, r9, lsl r2
  10437c:	e58e2004 	str	r2, [lr, #4]
  104380:	e5981008 	ldr	r1, [r8, #8]
  104384:	e583800c 	str	r8, [r3, #12]
  104388:	e5831008 	str	r1, [r3, #8]
  10438c:	e5883008 	str	r3, [r8, #8]
  104390:	e581300c 	str	r3, [r1, #12]
  104394:	e1a03140 	asr	r3, r0, #2
  104398:	e3a0e001 	mov	lr, #1
  10439c:	e1a0e31e 	lsl	lr, lr, r3
  1043a0:	e15e0002 	cmp	lr, r2
  1043a4:	8a000044 	bhi	1044bc <_malloc_r+0x2a8>
  1043a8:	e112000e 	tst	r2, lr
  1043ac:	1a000008 	bne	1043d4 <_malloc_r+0x1c0>
  1043b0:	e1a0e08e 	lsl	lr, lr, #1
  1043b4:	e3c00003 	bic	r0, r0, #3
  1043b8:	e112000e 	tst	r2, lr
  1043bc:	e2800004 	add	r0, r0, #4
  1043c0:	1a000003 	bne	1043d4 <_malloc_r+0x1c0>
  1043c4:	e1a0e08e 	lsl	lr, lr, #1
  1043c8:	e2800004 	add	r0, r0, #4
  1043cc:	e112000e 	tst	r2, lr
  1043d0:	0afffffb 	beq	1043c4 <_malloc_r+0x1b0>
  1043d4:	e0878180 	add	r8, r7, r0, lsl #3
  1043d8:	e1a09000 	mov	r9, r0
  1043dc:	e1a04008 	mov	r4, r8
  1043e0:	e594300c 	ldr	r3, [r4, #12]
  1043e4:	e1540003 	cmp	r4, r3
  1043e8:	1a000005 	bne	104404 <_malloc_r+0x1f0>
  1043ec:	ea0000ae 	b	1046ac <_malloc_r+0x498>
  1043f0:	e3510000 	cmp	r1, #0
  1043f4:	aa0000b7 	bge	1046d8 <_malloc_r+0x4c4>
  1043f8:	e593300c 	ldr	r3, [r3, #12]
  1043fc:	e1540003 	cmp	r4, r3
  104400:	0a0000a9 	beq	1046ac <_malloc_r+0x498>
  104404:	e5932004 	ldr	r2, [r3, #4]
  104408:	e3c22003 	bic	r2, r2, #3
  10440c:	e0651002 	rsb	r1, r5, r2
  104410:	e351000f 	cmp	r1, #15
  104414:	dafffff5 	ble	1043f0 <_malloc_r+0x1dc>
  104418:	e1a04003 	mov	r4, r3
  10441c:	e593e00c 	ldr	lr, [r3, #12]
  104420:	e5b48008 	ldr	r8, [r4, #8]!
  104424:	e1a00006 	mov	r0, r6
  104428:	e3816001 	orr	r6, r1, #1
  10442c:	e0832005 	add	r2, r3, r5
  104430:	e3855001 	orr	r5, r5, #1
  104434:	e5835004 	str	r5, [r3, #4]
  104438:	e588e00c 	str	lr, [r8, #12]
  10443c:	e58e8008 	str	r8, [lr, #8]
  104440:	e5872014 	str	r2, [r7, #20]
  104444:	e5872010 	str	r2, [r7, #16]
  104448:	e582c00c 	str	ip, [r2, #12]
  10444c:	e9821040 	stmib	r2, {r6, ip}
  104450:	e7821001 	str	r1, [r2, r1]
  104454:	eb000149 	bl	104980 <__malloc_unlock>
  104458:	e1a00004 	mov	r0, r4
  10445c:	e28dd00c 	add	sp, sp, #12
  104460:	e8bd8ff0 	pop	{r4, r5, r6, r7, r8, r9, sl, fp, pc}
  104464:	e3a04000 	mov	r4, #0
  104468:	e3a0300c 	mov	r3, #12
  10446c:	e1a00004 	mov	r0, r4
  104470:	e5863000 	str	r3, [r6]
  104474:	e28dd00c 	add	sp, sp, #12
  104478:	e8bd8ff0 	pop	{r4, r5, r6, r7, r8, r9, sl, fp, pc}
  10447c:	e3500004 	cmp	r0, #4
  104480:	8a00005c 	bhi	1045f8 <_malloc_r+0x3e4>
  104484:	e1a00325 	lsr	r0, r5, #6
  104488:	e280c038 	add	ip, r0, #56	; 0x38
  10448c:	e1a0008c 	lsl	r0, ip, #1
  104490:	eaffff8e 	b	1042d0 <_malloc_r+0xbc>
  104494:	e0832002 	add	r2, r3, r2
  104498:	e2834008 	add	r4, r3, #8
  10449c:	e1a00006 	mov	r0, r6
  1044a0:	e5923004 	ldr	r3, [r2, #4]
  1044a4:	e3833001 	orr	r3, r3, #1
  1044a8:	e5823004 	str	r3, [r2, #4]
  1044ac:	eb000133 	bl	104980 <__malloc_unlock>
  1044b0:	e1a00004 	mov	r0, r4
  1044b4:	e28dd00c 	add	sp, sp, #12
  1044b8:	e8bd8ff0 	pop	{r4, r5, r6, r7, r8, r9, sl, fp, pc}
  1044bc:	e5974008 	ldr	r4, [r7, #8]
  1044c0:	e3071db8 	movw	r1, #32184	; 0x7db8
  1044c4:	e3401011 	movt	r1, #17
  1044c8:	e5943004 	ldr	r3, [r4, #4]
  1044cc:	e3c39003 	bic	r9, r3, #3
  1044d0:	e1590005 	cmp	r9, r5
  1044d4:	e0652009 	rsb	r2, r5, r9
  1044d8:	23a03000 	movcs	r3, #0
  1044dc:	33a03001 	movcc	r3, #1
  1044e0:	e352000f 	cmp	r2, #15
  1044e4:	d3833001 	orrle	r3, r3, #1
  1044e8:	e3530000 	cmp	r3, #0
  1044ec:	0a000035 	beq	1045c8 <_malloc_r+0x3b4>
  1044f0:	e3008054 	movw	r8, #84	; 0x54
  1044f4:	e5913408 	ldr	r3, [r1, #1032]	; 0x408
  1044f8:	e3408012 	movt	r8, #18
  1044fc:	e1a00006 	mov	r0, r6
  104500:	e5982000 	ldr	r2, [r8]
  104504:	e3730001 	cmn	r3, #1
  104508:	e0852002 	add	r2, r5, r2
  10450c:	12822a01 	addne	r2, r2, #4096	; 0x1000
  104510:	0282b010 	addeq	fp, r2, #16
  104514:	1282200f 	addne	r2, r2, #15
  104518:	13c2beff 	bicne	fp, r2, #4080	; 0xff0
  10451c:	13cbb00f 	bicne	fp, fp, #15
  104520:	e1a0100b 	mov	r1, fp
  104524:	eb00015b 	bl	104a98 <_sbrk_r>
  104528:	e3700001 	cmn	r0, #1
  10452c:	e1a03000 	mov	r3, r0
  104530:	0a000007 	beq	104554 <_malloc_r+0x340>
  104534:	e054a007 	subs	sl, r4, r7
  104538:	e0842009 	add	r2, r4, r9
  10453c:	13a0a001 	movne	sl, #1
  104540:	e1540007 	cmp	r4, r7
  104544:	11520000 	cmpne	r2, r0
  104548:	e3070db8 	movw	r0, #32184	; 0x7db8
  10454c:	e3400011 	movt	r0, #17
  104550:	9a000090 	bls	104798 <_malloc_r+0x584>
  104554:	e5974008 	ldr	r4, [r7, #8]
  104558:	e5943004 	ldr	r3, [r4, #4]
  10455c:	e3c33003 	bic	r3, r3, #3
  104560:	e1550003 	cmp	r5, r3
  104564:	e0652003 	rsb	r2, r5, r3
  104568:	93a03000 	movls	r3, #0
  10456c:	83a03001 	movhi	r3, #1
  104570:	e352000f 	cmp	r2, #15
  104574:	d3833001 	orrle	r3, r3, #1
  104578:	e3530000 	cmp	r3, #0
  10457c:	0a000011 	beq	1045c8 <_malloc_r+0x3b4>
  104580:	e1a00006 	mov	r0, r6
  104584:	e3a04000 	mov	r4, #0
  104588:	eb0000fc 	bl	104980 <__malloc_unlock>
  10458c:	eaffff43 	b	1042a0 <_malloc_r+0x8c>
  104590:	e0832002 	add	r2, r3, r2
  104594:	e593c00c 	ldr	ip, [r3, #12]
  104598:	e593e008 	ldr	lr, [r3, #8]
  10459c:	e1a00006 	mov	r0, r6
  1045a0:	e5921004 	ldr	r1, [r2, #4]
  1045a4:	e2834008 	add	r4, r3, #8
  1045a8:	e58ec00c 	str	ip, [lr, #12]
  1045ac:	e3813001 	orr	r3, r1, #1
  1045b0:	e58ce008 	str	lr, [ip, #8]
  1045b4:	e5823004 	str	r3, [r2, #4]
  1045b8:	eb0000f0 	bl	104980 <__malloc_unlock>
  1045bc:	e1a00004 	mov	r0, r4
  1045c0:	e28dd00c 	add	sp, sp, #12
  1045c4:	e8bd8ff0 	pop	{r4, r5, r6, r7, r8, r9, sl, fp, pc}
  1045c8:	e0843005 	add	r3, r4, r5
  1045cc:	e3822001 	orr	r2, r2, #1
  1045d0:	e1a00006 	mov	r0, r6
  1045d4:	e3855001 	orr	r5, r5, #1
  1045d8:	e5845004 	str	r5, [r4, #4]
  1045dc:	e2844008 	add	r4, r4, #8
  1045e0:	e5873008 	str	r3, [r7, #8]
  1045e4:	e5832004 	str	r2, [r3, #4]
  1045e8:	eb0000e4 	bl	104980 <__malloc_unlock>
  1045ec:	e1a00004 	mov	r0, r4
  1045f0:	e28dd00c 	add	sp, sp, #12
  1045f4:	e8bd8ff0 	pop	{r4, r5, r6, r7, r8, r9, sl, fp, pc}
  1045f8:	e3500014 	cmp	r0, #20
  1045fc:	9280c05b 	addls	ip, r0, #91	; 0x5b
  104600:	91a0008c 	lslls	r0, ip, #1
  104604:	9affff31 	bls	1042d0 <_malloc_r+0xbc>
  104608:	e3500054 	cmp	r0, #84	; 0x54
  10460c:	8a0000a9 	bhi	1048b8 <_malloc_r+0x6a4>
  104610:	e1a00625 	lsr	r0, r5, #12
  104614:	e280c06e 	add	ip, r0, #110	; 0x6e
  104618:	e1a0008c 	lsl	r0, ip, #1
  10461c:	eaffff2b 	b	1042d0 <_malloc_r+0xbc>
  104620:	e1a014a2 	lsr	r1, r2, #9
  104624:	e3510004 	cmp	r1, #4
  104628:	8a000036 	bhi	104708 <_malloc_r+0x4f4>
  10462c:	e1a01322 	lsr	r1, r2, #6
  104630:	e281e038 	add	lr, r1, #56	; 0x38
  104634:	e1a0408e 	lsl	r4, lr, #1
  104638:	e0874104 	add	r4, r7, r4, lsl #2
  10463c:	e3078db8 	movw	r8, #32184	; 0x7db8
  104640:	e3408011 	movt	r8, #17
  104644:	e5941008 	ldr	r1, [r4, #8]
  104648:	e1510004 	cmp	r1, r4
  10464c:	0a00009f 	beq	1048d0 <_malloc_r+0x6bc>
  104650:	e591e004 	ldr	lr, [r1, #4]
  104654:	e3cee003 	bic	lr, lr, #3
  104658:	e152000e 	cmp	r2, lr
  10465c:	2a000002 	bcs	10466c <_malloc_r+0x458>
  104660:	e5911008 	ldr	r1, [r1, #8]
  104664:	e1540001 	cmp	r4, r1
  104668:	1afffff8 	bne	104650 <_malloc_r+0x43c>
  10466c:	e591400c 	ldr	r4, [r1, #12]
  104670:	e5972004 	ldr	r2, [r7, #4]
  104674:	e583400c 	str	r4, [r3, #12]
  104678:	e5831008 	str	r1, [r3, #8]
  10467c:	e5843008 	str	r3, [r4, #8]
  104680:	e581300c 	str	r3, [r1, #12]
  104684:	eaffff42 	b	104394 <_malloc_r+0x180>
  104688:	e0832005 	add	r2, r3, r5
  10468c:	e1a00006 	mov	r0, r6
  104690:	e3855001 	orr	r5, r5, #1
  104694:	e3816001 	orr	r6, r1, #1
  104698:	e5835004 	str	r5, [r3, #4]
  10469c:	e2834008 	add	r4, r3, #8
  1046a0:	e58e2014 	str	r2, [lr, #20]
  1046a4:	e58e2010 	str	r2, [lr, #16]
  1046a8:	eaffff66 	b	104448 <_malloc_r+0x234>
  1046ac:	e2899001 	add	r9, r9, #1
  1046b0:	e2844008 	add	r4, r4, #8
  1046b4:	e3190003 	tst	r9, #3
  1046b8:	1affff48 	bne	1043e0 <_malloc_r+0x1cc>
  1046bc:	ea00001e 	b	10473c <_malloc_r+0x528>
  1046c0:	e2832008 	add	r2, r3, #8
  1046c4:	e5933014 	ldr	r3, [r3, #20]
  1046c8:	e1520003 	cmp	r2, r3
  1046cc:	02800002 	addeq	r0, r0, #2
  1046d0:	0affff11 	beq	10431c <_malloc_r+0x108>
  1046d4:	eafffee4 	b	10426c <_malloc_r+0x58>
  1046d8:	e0832002 	add	r2, r3, r2
  1046dc:	e1a04003 	mov	r4, r3
  1046e0:	e593100c 	ldr	r1, [r3, #12]
  1046e4:	e1a00006 	mov	r0, r6
  1046e8:	e5b4c008 	ldr	ip, [r4, #8]!
  1046ec:	e5923004 	ldr	r3, [r2, #4]
  1046f0:	e3833001 	orr	r3, r3, #1
  1046f4:	e5823004 	str	r3, [r2, #4]
  1046f8:	e58c100c 	str	r1, [ip, #12]
  1046fc:	e581c008 	str	ip, [r1, #8]
  104700:	eb00009e 	bl	104980 <__malloc_unlock>
  104704:	eafffee5 	b	1042a0 <_malloc_r+0x8c>
  104708:	e3510014 	cmp	r1, #20
  10470c:	9281e05b 	addls	lr, r1, #91	; 0x5b
  104710:	91a0408e 	lslls	r4, lr, #1
  104714:	9affffc7 	bls	104638 <_malloc_r+0x424>
  104718:	e3510054 	cmp	r1, #84	; 0x54
  10471c:	8a000087 	bhi	104940 <_malloc_r+0x72c>
  104720:	e1a01622 	lsr	r1, r2, #12
  104724:	e281e06e 	add	lr, r1, #110	; 0x6e
  104728:	e1a0408e 	lsl	r4, lr, #1
  10472c:	eaffffc1 	b	104638 <_malloc_r+0x424>
  104730:	e5988000 	ldr	r8, [r8]
  104734:	e1580003 	cmp	r8, r3
  104738:	1a00008d 	bne	104974 <_malloc_r+0x760>
  10473c:	e3100003 	tst	r0, #3
  104740:	e2483008 	sub	r3, r8, #8
  104744:	e2400001 	sub	r0, r0, #1
  104748:	1afffff8 	bne	104730 <_malloc_r+0x51c>
  10474c:	e5973004 	ldr	r3, [r7, #4]
  104750:	e1c3300e 	bic	r3, r3, lr
  104754:	e5873004 	str	r3, [r7, #4]
  104758:	e1a0e08e 	lsl	lr, lr, #1
  10475c:	e15e0003 	cmp	lr, r3
  104760:	83a02000 	movhi	r2, #0
  104764:	93a02001 	movls	r2, #1
  104768:	e35e0000 	cmp	lr, #0
  10476c:	03a02000 	moveq	r2, #0
  104770:	e3520000 	cmp	r2, #0
  104774:	0affff50 	beq	1044bc <_malloc_r+0x2a8>
  104778:	e113000e 	tst	r3, lr
  10477c:	e1a00009 	mov	r0, r9
  104780:	1affff13 	bne	1043d4 <_malloc_r+0x1c0>
  104784:	e1a0e08e 	lsl	lr, lr, #1
  104788:	e2800004 	add	r0, r0, #4
  10478c:	e113000e 	tst	r3, lr
  104790:	0afffffb 	beq	104784 <_malloc_r+0x570>
  104794:	eaffff0e 	b	1043d4 <_malloc_r+0x1c0>
  104798:	e5981004 	ldr	r1, [r8, #4]
  10479c:	e1520003 	cmp	r2, r3
  1047a0:	e08b1001 	add	r1, fp, r1
  1047a4:	e5881004 	str	r1, [r8, #4]
  1047a8:	0a000057 	beq	10490c <_malloc_r+0x6f8>
  1047ac:	e597c408 	ldr	ip, [r7, #1032]	; 0x408
  1047b0:	e3070db8 	movw	r0, #32184	; 0x7db8
  1047b4:	e3400011 	movt	r0, #17
  1047b8:	e37c0001 	cmn	ip, #1
  1047bc:	05803408 	streq	r3, [r0, #1032]	; 0x408
  1047c0:	10622003 	rsbne	r2, r2, r3
  1047c4:	e1a00006 	mov	r0, r6
  1047c8:	10811002 	addne	r1, r1, r2
  1047cc:	15881004 	strne	r1, [r8, #4]
  1047d0:	e2131007 	ands	r1, r3, #7
  1047d4:	12612008 	rsbne	r2, r1, #8
  1047d8:	12611a01 	rsbne	r1, r1, #4096	; 0x1000
  1047dc:	10833002 	addne	r3, r3, r2
  1047e0:	12811008 	addne	r1, r1, #8
  1047e4:	e083200b 	add	r2, r3, fp
  1047e8:	03a01a01 	moveq	r1, #4096	; 0x1000
  1047ec:	e7eb2052 	ubfx	r2, r2, #0, #12
  1047f0:	e58d3004 	str	r3, [sp, #4]
  1047f4:	e062b001 	rsb	fp, r2, r1
  1047f8:	e1a0100b 	mov	r1, fp
  1047fc:	eb0000a5 	bl	104a98 <_sbrk_r>
  104800:	e59d3004 	ldr	r3, [sp, #4]
  104804:	e5981004 	ldr	r1, [r8, #4]
  104808:	e5873008 	str	r3, [r7, #8]
  10480c:	e3700001 	cmn	r0, #1
  104810:	10632000 	rsbne	r2, r3, r0
  104814:	108b2002 	addne	r2, fp, r2
  104818:	03a02001 	moveq	r2, #1
  10481c:	13822001 	orrne	r2, r2, #1
  104820:	03a0b000 	moveq	fp, #0
  104824:	e35a0000 	cmp	sl, #0
  104828:	e300a054 	movw	sl, #84	; 0x54
  10482c:	e08b1001 	add	r1, fp, r1
  104830:	e5832004 	str	r2, [r3, #4]
  104834:	e5881004 	str	r1, [r8, #4]
  104838:	e340a012 	movt	sl, #18
  10483c:	0a00000f 	beq	104880 <_malloc_r+0x66c>
  104840:	e359000f 	cmp	r9, #15
  104844:	93a02001 	movls	r2, #1
  104848:	95832004 	strls	r2, [r3, #4]
  10484c:	9affff4b 	bls	104580 <_malloc_r+0x36c>
  104850:	e249300c 	sub	r3, r9, #12
  104854:	e5942004 	ldr	r2, [r4, #4]
  104858:	e3c33007 	bic	r3, r3, #7
  10485c:	e3a0c005 	mov	ip, #5
  104860:	e0840003 	add	r0, r4, r3
  104864:	e353000f 	cmp	r3, #15
  104868:	e2022001 	and	r2, r2, #1
  10486c:	e1833002 	orr	r3, r3, r2
  104870:	e5843004 	str	r3, [r4, #4]
  104874:	e580c004 	str	ip, [r0, #4]
  104878:	e580c008 	str	ip, [r0, #8]
  10487c:	8a00002a 	bhi	10492c <_malloc_r+0x718>
  104880:	e598202c 	ldr	r2, [r8, #44]	; 0x2c
  104884:	e3003054 	movw	r3, #84	; 0x54
  104888:	e3403012 	movt	r3, #18
  10488c:	e5974008 	ldr	r4, [r7, #8]
  104890:	e1510002 	cmp	r1, r2
  104894:	e5982030 	ldr	r2, [r8, #48]	; 0x30
  104898:	8583102c 	strhi	r1, [r3, #44]	; 0x2c
  10489c:	e3003054 	movw	r3, #84	; 0x54
  1048a0:	e3403012 	movt	r3, #18
  1048a4:	e1510002 	cmp	r1, r2
  1048a8:	85831030 	strhi	r1, [r3, #48]	; 0x30
  1048ac:	e5943004 	ldr	r3, [r4, #4]
  1048b0:	e3c33003 	bic	r3, r3, #3
  1048b4:	eaffff29 	b	104560 <_malloc_r+0x34c>
  1048b8:	e3500f55 	cmp	r0, #340	; 0x154
  1048bc:	8a00000a 	bhi	1048ec <_malloc_r+0x6d8>
  1048c0:	e1a007a5 	lsr	r0, r5, #15
  1048c4:	e280c077 	add	ip, r0, #119	; 0x77
  1048c8:	e1a0008c 	lsl	r0, ip, #1
  1048cc:	eafffe7f 	b	1042d0 <_malloc_r+0xbc>
  1048d0:	e5982004 	ldr	r2, [r8, #4]
  1048d4:	e1a0e14e 	asr	lr, lr, #2
  1048d8:	e3a09001 	mov	r9, #1
  1048dc:	e1a04001 	mov	r4, r1
  1048e0:	e1822e19 	orr	r2, r2, r9, lsl lr
  1048e4:	e5882004 	str	r2, [r8, #4]
  1048e8:	eaffff61 	b	104674 <_malloc_r+0x460>
  1048ec:	e3003554 	movw	r3, #1364	; 0x554
  1048f0:	e1500003 	cmp	r0, r3
  1048f4:	91a00925 	lsrls	r0, r5, #18
  1048f8:	9280c07c 	addls	ip, r0, #124	; 0x7c
  1048fc:	83a000fc 	movhi	r0, #252	; 0xfc
  104900:	83a0c07e 	movhi	ip, #126	; 0x7e
  104904:	91a0008c 	lslls	r0, ip, #1
  104908:	eafffe70 	b	1042d0 <_malloc_r+0xbc>
  10490c:	e7ebc052 	ubfx	ip, r2, #0, #12
  104910:	e35c0000 	cmp	ip, #0
  104914:	1affffa4 	bne	1047ac <_malloc_r+0x598>
  104918:	e5900008 	ldr	r0, [r0, #8]
  10491c:	e08b2009 	add	r2, fp, r9
  104920:	e3823001 	orr	r3, r2, #1
  104924:	e5803004 	str	r3, [r0, #4]
  104928:	eaffffd4 	b	104880 <_malloc_r+0x66c>
  10492c:	e2841008 	add	r1, r4, #8
  104930:	e1a00006 	mov	r0, r6
  104934:	eb001447 	bl	109a58 <_free_r>
  104938:	e59a1004 	ldr	r1, [sl, #4]
  10493c:	eaffffcf 	b	104880 <_malloc_r+0x66c>
  104940:	e3510f55 	cmp	r1, #340	; 0x154
  104944:	91a017a2 	lsrls	r1, r2, #15
  104948:	9281e077 	addls	lr, r1, #119	; 0x77
  10494c:	91a0408e 	lslls	r4, lr, #1
  104950:	9affff38 	bls	104638 <_malloc_r+0x424>
  104954:	e300e554 	movw	lr, #1364	; 0x554
  104958:	e151000e 	cmp	r1, lr
  10495c:	91a01922 	lsrls	r1, r2, #18
  104960:	9281e07c 	addls	lr, r1, #124	; 0x7c
  104964:	83a040fc 	movhi	r4, #252	; 0xfc
  104968:	83a0e07e 	movhi	lr, #126	; 0x7e
  10496c:	91a0408e 	lslls	r4, lr, #1
  104970:	eaffff30 	b	104638 <_malloc_r+0x424>
  104974:	e5973004 	ldr	r3, [r7, #4]
  104978:	eaffff76 	b	104758 <_malloc_r+0x544>

0010497c <__malloc_lock>:
  10497c:	e12fff1e 	bx	lr

00104980 <__malloc_unlock>:
  104980:	e12fff1e 	bx	lr

00104984 <_printf_r>:
  104984:	e92d000e 	push	{r1, r2, r3}
  104988:	e52de004 	push	{lr}		; (str lr, [sp, #-4]!)
  10498c:	e24dd008 	sub	sp, sp, #8
  104990:	e28dc010 	add	ip, sp, #16
  104994:	e5901008 	ldr	r1, [r0, #8]
  104998:	e59d200c 	ldr	r2, [sp, #12]
  10499c:	e1a0300c 	mov	r3, ip
  1049a0:	e58dc004 	str	ip, [sp, #4]
  1049a4:	eb000095 	bl	104c00 <_vfprintf_r>
  1049a8:	e28dd008 	add	sp, sp, #8
  1049ac:	e49de004 	pop	{lr}		; (ldr lr, [sp], #4)
  1049b0:	e28dd00c 	add	sp, sp, #12
  1049b4:	e12fff1e 	bx	lr

001049b8 <printf>:
  1049b8:	e92d000f 	push	{r0, r1, r2, r3}
  1049bc:	e3071988 	movw	r1, #31112	; 0x7988
  1049c0:	e3401011 	movt	r1, #17
  1049c4:	e52de004 	push	{lr}		; (str lr, [sp, #-4]!)
  1049c8:	e24dd00c 	sub	sp, sp, #12
  1049cc:	e5910000 	ldr	r0, [r1]
  1049d0:	e28dc014 	add	ip, sp, #20
  1049d4:	e59d2010 	ldr	r2, [sp, #16]
  1049d8:	e1a0300c 	mov	r3, ip
  1049dc:	e58dc004 	str	ip, [sp, #4]
  1049e0:	e5901008 	ldr	r1, [r0, #8]
  1049e4:	eb000085 	bl	104c00 <_vfprintf_r>
  1049e8:	e28dd00c 	add	sp, sp, #12
  1049ec:	e49de004 	pop	{lr}		; (ldr lr, [sp], #4)
  1049f0:	e28dd010 	add	sp, sp, #16
  1049f4:	e12fff1e 	bx	lr

001049f8 <_puts_r>:
  1049f8:	e92d4030 	push	{r4, r5, lr}
  1049fc:	e1a04000 	mov	r4, r0
  104a00:	e24dd024 	sub	sp, sp, #36	; 0x24
  104a04:	e1a00001 	mov	r0, r1
  104a08:	e1a05001 	mov	r5, r1
  104a0c:	fa00003b 	blx	104b00 <strlen>
  104a10:	e5943008 	ldr	r3, [r4, #8]
  104a14:	e3072154 	movw	r2, #29012	; 0x7154
  104a18:	e3402011 	movt	r2, #17
  104a1c:	e58d2018 	str	r2, [sp, #24]
  104a20:	e3a02002 	mov	r2, #2
  104a24:	e3a0c001 	mov	ip, #1
  104a28:	e1d310bc 	ldrh	r1, [r3, #12]
  104a2c:	e58dc01c 	str	ip, [sp, #28]
  104a30:	e3110a02 	tst	r1, #8192	; 0x2000
  104a34:	e58d5010 	str	r5, [sp, #16]
  104a38:	03811a02 	orreq	r1, r1, #8192	; 0x2000
  104a3c:	01c310bc 	strheq	r1, [r3, #12]
  104a40:	e1a01003 	mov	r1, r3
  104a44:	e280e001 	add	lr, r0, #1
  104a48:	e58d0014 	str	r0, [sp, #20]
  104a4c:	e28d0010 	add	r0, sp, #16
  104a50:	e98d0005 	stmib	sp, {r0, r2}
  104a54:	05932064 	ldreq	r2, [r3, #100]	; 0x64
  104a58:	e1a00004 	mov	r0, r4
  104a5c:	e58de00c 	str	lr, [sp, #12]
  104a60:	03c22a02 	biceq	r2, r2, #8192	; 0x2000
  104a64:	05832064 	streq	r2, [r3, #100]	; 0x64
  104a68:	e28d2004 	add	r2, sp, #4
  104a6c:	eb0014a5 	bl	109d08 <__sfvwrite_r>
  104a70:	e3500000 	cmp	r0, #0
  104a74:	13e00000 	mvnne	r0, #0
  104a78:	03a0000a 	moveq	r0, #10
  104a7c:	e28dd024 	add	sp, sp, #36	; 0x24
  104a80:	e8bd8030 	pop	{r4, r5, pc}

00104a84 <puts>:
  104a84:	e3073988 	movw	r3, #31112	; 0x7988
  104a88:	e1a01000 	mov	r1, r0
  104a8c:	e3403011 	movt	r3, #17
  104a90:	e5930000 	ldr	r0, [r3]
  104a94:	eaffffd7 	b	1049f8 <_puts_r>

00104a98 <_sbrk_r>:
  104a98:	e92d4070 	push	{r4, r5, r6, lr}
  104a9c:	e3004afc 	movw	r4, #2812	; 0xafc
  104aa0:	e1a05000 	mov	r5, r0
  104aa4:	e3404012 	movt	r4, #18
  104aa8:	e1a00001 	mov	r0, r1
  104aac:	e3a03000 	mov	r3, #0
  104ab0:	e5843000 	str	r3, [r4]
  104ab4:	eb002e9d 	bl	110530 <_sbrk>
  104ab8:	e3700001 	cmn	r0, #1
  104abc:	18bd8070 	popne	{r4, r5, r6, pc}
  104ac0:	e5943000 	ldr	r3, [r4]
  104ac4:	e3530000 	cmp	r3, #0
  104ac8:	15853000 	strne	r3, [r5]
  104acc:	e8bd8070 	pop	{r4, r5, r6, pc}
	...

00104b00 <strlen>:
  104b00:	f890 f000 	pld	[r0]
  104b04:	e96d 4502 	strd	r4, r5, [sp, #-8]!
  104b08:	f020 0107 	bic.w	r1, r0, #7
  104b0c:	f06f 0c00 	mvn.w	ip, #0
  104b10:	f010 0407 	ands.w	r4, r0, #7
  104b14:	f891 f020 	pld	[r1, #32]
  104b18:	f040 8049 	bne.w	104bae <strlen+0xae>
  104b1c:	f04f 0400 	mov.w	r4, #0
  104b20:	f06f 0007 	mvn.w	r0, #7
  104b24:	e9d1 2300 	ldrd	r2, r3, [r1]
  104b28:	f891 f040 	pld	[r1, #64]	; 0x40
  104b2c:	f100 0008 	add.w	r0, r0, #8
  104b30:	fa82 f24c 	uadd8	r2, r2, ip
  104b34:	faa4 f28c 	sel	r2, r4, ip
  104b38:	fa83 f34c 	uadd8	r3, r3, ip
  104b3c:	faa2 f38c 	sel	r3, r2, ip
  104b40:	bb4b      	cbnz	r3, 104b96 <strlen+0x96>
  104b42:	e9d1 2302 	ldrd	r2, r3, [r1, #8]
  104b46:	fa82 f24c 	uadd8	r2, r2, ip
  104b4a:	f100 0008 	add.w	r0, r0, #8
  104b4e:	faa4 f28c 	sel	r2, r4, ip
  104b52:	fa83 f34c 	uadd8	r3, r3, ip
  104b56:	faa2 f38c 	sel	r3, r2, ip
  104b5a:	b9e3      	cbnz	r3, 104b96 <strlen+0x96>
  104b5c:	e9d1 2304 	ldrd	r2, r3, [r1, #16]
  104b60:	fa82 f24c 	uadd8	r2, r2, ip
  104b64:	f100 0008 	add.w	r0, r0, #8
  104b68:	faa4 f28c 	sel	r2, r4, ip
  104b6c:	fa83 f34c 	uadd8	r3, r3, ip
  104b70:	faa2 f38c 	sel	r3, r2, ip
  104b74:	b97b      	cbnz	r3, 104b96 <strlen+0x96>
  104b76:	e9d1 2306 	ldrd	r2, r3, [r1, #24]
  104b7a:	f101 0120 	add.w	r1, r1, #32
  104b7e:	fa82 f24c 	uadd8	r2, r2, ip
  104b82:	f100 0008 	add.w	r0, r0, #8
  104b86:	faa4 f28c 	sel	r2, r4, ip
  104b8a:	fa83 f34c 	uadd8	r3, r3, ip
  104b8e:	faa2 f38c 	sel	r3, r2, ip
  104b92:	2b00      	cmp	r3, #0
  104b94:	d0c6      	beq.n	104b24 <strlen+0x24>
  104b96:	2a00      	cmp	r2, #0
  104b98:	bf04      	itt	eq
  104b9a:	3004      	addeq	r0, #4
  104b9c:	461a      	moveq	r2, r3
  104b9e:	ba12      	rev	r2, r2
  104ba0:	fab2 f282 	clz	r2, r2
  104ba4:	e8fd 4502 	ldrd	r4, r5, [sp], #8
  104ba8:	eb00 00d2 	add.w	r0, r0, r2, lsr #3
  104bac:	4770      	bx	lr
  104bae:	e9d1 2300 	ldrd	r2, r3, [r1]
  104bb2:	f004 0503 	and.w	r5, r4, #3
  104bb6:	f1c4 0000 	rsb	r0, r4, #0
  104bba:	ea4f 05c5 	mov.w	r5, r5, lsl #3
  104bbe:	f014 0f04 	tst.w	r4, #4
  104bc2:	f891 f040 	pld	[r1, #64]	; 0x40
  104bc6:	fa0c f505 	lsl.w	r5, ip, r5
  104bca:	ea62 0205 	orn	r2, r2, r5
  104bce:	bf1c      	itt	ne
  104bd0:	ea63 0305 	ornne	r3, r3, r5
  104bd4:	4662      	movne	r2, ip
  104bd6:	f04f 0400 	mov.w	r4, #0
  104bda:	e7a9      	b.n	104b30 <strlen+0x30>
  104bdc:	f3af 8000 	nop.w
  104be0:	f3af 8000 	nop.w
  104be4:	f3af 8000 	nop.w
  104be8:	f3af 8000 	nop.w
  104bec:	f3af 8000 	nop.w
  104bf0:	f3af 8000 	nop.w
  104bf4:	f3af 8000 	nop.w
  104bf8:	f3af 8000 	nop.w
  104bfc:	f3af 8000 	nop.w

00104c00 <_vfprintf_r>:
  104c00:	e92d4ff0 	push	{r4, r5, r6, r7, r8, r9, sl, fp, lr}
  104c04:	e1a04003 	mov	r4, r3
  104c08:	ed2d8b0a 	vpush	{d8-d12}
  104c0c:	e1a0a000 	mov	sl, r0
  104c10:	e24ddf55 	sub	sp, sp, #340	; 0x154
  104c14:	e28d8090 	add	r8, sp, #144	; 0x90
  104c18:	e58d100c 	str	r1, [sp, #12]
  104c1c:	e58d2014 	str	r2, [sp, #20]
  104c20:	eb0018f5 	bl	10affc <_localeconv_r>
  104c24:	e58d4028 	str	r4, [sp, #40]	; 0x28
  104c28:	e5903000 	ldr	r3, [r0]
  104c2c:	e1a00003 	mov	r0, r3
  104c30:	e58d3050 	str	r3, [sp, #80]	; 0x50
  104c34:	faffffb1 	blx	104b00 <strlen>
  104c38:	e3a02008 	mov	r2, #8
  104c3c:	e3a01000 	mov	r1, #0
  104c40:	e58d0054 	str	r0, [sp, #84]	; 0x54
  104c44:	e1a00008 	mov	r0, r8
  104c48:	eb001d16 	bl	10c0a8 <memset>
  104c4c:	e35a0000 	cmp	sl, #0
  104c50:	0a000002 	beq	104c60 <_vfprintf_r+0x60>
  104c54:	e59a3038 	ldr	r3, [sl, #56]	; 0x38
  104c58:	e3530000 	cmp	r3, #0
  104c5c:	0a00010d 	beq	105098 <_vfprintf_r+0x498>
  104c60:	e59d300c 	ldr	r3, [sp, #12]
  104c64:	e1d320bc 	ldrh	r2, [r3, #12]
  104c68:	e6ff3072 	uxth	r3, r2
  104c6c:	e3130a02 	tst	r3, #8192	; 0x2000
  104c70:	1a000006 	bne	104c90 <_vfprintf_r+0x90>
  104c74:	e59d100c 	ldr	r1, [sp, #12]
  104c78:	e3823a02 	orr	r3, r2, #8192	; 0x2000
  104c7c:	e5912064 	ldr	r2, [r1, #100]	; 0x64
  104c80:	e1c130bc 	strh	r3, [r1, #12]
  104c84:	e6ff3073 	uxth	r3, r3
  104c88:	e3c22a02 	bic	r2, r2, #8192	; 0x2000
  104c8c:	e5812064 	str	r2, [r1, #100]	; 0x64
  104c90:	e3130008 	tst	r3, #8
  104c94:	0a0000ce 	beq	104fd4 <_vfprintf_r+0x3d4>
  104c98:	e59d200c 	ldr	r2, [sp, #12]
  104c9c:	e5922010 	ldr	r2, [r2, #16]
  104ca0:	e3520000 	cmp	r2, #0
  104ca4:	0a0000ca 	beq	104fd4 <_vfprintf_r+0x3d4>
  104ca8:	e203301a 	and	r3, r3, #26
  104cac:	e353000a 	cmp	r3, #10
  104cb0:	0a0000ec 	beq	105068 <_vfprintf_r+0x468>
  104cb4:	eeb4bb00 	vmov.f64	d11, #64	; 0x40
  104cb8:	e308b348 	movw	fp, #33608	; 0x8348
  104cbc:	ed9f8bf9 	vldr	d8, [pc, #996]	; 1050a8 <_vfprintf_r+0x4a8>
  104cc0:	e3061667 	movw	r1, #26215	; 0x6667
  104cc4:	e340b011 	movt	fp, #17
  104cc8:	e3a03000 	mov	r3, #0
  104ccc:	e3461666 	movt	r1, #26214	; 0x6666
  104cd0:	e28d90ac 	add	r9, sp, #172	; 0xac
  104cd4:	e58d3048 	str	r3, [sp, #72]	; 0x48
  104cd8:	e58d3058 	str	r3, [sp, #88]	; 0x58
  104cdc:	e58d3064 	str	r3, [sp, #100]	; 0x64
  104ce0:	e58d304c 	str	r3, [sp, #76]	; 0x4c
  104ce4:	e58d305c 	str	r3, [sp, #92]	; 0x5c
  104ce8:	e58d3060 	str	r3, [sp, #96]	; 0x60
  104cec:	eeb39b00 	vmov.f64	d9, #48	; 0x30
  104cf0:	e58d301c 	str	r3, [sp, #28]
  104cf4:	e58d106c 	str	r1, [sp, #108]	; 0x6c
  104cf8:	e58d30a8 	str	r3, [sp, #168]	; 0xa8
  104cfc:	e58d30a4 	str	r3, [sp, #164]	; 0xa4
  104d00:	e58d90a0 	str	r9, [sp, #160]	; 0xa0
  104d04:	eeb6ab00 	vmov.f64	d10, #96	; 0x60
  104d08:	e59d4014 	ldr	r4, [sp, #20]
  104d0c:	ea000003 	b	104d20 <_vfprintf_r+0x120>
  104d10:	e59d2080 	ldr	r2, [sp, #128]	; 0x80
  104d14:	e3520025 	cmp	r2, #37	; 0x25
  104d18:	0a000015 	beq	104d74 <_vfprintf_r+0x174>
  104d1c:	e0844003 	add	r4, r4, r3
  104d20:	e59b5000 	ldr	r5, [fp]
  104d24:	eb0018a9 	bl	10afd0 <__locale_mb_cur_max>
  104d28:	e1a06000 	mov	r6, r0
  104d2c:	eb0018a4 	bl	10afc4 <__locale_charset>
  104d30:	e1a03006 	mov	r3, r6
  104d34:	e58d8004 	str	r8, [sp, #4]
  104d38:	e1a02004 	mov	r2, r4
  104d3c:	e28d1080 	add	r1, sp, #128	; 0x80
  104d40:	e58d0000 	str	r0, [sp]
  104d44:	e1a0000a 	mov	r0, sl
  104d48:	e12fff35 	blx	r5
  104d4c:	e3500000 	cmp	r0, #0
  104d50:	e1a03000 	mov	r3, r0
  104d54:	0a000006 	beq	104d74 <_vfprintf_r+0x174>
  104d58:	aaffffec 	bge	104d10 <_vfprintf_r+0x110>
  104d5c:	e3a02008 	mov	r2, #8
  104d60:	e3a01000 	mov	r1, #0
  104d64:	e1a00008 	mov	r0, r8
  104d68:	eb001cce 	bl	10c0a8 <memset>
  104d6c:	e3a03001 	mov	r3, #1
  104d70:	eaffffe9 	b	104d1c <_vfprintf_r+0x11c>
  104d74:	e59d3014 	ldr	r3, [sp, #20]
  104d78:	e1a05000 	mov	r5, r0
  104d7c:	e0546003 	subs	r6, r4, r3
  104d80:	0a00000e 	beq	104dc0 <_vfprintf_r+0x1c0>
  104d84:	e59d30a4 	ldr	r3, [sp, #164]	; 0xa4
  104d88:	e59d2014 	ldr	r2, [sp, #20]
  104d8c:	e2833001 	add	r3, r3, #1
  104d90:	e5896004 	str	r6, [r9, #4]
  104d94:	e3530007 	cmp	r3, #7
  104d98:	e58d30a4 	str	r3, [sp, #164]	; 0xa4
  104d9c:	e5892000 	str	r2, [r9]
  104da0:	d2899008 	addle	r9, r9, #8
  104da4:	e59d20a8 	ldr	r2, [sp, #168]	; 0xa8
  104da8:	e0823006 	add	r3, r2, r6
  104dac:	e58d30a8 	str	r3, [sp, #168]	; 0xa8
  104db0:	ca000092 	bgt	105000 <_vfprintf_r+0x400>
  104db4:	e59d301c 	ldr	r3, [sp, #28]
  104db8:	e0833006 	add	r3, r3, r6
  104dbc:	e58d301c 	str	r3, [sp, #28]
  104dc0:	e3550000 	cmp	r5, #0
  104dc4:	0a000852 	beq	106f14 <_vfprintf_r+0x2314>
  104dc8:	e3a03000 	mov	r3, #0
  104dcc:	e58d3020 	str	r3, [sp, #32]
  104dd0:	e5cd3077 	strb	r3, [sp, #119]	; 0x77
  104dd4:	e2841001 	add	r1, r4, #1
  104dd8:	e58d3008 	str	r3, [sp, #8]
  104ddc:	e3e07000 	mvn	r7, #0
  104de0:	e5d43001 	ldrb	r3, [r4, #1]
  104de4:	e2814001 	add	r4, r1, #1
  104de8:	e2432020 	sub	r2, r3, #32
  104dec:	e352005a 	cmp	r2, #90	; 0x5a
  104df0:	979ff102 	ldrls	pc, [pc, r2, lsl #2]
  104df4:	ea0002b6 	b	1058d4 <_vfprintf_r+0xcd4>
  104df8:	001058b4 	.word	0x001058b4
  104dfc:	001058d4 	.word	0x001058d4
  104e00:	001058d4 	.word	0x001058d4
  104e04:	00105620 	.word	0x00105620
  104e08:	001058d4 	.word	0x001058d4
  104e0c:	001058d4 	.word	0x001058d4
  104e10:	001058d4 	.word	0x001058d4
  104e14:	00104f7c 	.word	0x00104f7c
  104e18:	001058d4 	.word	0x001058d4
  104e1c:	001058d4 	.word	0x001058d4
  104e20:	001057f0 	.word	0x001057f0
  104e24:	00105638 	.word	0x00105638
  104e28:	001058d4 	.word	0x001058d4
  104e2c:	0010529c 	.word	0x0010529c
  104e30:	0010564c 	.word	0x0010564c
  104e34:	001058d4 	.word	0x001058d4
  104e38:	001055a8 	.word	0x001055a8
  104e3c:	001055f0 	.word	0x001055f0
  104e40:	001055f0 	.word	0x001055f0
  104e44:	001055f0 	.word	0x001055f0
  104e48:	001055f0 	.word	0x001055f0
  104e4c:	001055f0 	.word	0x001055f0
  104e50:	001055f0 	.word	0x001055f0
  104e54:	001055f0 	.word	0x001055f0
  104e58:	001055f0 	.word	0x001055f0
  104e5c:	001055f0 	.word	0x001055f0
  104e60:	001058d4 	.word	0x001058d4
  104e64:	001058d4 	.word	0x001058d4
  104e68:	001058d4 	.word	0x001058d4
  104e6c:	001058d4 	.word	0x001058d4
  104e70:	001058d4 	.word	0x001058d4
  104e74:	001058d4 	.word	0x001058d4
  104e78:	001058d4 	.word	0x001058d4
  104e7c:	00105818 	.word	0x00105818
  104e80:	001058d4 	.word	0x001058d4
  104e84:	00105788 	.word	0x00105788
  104e88:	001053d0 	.word	0x001053d0
  104e8c:	00105818 	.word	0x00105818
  104e90:	00105818 	.word	0x00105818
  104e94:	00105818 	.word	0x00105818
  104e98:	001058d4 	.word	0x001058d4
  104e9c:	001058d4 	.word	0x001058d4
  104ea0:	001058d4 	.word	0x001058d4
  104ea4:	001058d4 	.word	0x001058d4
  104ea8:	00105438 	.word	0x00105438
  104eac:	001058d4 	.word	0x001058d4
  104eb0:	001058d4 	.word	0x001058d4
  104eb4:	00105450 	.word	0x00105450
  104eb8:	001058d4 	.word	0x001058d4
  104ebc:	001058d4 	.word	0x001058d4
  104ec0:	001058d4 	.word	0x001058d4
  104ec4:	00105494 	.word	0x00105494
  104ec8:	001058d4 	.word	0x001058d4
  104ecc:	00105694 	.word	0x00105694
  104ed0:	001058d4 	.word	0x001058d4
  104ed4:	001058d4 	.word	0x001058d4
  104ed8:	00105354 	.word	0x00105354
  104edc:	001058d4 	.word	0x001058d4
  104ee0:	001058d4 	.word	0x001058d4
  104ee4:	001058d4 	.word	0x001058d4
  104ee8:	001058d4 	.word	0x001058d4
  104eec:	001058d4 	.word	0x001058d4
  104ef0:	001058d4 	.word	0x001058d4
  104ef4:	001058d4 	.word	0x001058d4
  104ef8:	001058d4 	.word	0x001058d4
  104efc:	00105818 	.word	0x00105818
  104f00:	001058d4 	.word	0x001058d4
  104f04:	00105788 	.word	0x00105788
  104f08:	001052b4 	.word	0x001052b4
  104f0c:	00105818 	.word	0x00105818
  104f10:	00105818 	.word	0x00105818
  104f14:	00105818 	.word	0x00105818
  104f18:	00105700 	.word	0x00105700
  104f1c:	001052b4 	.word	0x001052b4
  104f20:	00104f64 	.word	0x00104f64
  104f24:	001058d4 	.word	0x001058d4
  104f28:	00105534 	.word	0x00105534
  104f2c:	001058d4 	.word	0x001058d4
  104f30:	001055c0 	.word	0x001055c0
  104f34:	00105308 	.word	0x00105308
  104f38:	00105730 	.word	0x00105730
  104f3c:	00104f64 	.word	0x00104f64
  104f40:	001058d4 	.word	0x001058d4
  104f44:	00105494 	.word	0x00105494
  104f48:	00104fc8 	.word	0x00104fc8
  104f4c:	001050b4 	.word	0x001050b4
  104f50:	001058d4 	.word	0x001058d4
  104f54:	001058d4 	.word	0x001058d4
  104f58:	00105564 	.word	0x00105564
  104f5c:	001058d4 	.word	0x001058d4
  104f60:	00104fc8 	.word	0x00104fc8
  104f64:	e59d3008 	ldr	r3, [sp, #8]
  104f68:	e1a01004 	mov	r1, r4
  104f6c:	e3833020 	orr	r3, r3, #32
  104f70:	e58d3008 	str	r3, [sp, #8]
  104f74:	e5d43000 	ldrb	r3, [r4]
  104f78:	eaffff99 	b	104de4 <_vfprintf_r+0x1e4>
  104f7c:	e1a0000a 	mov	r0, sl
  104f80:	eb00181d 	bl	10affc <_localeconv_r>
  104f84:	e5903004 	ldr	r3, [r0, #4]
  104f88:	e1a00003 	mov	r0, r3
  104f8c:	e58d3060 	str	r3, [sp, #96]	; 0x60
  104f90:	fafffeda 	blx	104b00 <strlen>
  104f94:	e1a05000 	mov	r5, r0
  104f98:	e58d005c 	str	r0, [sp, #92]	; 0x5c
  104f9c:	e1a0000a 	mov	r0, sl
  104fa0:	eb001815 	bl	10affc <_localeconv_r>
  104fa4:	e5903008 	ldr	r3, [r0, #8]
  104fa8:	e3550000 	cmp	r5, #0
  104fac:	13530000 	cmpne	r3, #0
  104fb0:	e58d304c 	str	r3, [sp, #76]	; 0x4c
  104fb4:	0a000003 	beq	104fc8 <_vfprintf_r+0x3c8>
  104fb8:	e59d304c 	ldr	r3, [sp, #76]	; 0x4c
  104fbc:	e5d33000 	ldrb	r3, [r3]
  104fc0:	e3530000 	cmp	r3, #0
  104fc4:	1a0007a2 	bne	106e54 <_vfprintf_r+0x2254>
  104fc8:	e5d43000 	ldrb	r3, [r4]
  104fcc:	e1a01004 	mov	r1, r4
  104fd0:	eaffff83 	b	104de4 <_vfprintf_r+0x1e4>
  104fd4:	e59d100c 	ldr	r1, [sp, #12]
  104fd8:	e1a0000a 	mov	r0, sl
  104fdc:	eb000b16 	bl	107c3c <__swsetup_r>
  104fe0:	e3500000 	cmp	r0, #0
  104fe4:	059d300c 	ldreq	r3, [sp, #12]
  104fe8:	01d330bc 	ldrheq	r3, [r3, #12]
  104fec:	0affff2d 	beq	104ca8 <_vfprintf_r+0xa8>
  104ff0:	e3e00000 	mvn	r0, #0
  104ff4:	e28ddf55 	add	sp, sp, #340	; 0x154
  104ff8:	ecbd8b0a 	vpop	{d8-d12}
  104ffc:	e8bd8ff0 	pop	{r4, r5, r6, r7, r8, r9, sl, fp, pc}
  105000:	e28d20a0 	add	r2, sp, #160	; 0xa0
  105004:	e59d100c 	ldr	r1, [sp, #12]
  105008:	e1a0000a 	mov	r0, sl
  10500c:	eb00249a 	bl	10e27c <__sprint_r>
  105010:	e3500000 	cmp	r0, #0
  105014:	1a00000b 	bne	105048 <_vfprintf_r+0x448>
  105018:	e28d90ac 	add	r9, sp, #172	; 0xac
  10501c:	eaffff64 	b	104db4 <_vfprintf_r+0x1b4>
  105020:	e59d200c 	ldr	r2, [sp, #12]
  105024:	e1d230bc 	ldrh	r3, [r2, #12]
  105028:	e3833040 	orr	r3, r3, #64	; 0x40
  10502c:	e1c230bc 	strh	r3, [r2, #12]
  105030:	e59d3024 	ldr	r3, [sp, #36]	; 0x24
  105034:	e3530000 	cmp	r3, #0
  105038:	0a000002 	beq	105048 <_vfprintf_r+0x448>
  10503c:	e59d1024 	ldr	r1, [sp, #36]	; 0x24
  105040:	e1a0000a 	mov	r0, sl
  105044:	eb001283 	bl	109a58 <_free_r>
  105048:	e59d300c 	ldr	r3, [sp, #12]
  10504c:	e1d330bc 	ldrh	r3, [r3, #12]
  105050:	e3130040 	tst	r3, #64	; 0x40
  105054:	059d001c 	ldreq	r0, [sp, #28]
  105058:	1affffe4 	bne	104ff0 <_vfprintf_r+0x3f0>
  10505c:	e28ddf55 	add	sp, sp, #340	; 0x154
  105060:	ecbd8b0a 	vpop	{d8-d12}
  105064:	e8bd8ff0 	pop	{r4, r5, r6, r7, r8, r9, sl, fp, pc}
  105068:	e59d300c 	ldr	r3, [sp, #12]
  10506c:	e1d330fe 	ldrsh	r3, [r3, #14]
  105070:	e3530000 	cmp	r3, #0
  105074:	baffff0e 	blt	104cb4 <_vfprintf_r+0xb4>
  105078:	e1a03004 	mov	r3, r4
  10507c:	e59d2014 	ldr	r2, [sp, #20]
  105080:	e59d100c 	ldr	r1, [sp, #12]
  105084:	e1a0000a 	mov	r0, sl
  105088:	eb000975 	bl	107664 <__sbprintf>
  10508c:	e28ddf55 	add	sp, sp, #340	; 0x154
  105090:	ecbd8b0a 	vpop	{d8-d12}
  105094:	e8bd8ff0 	pop	{r4, r5, r6, r7, r8, r9, sl, fp, pc}
  105098:	e1a0000a 	mov	r0, sl
  10509c:	eb00121a 	bl	10990c <__sinit>
  1050a0:	eafffeee 	b	104c60 <_vfprintf_r+0x60>
  1050a4:	e320f000 	nop	{0}
	...
  1050b0:	00116988 	.word	0x00116988
  1050b4:	e58d3038 	str	r3, [sp, #56]	; 0x38
  1050b8:	e59d3008 	ldr	r3, [sp, #8]
  1050bc:	e58d4014 	str	r4, [sp, #20]
  1050c0:	e3130020 	tst	r3, #32
  1050c4:	0a00017a 	beq	1056b4 <_vfprintf_r+0xab4>
  1050c8:	e59d3028 	ldr	r3, [sp, #40]	; 0x28
  1050cc:	e3a02001 	mov	r2, #1
  1050d0:	e2833007 	add	r3, r3, #7
  1050d4:	e3c33007 	bic	r3, r3, #7
  1050d8:	e2831008 	add	r1, r3, #8
  1050dc:	e58d1028 	str	r1, [sp, #40]	; 0x28
  1050e0:	e1c340d0 	ldrd	r4, [r3]
  1050e4:	e1943005 	orrs	r3, r4, r5
  1050e8:	11a03002 	movne	r3, r2
  1050ec:	03a03000 	moveq	r3, #0
  1050f0:	e3a01000 	mov	r1, #0
  1050f4:	e5cd1077 	strb	r1, [sp, #119]	; 0x77
  1050f8:	e3570000 	cmp	r7, #0
  1050fc:	a59d1008 	ldrge	r1, [sp, #8]
  105100:	a3c11080 	bicge	r1, r1, #128	; 0x80
  105104:	a58d1008 	strge	r1, [sp, #8]
  105108:	e3570000 	cmp	r7, #0
  10510c:	13833001 	orrne	r3, r3, #1
  105110:	e3530000 	cmp	r3, #0
  105114:	0a000307 	beq	105d38 <_vfprintf_r+0x1138>
  105118:	e3520001 	cmp	r2, #1
  10511c:	0a0003f2 	beq	1060ec <_vfprintf_r+0x14ec>
  105120:	e3520002 	cmp	r2, #2
  105124:	1a0003a3 	bne	105fb8 <_vfprintf_r+0x13b8>
  105128:	e59dc058 	ldr	ip, [sp, #88]	; 0x58
  10512c:	e28d2e15 	add	r2, sp, #336	; 0x150
  105130:	e204100f 	and	r1, r4, #15
  105134:	e1a03224 	lsr	r3, r4, #4
  105138:	e1833e05 	orr	r3, r3, r5, lsl #28
  10513c:	e1a00225 	lsr	r0, r5, #4
  105140:	e7dc1001 	ldrb	r1, [ip, r1]
  105144:	e1a04003 	mov	r4, r3
  105148:	e1a05000 	mov	r5, r0
  10514c:	e1943005 	orrs	r3, r4, r5
  105150:	e5621001 	strb	r1, [r2, #-1]!
  105154:	1afffff5 	bne	105130 <_vfprintf_r+0x530>
  105158:	e1a03002 	mov	r3, r2
  10515c:	e58d202c 	str	r2, [sp, #44]	; 0x2c
  105160:	e28d2e15 	add	r2, sp, #336	; 0x150
  105164:	e0635002 	rsb	r5, r3, r2
  105168:	e3a03000 	mov	r3, #0
  10516c:	e58d3024 	str	r3, [sp, #36]	; 0x24
  105170:	e58d303c 	str	r3, [sp, #60]	; 0x3c
  105174:	e1550007 	cmp	r5, r7
  105178:	e58d3044 	str	r3, [sp, #68]	; 0x44
  10517c:	e58d3040 	str	r3, [sp, #64]	; 0x40
  105180:	a1a02005 	movge	r2, r5
  105184:	e5dd3077 	ldrb	r3, [sp, #119]	; 0x77
  105188:	b1a02007 	movlt	r2, r7
  10518c:	e58d2010 	str	r2, [sp, #16]
  105190:	e3530000 	cmp	r3, #0
  105194:	0a000002 	beq	1051a4 <_vfprintf_r+0x5a4>
  105198:	e59d2010 	ldr	r2, [sp, #16]
  10519c:	e2822001 	add	r2, r2, #1
  1051a0:	e58d2010 	str	r2, [sp, #16]
  1051a4:	e59d2008 	ldr	r2, [sp, #8]
  1051a8:	e2122002 	ands	r2, r2, #2
  1051ac:	e58d2030 	str	r2, [sp, #48]	; 0x30
  1051b0:	159d2010 	ldrne	r2, [sp, #16]
  1051b4:	12822002 	addne	r2, r2, #2
  1051b8:	158d2010 	strne	r2, [sp, #16]
  1051bc:	e59d2008 	ldr	r2, [sp, #8]
  1051c0:	e2122084 	ands	r2, r2, #132	; 0x84
  1051c4:	e58d2034 	str	r2, [sp, #52]	; 0x34
  1051c8:	1a0001dd 	bne	105944 <_vfprintf_r+0xd44>
  1051cc:	e59d2020 	ldr	r2, [sp, #32]
  1051d0:	e59d1010 	ldr	r1, [sp, #16]
  1051d4:	e0614002 	rsb	r4, r1, r2
  1051d8:	e3540000 	cmp	r4, #0
  1051dc:	da0001d8 	ble	105944 <_vfprintf_r+0xd44>
  1051e0:	e3540010 	cmp	r4, #16
  1051e4:	da00077e 	ble	106fe4 <_vfprintf_r+0x23e4>
  1051e8:	e3066978 	movw	r6, #27000	; 0x6978
  1051ec:	e58d5068 	str	r5, [sp, #104]	; 0x68
  1051f0:	e59d20a8 	ldr	r2, [sp, #168]	; 0xa8
  1051f4:	e3406011 	movt	r6, #17
  1051f8:	e59d10a4 	ldr	r1, [sp, #164]	; 0xa4
  1051fc:	e3a0c010 	mov	ip, #16
  105200:	e59d500c 	ldr	r5, [sp, #12]
  105204:	ea000002 	b	105214 <_vfprintf_r+0x614>
  105208:	e2444010 	sub	r4, r4, #16
  10520c:	e3540010 	cmp	r4, #16
  105210:	da000015 	ble	10526c <_vfprintf_r+0x66c>
  105214:	e2811001 	add	r1, r1, #1
  105218:	e2822010 	add	r2, r2, #16
  10521c:	e3510007 	cmp	r1, #7
  105220:	e8891040 	stm	r9, {r6, ip}
  105224:	e58d10a4 	str	r1, [sp, #164]	; 0xa4
  105228:	d2899008 	addle	r9, r9, #8
  10522c:	e58d20a8 	str	r2, [sp, #168]	; 0xa8
  105230:	dafffff4 	ble	105208 <_vfprintf_r+0x608>
  105234:	e28d20a0 	add	r2, sp, #160	; 0xa0
  105238:	e1a01005 	mov	r1, r5
  10523c:	e1a0000a 	mov	r0, sl
  105240:	e58dc018 	str	ip, [sp, #24]
  105244:	eb00240c 	bl	10e27c <__sprint_r>
  105248:	e28d90ac 	add	r9, sp, #172	; 0xac
  10524c:	e3500000 	cmp	r0, #0
  105250:	1affff76 	bne	105030 <_vfprintf_r+0x430>
  105254:	e2444010 	sub	r4, r4, #16
  105258:	e59d20a8 	ldr	r2, [sp, #168]	; 0xa8
  10525c:	e3540010 	cmp	r4, #16
  105260:	e59d10a4 	ldr	r1, [sp, #164]	; 0xa4
  105264:	e59dc018 	ldr	ip, [sp, #24]
  105268:	caffffe9 	bgt	105214 <_vfprintf_r+0x614>
  10526c:	e59d5068 	ldr	r5, [sp, #104]	; 0x68
  105270:	e2811001 	add	r1, r1, #1
  105274:	e0842002 	add	r2, r4, r2
  105278:	e3510007 	cmp	r1, #7
  10527c:	e58d10a4 	str	r1, [sp, #164]	; 0xa4
  105280:	e58d20a8 	str	r2, [sp, #168]	; 0xa8
  105284:	e5896000 	str	r6, [r9]
  105288:	e5894004 	str	r4, [r9, #4]
  10528c:	ca0001a4 	bgt	105924 <_vfprintf_r+0xd24>
  105290:	e2899008 	add	r9, r9, #8
  105294:	e5dd3077 	ldrb	r3, [sp, #119]	; 0x77
  105298:	ea0001aa 	b	105948 <_vfprintf_r+0xd48>
  10529c:	e1a01004 	mov	r1, r4
  1052a0:	e59d3008 	ldr	r3, [sp, #8]
  1052a4:	e3833004 	orr	r3, r3, #4
  1052a8:	e58d3008 	str	r3, [sp, #8]
  1052ac:	e5d43000 	ldrb	r3, [r4]
  1052b0:	eafffecb 	b	104de4 <_vfprintf_r+0x1e4>
  1052b4:	e58d3038 	str	r3, [sp, #56]	; 0x38
  1052b8:	e59d3008 	ldr	r3, [sp, #8]
  1052bc:	e58d4014 	str	r4, [sp, #20]
  1052c0:	e3130020 	tst	r3, #32
  1052c4:	0a000049 	beq	1053f0 <_vfprintf_r+0x7f0>
  1052c8:	e59d3028 	ldr	r3, [sp, #40]	; 0x28
  1052cc:	e2833007 	add	r3, r3, #7
  1052d0:	e3c33007 	bic	r3, r3, #7
  1052d4:	e2832008 	add	r2, r3, #8
  1052d8:	e58d2028 	str	r2, [sp, #40]	; 0x28
  1052dc:	e1c320d0 	ldrd	r2, [r3]
  1052e0:	e1a04002 	mov	r4, r2
  1052e4:	e1a05003 	mov	r5, r3
  1052e8:	e3520000 	cmp	r2, #0
  1052ec:	e2d33000 	sbcs	r3, r3, #0
  1052f0:	ba00052d 	blt	1067ac <_vfprintf_r+0x1bac>
  1052f4:	e1943005 	orrs	r3, r4, r5
  1052f8:	e3a02001 	mov	r2, #1
  1052fc:	11a03002 	movne	r3, r2
  105300:	03a03000 	moveq	r3, #0
  105304:	eaffff7b 	b	1050f8 <_vfprintf_r+0x4f8>
  105308:	e58d3038 	str	r3, [sp, #56]	; 0x38
  10530c:	e59d3008 	ldr	r3, [sp, #8]
  105310:	e58d4014 	str	r4, [sp, #20]
  105314:	e3130020 	tst	r3, #32
  105318:	0a000054 	beq	105470 <_vfprintf_r+0x870>
  10531c:	e59d3028 	ldr	r3, [sp, #40]	; 0x28
  105320:	e2833007 	add	r3, r3, #7
  105324:	e3c33007 	bic	r3, r3, #7
  105328:	e2832008 	add	r2, r3, #8
  10532c:	e58d2028 	str	r2, [sp, #40]	; 0x28
  105330:	e1c340d0 	ldrd	r4, [r3]
  105334:	e1943005 	orrs	r3, r4, r5
  105338:	e59d3008 	ldr	r3, [sp, #8]
  10533c:	e3a02000 	mov	r2, #0
  105340:	e3c33b01 	bic	r3, r3, #1024	; 0x400
  105344:	e58d3008 	str	r3, [sp, #8]
  105348:	13a03001 	movne	r3, #1
  10534c:	01a03002 	moveq	r3, r2
  105350:	eaffff66 	b	1050f0 <_vfprintf_r+0x4f0>
  105354:	e58d3038 	str	r3, [sp, #56]	; 0x38
  105358:	e307313c 	movw	r3, #28988	; 0x713c
  10535c:	e3403011 	movt	r3, #17
  105360:	e58d3058 	str	r3, [sp, #88]	; 0x58
  105364:	e59d3008 	ldr	r3, [sp, #8]
  105368:	e58d4014 	str	r4, [sp, #20]
  10536c:	e3130020 	tst	r3, #32
  105370:	0a000083 	beq	105584 <_vfprintf_r+0x984>
  105374:	e59d3028 	ldr	r3, [sp, #40]	; 0x28
  105378:	e2833007 	add	r3, r3, #7
  10537c:	e3c33007 	bic	r3, r3, #7
  105380:	e2832008 	add	r2, r3, #8
  105384:	e58d2028 	str	r2, [sp, #40]	; 0x28
  105388:	e1c340d0 	ldrd	r4, [r3]
  10538c:	e1943005 	orrs	r3, r4, r5
  105390:	e59d2008 	ldr	r2, [sp, #8]
  105394:	13a03001 	movne	r3, #1
  105398:	03a03000 	moveq	r3, #0
  10539c:	e1120003 	tst	r2, r3
  1053a0:	0a000005 	beq	1053bc <_vfprintf_r+0x7bc>
  1053a4:	e3822002 	orr	r2, r2, #2
  1053a8:	e58d2008 	str	r2, [sp, #8]
  1053ac:	e5dd2038 	ldrb	r2, [sp, #56]	; 0x38
  1053b0:	e5cd2079 	strb	r2, [sp, #121]	; 0x79
  1053b4:	e3a02030 	mov	r2, #48	; 0x30
  1053b8:	e5cd2078 	strb	r2, [sp, #120]	; 0x78
  1053bc:	e59d2008 	ldr	r2, [sp, #8]
  1053c0:	e3c22b01 	bic	r2, r2, #1024	; 0x400
  1053c4:	e58d2008 	str	r2, [sp, #8]
  1053c8:	e3a02002 	mov	r2, #2
  1053cc:	eaffff47 	b	1050f0 <_vfprintf_r+0x4f0>
  1053d0:	e58d3038 	str	r3, [sp, #56]	; 0x38
  1053d4:	e59d3008 	ldr	r3, [sp, #8]
  1053d8:	e58d4014 	str	r4, [sp, #20]
  1053dc:	e3833010 	orr	r3, r3, #16
  1053e0:	e58d3008 	str	r3, [sp, #8]
  1053e4:	e59d3008 	ldr	r3, [sp, #8]
  1053e8:	e3130020 	tst	r3, #32
  1053ec:	1affffb5 	bne	1052c8 <_vfprintf_r+0x6c8>
  1053f0:	e59d3008 	ldr	r3, [sp, #8]
  1053f4:	e3130010 	tst	r3, #16
  1053f8:	159d3028 	ldrne	r3, [sp, #40]	; 0x28
  1053fc:	1a000465 	bne	106598 <_vfprintf_r+0x1998>
  105400:	e59d3008 	ldr	r3, [sp, #8]
  105404:	e3130040 	tst	r3, #64	; 0x40
  105408:	1a00068e 	bne	106e48 <_vfprintf_r+0x2248>
  10540c:	e59d3008 	ldr	r3, [sp, #8]
  105410:	e3130c02 	tst	r3, #512	; 0x200
  105414:	e59d3028 	ldr	r3, [sp, #40]	; 0x28
  105418:	0a00045e 	beq	106598 <_vfprintf_r+0x1998>
  10541c:	e1d340d0 	ldrsb	r4, [r3]
  105420:	e1a05fc4 	asr	r5, r4, #31
  105424:	e2833004 	add	r3, r3, #4
  105428:	e1a02004 	mov	r2, r4
  10542c:	e58d3028 	str	r3, [sp, #40]	; 0x28
  105430:	e1a03005 	mov	r3, r5
  105434:	eaffffab 	b	1052e8 <_vfprintf_r+0x6e8>
  105438:	e59d3008 	ldr	r3, [sp, #8]
  10543c:	e1a01004 	mov	r1, r4
  105440:	e3833008 	orr	r3, r3, #8
  105444:	e58d3008 	str	r3, [sp, #8]
  105448:	e5d43000 	ldrb	r3, [r4]
  10544c:	eafffe64 	b	104de4 <_vfprintf_r+0x1e4>
  105450:	e58d3038 	str	r3, [sp, #56]	; 0x38
  105454:	e59d3008 	ldr	r3, [sp, #8]
  105458:	e58d4014 	str	r4, [sp, #20]
  10545c:	e3833010 	orr	r3, r3, #16
  105460:	e58d3008 	str	r3, [sp, #8]
  105464:	e59d3008 	ldr	r3, [sp, #8]
  105468:	e3130020 	tst	r3, #32
  10546c:	1affffaa 	bne	10531c <_vfprintf_r+0x71c>
  105470:	e59d3008 	ldr	r3, [sp, #8]
  105474:	e3130010 	tst	r3, #16
  105478:	0a0004df 	beq	1067fc <_vfprintf_r+0x1bfc>
  10547c:	e59d3028 	ldr	r3, [sp, #40]	; 0x28
  105480:	e3a05000 	mov	r5, #0
  105484:	e2833004 	add	r3, r3, #4
  105488:	e5134004 	ldr	r4, [r3, #-4]
  10548c:	e58d3028 	str	r3, [sp, #40]	; 0x28
  105490:	eaffffa7 	b	105334 <_vfprintf_r+0x734>
  105494:	e58d3038 	str	r3, [sp, #56]	; 0x38
  105498:	e59d3028 	ldr	r3, [sp, #40]	; 0x28
  10549c:	e58d4014 	str	r4, [sp, #20]
  1054a0:	e2833004 	add	r3, r3, #4
  1054a4:	e5132004 	ldr	r2, [r3, #-4]
  1054a8:	e58d3018 	str	r3, [sp, #24]
  1054ac:	e3a03000 	mov	r3, #0
  1054b0:	e1520003 	cmp	r2, r3
  1054b4:	e5cd3077 	strb	r3, [sp, #119]	; 0x77
  1054b8:	e58d202c 	str	r2, [sp, #44]	; 0x2c
  1054bc:	0a0006d6 	beq	10701c <_vfprintf_r+0x241c>
  1054c0:	e59d3038 	ldr	r3, [sp, #56]	; 0x38
  1054c4:	e3530053 	cmp	r3, #83	; 0x53
  1054c8:	0a000592 	beq	106b18 <_vfprintf_r+0x1f18>
  1054cc:	e59d3008 	ldr	r3, [sp, #8]
  1054d0:	e2134010 	ands	r4, r3, #16
  1054d4:	1a00058f 	bne	106b18 <_vfprintf_r+0x1f18>
  1054d8:	e3570000 	cmp	r7, #0
  1054dc:	ba000674 	blt	106eb4 <_vfprintf_r+0x22b4>
  1054e0:	e1a02007 	mov	r2, r7
  1054e4:	e1a01004 	mov	r1, r4
  1054e8:	e59d002c 	ldr	r0, [sp, #44]	; 0x2c
  1054ec:	fa0018fb 	blx	10b8e0 <memchr>
  1054f0:	e3500000 	cmp	r0, #0
  1054f4:	0a000811 	beq	107540 <_vfprintf_r+0x2940>
  1054f8:	e59d302c 	ldr	r3, [sp, #44]	; 0x2c
  1054fc:	e58d4024 	str	r4, [sp, #36]	; 0x24
  105500:	e0635000 	rsb	r5, r3, r0
  105504:	e59d3018 	ldr	r3, [sp, #24]
  105508:	e1550007 	cmp	r5, r7
  10550c:	e58d403c 	str	r4, [sp, #60]	; 0x3c
  105510:	e58d4044 	str	r4, [sp, #68]	; 0x44
  105514:	a1a05007 	movge	r5, r7
  105518:	e58d3028 	str	r3, [sp, #40]	; 0x28
  10551c:	e1c52fc5 	bic	r2, r5, r5, asr #31
  105520:	e5dd3077 	ldrb	r3, [sp, #119]	; 0x77
  105524:	e1a07004 	mov	r7, r4
  105528:	e58d2010 	str	r2, [sp, #16]
  10552c:	e58d4040 	str	r4, [sp, #64]	; 0x40
  105530:	eaffff16 	b	105190 <_vfprintf_r+0x590>
  105534:	e5d43000 	ldrb	r3, [r4]
  105538:	e353006c 	cmp	r3, #108	; 0x6c
  10553c:	02841001 	addeq	r1, r4, #1
  105540:	059d3008 	ldreq	r3, [sp, #8]
  105544:	11a01004 	movne	r1, r4
  105548:	159d2008 	ldrne	r2, [sp, #8]
  10554c:	03833020 	orreq	r3, r3, #32
  105550:	13822010 	orrne	r2, r2, #16
  105554:	058d3008 	streq	r3, [sp, #8]
  105558:	158d2008 	strne	r2, [sp, #8]
  10555c:	05d43001 	ldrbeq	r3, [r4, #1]
  105560:	eafffe1f 	b	104de4 <_vfprintf_r+0x1e4>
  105564:	e58d3038 	str	r3, [sp, #56]	; 0x38
  105568:	e3073168 	movw	r3, #29032	; 0x7168
  10556c:	e3403011 	movt	r3, #17
  105570:	e58d3058 	str	r3, [sp, #88]	; 0x58
  105574:	e59d3008 	ldr	r3, [sp, #8]
  105578:	e58d4014 	str	r4, [sp, #20]
  10557c:	e3130020 	tst	r3, #32
  105580:	1affff7b 	bne	105374 <_vfprintf_r+0x774>
  105584:	e59d3008 	ldr	r3, [sp, #8]
  105588:	e3130010 	tst	r3, #16
  10558c:	0a0004a3 	beq	106820 <_vfprintf_r+0x1c20>
  105590:	e59d3028 	ldr	r3, [sp, #40]	; 0x28
  105594:	e3a05000 	mov	r5, #0
  105598:	e2833004 	add	r3, r3, #4
  10559c:	e5134004 	ldr	r4, [r3, #-4]
  1055a0:	e58d3028 	str	r3, [sp, #40]	; 0x28
  1055a4:	eaffff78 	b	10538c <_vfprintf_r+0x78c>
  1055a8:	e59d3008 	ldr	r3, [sp, #8]
  1055ac:	e1a01004 	mov	r1, r4
  1055b0:	e3833080 	orr	r3, r3, #128	; 0x80
  1055b4:	e58d3008 	str	r3, [sp, #8]
  1055b8:	e5d43000 	ldrb	r3, [r4]
  1055bc:	eafffe08 	b	104de4 <_vfprintf_r+0x1e4>
  1055c0:	e59d3008 	ldr	r3, [sp, #8]
  1055c4:	e58d4014 	str	r4, [sp, #20]
  1055c8:	e3130020 	tst	r3, #32
  1055cc:	0a00053d 	beq	106ac8 <_vfprintf_r+0x1ec8>
  1055d0:	e59d2028 	ldr	r2, [sp, #40]	; 0x28
  1055d4:	e59d001c 	ldr	r0, [sp, #28]
  1055d8:	e2822004 	add	r2, r2, #4
  1055dc:	e5123004 	ldr	r3, [r2, #-4]
  1055e0:	e1a01fc0 	asr	r1, r0, #31
  1055e4:	e58d2028 	str	r2, [sp, #40]	; 0x28
  1055e8:	e1c300f0 	strd	r0, [r3]
  1055ec:	eafffdc5 	b	104d08 <_vfprintf_r+0x108>
  1055f0:	e2430030 	sub	r0, r3, #48	; 0x30
  1055f4:	e3a03000 	mov	r3, #0
  1055f8:	e1a02003 	mov	r2, r3
  1055fc:	e1a01182 	lsl	r1, r2, #3
  105600:	e4d43001 	ldrb	r3, [r4], #1
  105604:	e0812082 	add	r2, r1, r2, lsl #1
  105608:	e0822000 	add	r2, r2, r0
  10560c:	e2430030 	sub	r0, r3, #48	; 0x30
  105610:	e3500009 	cmp	r0, #9
  105614:	9afffff8 	bls	1055fc <_vfprintf_r+0x9fc>
  105618:	e58d2020 	str	r2, [sp, #32]
  10561c:	eafffdf1 	b	104de8 <_vfprintf_r+0x1e8>
  105620:	e59d3008 	ldr	r3, [sp, #8]
  105624:	e1a01004 	mov	r1, r4
  105628:	e3833001 	orr	r3, r3, #1
  10562c:	e58d3008 	str	r3, [sp, #8]
  105630:	e5d43000 	ldrb	r3, [r4]
  105634:	eafffdea 	b	104de4 <_vfprintf_r+0x1e4>
  105638:	e3a0302b 	mov	r3, #43	; 0x2b
  10563c:	e1a01004 	mov	r1, r4
  105640:	e5cd3077 	strb	r3, [sp, #119]	; 0x77
  105644:	e5d43000 	ldrb	r3, [r4]
  105648:	eafffde5 	b	104de4 <_vfprintf_r+0x1e4>
  10564c:	e5d43000 	ldrb	r3, [r4]
  105650:	e2841001 	add	r1, r4, #1
  105654:	e353002a 	cmp	r3, #42	; 0x2a
  105658:	0a0007e3 	beq	1075ec <_vfprintf_r+0x29ec>
  10565c:	e2430030 	sub	r0, r3, #48	; 0x30
  105660:	e1a04001 	mov	r4, r1
  105664:	e3500009 	cmp	r0, #9
  105668:	e3a07000 	mov	r7, #0
  10566c:	8afffddd 	bhi	104de8 <_vfprintf_r+0x1e8>
  105670:	e1a02187 	lsl	r2, r7, #3
  105674:	e4d43001 	ldrb	r3, [r4], #1
  105678:	e0827087 	add	r7, r2, r7, lsl #1
  10567c:	e0807007 	add	r7, r0, r7
  105680:	e2430030 	sub	r0, r3, #48	; 0x30
  105684:	e3500009 	cmp	r0, #9
  105688:	9afffff8 	bls	105670 <_vfprintf_r+0xa70>
  10568c:	e1877fc7 	orr	r7, r7, r7, asr #31
  105690:	eafffdd4 	b	104de8 <_vfprintf_r+0x1e8>
  105694:	e58d3038 	str	r3, [sp, #56]	; 0x38
  105698:	e59d3008 	ldr	r3, [sp, #8]
  10569c:	e58d4014 	str	r4, [sp, #20]
  1056a0:	e3833010 	orr	r3, r3, #16
  1056a4:	e58d3008 	str	r3, [sp, #8]
  1056a8:	e59d3008 	ldr	r3, [sp, #8]
  1056ac:	e3130020 	tst	r3, #32
  1056b0:	1afffe84 	bne	1050c8 <_vfprintf_r+0x4c8>
  1056b4:	e59d3008 	ldr	r3, [sp, #8]
  1056b8:	e3130010 	tst	r3, #16
  1056bc:	1a0003ab 	bne	106570 <_vfprintf_r+0x1970>
  1056c0:	e59d3008 	ldr	r3, [sp, #8]
  1056c4:	e3130040 	tst	r3, #64	; 0x40
  1056c8:	1a0005db 	bne	106e3c <_vfprintf_r+0x223c>
  1056cc:	e59d3008 	ldr	r3, [sp, #8]
  1056d0:	e3130c02 	tst	r3, #512	; 0x200
  1056d4:	0a0003a5 	beq	106570 <_vfprintf_r+0x1970>
  1056d8:	e59d3028 	ldr	r3, [sp, #40]	; 0x28
  1056dc:	e5d34000 	ldrb	r4, [r3]
  1056e0:	e3a05000 	mov	r5, #0
  1056e4:	e1941005 	orrs	r1, r4, r5
  1056e8:	e3a02001 	mov	r2, #1
  1056ec:	e2833004 	add	r3, r3, #4
  1056f0:	e58d3028 	str	r3, [sp, #40]	; 0x28
  1056f4:	11a03002 	movne	r3, r2
  1056f8:	03a03000 	moveq	r3, #0
  1056fc:	eafffe7b 	b	1050f0 <_vfprintf_r+0x4f0>
  105700:	e5d43000 	ldrb	r3, [r4]
  105704:	e3530068 	cmp	r3, #104	; 0x68
  105708:	02841001 	addeq	r1, r4, #1
  10570c:	059d3008 	ldreq	r3, [sp, #8]
  105710:	11a01004 	movne	r1, r4
  105714:	159d2008 	ldrne	r2, [sp, #8]
  105718:	03833c02 	orreq	r3, r3, #512	; 0x200
  10571c:	13822040 	orrne	r2, r2, #64	; 0x40
  105720:	058d3008 	streq	r3, [sp, #8]
  105724:	158d2008 	strne	r2, [sp, #8]
  105728:	05d43001 	ldrbeq	r3, [r4, #1]
  10572c:	eafffdac 	b	104de4 <_vfprintf_r+0x1e4>
  105730:	e59d1028 	ldr	r1, [sp, #40]	; 0x28
  105734:	e3070168 	movw	r0, #29032	; 0x7168
  105738:	e59dc008 	ldr	ip, [sp, #8]
  10573c:	e3a02078 	mov	r2, #120	; 0x78
  105740:	e58d4014 	str	r4, [sp, #20]
  105744:	e2811004 	add	r1, r1, #4
  105748:	e5113004 	ldr	r3, [r1, #-4]
  10574c:	e38cc002 	orr	ip, ip, #2
  105750:	e5cd2079 	strb	r2, [sp, #121]	; 0x79
  105754:	e3400011 	movt	r0, #17
  105758:	e58d2038 	str	r2, [sp, #56]	; 0x38
  10575c:	e3a05000 	mov	r5, #0
  105760:	e1a04003 	mov	r4, r3
  105764:	e2933000 	adds	r3, r3, #0
  105768:	e3a02030 	mov	r2, #48	; 0x30
  10576c:	e58dc008 	str	ip, [sp, #8]
  105770:	e5cd2078 	strb	r2, [sp, #120]	; 0x78
  105774:	13a03001 	movne	r3, #1
  105778:	e58d1028 	str	r1, [sp, #40]	; 0x28
  10577c:	e3a02002 	mov	r2, #2
  105780:	e58d0058 	str	r0, [sp, #88]	; 0x58
  105784:	eafffe59 	b	1050f0 <_vfprintf_r+0x4f0>
  105788:	e3530043 	cmp	r3, #67	; 0x43
  10578c:	e58d3038 	str	r3, [sp, #56]	; 0x38
  105790:	e58d4014 	str	r4, [sp, #20]
  105794:	0a0003a3 	beq	106628 <_vfprintf_r+0x1a28>
  105798:	e59d3008 	ldr	r3, [sp, #8]
  10579c:	e3130010 	tst	r3, #16
  1057a0:	1a0003a0 	bne	106628 <_vfprintf_r+0x1a28>
  1057a4:	e59d1028 	ldr	r1, [sp, #40]	; 0x28
  1057a8:	e3a03001 	mov	r3, #1
  1057ac:	e28d4e15 	add	r4, sp, #336	; 0x150
  1057b0:	e1a05003 	mov	r5, r3
  1057b4:	e2811004 	add	r1, r1, #4
  1057b8:	e5112004 	ldr	r2, [r1, #-4]
  1057bc:	e58d1028 	str	r1, [sp, #40]	; 0x28
  1057c0:	e5642064 	strb	r2, [r4, #-100]!	; 0xffffff9c
  1057c4:	e3a02000 	mov	r2, #0
  1057c8:	e58d3010 	str	r3, [sp, #16]
  1057cc:	e58d402c 	str	r4, [sp, #44]	; 0x2c
  1057d0:	e1a03002 	mov	r3, r2
  1057d4:	e5cd2077 	strb	r2, [sp, #119]	; 0x77
  1057d8:	e1a07002 	mov	r7, r2
  1057dc:	e58d2024 	str	r2, [sp, #36]	; 0x24
  1057e0:	e58d203c 	str	r2, [sp, #60]	; 0x3c
  1057e4:	e58d2044 	str	r2, [sp, #68]	; 0x44
  1057e8:	e58d2040 	str	r2, [sp, #64]	; 0x40
  1057ec:	eafffe6c 	b	1051a4 <_vfprintf_r+0x5a4>
  1057f0:	e59d3028 	ldr	r3, [sp, #40]	; 0x28
  1057f4:	e2833004 	add	r3, r3, #4
  1057f8:	e5132004 	ldr	r2, [r3, #-4]
  1057fc:	e3520000 	cmp	r2, #0
  105800:	e58d2020 	str	r2, [sp, #32]
  105804:	ba0005ca 	blt	106f34 <_vfprintf_r+0x2334>
  105808:	e58d3028 	str	r3, [sp, #40]	; 0x28
  10580c:	e1a01004 	mov	r1, r4
  105810:	e5d43000 	ldrb	r3, [r4]
  105814:	eafffd72 	b	104de4 <_vfprintf_r+0x1e4>
  105818:	e58d3038 	str	r3, [sp, #56]	; 0x38
  10581c:	e59d3028 	ldr	r3, [sp, #40]	; 0x28
  105820:	e58d4014 	str	r4, [sp, #20]
  105824:	e2833007 	add	r3, r3, #7
  105828:	e59d604c 	ldr	r6, [sp, #76]	; 0x4c
  10582c:	e3c33007 	bic	r3, r3, #7
  105830:	e2832008 	add	r2, r3, #8
  105834:	e58d2028 	str	r2, [sp, #40]	; 0x28
  105838:	ed938b00 	vldr	d8, [r3]
  10583c:	eeb00b48 	vmov.f64	d0, d8
  105840:	eb001f2e 	bl	10d500 <__fpclassifyd>
  105844:	e3500001 	cmp	r0, #1
  105848:	1a0003fd 	bne	106844 <_vfprintf_r+0x1c44>
  10584c:	e59d0008 	ldr	r0, [sp, #8]
  105850:	eeb58bc0 	vcmpe.f64	d8, #0.0
  105854:	e3a01003 	mov	r1, #3
  105858:	e3072158 	movw	r2, #29016	; 0x7158
  10585c:	e3c00080 	bic	r0, r0, #128	; 0x80
  105860:	e58d0008 	str	r0, [sp, #8]
  105864:	e59d0038 	ldr	r0, [sp, #56]	; 0x38
  105868:	e307415c 	movw	r4, #29020	; 0x715c
  10586c:	eef1fa10 	vmrs	APSR_nzcv, fpscr
  105870:	43a0302d 	movmi	r3, #45	; 0x2d
  105874:	55dd3077 	ldrbpl	r3, [sp, #119]	; 0x77
  105878:	e1a05001 	mov	r5, r1
  10587c:	45cd3077 	strbmi	r3, [sp, #119]	; 0x77
  105880:	e3500047 	cmp	r0, #71	; 0x47
  105884:	e58d1010 	str	r1, [sp, #16]
  105888:	e3402011 	movt	r2, #17
  10588c:	e3a01000 	mov	r1, #0
  105890:	e3404011 	movt	r4, #17
  105894:	e58d1024 	str	r1, [sp, #36]	; 0x24
  105898:	d1a04002 	movle	r4, r2
  10589c:	e1a07001 	mov	r7, r1
  1058a0:	e58d402c 	str	r4, [sp, #44]	; 0x2c
  1058a4:	e58d103c 	str	r1, [sp, #60]	; 0x3c
  1058a8:	e58d1044 	str	r1, [sp, #68]	; 0x44
  1058ac:	e58d1040 	str	r1, [sp, #64]	; 0x40
  1058b0:	eafffe36 	b	105190 <_vfprintf_r+0x590>
  1058b4:	e5dd3077 	ldrb	r3, [sp, #119]	; 0x77
  1058b8:	e3530000 	cmp	r3, #0
  1058bc:	1afffdc1 	bne	104fc8 <_vfprintf_r+0x3c8>
  1058c0:	e3a03020 	mov	r3, #32
  1058c4:	e1a01004 	mov	r1, r4
  1058c8:	e5cd3077 	strb	r3, [sp, #119]	; 0x77
  1058cc:	e5d43000 	ldrb	r3, [r4]
  1058d0:	eafffd43 	b	104de4 <_vfprintf_r+0x1e4>
  1058d4:	e3530000 	cmp	r3, #0
  1058d8:	e1a01003 	mov	r1, r3
  1058dc:	e58d3038 	str	r3, [sp, #56]	; 0x38
  1058e0:	e58d4014 	str	r4, [sp, #20]
  1058e4:	0a00058a 	beq	106f14 <_vfprintf_r+0x2314>
  1058e8:	e3a02000 	mov	r2, #0
  1058ec:	e3a03001 	mov	r3, #1
  1058f0:	e1a05003 	mov	r5, r3
  1058f4:	e58d3010 	str	r3, [sp, #16]
  1058f8:	e5cd2077 	strb	r2, [sp, #119]	; 0x77
  1058fc:	e1a03002 	mov	r3, r2
  105900:	e58d2024 	str	r2, [sp, #36]	; 0x24
  105904:	e1a07002 	mov	r7, r2
  105908:	e58d203c 	str	r2, [sp, #60]	; 0x3c
  10590c:	e58d2044 	str	r2, [sp, #68]	; 0x44
  105910:	e58d2040 	str	r2, [sp, #64]	; 0x40
  105914:	e28d20ec 	add	r2, sp, #236	; 0xec
  105918:	e5cd10ec 	strb	r1, [sp, #236]	; 0xec
  10591c:	e58d202c 	str	r2, [sp, #44]	; 0x2c
  105920:	eafffe1f 	b	1051a4 <_vfprintf_r+0x5a4>
  105924:	e28d20a0 	add	r2, sp, #160	; 0xa0
  105928:	e59d100c 	ldr	r1, [sp, #12]
  10592c:	e1a0000a 	mov	r0, sl
  105930:	eb002251 	bl	10e27c <__sprint_r>
  105934:	e3500000 	cmp	r0, #0
  105938:	1afffdbc 	bne	105030 <_vfprintf_r+0x430>
  10593c:	e5dd3077 	ldrb	r3, [sp, #119]	; 0x77
  105940:	e28d90ac 	add	r9, sp, #172	; 0xac
  105944:	e59d20a8 	ldr	r2, [sp, #168]	; 0xa8
  105948:	e3530000 	cmp	r3, #0
  10594c:	0a00000b 	beq	105980 <_vfprintf_r+0xd80>
  105950:	e59d30a4 	ldr	r3, [sp, #164]	; 0xa4
  105954:	e2822001 	add	r2, r2, #1
  105958:	e28d1077 	add	r1, sp, #119	; 0x77
  10595c:	e58d20a8 	str	r2, [sp, #168]	; 0xa8
  105960:	e2833001 	add	r3, r3, #1
  105964:	e5891000 	str	r1, [r9]
  105968:	e3530007 	cmp	r3, #7
  10596c:	e58d30a4 	str	r3, [sp, #164]	; 0xa4
  105970:	e3a03001 	mov	r3, #1
  105974:	e5893004 	str	r3, [r9, #4]
  105978:	d2899008 	addle	r9, r9, #8
  10597c:	ca00017b 	bgt	105f70 <_vfprintf_r+0x1370>
  105980:	e59d3030 	ldr	r3, [sp, #48]	; 0x30
  105984:	e3530000 	cmp	r3, #0
  105988:	0a00000b 	beq	1059bc <_vfprintf_r+0xdbc>
  10598c:	e59d30a4 	ldr	r3, [sp, #164]	; 0xa4
  105990:	e2822002 	add	r2, r2, #2
  105994:	e28d1078 	add	r1, sp, #120	; 0x78
  105998:	e58d20a8 	str	r2, [sp, #168]	; 0xa8
  10599c:	e2833001 	add	r3, r3, #1
  1059a0:	e5891000 	str	r1, [r9]
  1059a4:	e3530007 	cmp	r3, #7
  1059a8:	e58d30a4 	str	r3, [sp, #164]	; 0xa4
  1059ac:	e3a03002 	mov	r3, #2
  1059b0:	e5893004 	str	r3, [r9, #4]
  1059b4:	d2899008 	addle	r9, r9, #8
  1059b8:	ca000175 	bgt	105f94 <_vfprintf_r+0x1394>
  1059bc:	e59d3034 	ldr	r3, [sp, #52]	; 0x34
  1059c0:	e3530080 	cmp	r3, #128	; 0x80
  1059c4:	0a0000e7 	beq	105d68 <_vfprintf_r+0x1168>
  1059c8:	e0654007 	rsb	r4, r5, r7
  1059cc:	e3540000 	cmp	r4, #0
  1059d0:	da000034 	ble	105aa8 <_vfprintf_r+0xea8>
  1059d4:	e3540010 	cmp	r4, #16
  1059d8:	e59d30a4 	ldr	r3, [sp, #164]	; 0xa4
  1059dc:	e51f6934 	ldr	r6, [pc, #-2356]	; 1050b0 <_vfprintf_r+0x4b0>
  1059e0:	da00001f 	ble	105a64 <_vfprintf_r+0xe64>
  1059e4:	e58d5018 	str	r5, [sp, #24]
  1059e8:	e3a07010 	mov	r7, #16
  1059ec:	e1a05006 	mov	r5, r6
  1059f0:	e1a06004 	mov	r6, r4
  1059f4:	e59d400c 	ldr	r4, [sp, #12]
  1059f8:	ea000002 	b	105a08 <_vfprintf_r+0xe08>
  1059fc:	e2466010 	sub	r6, r6, #16
  105a00:	e3560010 	cmp	r6, #16
  105a04:	da000013 	ble	105a58 <_vfprintf_r+0xe58>
  105a08:	e2833001 	add	r3, r3, #1
  105a0c:	e2822010 	add	r2, r2, #16
  105a10:	e3530007 	cmp	r3, #7
  105a14:	e88900a0 	stm	r9, {r5, r7}
  105a18:	e58d30a4 	str	r3, [sp, #164]	; 0xa4
  105a1c:	d2899008 	addle	r9, r9, #8
  105a20:	e58d20a8 	str	r2, [sp, #168]	; 0xa8
  105a24:	dafffff4 	ble	1059fc <_vfprintf_r+0xdfc>
  105a28:	e28d20a0 	add	r2, sp, #160	; 0xa0
  105a2c:	e1a01004 	mov	r1, r4
  105a30:	e1a0000a 	mov	r0, sl
  105a34:	e28d90ac 	add	r9, sp, #172	; 0xac
  105a38:	eb00220f 	bl	10e27c <__sprint_r>
  105a3c:	e3500000 	cmp	r0, #0
  105a40:	1afffd7a 	bne	105030 <_vfprintf_r+0x430>
  105a44:	e2466010 	sub	r6, r6, #16
  105a48:	e59d20a8 	ldr	r2, [sp, #168]	; 0xa8
  105a4c:	e3560010 	cmp	r6, #16
  105a50:	e59d30a4 	ldr	r3, [sp, #164]	; 0xa4
  105a54:	caffffeb 	bgt	105a08 <_vfprintf_r+0xe08>
  105a58:	e1a04006 	mov	r4, r6
  105a5c:	e1a06005 	mov	r6, r5
  105a60:	e59d5018 	ldr	r5, [sp, #24]
  105a64:	e2833001 	add	r3, r3, #1
  105a68:	e0822004 	add	r2, r2, r4
  105a6c:	e3530007 	cmp	r3, #7
  105a70:	e5896000 	str	r6, [r9]
  105a74:	e5894004 	str	r4, [r9, #4]
  105a78:	d2899008 	addle	r9, r9, #8
  105a7c:	e58d30a4 	str	r3, [sp, #164]	; 0xa4
  105a80:	e58d20a8 	str	r2, [sp, #168]	; 0xa8
  105a84:	da000007 	ble	105aa8 <_vfprintf_r+0xea8>
  105a88:	e28d20a0 	add	r2, sp, #160	; 0xa0
  105a8c:	e59d100c 	ldr	r1, [sp, #12]
  105a90:	e1a0000a 	mov	r0, sl
  105a94:	eb0021f8 	bl	10e27c <__sprint_r>
  105a98:	e3500000 	cmp	r0, #0
  105a9c:	1afffd63 	bne	105030 <_vfprintf_r+0x430>
  105aa0:	e59d20a8 	ldr	r2, [sp, #168]	; 0xa8
  105aa4:	e28d90ac 	add	r9, sp, #172	; 0xac
  105aa8:	e59d3008 	ldr	r3, [sp, #8]
  105aac:	e3130c01 	tst	r3, #256	; 0x100
  105ab0:	1a000059 	bne	105c1c <_vfprintf_r+0x101c>
  105ab4:	e59d30a4 	ldr	r3, [sp, #164]	; 0xa4
  105ab8:	e0822005 	add	r2, r2, r5
  105abc:	e59d102c 	ldr	r1, [sp, #44]	; 0x2c
  105ac0:	e2833001 	add	r3, r3, #1
  105ac4:	e58d20a8 	str	r2, [sp, #168]	; 0xa8
  105ac8:	e3530007 	cmp	r3, #7
  105acc:	e5895004 	str	r5, [r9, #4]
  105ad0:	e5891000 	str	r1, [r9]
  105ad4:	e58d30a4 	str	r3, [sp, #164]	; 0xa4
  105ad8:	ca000110 	bgt	105f20 <_vfprintf_r+0x1320>
  105adc:	e2899008 	add	r9, r9, #8
  105ae0:	e59d3008 	ldr	r3, [sp, #8]
  105ae4:	e3130004 	tst	r3, #4
  105ae8:	0a000038 	beq	105bd0 <_vfprintf_r+0xfd0>
  105aec:	e59d3020 	ldr	r3, [sp, #32]
  105af0:	e59d1010 	ldr	r1, [sp, #16]
  105af4:	e0614003 	rsb	r4, r1, r3
  105af8:	e3540000 	cmp	r4, #0
  105afc:	da000033 	ble	105bd0 <_vfprintf_r+0xfd0>
  105b00:	e3540010 	cmp	r4, #16
  105b04:	d3066978 	movwle	r6, #27000	; 0x6978
  105b08:	d59d10a4 	ldrle	r1, [sp, #164]	; 0xa4
  105b0c:	d3406011 	movtle	r6, #17
  105b10:	da00001f 	ble	105b94 <_vfprintf_r+0xf94>
  105b14:	e59d10a4 	ldr	r1, [sp, #164]	; 0xa4
  105b18:	e3066978 	movw	r6, #27000	; 0x6978
  105b1c:	e3406011 	movt	r6, #17
  105b20:	e3a05010 	mov	r5, #16
  105b24:	e59d700c 	ldr	r7, [sp, #12]
  105b28:	e1a03001 	mov	r3, r1
  105b2c:	ea000002 	b	105b3c <_vfprintf_r+0xf3c>
  105b30:	e2444010 	sub	r4, r4, #16
  105b34:	e3540010 	cmp	r4, #16
  105b38:	da000014 	ble	105b90 <_vfprintf_r+0xf90>
  105b3c:	e2833001 	add	r3, r3, #1
  105b40:	e2822010 	add	r2, r2, #16
  105b44:	e3530007 	cmp	r3, #7
  105b48:	e5896000 	str	r6, [r9]
  105b4c:	e5895004 	str	r5, [r9, #4]
  105b50:	d2899008 	addle	r9, r9, #8
  105b54:	e58d30a4 	str	r3, [sp, #164]	; 0xa4
  105b58:	e58d20a8 	str	r2, [sp, #168]	; 0xa8
  105b5c:	dafffff3 	ble	105b30 <_vfprintf_r+0xf30>
  105b60:	e28d20a0 	add	r2, sp, #160	; 0xa0
  105b64:	e1a01007 	mov	r1, r7
  105b68:	e1a0000a 	mov	r0, sl
  105b6c:	e28d90ac 	add	r9, sp, #172	; 0xac
  105b70:	eb0021c1 	bl	10e27c <__sprint_r>
  105b74:	e3500000 	cmp	r0, #0
  105b78:	1afffd2c 	bne	105030 <_vfprintf_r+0x430>
  105b7c:	e2444010 	sub	r4, r4, #16
  105b80:	e59d20a8 	ldr	r2, [sp, #168]	; 0xa8
  105b84:	e3540010 	cmp	r4, #16
  105b88:	e59d30a4 	ldr	r3, [sp, #164]	; 0xa4
  105b8c:	caffffea 	bgt	105b3c <_vfprintf_r+0xf3c>
  105b90:	e1a01003 	mov	r1, r3
  105b94:	e2811001 	add	r1, r1, #1
  105b98:	e0822004 	add	r2, r2, r4
  105b9c:	e3510007 	cmp	r1, #7
  105ba0:	e58d10a4 	str	r1, [sp, #164]	; 0xa4
  105ba4:	e58d20a8 	str	r2, [sp, #168]	; 0xa8
  105ba8:	e5896000 	str	r6, [r9]
  105bac:	e5894004 	str	r4, [r9, #4]
  105bb0:	da000006 	ble	105bd0 <_vfprintf_r+0xfd0>
  105bb4:	e28d20a0 	add	r2, sp, #160	; 0xa0
  105bb8:	e59d100c 	ldr	r1, [sp, #12]
  105bbc:	e1a0000a 	mov	r0, sl
  105bc0:	eb0021ad 	bl	10e27c <__sprint_r>
  105bc4:	e3500000 	cmp	r0, #0
  105bc8:	1afffd18 	bne	105030 <_vfprintf_r+0x430>
  105bcc:	e59d20a8 	ldr	r2, [sp, #168]	; 0xa8
  105bd0:	e59d301c 	ldr	r3, [sp, #28]
  105bd4:	e59d1010 	ldr	r1, [sp, #16]
  105bd8:	e59d0020 	ldr	r0, [sp, #32]
  105bdc:	e1510000 	cmp	r1, r0
  105be0:	a0833001 	addge	r3, r3, r1
  105be4:	b0833000 	addlt	r3, r3, r0
  105be8:	e3520000 	cmp	r2, #0
  105bec:	e58d301c 	str	r3, [sp, #28]
  105bf0:	1a0000d7 	bne	105f54 <_vfprintf_r+0x1354>
  105bf4:	e59d3024 	ldr	r3, [sp, #36]	; 0x24
  105bf8:	e3530000 	cmp	r3, #0
  105bfc:	e3a03000 	mov	r3, #0
  105c00:	e58d30a4 	str	r3, [sp, #164]	; 0xa4
  105c04:	0a000002 	beq	105c14 <_vfprintf_r+0x1014>
  105c08:	e59d1024 	ldr	r1, [sp, #36]	; 0x24
  105c0c:	e1a0000a 	mov	r0, sl
  105c10:	eb000f90 	bl	109a58 <_free_r>
  105c14:	e28d90ac 	add	r9, sp, #172	; 0xac
  105c18:	eafffc3a 	b	104d08 <_vfprintf_r+0x108>
  105c1c:	e59d3038 	ldr	r3, [sp, #56]	; 0x38
  105c20:	e3530065 	cmp	r3, #101	; 0x65
  105c24:	da00008a 	ble	105e54 <_vfprintf_r+0x1254>
  105c28:	eeb58b40 	vcmp.f64	d8, #0.0
  105c2c:	eef1fa10 	vmrs	APSR_nzcv, fpscr
  105c30:	1a0000f3 	bne	106004 <_vfprintf_r+0x1404>
  105c34:	e59d30a4 	ldr	r3, [sp, #164]	; 0xa4
  105c38:	e3071184 	movw	r1, #29060	; 0x7184
  105c3c:	e2822001 	add	r2, r2, #1
  105c40:	e3401011 	movt	r1, #17
  105c44:	e2833001 	add	r3, r3, #1
  105c48:	e5891000 	str	r1, [r9]
  105c4c:	e3530007 	cmp	r3, #7
  105c50:	e58d30a4 	str	r3, [sp, #164]	; 0xa4
  105c54:	e58d20a8 	str	r2, [sp, #168]	; 0xa8
  105c58:	e3a03001 	mov	r3, #1
  105c5c:	e5893004 	str	r3, [r9, #4]
  105c60:	d2899008 	addle	r9, r9, #8
  105c64:	ca0003f8 	bgt	106c4c <_vfprintf_r+0x204c>
  105c68:	e59d307c 	ldr	r3, [sp, #124]	; 0x7c
  105c6c:	e59d1048 	ldr	r1, [sp, #72]	; 0x48
  105c70:	e1530001 	cmp	r3, r1
  105c74:	ba000002 	blt	105c84 <_vfprintf_r+0x1084>
  105c78:	e59d3008 	ldr	r3, [sp, #8]
  105c7c:	e3130001 	tst	r3, #1
  105c80:	0affff96 	beq	105ae0 <_vfprintf_r+0xee0>
  105c84:	e59d30a4 	ldr	r3, [sp, #164]	; 0xa4
  105c88:	e59d1054 	ldr	r1, [sp, #84]	; 0x54
  105c8c:	e2833001 	add	r3, r3, #1
  105c90:	e59d0050 	ldr	r0, [sp, #80]	; 0x50
  105c94:	e3530007 	cmp	r3, #7
  105c98:	e0822001 	add	r2, r2, r1
  105c9c:	e5891004 	str	r1, [r9, #4]
  105ca0:	e5890000 	str	r0, [r9]
  105ca4:	d2899008 	addle	r9, r9, #8
  105ca8:	e58d20a8 	str	r2, [sp, #168]	; 0xa8
  105cac:	e58d30a4 	str	r3, [sp, #164]	; 0xa4
  105cb0:	ca0004a5 	bgt	106f4c <_vfprintf_r+0x234c>
  105cb4:	e59d3048 	ldr	r3, [sp, #72]	; 0x48
  105cb8:	e2434001 	sub	r4, r3, #1
  105cbc:	e3540000 	cmp	r4, #0
  105cc0:	daffff86 	ble	105ae0 <_vfprintf_r+0xee0>
  105cc4:	e3540010 	cmp	r4, #16
  105cc8:	e59d30a4 	ldr	r3, [sp, #164]	; 0xa4
  105ccc:	e51f6c24 	ldr	r6, [pc, #-3108]	; 1050b0 <_vfprintf_r+0x4b0>
  105cd0:	c3a05010 	movgt	r5, #16
  105cd4:	c59d700c 	ldrgt	r7, [sp, #12]
  105cd8:	ca000003 	bgt	105cec <_vfprintf_r+0x10ec>
  105cdc:	ea00012f 	b	1061a0 <_vfprintf_r+0x15a0>
  105ce0:	e2444010 	sub	r4, r4, #16
  105ce4:	e3540010 	cmp	r4, #16
  105ce8:	da00012c 	ble	1061a0 <_vfprintf_r+0x15a0>
  105cec:	e2833001 	add	r3, r3, #1
  105cf0:	e2822010 	add	r2, r2, #16
  105cf4:	e3530007 	cmp	r3, #7
  105cf8:	e5896000 	str	r6, [r9]
  105cfc:	e5895004 	str	r5, [r9, #4]
  105d00:	d2899008 	addle	r9, r9, #8
  105d04:	e58d30a4 	str	r3, [sp, #164]	; 0xa4
  105d08:	e58d20a8 	str	r2, [sp, #168]	; 0xa8
  105d0c:	dafffff3 	ble	105ce0 <_vfprintf_r+0x10e0>
  105d10:	e28d20a0 	add	r2, sp, #160	; 0xa0
  105d14:	e1a01007 	mov	r1, r7
  105d18:	e1a0000a 	mov	r0, sl
  105d1c:	e28d90ac 	add	r9, sp, #172	; 0xac
  105d20:	eb002155 	bl	10e27c <__sprint_r>
  105d24:	e3500000 	cmp	r0, #0
  105d28:	1afffcc0 	bne	105030 <_vfprintf_r+0x430>
  105d2c:	e59d20a8 	ldr	r2, [sp, #168]	; 0xa8
  105d30:	e59d30a4 	ldr	r3, [sp, #164]	; 0xa4
  105d34:	eaffffe9 	b	105ce0 <_vfprintf_r+0x10e0>
  105d38:	e3520000 	cmp	r2, #0
  105d3c:	1a000080 	bne	105f44 <_vfprintf_r+0x1344>
  105d40:	e59d3008 	ldr	r3, [sp, #8]
  105d44:	e3130001 	tst	r3, #1
  105d48:	0a0000f0 	beq	106110 <_vfprintf_r+0x1510>
  105d4c:	e28d3e15 	add	r3, sp, #336	; 0x150
  105d50:	e3a05001 	mov	r5, #1
  105d54:	e1a02003 	mov	r2, r3
  105d58:	e3a03030 	mov	r3, #48	; 0x30
  105d5c:	e5623001 	strb	r3, [r2, #-1]!
  105d60:	e58d202c 	str	r2, [sp, #44]	; 0x2c
  105d64:	eafffcff 	b	105168 <_vfprintf_r+0x568>
  105d68:	e59d3020 	ldr	r3, [sp, #32]
  105d6c:	e59d1010 	ldr	r1, [sp, #16]
  105d70:	e0614003 	rsb	r4, r1, r3
  105d74:	e3540000 	cmp	r4, #0
  105d78:	daffff12 	ble	1059c8 <_vfprintf_r+0xdc8>
  105d7c:	e3540010 	cmp	r4, #16
  105d80:	e59d30a4 	ldr	r3, [sp, #164]	; 0xa4
  105d84:	e51f6cdc 	ldr	r6, [pc, #-3292]	; 1050b0 <_vfprintf_r+0x4b0>
  105d88:	da00001f 	ble	105e0c <_vfprintf_r+0x120c>
  105d8c:	e58d5030 	str	r5, [sp, #48]	; 0x30
  105d90:	e3a0c010 	mov	ip, #16
  105d94:	e1a01003 	mov	r1, r3
  105d98:	e59d500c 	ldr	r5, [sp, #12]
  105d9c:	ea000002 	b	105dac <_vfprintf_r+0x11ac>
  105da0:	e2444010 	sub	r4, r4, #16
  105da4:	e3540010 	cmp	r4, #16
  105da8:	da000015 	ble	105e04 <_vfprintf_r+0x1204>
  105dac:	e2811001 	add	r1, r1, #1
  105db0:	e2822010 	add	r2, r2, #16
  105db4:	e3510007 	cmp	r1, #7
  105db8:	e8891040 	stm	r9, {r6, ip}
  105dbc:	e58d10a4 	str	r1, [sp, #164]	; 0xa4
  105dc0:	d2899008 	addle	r9, r9, #8
  105dc4:	e58d20a8 	str	r2, [sp, #168]	; 0xa8
  105dc8:	dafffff4 	ble	105da0 <_vfprintf_r+0x11a0>
  105dcc:	e28d20a0 	add	r2, sp, #160	; 0xa0
  105dd0:	e1a01005 	mov	r1, r5
  105dd4:	e1a0000a 	mov	r0, sl
  105dd8:	e58dc018 	str	ip, [sp, #24]
  105ddc:	eb002126 	bl	10e27c <__sprint_r>
  105de0:	e28d90ac 	add	r9, sp, #172	; 0xac
  105de4:	e3500000 	cmp	r0, #0
  105de8:	1afffc90 	bne	105030 <_vfprintf_r+0x430>
  105dec:	e2444010 	sub	r4, r4, #16
  105df0:	e59d20a8 	ldr	r2, [sp, #168]	; 0xa8
  105df4:	e3540010 	cmp	r4, #16
  105df8:	e59d10a4 	ldr	r1, [sp, #164]	; 0xa4
  105dfc:	e59dc018 	ldr	ip, [sp, #24]
  105e00:	caffffe9 	bgt	105dac <_vfprintf_r+0x11ac>
  105e04:	e59d5030 	ldr	r5, [sp, #48]	; 0x30
  105e08:	e1a03001 	mov	r3, r1
  105e0c:	e2833001 	add	r3, r3, #1
  105e10:	e0822004 	add	r2, r2, r4
  105e14:	e3530007 	cmp	r3, #7
  105e18:	e5896000 	str	r6, [r9]
  105e1c:	e5894004 	str	r4, [r9, #4]
  105e20:	d2899008 	addle	r9, r9, #8
  105e24:	e58d30a4 	str	r3, [sp, #164]	; 0xa4
  105e28:	e58d20a8 	str	r2, [sp, #168]	; 0xa8
  105e2c:	dafffee5 	ble	1059c8 <_vfprintf_r+0xdc8>
  105e30:	e28d20a0 	add	r2, sp, #160	; 0xa0
  105e34:	e59d100c 	ldr	r1, [sp, #12]
  105e38:	e1a0000a 	mov	r0, sl
  105e3c:	eb00210e 	bl	10e27c <__sprint_r>
  105e40:	e3500000 	cmp	r0, #0
  105e44:	1afffc79 	bne	105030 <_vfprintf_r+0x430>
  105e48:	e59d20a8 	ldr	r2, [sp, #168]	; 0xa8
  105e4c:	e28d90ac 	add	r9, sp, #172	; 0xac
  105e50:	eafffedc 	b	1059c8 <_vfprintf_r+0xdc8>
  105e54:	e59d3048 	ldr	r3, [sp, #72]	; 0x48
  105e58:	e3530001 	cmp	r3, #1
  105e5c:	da0001ab 	ble	106510 <_vfprintf_r+0x1910>
  105e60:	e59d102c 	ldr	r1, [sp, #44]	; 0x2c
  105e64:	e2822001 	add	r2, r2, #1
  105e68:	e59d30a4 	ldr	r3, [sp, #164]	; 0xa4
  105e6c:	e58d20a8 	str	r2, [sp, #168]	; 0xa8
  105e70:	e5891000 	str	r1, [r9]
  105e74:	e3a01001 	mov	r1, #1
  105e78:	e0833001 	add	r3, r3, r1
  105e7c:	e58d30a4 	str	r3, [sp, #164]	; 0xa4
  105e80:	e3530007 	cmp	r3, #7
  105e84:	e5891004 	str	r1, [r9, #4]
  105e88:	d2899008 	addle	r9, r9, #8
  105e8c:	ca0001c8 	bgt	1065b4 <_vfprintf_r+0x19b4>
  105e90:	e2833001 	add	r3, r3, #1
  105e94:	e59d1054 	ldr	r1, [sp, #84]	; 0x54
  105e98:	e59d0050 	ldr	r0, [sp, #80]	; 0x50
  105e9c:	e3530007 	cmp	r3, #7
  105ea0:	e0822001 	add	r2, r2, r1
  105ea4:	e58d30a4 	str	r3, [sp, #164]	; 0xa4
  105ea8:	e58d20a8 	str	r2, [sp, #168]	; 0xa8
  105eac:	e8890003 	stm	r9, {r0, r1}
  105eb0:	d2899008 	addle	r9, r9, #8
  105eb4:	ca0001c8 	bgt	1065dc <_vfprintf_r+0x19dc>
  105eb8:	eeb58b40 	vcmp.f64	d8, #0.0
  105ebc:	eef1fa10 	vmrs	APSR_nzcv, fpscr
  105ec0:	0a000096 	beq	106120 <_vfprintf_r+0x1520>
  105ec4:	e59d102c 	ldr	r1, [sp, #44]	; 0x2c
  105ec8:	e2833001 	add	r3, r3, #1
  105ecc:	e3530007 	cmp	r3, #7
  105ed0:	e58d30a4 	str	r3, [sp, #164]	; 0xa4
  105ed4:	e2814001 	add	r4, r1, #1
  105ed8:	e59d1048 	ldr	r1, [sp, #72]	; 0x48
  105edc:	e5894000 	str	r4, [r9]
  105ee0:	e2411001 	sub	r1, r1, #1
  105ee4:	e0822001 	add	r2, r2, r1
  105ee8:	e58d20a8 	str	r2, [sp, #168]	; 0xa8
  105eec:	e5891004 	str	r1, [r9, #4]
  105ef0:	ca000194 	bgt	106548 <_vfprintf_r+0x1948>
  105ef4:	e2899008 	add	r9, r9, #8
  105ef8:	e2833001 	add	r3, r3, #1
  105efc:	e59d1064 	ldr	r1, [sp, #100]	; 0x64
  105f00:	e3530007 	cmp	r3, #7
  105f04:	e58d30a4 	str	r3, [sp, #164]	; 0xa4
  105f08:	e0822001 	add	r2, r2, r1
  105f0c:	e28d3088 	add	r3, sp, #136	; 0x88
  105f10:	e58d20a8 	str	r2, [sp, #168]	; 0xa8
  105f14:	e5891004 	str	r1, [r9, #4]
  105f18:	e5893000 	str	r3, [r9]
  105f1c:	dafffeee 	ble	105adc <_vfprintf_r+0xedc>
  105f20:	e28d20a0 	add	r2, sp, #160	; 0xa0
  105f24:	e59d100c 	ldr	r1, [sp, #12]
  105f28:	e1a0000a 	mov	r0, sl
  105f2c:	eb0020d2 	bl	10e27c <__sprint_r>
  105f30:	e3500000 	cmp	r0, #0
  105f34:	1afffc3d 	bne	105030 <_vfprintf_r+0x430>
  105f38:	e59d20a8 	ldr	r2, [sp, #168]	; 0xa8
  105f3c:	e28d90ac 	add	r9, sp, #172	; 0xac
  105f40:	eafffee6 	b	105ae0 <_vfprintf_r+0xee0>
  105f44:	e1a05003 	mov	r5, r3
  105f48:	e28d3e15 	add	r3, sp, #336	; 0x150
  105f4c:	e58d302c 	str	r3, [sp, #44]	; 0x2c
  105f50:	eafffc84 	b	105168 <_vfprintf_r+0x568>
  105f54:	e28d20a0 	add	r2, sp, #160	; 0xa0
  105f58:	e59d100c 	ldr	r1, [sp, #12]
  105f5c:	e1a0000a 	mov	r0, sl
  105f60:	eb0020c5 	bl	10e27c <__sprint_r>
  105f64:	e3500000 	cmp	r0, #0
  105f68:	0affff21 	beq	105bf4 <_vfprintf_r+0xff4>
  105f6c:	eafffc2f 	b	105030 <_vfprintf_r+0x430>
  105f70:	e28d20a0 	add	r2, sp, #160	; 0xa0
  105f74:	e59d100c 	ldr	r1, [sp, #12]
  105f78:	e1a0000a 	mov	r0, sl
  105f7c:	eb0020be 	bl	10e27c <__sprint_r>
  105f80:	e3500000 	cmp	r0, #0
  105f84:	1afffc29 	bne	105030 <_vfprintf_r+0x430>
  105f88:	e59d20a8 	ldr	r2, [sp, #168]	; 0xa8
  105f8c:	e28d90ac 	add	r9, sp, #172	; 0xac
  105f90:	eafffe7a 	b	105980 <_vfprintf_r+0xd80>
  105f94:	e28d20a0 	add	r2, sp, #160	; 0xa0
  105f98:	e59d100c 	ldr	r1, [sp, #12]
  105f9c:	e1a0000a 	mov	r0, sl
  105fa0:	eb0020b5 	bl	10e27c <__sprint_r>
  105fa4:	e3500000 	cmp	r0, #0
  105fa8:	1afffc20 	bne	105030 <_vfprintf_r+0x430>
  105fac:	e59d20a8 	ldr	r2, [sp, #168]	; 0xa8
  105fb0:	e28d90ac 	add	r9, sp, #172	; 0xac
  105fb4:	eafffe80 	b	1059bc <_vfprintf_r+0xdbc>
  105fb8:	e28d0e15 	add	r0, sp, #336	; 0x150
  105fbc:	e1a021a4 	lsr	r2, r4, #3
  105fc0:	e1a011a5 	lsr	r1, r5, #3
  105fc4:	e1822e85 	orr	r2, r2, r5, lsl #29
  105fc8:	e2043007 	and	r3, r4, #7
  105fcc:	e1a05001 	mov	r5, r1
  105fd0:	e2833030 	add	r3, r3, #48	; 0x30
  105fd4:	e1a04002 	mov	r4, r2
  105fd8:	e1942005 	orrs	r2, r4, r5
  105fdc:	e5603001 	strb	r3, [r0, #-1]!
  105fe0:	1afffff5 	bne	105fbc <_vfprintf_r+0x13bc>
  105fe4:	e59d2008 	ldr	r2, [sp, #8]
  105fe8:	e58d002c 	str	r0, [sp, #44]	; 0x2c
  105fec:	e3120001 	tst	r2, #1
  105ff0:	1a0001e2 	bne	106780 <_vfprintf_r+0x1b80>
  105ff4:	e28d3e15 	add	r3, sp, #336	; 0x150
  105ff8:	e1a02000 	mov	r2, r0
  105ffc:	e0605003 	rsb	r5, r0, r3
  106000:	eafffc58 	b	105168 <_vfprintf_r+0x568>
  106004:	e59d407c 	ldr	r4, [sp, #124]	; 0x7c
  106008:	e3540000 	cmp	r4, #0
  10600c:	da000317 	ble	106c70 <_vfprintf_r+0x2070>
  106010:	e59d3048 	ldr	r3, [sp, #72]	; 0x48
  106014:	e59d1040 	ldr	r1, [sp, #64]	; 0x40
  106018:	e59d002c 	ldr	r0, [sp, #44]	; 0x2c
  10601c:	e1530001 	cmp	r3, r1
  106020:	e080c003 	add	ip, r0, r3
  106024:	e58dc018 	str	ip, [sp, #24]
  106028:	b1a04003 	movlt	r4, r3
  10602c:	a1a04001 	movge	r4, r1
  106030:	e3540000 	cmp	r4, #0
  106034:	da000009 	ble	106060 <_vfprintf_r+0x1460>
  106038:	e59d30a4 	ldr	r3, [sp, #164]	; 0xa4
  10603c:	e0822004 	add	r2, r2, r4
  106040:	e5890000 	str	r0, [r9]
  106044:	e2833001 	add	r3, r3, #1
  106048:	e5894004 	str	r4, [r9, #4]
  10604c:	e3530007 	cmp	r3, #7
  106050:	e58d20a8 	str	r2, [sp, #168]	; 0xa8
  106054:	e58d30a4 	str	r3, [sp, #164]	; 0xa4
  106058:	d2899008 	addle	r9, r9, #8
  10605c:	ca0003e5 	bgt	106ff8 <_vfprintf_r+0x23f8>
  106060:	e59d3040 	ldr	r3, [sp, #64]	; 0x40
  106064:	e3540000 	cmp	r4, #0
  106068:	a0643003 	rsbge	r3, r4, r3
  10606c:	e3530000 	cmp	r3, #0
  106070:	e1a04003 	mov	r4, r3
  106074:	da000063 	ble	106208 <_vfprintf_r+0x1608>
  106078:	e3540010 	cmp	r4, #16
  10607c:	e59d30a4 	ldr	r3, [sp, #164]	; 0xa4
  106080:	e51f6fd8 	ldr	r6, [pc, #-4056]	; 1050b0 <_vfprintf_r+0x4b0>
  106084:	c3a05010 	movgt	r5, #16
  106088:	c59d700c 	ldrgt	r7, [sp, #12]
  10608c:	ca000003 	bgt	1060a0 <_vfprintf_r+0x14a0>
  106090:	ea00004b 	b	1061c4 <_vfprintf_r+0x15c4>
  106094:	e2444010 	sub	r4, r4, #16
  106098:	e3540010 	cmp	r4, #16
  10609c:	da000048 	ble	1061c4 <_vfprintf_r+0x15c4>
  1060a0:	e2833001 	add	r3, r3, #1
  1060a4:	e2822010 	add	r2, r2, #16
  1060a8:	e3530007 	cmp	r3, #7
  1060ac:	e5896000 	str	r6, [r9]
  1060b0:	e5895004 	str	r5, [r9, #4]
  1060b4:	d2899008 	addle	r9, r9, #8
  1060b8:	e58d30a4 	str	r3, [sp, #164]	; 0xa4
  1060bc:	e58d20a8 	str	r2, [sp, #168]	; 0xa8
  1060c0:	dafffff3 	ble	106094 <_vfprintf_r+0x1494>
  1060c4:	e28d20a0 	add	r2, sp, #160	; 0xa0
  1060c8:	e1a01007 	mov	r1, r7
  1060cc:	e1a0000a 	mov	r0, sl
  1060d0:	e28d90ac 	add	r9, sp, #172	; 0xac
  1060d4:	eb002068 	bl	10e27c <__sprint_r>
  1060d8:	e3500000 	cmp	r0, #0
  1060dc:	1afffbd3 	bne	105030 <_vfprintf_r+0x430>
  1060e0:	e59d20a8 	ldr	r2, [sp, #168]	; 0xa8
  1060e4:	e59d30a4 	ldr	r3, [sp, #164]	; 0xa4
  1060e8:	eaffffe9 	b	106094 <_vfprintf_r+0x1494>
  1060ec:	e3550000 	cmp	r5, #0
  1060f0:	03540009 	cmpeq	r4, #9
  1060f4:	8a00015d 	bhi	106670 <_vfprintf_r+0x1a70>
  1060f8:	e28d3e15 	add	r3, sp, #336	; 0x150
  1060fc:	e2844030 	add	r4, r4, #48	; 0x30
  106100:	e1a05002 	mov	r5, r2
  106104:	e5634001 	strb	r4, [r3, #-1]!
  106108:	e58d302c 	str	r3, [sp, #44]	; 0x2c
  10610c:	eafffc15 	b	105168 <_vfprintf_r+0x568>
  106110:	e28d3e15 	add	r3, sp, #336	; 0x150
  106114:	e1a05002 	mov	r5, r2
  106118:	e58d302c 	str	r3, [sp, #44]	; 0x2c
  10611c:	eafffc11 	b	105168 <_vfprintf_r+0x568>
  106120:	e59d1048 	ldr	r1, [sp, #72]	; 0x48
  106124:	e2414001 	sub	r4, r1, #1
  106128:	e3540000 	cmp	r4, #0
  10612c:	daffff71 	ble	105ef8 <_vfprintf_r+0x12f8>
  106130:	e3540010 	cmp	r4, #16
  106134:	e59f6f8c 	ldr	r6, [pc, #3980]	; 1070c8 <_vfprintf_r+0x24c8>
  106138:	c3a05010 	movgt	r5, #16
  10613c:	c59d700c 	ldrgt	r7, [sp, #12]
  106140:	ca000003 	bgt	106154 <_vfprintf_r+0x1554>
  106144:	ea00012e 	b	106604 <_vfprintf_r+0x1a04>
  106148:	e2444010 	sub	r4, r4, #16
  10614c:	e3540010 	cmp	r4, #16
  106150:	da00012b 	ble	106604 <_vfprintf_r+0x1a04>
  106154:	e2833001 	add	r3, r3, #1
  106158:	e2822010 	add	r2, r2, #16
  10615c:	e3530007 	cmp	r3, #7
  106160:	e5896000 	str	r6, [r9]
  106164:	e5895004 	str	r5, [r9, #4]
  106168:	d2899008 	addle	r9, r9, #8
  10616c:	e58d30a4 	str	r3, [sp, #164]	; 0xa4
  106170:	e58d20a8 	str	r2, [sp, #168]	; 0xa8
  106174:	dafffff3 	ble	106148 <_vfprintf_r+0x1548>
  106178:	e28d20a0 	add	r2, sp, #160	; 0xa0
  10617c:	e1a01007 	mov	r1, r7
  106180:	e1a0000a 	mov	r0, sl
  106184:	e28d90ac 	add	r9, sp, #172	; 0xac
  106188:	eb00203b 	bl	10e27c <__sprint_r>
  10618c:	e3500000 	cmp	r0, #0
  106190:	1afffba6 	bne	105030 <_vfprintf_r+0x430>
  106194:	e59d20a8 	ldr	r2, [sp, #168]	; 0xa8
  106198:	e59d30a4 	ldr	r3, [sp, #164]	; 0xa4
  10619c:	eaffffe9 	b	106148 <_vfprintf_r+0x1548>
  1061a0:	e2833001 	add	r3, r3, #1
  1061a4:	e0822004 	add	r2, r2, r4
  1061a8:	e3530007 	cmp	r3, #7
  1061ac:	e58d30a4 	str	r3, [sp, #164]	; 0xa4
  1061b0:	e58d20a8 	str	r2, [sp, #168]	; 0xa8
  1061b4:	e5896000 	str	r6, [r9]
  1061b8:	e5894004 	str	r4, [r9, #4]
  1061bc:	dafffe46 	ble	105adc <_vfprintf_r+0xedc>
  1061c0:	eaffff56 	b	105f20 <_vfprintf_r+0x1320>
  1061c4:	e2833001 	add	r3, r3, #1
  1061c8:	e0822004 	add	r2, r2, r4
  1061cc:	e3530007 	cmp	r3, #7
  1061d0:	e5896000 	str	r6, [r9]
  1061d4:	e5894004 	str	r4, [r9, #4]
  1061d8:	d2899008 	addle	r9, r9, #8
  1061dc:	e58d30a4 	str	r3, [sp, #164]	; 0xa4
  1061e0:	e58d20a8 	str	r2, [sp, #168]	; 0xa8
  1061e4:	da000007 	ble	106208 <_vfprintf_r+0x1608>
  1061e8:	e28d20a0 	add	r2, sp, #160	; 0xa0
  1061ec:	e59d100c 	ldr	r1, [sp, #12]
  1061f0:	e1a0000a 	mov	r0, sl
  1061f4:	eb002020 	bl	10e27c <__sprint_r>
  1061f8:	e3500000 	cmp	r0, #0
  1061fc:	1afffb8b 	bne	105030 <_vfprintf_r+0x430>
  106200:	e59d20a8 	ldr	r2, [sp, #168]	; 0xa8
  106204:	e28d90ac 	add	r9, sp, #172	; 0xac
  106208:	e59d3008 	ldr	r3, [sp, #8]
  10620c:	e59d1040 	ldr	r1, [sp, #64]	; 0x40
  106210:	e3130b01 	tst	r3, #1024	; 0x400
  106214:	e59d302c 	ldr	r3, [sp, #44]	; 0x2c
  106218:	e0833001 	add	r3, r3, r1
  10621c:	e1a04003 	mov	r4, r3
  106220:	0a000073 	beq	1063f4 <_vfprintf_r+0x17f4>
  106224:	e59d3044 	ldr	r3, [sp, #68]	; 0x44
  106228:	e59d103c 	ldr	r1, [sp, #60]	; 0x3c
  10622c:	e3510000 	cmp	r1, #0
  106230:	d3530000 	cmple	r3, #0
  106234:	da000069 	ble	1063e0 <_vfprintf_r+0x17e0>
  106238:	e1a05004 	mov	r5, r4
  10623c:	e59f7e84 	ldr	r7, [pc, #3716]	; 1070c8 <_vfprintf_r+0x24c8>
  106240:	e59d400c 	ldr	r4, [sp, #12]
  106244:	e3a06010 	mov	r6, #16
  106248:	e58db030 	str	fp, [sp, #48]	; 0x30
  10624c:	e1a0b009 	mov	fp, r9
  106250:	e59d303c 	ldr	r3, [sp, #60]	; 0x3c
  106254:	e59d10a4 	ldr	r1, [sp, #164]	; 0xa4
  106258:	e3530000 	cmp	r3, #0
  10625c:	e59d0060 	ldr	r0, [sp, #96]	; 0x60
  106260:	12433001 	subne	r3, r3, #1
  106264:	e2811001 	add	r1, r1, #1
  106268:	059d304c 	ldreq	r3, [sp, #76]	; 0x4c
  10626c:	158d303c 	strne	r3, [sp, #60]	; 0x3c
  106270:	02433001 	subeq	r3, r3, #1
  106274:	e58b0000 	str	r0, [fp]
  106278:	058d304c 	streq	r3, [sp, #76]	; 0x4c
  10627c:	059d3044 	ldreq	r3, [sp, #68]	; 0x44
  106280:	e58d10a4 	str	r1, [sp, #164]	; 0xa4
  106284:	02433001 	subeq	r3, r3, #1
  106288:	058d3044 	streq	r3, [sp, #68]	; 0x44
  10628c:	e3510007 	cmp	r1, #7
  106290:	e59d305c 	ldr	r3, [sp, #92]	; 0x5c
  106294:	e0822003 	add	r2, r2, r3
  106298:	e58d20a8 	str	r2, [sp, #168]	; 0xa8
  10629c:	e58b3004 	str	r3, [fp, #4]
  1062a0:	d28bb008 	addle	fp, fp, #8
  1062a4:	ca000149 	bgt	1067d0 <_vfprintf_r+0x1bd0>
  1062a8:	e59d304c 	ldr	r3, [sp, #76]	; 0x4c
  1062ac:	e59d1018 	ldr	r1, [sp, #24]
  1062b0:	e5d3c000 	ldrb	ip, [r3]
  1062b4:	e0651001 	rsb	r1, r5, r1
  1062b8:	e15c0001 	cmp	ip, r1
  1062bc:	b1a0900c 	movlt	r9, ip
  1062c0:	a1a09001 	movge	r9, r1
  1062c4:	e3590000 	cmp	r9, #0
  1062c8:	da000149 	ble	1067f4 <_vfprintf_r+0x1bf4>
  1062cc:	e59d10a4 	ldr	r1, [sp, #164]	; 0xa4
  1062d0:	e0822009 	add	r2, r2, r9
  1062d4:	e58b5000 	str	r5, [fp]
  1062d8:	e2811001 	add	r1, r1, #1
  1062dc:	e58d20a8 	str	r2, [sp, #168]	; 0xa8
  1062e0:	e3510007 	cmp	r1, #7
  1062e4:	e58b9004 	str	r9, [fp, #4]
  1062e8:	e58d10a4 	str	r1, [sp, #164]	; 0xa4
  1062ec:	ca00024a 	bgt	106c1c <_vfprintf_r+0x201c>
  1062f0:	e5d31000 	ldrb	r1, [r3]
  1062f4:	e28bb008 	add	fp, fp, #8
  1062f8:	e1a0c001 	mov	ip, r1
  1062fc:	e3590000 	cmp	r9, #0
  106300:	a069900c 	rsbge	r9, r9, ip
  106304:	b1a0900c 	movlt	r9, ip
  106308:	e3590000 	cmp	r9, #0
  10630c:	da00002a 	ble	1063bc <_vfprintf_r+0x17bc>
  106310:	e59f3db0 	ldr	r3, [pc, #3504]	; 1070c8 <_vfprintf_r+0x24c8>
  106314:	e3590010 	cmp	r9, #16
  106318:	e59d10a4 	ldr	r1, [sp, #164]	; 0xa4
  10631c:	e58d302c 	str	r3, [sp, #44]	; 0x2c
  106320:	c1a03001 	movgt	r3, r1
  106324:	ca000003 	bgt	106338 <_vfprintf_r+0x1738>
  106328:	ea000018 	b	106390 <_vfprintf_r+0x1790>
  10632c:	e2499010 	sub	r9, r9, #16
  106330:	e3590010 	cmp	r9, #16
  106334:	da000014 	ble	10638c <_vfprintf_r+0x178c>
  106338:	e2833001 	add	r3, r3, #1
  10633c:	e2822010 	add	r2, r2, #16
  106340:	e3530007 	cmp	r3, #7
  106344:	e58b7000 	str	r7, [fp]
  106348:	e58b6004 	str	r6, [fp, #4]
  10634c:	d28bb008 	addle	fp, fp, #8
  106350:	e58d30a4 	str	r3, [sp, #164]	; 0xa4
  106354:	e58d20a8 	str	r2, [sp, #168]	; 0xa8
  106358:	dafffff3 	ble	10632c <_vfprintf_r+0x172c>
  10635c:	e28d20a0 	add	r2, sp, #160	; 0xa0
  106360:	e1a01004 	mov	r1, r4
  106364:	e1a0000a 	mov	r0, sl
  106368:	e28db0ac 	add	fp, sp, #172	; 0xac
  10636c:	eb001fc2 	bl	10e27c <__sprint_r>
  106370:	e3500000 	cmp	r0, #0
  106374:	1afffb2d 	bne	105030 <_vfprintf_r+0x430>
  106378:	e2499010 	sub	r9, r9, #16
  10637c:	e59d20a8 	ldr	r2, [sp, #168]	; 0xa8
  106380:	e3590010 	cmp	r9, #16
  106384:	e59d30a4 	ldr	r3, [sp, #164]	; 0xa4
  106388:	caffffea 	bgt	106338 <_vfprintf_r+0x1738>
  10638c:	e1a01003 	mov	r1, r3
  106390:	e2811001 	add	r1, r1, #1
  106394:	e59d302c 	ldr	r3, [sp, #44]	; 0x2c
  106398:	e3510007 	cmp	r1, #7
  10639c:	e0822009 	add	r2, r2, r9
  1063a0:	e58d10a4 	str	r1, [sp, #164]	; 0xa4
  1063a4:	e58d20a8 	str	r2, [sp, #168]	; 0xa8
  1063a8:	e88b0208 	stm	fp, {r3, r9}
  1063ac:	ca00026a 	bgt	106d5c <_vfprintf_r+0x215c>
  1063b0:	e59d304c 	ldr	r3, [sp, #76]	; 0x4c
  1063b4:	e28bb008 	add	fp, fp, #8
  1063b8:	e5d31000 	ldrb	r1, [r3]
  1063bc:	e59d3044 	ldr	r3, [sp, #68]	; 0x44
  1063c0:	e0855001 	add	r5, r5, r1
  1063c4:	e59d003c 	ldr	r0, [sp, #60]	; 0x3c
  1063c8:	e3500000 	cmp	r0, #0
  1063cc:	d3530000 	cmple	r3, #0
  1063d0:	caffff9e 	bgt	106250 <_vfprintf_r+0x1650>
  1063d4:	e1a0900b 	mov	r9, fp
  1063d8:	e59db030 	ldr	fp, [sp, #48]	; 0x30
  1063dc:	e1a04005 	mov	r4, r5
  1063e0:	e59d1018 	ldr	r1, [sp, #24]
  1063e4:	e1a03004 	mov	r3, r4
  1063e8:	e1540001 	cmp	r4, r1
  1063ec:	21a03001 	movcs	r3, r1
  1063f0:	e1a04003 	mov	r4, r3
  1063f4:	e59d107c 	ldr	r1, [sp, #124]	; 0x7c
  1063f8:	e59d3048 	ldr	r3, [sp, #72]	; 0x48
  1063fc:	e1510003 	cmp	r1, r3
  106400:	aa000299 	bge	106e6c <_vfprintf_r+0x226c>
  106404:	e59d30a4 	ldr	r3, [sp, #164]	; 0xa4
  106408:	e59d0054 	ldr	r0, [sp, #84]	; 0x54
  10640c:	e2833001 	add	r3, r3, #1
  106410:	e59dc050 	ldr	ip, [sp, #80]	; 0x50
  106414:	e3530007 	cmp	r3, #7
  106418:	e0822000 	add	r2, r2, r0
  10641c:	e5890004 	str	r0, [r9, #4]
  106420:	e589c000 	str	ip, [r9]
  106424:	d2899008 	addle	r9, r9, #8
  106428:	e58d20a8 	str	r2, [sp, #168]	; 0xa8
  10642c:	e58d30a4 	str	r3, [sp, #164]	; 0xa4
  106430:	ca0003c7 	bgt	107354 <_vfprintf_r+0x2754>
  106434:	e59dc018 	ldr	ip, [sp, #24]
  106438:	e1a00004 	mov	r0, r4
  10643c:	e064300c 	rsb	r3, r4, ip
  106440:	e59dc048 	ldr	ip, [sp, #72]	; 0x48
  106444:	e061100c 	rsb	r1, r1, ip
  106448:	e1510003 	cmp	r1, r3
  10644c:	b1a04001 	movlt	r4, r1
  106450:	a1a04003 	movge	r4, r3
  106454:	e3540000 	cmp	r4, #0
  106458:	da0003b1 	ble	107324 <_vfprintf_r+0x2724>
  10645c:	e59d30a4 	ldr	r3, [sp, #164]	; 0xa4
  106460:	e0822004 	add	r2, r2, r4
  106464:	e5890000 	str	r0, [r9]
  106468:	e2833001 	add	r3, r3, #1
  10646c:	e58d20a8 	str	r2, [sp, #168]	; 0xa8
  106470:	e3530007 	cmp	r3, #7
  106474:	e5894004 	str	r4, [r9, #4]
  106478:	e58d30a4 	str	r3, [sp, #164]	; 0xa4
  10647c:	ca0003be 	bgt	10737c <_vfprintf_r+0x277c>
  106480:	e2899008 	add	r9, r9, #8
  106484:	e1a03001 	mov	r3, r1
  106488:	e3540000 	cmp	r4, #0
  10648c:	a0644003 	rsbge	r4, r4, r3
  106490:	b1a04003 	movlt	r4, r3
  106494:	e3540000 	cmp	r4, #0
  106498:	dafffd90 	ble	105ae0 <_vfprintf_r+0xee0>
  10649c:	e3540010 	cmp	r4, #16
  1064a0:	e59d30a4 	ldr	r3, [sp, #164]	; 0xa4
  1064a4:	e59f6c1c 	ldr	r6, [pc, #3100]	; 1070c8 <_vfprintf_r+0x24c8>
  1064a8:	c3a05010 	movgt	r5, #16
  1064ac:	c59d700c 	ldrgt	r7, [sp, #12]
  1064b0:	ca000003 	bgt	1064c4 <_vfprintf_r+0x18c4>
  1064b4:	eaffff39 	b	1061a0 <_vfprintf_r+0x15a0>
  1064b8:	e2444010 	sub	r4, r4, #16
  1064bc:	e3540010 	cmp	r4, #16
  1064c0:	daffff36 	ble	1061a0 <_vfprintf_r+0x15a0>
  1064c4:	e2833001 	add	r3, r3, #1
  1064c8:	e2822010 	add	r2, r2, #16
  1064cc:	e3530007 	cmp	r3, #7
  1064d0:	e5896000 	str	r6, [r9]
  1064d4:	e5895004 	str	r5, [r9, #4]
  1064d8:	d2899008 	addle	r9, r9, #8
  1064dc:	e58d30a4 	str	r3, [sp, #164]	; 0xa4
  1064e0:	e58d20a8 	str	r2, [sp, #168]	; 0xa8
  1064e4:	dafffff3 	ble	1064b8 <_vfprintf_r+0x18b8>
  1064e8:	e28d20a0 	add	r2, sp, #160	; 0xa0
  1064ec:	e1a01007 	mov	r1, r7
  1064f0:	e1a0000a 	mov	r0, sl
  1064f4:	e28d90ac 	add	r9, sp, #172	; 0xac
  1064f8:	eb001f5f 	bl	10e27c <__sprint_r>
  1064fc:	e3500000 	cmp	r0, #0
  106500:	1afffaca 	bne	105030 <_vfprintf_r+0x430>
  106504:	e59d20a8 	ldr	r2, [sp, #168]	; 0xa8
  106508:	e59d30a4 	ldr	r3, [sp, #164]	; 0xa4
  10650c:	eaffffe9 	b	1064b8 <_vfprintf_r+0x18b8>
  106510:	e59d3008 	ldr	r3, [sp, #8]
  106514:	e3130001 	tst	r3, #1
  106518:	1afffe50 	bne	105e60 <_vfprintf_r+0x1260>
  10651c:	e59d102c 	ldr	r1, [sp, #44]	; 0x2c
  106520:	e2822001 	add	r2, r2, #1
  106524:	e59d30a4 	ldr	r3, [sp, #164]	; 0xa4
  106528:	e58d20a8 	str	r2, [sp, #168]	; 0xa8
  10652c:	e5891000 	str	r1, [r9]
  106530:	e3a01001 	mov	r1, #1
  106534:	e0833001 	add	r3, r3, r1
  106538:	e58d30a4 	str	r3, [sp, #164]	; 0xa4
  10653c:	e3530007 	cmp	r3, #7
  106540:	e5891004 	str	r1, [r9, #4]
  106544:	dafffe6a 	ble	105ef4 <_vfprintf_r+0x12f4>
  106548:	e28d20a0 	add	r2, sp, #160	; 0xa0
  10654c:	e59d100c 	ldr	r1, [sp, #12]
  106550:	e1a0000a 	mov	r0, sl
  106554:	eb001f48 	bl	10e27c <__sprint_r>
  106558:	e3500000 	cmp	r0, #0
  10655c:	1afffab3 	bne	105030 <_vfprintf_r+0x430>
  106560:	e59d20a8 	ldr	r2, [sp, #168]	; 0xa8
  106564:	e28d90ac 	add	r9, sp, #172	; 0xac
  106568:	e59d30a4 	ldr	r3, [sp, #164]	; 0xa4
  10656c:	eafffe61 	b	105ef8 <_vfprintf_r+0x12f8>
  106570:	e59d1028 	ldr	r1, [sp, #40]	; 0x28
  106574:	e3a02001 	mov	r2, #1
  106578:	e3a05000 	mov	r5, #0
  10657c:	e2811004 	add	r1, r1, #4
  106580:	e5113004 	ldr	r3, [r1, #-4]
  106584:	e58d1028 	str	r1, [sp, #40]	; 0x28
  106588:	e1a04003 	mov	r4, r3
  10658c:	e2933000 	adds	r3, r3, #0
  106590:	13a03001 	movne	r3, #1
  106594:	eafffad5 	b	1050f0 <_vfprintf_r+0x4f0>
  106598:	e5934000 	ldr	r4, [r3]
  10659c:	e2833004 	add	r3, r3, #4
  1065a0:	e58d3028 	str	r3, [sp, #40]	; 0x28
  1065a4:	e1a05fc4 	asr	r5, r4, #31
  1065a8:	e1a02004 	mov	r2, r4
  1065ac:	e1a03005 	mov	r3, r5
  1065b0:	eafffb4c 	b	1052e8 <_vfprintf_r+0x6e8>
  1065b4:	e28d20a0 	add	r2, sp, #160	; 0xa0
  1065b8:	e59d100c 	ldr	r1, [sp, #12]
  1065bc:	e1a0000a 	mov	r0, sl
  1065c0:	eb001f2d 	bl	10e27c <__sprint_r>
  1065c4:	e3500000 	cmp	r0, #0
  1065c8:	1afffa98 	bne	105030 <_vfprintf_r+0x430>
  1065cc:	e59d20a8 	ldr	r2, [sp, #168]	; 0xa8
  1065d0:	e28d90ac 	add	r9, sp, #172	; 0xac
  1065d4:	e59d30a4 	ldr	r3, [sp, #164]	; 0xa4
  1065d8:	eafffe2c 	b	105e90 <_vfprintf_r+0x1290>
  1065dc:	e28d20a0 	add	r2, sp, #160	; 0xa0
  1065e0:	e59d100c 	ldr	r1, [sp, #12]
  1065e4:	e1a0000a 	mov	r0, sl
  1065e8:	eb001f23 	bl	10e27c <__sprint_r>
  1065ec:	e3500000 	cmp	r0, #0
  1065f0:	1afffa8e 	bne	105030 <_vfprintf_r+0x430>
  1065f4:	e59d20a8 	ldr	r2, [sp, #168]	; 0xa8
  1065f8:	e28d90ac 	add	r9, sp, #172	; 0xac
  1065fc:	e59d30a4 	ldr	r3, [sp, #164]	; 0xa4
  106600:	eafffe2c 	b	105eb8 <_vfprintf_r+0x12b8>
  106604:	e2833001 	add	r3, r3, #1
  106608:	e0822004 	add	r2, r2, r4
  10660c:	e3530007 	cmp	r3, #7
  106610:	e58d30a4 	str	r3, [sp, #164]	; 0xa4
  106614:	e58d20a8 	str	r2, [sp, #168]	; 0xa8
  106618:	e5896000 	str	r6, [r9]
  10661c:	e5894004 	str	r4, [r9, #4]
  106620:	dafffe33 	ble	105ef4 <_vfprintf_r+0x12f4>
  106624:	eaffffc7 	b	106548 <_vfprintf_r+0x1948>
  106628:	e59d5028 	ldr	r5, [sp, #40]	; 0x28
  10662c:	e28d40ec 	add	r4, sp, #236	; 0xec
  106630:	e3a02008 	mov	r2, #8
  106634:	e3a01000 	mov	r1, #0
  106638:	e28d0098 	add	r0, sp, #152	; 0x98
  10663c:	e2856004 	add	r6, r5, #4
  106640:	eb001698 	bl	10c0a8 <memset>
  106644:	e5952000 	ldr	r2, [r5]
  106648:	e28d3098 	add	r3, sp, #152	; 0x98
  10664c:	e1a01004 	mov	r1, r4
  106650:	e1a0000a 	mov	r0, sl
  106654:	eb00042d 	bl	107710 <_wcrtomb_r>
  106658:	e3700001 	cmn	r0, #1
  10665c:	e1a05000 	mov	r5, r0
  106660:	0a0003e9 	beq	10760c <_vfprintf_r+0x2a0c>
  106664:	e58d6028 	str	r6, [sp, #40]	; 0x28
  106668:	e1c03fc0 	bic	r3, r0, r0, asr #31
  10666c:	eafffc54 	b	1057c4 <_vfprintf_r+0xbc4>
  106670:	e59d3008 	ldr	r3, [sp, #8]
  106674:	e28d2e15 	add	r2, sp, #336	; 0x150
  106678:	e58d7010 	str	r7, [sp, #16]
  10667c:	e2036b01 	and	r6, r3, #1024	; 0x400
  106680:	e3a03000 	mov	r3, #0
  106684:	e58d9018 	str	r9, [sp, #24]
  106688:	e1a07002 	mov	r7, r2
  10668c:	e58da024 	str	sl, [sp, #36]	; 0x24
  106690:	e1a09003 	mov	r9, r3
  106694:	e59da04c 	ldr	sl, [sp, #76]	; 0x4c
  106698:	ea000008 	b	1066c0 <_vfprintf_r+0x1ac0>
  10669c:	e1a00004 	mov	r0, r4
  1066a0:	e1a01005 	mov	r1, r5
  1066a4:	e3a03000 	mov	r3, #0
  1066a8:	e3a0200a 	mov	r2, #10
  1066ac:	eb0028bb 	bl	1109a0 <__aeabi_uldivmod>
  1066b0:	e1a04000 	mov	r4, r0
  1066b4:	e1a05001 	mov	r5, r1
  1066b8:	e1943005 	orrs	r3, r4, r5
  1066bc:	0a000025 	beq	106758 <_vfprintf_r+0x1b58>
  1066c0:	e3a0200a 	mov	r2, #10
  1066c4:	e3a03000 	mov	r3, #0
  1066c8:	e1a00004 	mov	r0, r4
  1066cc:	e1a01005 	mov	r1, r5
  1066d0:	eb0028b2 	bl	1109a0 <__aeabi_uldivmod>
  1066d4:	e3560000 	cmp	r6, #0
  1066d8:	e2471001 	sub	r1, r7, #1
  1066dc:	e2899001 	add	r9, r9, #1
  1066e0:	e2822030 	add	r2, r2, #48	; 0x30
  1066e4:	e5472001 	strb	r2, [r7, #-1]
  1066e8:	01a07001 	moveq	r7, r1
  1066ec:	0affffea 	beq	10669c <_vfprintf_r+0x1a9c>
  1066f0:	e3550000 	cmp	r5, #0
  1066f4:	e5da2000 	ldrb	r2, [sl]
  1066f8:	03540009 	cmpeq	r4, #9
  1066fc:	e1a07001 	mov	r7, r1
  106700:	83a03001 	movhi	r3, #1
  106704:	93a03000 	movls	r3, #0
  106708:	e35200ff 	cmp	r2, #255	; 0xff
  10670c:	03a03000 	moveq	r3, #0
  106710:	12033001 	andne	r3, r3, #1
  106714:	e1590002 	cmp	r9, r2
  106718:	13a03000 	movne	r3, #0
  10671c:	02033001 	andeq	r3, r3, #1
  106720:	e3530000 	cmp	r3, #0
  106724:	0affffdc 	beq	10669c <_vfprintf_r+0x1a9c>
  106728:	e59d305c 	ldr	r3, [sp, #92]	; 0x5c
  10672c:	e3a09000 	mov	r9, #0
  106730:	e0637001 	rsb	r7, r3, r1
  106734:	e59d1060 	ldr	r1, [sp, #96]	; 0x60
  106738:	e1a02003 	mov	r2, r3
  10673c:	e1a00007 	mov	r0, r7
  106740:	eb001dee 	bl	10df00 <strncpy>
  106744:	e5da3001 	ldrb	r3, [sl, #1]
  106748:	e1530009 	cmp	r3, r9
  10674c:	128aa001 	addne	sl, sl, #1
  106750:	01a09003 	moveq	r9, r3
  106754:	eaffffd0 	b	10669c <_vfprintf_r+0x1a9c>
  106758:	e28d2e15 	add	r2, sp, #336	; 0x150
  10675c:	e1a03007 	mov	r3, r7
  106760:	e58d702c 	str	r7, [sp, #44]	; 0x2c
  106764:	e0635002 	rsb	r5, r3, r2
  106768:	e58da04c 	str	sl, [sp, #76]	; 0x4c
  10676c:	e58d9048 	str	r9, [sp, #72]	; 0x48
  106770:	e59d7010 	ldr	r7, [sp, #16]
  106774:	e59d9018 	ldr	r9, [sp, #24]
  106778:	e59da024 	ldr	sl, [sp, #36]	; 0x24
  10677c:	eafffa79 	b	105168 <_vfprintf_r+0x568>
  106780:	e3530030 	cmp	r3, #48	; 0x30
  106784:	0a000235 	beq	107060 <_vfprintf_r+0x2460>
  106788:	e59d302c 	ldr	r3, [sp, #44]	; 0x2c
  10678c:	e28d1e15 	add	r1, sp, #336	; 0x150
  106790:	e2433001 	sub	r3, r3, #1
  106794:	e58d302c 	str	r3, [sp, #44]	; 0x2c
  106798:	e1a02003 	mov	r2, r3
  10679c:	e3a03030 	mov	r3, #48	; 0x30
  1067a0:	e0625001 	rsb	r5, r2, r1
  1067a4:	e5403001 	strb	r3, [r0, #-1]
  1067a8:	eafffa6e 	b	105168 <_vfprintf_r+0x568>
  1067ac:	e2744000 	rsbs	r4, r4, #0
  1067b0:	e3a0302d 	mov	r3, #45	; 0x2d
  1067b4:	e2e55000 	rsc	r5, r5, #0
  1067b8:	e5cd3077 	strb	r3, [sp, #119]	; 0x77
  1067bc:	e1942005 	orrs	r2, r4, r5
  1067c0:	e3a02001 	mov	r2, #1
  1067c4:	11a03002 	movne	r3, r2
  1067c8:	03a03000 	moveq	r3, #0
  1067cc:	eafffa49 	b	1050f8 <_vfprintf_r+0x4f8>
  1067d0:	e28d20a0 	add	r2, sp, #160	; 0xa0
  1067d4:	e1a01004 	mov	r1, r4
  1067d8:	e1a0000a 	mov	r0, sl
  1067dc:	eb001ea6 	bl	10e27c <__sprint_r>
  1067e0:	e3500000 	cmp	r0, #0
  1067e4:	1afffa11 	bne	105030 <_vfprintf_r+0x430>
  1067e8:	e59d20a8 	ldr	r2, [sp, #168]	; 0xa8
  1067ec:	e28db0ac 	add	fp, sp, #172	; 0xac
  1067f0:	eafffeac 	b	1062a8 <_vfprintf_r+0x16a8>
  1067f4:	e1a0100c 	mov	r1, ip
  1067f8:	eafffebf 	b	1062fc <_vfprintf_r+0x16fc>
  1067fc:	e59d3008 	ldr	r3, [sp, #8]
  106800:	e3130040 	tst	r3, #64	; 0x40
  106804:	0a000180 	beq	106e0c <_vfprintf_r+0x220c>
  106808:	e59d3028 	ldr	r3, [sp, #40]	; 0x28
  10680c:	e3a05000 	mov	r5, #0
  106810:	e2833004 	add	r3, r3, #4
  106814:	e15340b4 	ldrh	r4, [r3, #-4]
  106818:	e58d3028 	str	r3, [sp, #40]	; 0x28
  10681c:	eafffac4 	b	105334 <_vfprintf_r+0x734>
  106820:	e59d3008 	ldr	r3, [sp, #8]
  106824:	e3130040 	tst	r3, #64	; 0x40
  106828:	0a00016b 	beq	106ddc <_vfprintf_r+0x21dc>
  10682c:	e59d3028 	ldr	r3, [sp, #40]	; 0x28
  106830:	e3a05000 	mov	r5, #0
  106834:	e2833004 	add	r3, r3, #4
  106838:	e15340b4 	ldrh	r4, [r3, #-4]
  10683c:	e58d3028 	str	r3, [sp, #40]	; 0x28
  106840:	eafffad1 	b	10538c <_vfprintf_r+0x78c>
  106844:	eeb00b48 	vmov.f64	d0, d8
  106848:	eb001b2c 	bl	10d500 <__fpclassifyd>
  10684c:	e3500000 	cmp	r0, #0
  106850:	0a00014c 	beq	106d88 <_vfprintf_r+0x2188>
  106854:	e59d3038 	ldr	r3, [sp, #56]	; 0x38
  106858:	e3c35020 	bic	r5, r3, #32
  10685c:	e2433061 	sub	r3, r3, #97	; 0x61
  106860:	e16f3f13 	clz	r3, r3
  106864:	e1a032a3 	lsr	r3, r3, #5
  106868:	e58d3030 	str	r3, [sp, #48]	; 0x30
  10686c:	e2453041 	sub	r3, r5, #65	; 0x41
  106870:	e16f3f13 	clz	r3, r3
  106874:	e1a032a3 	lsr	r3, r3, #5
  106878:	e58d3010 	str	r3, [sp, #16]
  10687c:	e3530000 	cmp	r3, #0
  106880:	0a000264 	beq	107218 <_vfprintf_r+0x2618>
  106884:	e59d3030 	ldr	r3, [sp, #48]	; 0x30
  106888:	e3530000 	cmp	r3, #0
  10688c:	e3a03030 	mov	r3, #48	; 0x30
  106890:	e5cd3078 	strb	r3, [sp, #120]	; 0x78
  106894:	e59d3008 	ldr	r3, [sp, #8]
  106898:	e3834002 	orr	r4, r3, #2
  10689c:	13a03078 	movne	r3, #120	; 0x78
  1068a0:	03a03058 	moveq	r3, #88	; 0x58
  1068a4:	e3570063 	cmp	r7, #99	; 0x63
  1068a8:	e5cd3079 	strb	r3, [sp, #121]	; 0x79
  1068ac:	ca00033c 	bgt	1075a4 <_vfprintf_r+0x29a4>
  1068b0:	e3a03000 	mov	r3, #0
  1068b4:	e58d3024 	str	r3, [sp, #36]	; 0x24
  1068b8:	e28d30ec 	add	r3, sp, #236	; 0xec
  1068bc:	e58d302c 	str	r3, [sp, #44]	; 0x2c
  1068c0:	ee183a90 	vmov	r3, s17
  1068c4:	e3530000 	cmp	r3, #0
  1068c8:	e59d3008 	ldr	r3, [sp, #8]
  1068cc:	e3833c01 	orr	r3, r3, #256	; 0x100
  1068d0:	e3833002 	orr	r3, r3, #2
  1068d4:	e58d3008 	str	r3, [sp, #8]
  1068d8:	ba00032d 	blt	107594 <_vfprintf_r+0x2994>
  1068dc:	eeb00b48 	vmov.f64	d0, d8
  1068e0:	e3a03000 	mov	r3, #0
  1068e4:	e58d3018 	str	r3, [sp, #24]
  1068e8:	e28d007c 	add	r0, sp, #124	; 0x7c
  1068ec:	eb001b21 	bl	10d578 <frexp>
  1068f0:	e59d2030 	ldr	r2, [sp, #48]	; 0x30
  1068f4:	e307e13c 	movw	lr, #28988	; 0x713c
  1068f8:	e59d102c 	ldr	r1, [sp, #44]	; 0x2c
  1068fc:	e340e011 	movt	lr, #17
  106900:	ee200b0b 	vmul.f64	d0, d0, d11
  106904:	eeb50b40 	vcmp.f64	d0, #0.0
  106908:	eef1fa10 	vmrs	APSR_nzcv, fpscr
  10690c:	03a03001 	moveq	r3, #1
  106910:	058d307c 	streq	r3, [sp, #124]	; 0x7c
  106914:	e3520000 	cmp	r2, #0
  106918:	e3073168 	movw	r3, #29032	; 0x7168
  10691c:	e2472001 	sub	r2, r7, #1
  106920:	e3403011 	movt	r3, #17
  106924:	11a0e003 	movne	lr, r3
  106928:	ea000003 	b	10693c <_vfprintf_r+0x1d3c>
  10692c:	eeb50b40 	vcmp.f64	d0, #0.0
  106930:	eef1fa10 	vmrs	APSR_nzcv, fpscr
  106934:	0a00000c 	beq	10696c <_vfprintf_r+0x1d6c>
  106938:	e1a01003 	mov	r1, r3
  10693c:	ee200b09 	vmul.f64	d0, d0, d9
  106940:	e3720001 	cmn	r2, #1
  106944:	e1a03001 	mov	r3, r1
  106948:	e1a00002 	mov	r0, r2
  10694c:	e2422001 	sub	r2, r2, #1
  106950:	eefd6bc0 	vcvt.s32.f64	s13, d0
  106954:	ee16ca90 	vmov	ip, s13
  106958:	eeb87be6 	vcvt.f64.s32	d7, s13
  10695c:	ee300b47 	vsub.f64	d0, d0, d7
  106960:	e7dec00c 	ldrb	ip, [lr, ip]
  106964:	e4c3c001 	strb	ip, [r3], #1
  106968:	1affffef 	bne	10692c <_vfprintf_r+0x1d2c>
  10696c:	eeb40bca 	vcmpe.f64	d0, d10
  106970:	eef1fa10 	vmrs	APSR_nzcv, fpscr
  106974:	ca0002d7 	bgt	1074d8 <_vfprintf_r+0x28d8>
  106978:	eeb40b4a 	vcmp.f64	d0, d10
  10697c:	eef1fa10 	vmrs	APSR_nzcv, fpscr
  106980:	1a000002 	bne	106990 <_vfprintf_r+0x1d90>
  106984:	ee162a90 	vmov	r2, s13
  106988:	e3120001 	tst	r2, #1
  10698c:	1a0002d1 	bne	1074d8 <_vfprintf_r+0x28d8>
  106990:	e3500000 	cmp	r0, #0
  106994:	a2432001 	subge	r2, r3, #1
  106998:	a083c000 	addge	ip, r3, r0
  10699c:	a3a01030 	movge	r1, #48	; 0x30
  1069a0:	ba000004 	blt	1069b8 <_vfprintf_r+0x1db8>
  1069a4:	e5e21001 	strb	r1, [r2, #1]!
  1069a8:	e152000c 	cmp	r2, ip
  1069ac:	1afffffc 	bne	1069a4 <_vfprintf_r+0x1da4>
  1069b0:	e2800001 	add	r0, r0, #1
  1069b4:	e0833000 	add	r3, r3, r0
  1069b8:	e59d202c 	ldr	r2, [sp, #44]	; 0x2c
  1069bc:	e0623003 	rsb	r3, r2, r3
  1069c0:	e58d3048 	str	r3, [sp, #72]	; 0x48
  1069c4:	e3550047 	cmp	r5, #71	; 0x47
  1069c8:	1a0001bf 	bne	1070cc <_vfprintf_r+0x24cc>
  1069cc:	e59d107c 	ldr	r1, [sp, #124]	; 0x7c
  1069d0:	e3710003 	cmn	r1, #3
  1069d4:	a1570001 	cmpge	r7, r1
  1069d8:	ba000248 	blt	107300 <_vfprintf_r+0x2700>
  1069dc:	e3a03067 	mov	r3, #103	; 0x67
  1069e0:	e58d3038 	str	r3, [sp, #56]	; 0x38
  1069e4:	e58d1040 	str	r1, [sp, #64]	; 0x40
  1069e8:	e59d3038 	ldr	r3, [sp, #56]	; 0x38
  1069ec:	e3530066 	cmp	r3, #102	; 0x66
  1069f0:	0a00019e 	beq	107070 <_vfprintf_r+0x2470>
  1069f4:	e59d3048 	ldr	r3, [sp, #72]	; 0x48
  1069f8:	e59d2040 	ldr	r2, [sp, #64]	; 0x40
  1069fc:	e1530002 	cmp	r3, r2
  106a00:	ca00028e 	bgt	107440 <_vfprintf_r+0x2840>
  106a04:	e3140001 	tst	r4, #1
  106a08:	11a03002 	movne	r3, r2
  106a0c:	12835001 	addne	r5, r3, #1
  106a10:	059d5040 	ldreq	r5, [sp, #64]	; 0x40
  106a14:	e3140b01 	tst	r4, #1024	; 0x400
  106a18:	0a0001a1 	beq	1070a4 <_vfprintf_r+0x24a4>
  106a1c:	e59d3040 	ldr	r3, [sp, #64]	; 0x40
  106a20:	e3530000 	cmp	r3, #0
  106a24:	da00019e 	ble	1070a4 <_vfprintf_r+0x24a4>
  106a28:	e3a03000 	mov	r3, #0
  106a2c:	e58d303c 	str	r3, [sp, #60]	; 0x3c
  106a30:	e1a02003 	mov	r2, r3
  106a34:	e59d304c 	ldr	r3, [sp, #76]	; 0x4c
  106a38:	e58d2044 	str	r2, [sp, #68]	; 0x44
  106a3c:	e59d2040 	ldr	r2, [sp, #64]	; 0x40
  106a40:	e5d33000 	ldrb	r3, [r3]
  106a44:	ea00000c 	b	106a7c <_vfprintf_r+0x1e7c>
  106a48:	e1520003 	cmp	r2, r3
  106a4c:	da00000c 	ble	106a84 <_vfprintf_r+0x1e84>
  106a50:	e5d61001 	ldrb	r1, [r6, #1]
  106a54:	e0632002 	rsb	r2, r3, r2
  106a58:	e3510000 	cmp	r1, #0
  106a5c:	12866001 	addne	r6, r6, #1
  106a60:	159d3044 	ldrne	r3, [sp, #68]	; 0x44
  106a64:	059d103c 	ldreq	r1, [sp, #60]	; 0x3c
  106a68:	12833001 	addne	r3, r3, #1
  106a6c:	158d3044 	strne	r3, [sp, #68]	; 0x44
  106a70:	11a03001 	movne	r3, r1
  106a74:	02811001 	addeq	r1, r1, #1
  106a78:	058d103c 	streq	r1, [sp, #60]	; 0x3c
  106a7c:	e35300ff 	cmp	r3, #255	; 0xff
  106a80:	1afffff0 	bne	106a48 <_vfprintf_r+0x1e48>
  106a84:	e58d2040 	str	r2, [sp, #64]	; 0x40
  106a88:	e59d3044 	ldr	r3, [sp, #68]	; 0x44
  106a8c:	e59d203c 	ldr	r2, [sp, #60]	; 0x3c
  106a90:	e58d604c 	str	r6, [sp, #76]	; 0x4c
  106a94:	e0833002 	add	r3, r3, r2
  106a98:	e59d205c 	ldr	r2, [sp, #92]	; 0x5c
  106a9c:	e0255392 	mla	r5, r2, r3, r5
  106aa0:	e1c53fc5 	bic	r3, r5, r5, asr #31
  106aa4:	e59d2018 	ldr	r2, [sp, #24]
  106aa8:	e3520000 	cmp	r2, #0
  106aac:	0a000181 	beq	1070b8 <_vfprintf_r+0x24b8>
  106ab0:	e3a0202d 	mov	r2, #45	; 0x2d
  106ab4:	e58d3010 	str	r3, [sp, #16]
  106ab8:	e5cd2077 	strb	r2, [sp, #119]	; 0x77
  106abc:	e1a03002 	mov	r3, r2
  106ac0:	e3a07000 	mov	r7, #0
  106ac4:	eafff9b3 	b	105198 <_vfprintf_r+0x598>
  106ac8:	e59d3008 	ldr	r3, [sp, #8]
  106acc:	e3130010 	tst	r3, #16
  106ad0:	1a000009 	bne	106afc <_vfprintf_r+0x1efc>
  106ad4:	e59d3008 	ldr	r3, [sp, #8]
  106ad8:	e3130040 	tst	r3, #64	; 0x40
  106adc:	0a0001c3 	beq	1071f0 <_vfprintf_r+0x25f0>
  106ae0:	e59d2028 	ldr	r2, [sp, #40]	; 0x28
  106ae4:	e2822004 	add	r2, r2, #4
  106ae8:	e5123004 	ldr	r3, [r2, #-4]
  106aec:	e58d2028 	str	r2, [sp, #40]	; 0x28
  106af0:	e1dd21bc 	ldrh	r2, [sp, #28]
  106af4:	e1c320b0 	strh	r2, [r3]
  106af8:	eafff882 	b	104d08 <_vfprintf_r+0x108>
  106afc:	e59d2028 	ldr	r2, [sp, #40]	; 0x28
  106b00:	e2822004 	add	r2, r2, #4
  106b04:	e5123004 	ldr	r3, [r2, #-4]
  106b08:	e58d2028 	str	r2, [sp, #40]	; 0x28
  106b0c:	e59d201c 	ldr	r2, [sp, #28]
  106b10:	e5832000 	str	r2, [r3]
  106b14:	eafff87b 	b	104d08 <_vfprintf_r+0x108>
  106b18:	e59d302c 	ldr	r3, [sp, #44]	; 0x2c
  106b1c:	e28d4098 	add	r4, sp, #152	; 0x98
  106b20:	e3a02008 	mov	r2, #8
  106b24:	e3a01000 	mov	r1, #0
  106b28:	e1a00004 	mov	r0, r4
  106b2c:	e58d3084 	str	r3, [sp, #132]	; 0x84
  106b30:	eb00155c 	bl	10c0a8 <memset>
  106b34:	e3570000 	cmp	r7, #0
  106b38:	ba000247 	blt	10745c <_vfprintf_r+0x285c>
  106b3c:	e3a06000 	mov	r6, #0
  106b40:	e1a05006 	mov	r5, r6
  106b44:	ea000007 	b	106b68 <_vfprintf_r+0x1f68>
  106b48:	eb0002f0 	bl	107710 <_wcrtomb_r>
  106b4c:	e3700001 	cmn	r0, #1
  106b50:	e0803005 	add	r3, r0, r5
  106b54:	0a0001f4 	beq	10732c <_vfprintf_r+0x272c>
  106b58:	e1530007 	cmp	r3, r7
  106b5c:	ca000009 	bgt	106b88 <_vfprintf_r+0x1f88>
  106b60:	0a0001e4 	beq	1072f8 <_vfprintf_r+0x26f8>
  106b64:	e1a05003 	mov	r5, r3
  106b68:	e59d2084 	ldr	r2, [sp, #132]	; 0x84
  106b6c:	e1a03004 	mov	r3, r4
  106b70:	e28d10ec 	add	r1, sp, #236	; 0xec
  106b74:	e1a0000a 	mov	r0, sl
  106b78:	e7922006 	ldr	r2, [r2, r6]
  106b7c:	e2866004 	add	r6, r6, #4
  106b80:	e3520000 	cmp	r2, #0
  106b84:	1affffef 	bne	106b48 <_vfprintf_r+0x1f48>
  106b88:	e3550000 	cmp	r5, #0
  106b8c:	0a0000ba 	beq	106e7c <_vfprintf_r+0x227c>
  106b90:	e3550063 	cmp	r5, #99	; 0x63
  106b94:	da0001e9 	ble	107340 <_vfprintf_r+0x2740>
  106b98:	e2851001 	add	r1, r5, #1
  106b9c:	e1a0000a 	mov	r0, sl
  106ba0:	ebfff59b 	bl	104214 <_malloc_r>
  106ba4:	e2503000 	subs	r3, r0, #0
  106ba8:	e58d302c 	str	r3, [sp, #44]	; 0x2c
  106bac:	0a0001de 	beq	10732c <_vfprintf_r+0x272c>
  106bb0:	e59d302c 	ldr	r3, [sp, #44]	; 0x2c
  106bb4:	e58d3024 	str	r3, [sp, #36]	; 0x24
  106bb8:	e3a02008 	mov	r2, #8
  106bbc:	e3a01000 	mov	r1, #0
  106bc0:	e1a00004 	mov	r0, r4
  106bc4:	eb001537 	bl	10c0a8 <memset>
  106bc8:	e58d4000 	str	r4, [sp]
  106bcc:	e1a03005 	mov	r3, r5
  106bd0:	e28d2084 	add	r2, sp, #132	; 0x84
  106bd4:	e59d102c 	ldr	r1, [sp, #44]	; 0x2c
  106bd8:	e1a0000a 	mov	r0, sl
  106bdc:	eb000315 	bl	107838 <_wcsrtombs_r>
  106be0:	e1550000 	cmp	r5, r0
  106be4:	1afff90d 	bne	105020 <_vfprintf_r+0x420>
  106be8:	e59d2018 	ldr	r2, [sp, #24]
  106bec:	e3a03000 	mov	r3, #0
  106bf0:	e1a07003 	mov	r7, r3
  106bf4:	e58d303c 	str	r3, [sp, #60]	; 0x3c
  106bf8:	e58d7044 	str	r7, [sp, #68]	; 0x44
  106bfc:	e58d2028 	str	r2, [sp, #40]	; 0x28
  106c00:	e59d202c 	ldr	r2, [sp, #44]	; 0x2c
  106c04:	e58d7040 	str	r7, [sp, #64]	; 0x40
  106c08:	e7c23005 	strb	r3, [r2, r5]
  106c0c:	e1c52fc5 	bic	r2, r5, r5, asr #31
  106c10:	e5dd3077 	ldrb	r3, [sp, #119]	; 0x77
  106c14:	e58d2010 	str	r2, [sp, #16]
  106c18:	eafff95c 	b	105190 <_vfprintf_r+0x590>
  106c1c:	e28d20a0 	add	r2, sp, #160	; 0xa0
  106c20:	e1a01004 	mov	r1, r4
  106c24:	e1a0000a 	mov	r0, sl
  106c28:	eb001d93 	bl	10e27c <__sprint_r>
  106c2c:	e3500000 	cmp	r0, #0
  106c30:	1afff8fe 	bne	105030 <_vfprintf_r+0x430>
  106c34:	e59d304c 	ldr	r3, [sp, #76]	; 0x4c
  106c38:	e28db0ac 	add	fp, sp, #172	; 0xac
  106c3c:	e59d20a8 	ldr	r2, [sp, #168]	; 0xa8
  106c40:	e5d31000 	ldrb	r1, [r3]
  106c44:	e1a0c001 	mov	ip, r1
  106c48:	eafffdab 	b	1062fc <_vfprintf_r+0x16fc>
  106c4c:	e28d20a0 	add	r2, sp, #160	; 0xa0
  106c50:	e59d100c 	ldr	r1, [sp, #12]
  106c54:	e1a0000a 	mov	r0, sl
  106c58:	eb001d87 	bl	10e27c <__sprint_r>
  106c5c:	e3500000 	cmp	r0, #0
  106c60:	1afff8f2 	bne	105030 <_vfprintf_r+0x430>
  106c64:	e59d20a8 	ldr	r2, [sp, #168]	; 0xa8
  106c68:	e28d90ac 	add	r9, sp, #172	; 0xac
  106c6c:	eafffbfd 	b	105c68 <_vfprintf_r+0x1068>
  106c70:	e59d30a4 	ldr	r3, [sp, #164]	; 0xa4
  106c74:	e3071184 	movw	r1, #29060	; 0x7184
  106c78:	e2822001 	add	r2, r2, #1
  106c7c:	e3401011 	movt	r1, #17
  106c80:	e2833001 	add	r3, r3, #1
  106c84:	e5891000 	str	r1, [r9]
  106c88:	e3530007 	cmp	r3, #7
  106c8c:	e58d30a4 	str	r3, [sp, #164]	; 0xa4
  106c90:	e58d20a8 	str	r2, [sp, #168]	; 0xa8
  106c94:	e3a03001 	mov	r3, #1
  106c98:	e5893004 	str	r3, [r9, #4]
  106c9c:	d2899008 	addle	r9, r9, #8
  106ca0:	ca000091 	bgt	106eec <_vfprintf_r+0x22ec>
  106ca4:	e59d3048 	ldr	r3, [sp, #72]	; 0x48
  106ca8:	e1943003 	orrs	r3, r4, r3
  106cac:	0a00007c 	beq	106ea4 <_vfprintf_r+0x22a4>
  106cb0:	e59d30a4 	ldr	r3, [sp, #164]	; 0xa4
  106cb4:	e59d1054 	ldr	r1, [sp, #84]	; 0x54
  106cb8:	e2833001 	add	r3, r3, #1
  106cbc:	e59d0050 	ldr	r0, [sp, #80]	; 0x50
  106cc0:	e3530007 	cmp	r3, #7
  106cc4:	e0822001 	add	r2, r2, r1
  106cc8:	e5891004 	str	r1, [r9, #4]
  106ccc:	e5890000 	str	r0, [r9]
  106cd0:	d2899008 	addle	r9, r9, #8
  106cd4:	e58d20a8 	str	r2, [sp, #168]	; 0xa8
  106cd8:	e58d30a4 	str	r3, [sp, #164]	; 0xa4
  106cdc:	ca0001cc 	bgt	107414 <_vfprintf_r+0x2814>
  106ce0:	e2644000 	rsb	r4, r4, #0
  106ce4:	e3540000 	cmp	r4, #0
  106ce8:	da0000b2 	ble	106fb8 <_vfprintf_r+0x23b8>
  106cec:	e3540010 	cmp	r4, #16
  106cf0:	e59f63d0 	ldr	r6, [pc, #976]	; 1070c8 <_vfprintf_r+0x24c8>
  106cf4:	c3a05010 	movgt	r5, #16
  106cf8:	c59d700c 	ldrgt	r7, [sp, #12]
  106cfc:	ca000003 	bgt	106d10 <_vfprintf_r+0x2110>
  106d00:	ea00009a 	b	106f70 <_vfprintf_r+0x2370>
  106d04:	e2444010 	sub	r4, r4, #16
  106d08:	e3540010 	cmp	r4, #16
  106d0c:	da000097 	ble	106f70 <_vfprintf_r+0x2370>
  106d10:	e2833001 	add	r3, r3, #1
  106d14:	e2822010 	add	r2, r2, #16
  106d18:	e3530007 	cmp	r3, #7
  106d1c:	e5896000 	str	r6, [r9]
  106d20:	e5895004 	str	r5, [r9, #4]
  106d24:	d2899008 	addle	r9, r9, #8
  106d28:	e58d30a4 	str	r3, [sp, #164]	; 0xa4
  106d2c:	e58d20a8 	str	r2, [sp, #168]	; 0xa8
  106d30:	dafffff3 	ble	106d04 <_vfprintf_r+0x2104>
  106d34:	e28d20a0 	add	r2, sp, #160	; 0xa0
  106d38:	e1a01007 	mov	r1, r7
  106d3c:	e1a0000a 	mov	r0, sl
  106d40:	e28d90ac 	add	r9, sp, #172	; 0xac
  106d44:	eb001d4c 	bl	10e27c <__sprint_r>
  106d48:	e3500000 	cmp	r0, #0
  106d4c:	1afff8b7 	bne	105030 <_vfprintf_r+0x430>
  106d50:	e59d20a8 	ldr	r2, [sp, #168]	; 0xa8
  106d54:	e59d30a4 	ldr	r3, [sp, #164]	; 0xa4
  106d58:	eaffffe9 	b	106d04 <_vfprintf_r+0x2104>
  106d5c:	e28d20a0 	add	r2, sp, #160	; 0xa0
  106d60:	e1a01004 	mov	r1, r4
  106d64:	e1a0000a 	mov	r0, sl
  106d68:	eb001d43 	bl	10e27c <__sprint_r>
  106d6c:	e3500000 	cmp	r0, #0
  106d70:	1afff8ae 	bne	105030 <_vfprintf_r+0x430>
  106d74:	e59d304c 	ldr	r3, [sp, #76]	; 0x4c
  106d78:	e28db0ac 	add	fp, sp, #172	; 0xac
  106d7c:	e59d20a8 	ldr	r2, [sp, #168]	; 0xa8
  106d80:	e5d31000 	ldrb	r1, [r3]
  106d84:	eafffd8c 	b	1063bc <_vfprintf_r+0x17bc>
  106d88:	e3a02003 	mov	r2, #3
  106d8c:	e58d2010 	str	r2, [sp, #16]
  106d90:	e1a05002 	mov	r5, r2
  106d94:	e59d2038 	ldr	r2, [sp, #56]	; 0x38
  106d98:	e59d1008 	ldr	r1, [sp, #8]
  106d9c:	e3073160 	movw	r3, #29024	; 0x7160
  106da0:	e3520047 	cmp	r2, #71	; 0x47
  106da4:	e3403011 	movt	r3, #17
  106da8:	e3074164 	movw	r4, #29028	; 0x7164
  106dac:	e3c11080 	bic	r1, r1, #128	; 0x80
  106db0:	e3404011 	movt	r4, #17
  106db4:	e58d0024 	str	r0, [sp, #36]	; 0x24
  106db8:	d1a04003 	movle	r4, r3
  106dbc:	e1a07000 	mov	r7, r0
  106dc0:	e58d1008 	str	r1, [sp, #8]
  106dc4:	e58d003c 	str	r0, [sp, #60]	; 0x3c
  106dc8:	e58d0044 	str	r0, [sp, #68]	; 0x44
  106dcc:	e58d0040 	str	r0, [sp, #64]	; 0x40
  106dd0:	e58d402c 	str	r4, [sp, #44]	; 0x2c
  106dd4:	e5dd3077 	ldrb	r3, [sp, #119]	; 0x77
  106dd8:	eafff8ec 	b	105190 <_vfprintf_r+0x590>
  106ddc:	e59d3008 	ldr	r3, [sp, #8]
  106de0:	e3130c02 	tst	r3, #512	; 0x200
  106de4:	e59d3028 	ldr	r3, [sp, #40]	; 0x28
  106de8:	13a05000 	movne	r5, #0
  106dec:	03a05000 	moveq	r5, #0
  106df0:	05934000 	ldreq	r4, [r3]
  106df4:	02833004 	addeq	r3, r3, #4
  106df8:	15d34000 	ldrbne	r4, [r3]
  106dfc:	12833004 	addne	r3, r3, #4
  106e00:	058d3028 	streq	r3, [sp, #40]	; 0x28
  106e04:	158d3028 	strne	r3, [sp, #40]	; 0x28
  106e08:	eafff95f 	b	10538c <_vfprintf_r+0x78c>
  106e0c:	e59d3008 	ldr	r3, [sp, #8]
  106e10:	e3130c02 	tst	r3, #512	; 0x200
  106e14:	e59d3028 	ldr	r3, [sp, #40]	; 0x28
  106e18:	13a05000 	movne	r5, #0
  106e1c:	03a05000 	moveq	r5, #0
  106e20:	05934000 	ldreq	r4, [r3]
  106e24:	02833004 	addeq	r3, r3, #4
  106e28:	15d34000 	ldrbne	r4, [r3]
  106e2c:	12833004 	addne	r3, r3, #4
  106e30:	058d3028 	streq	r3, [sp, #40]	; 0x28
  106e34:	158d3028 	strne	r3, [sp, #40]	; 0x28
  106e38:	eafff93d 	b	105334 <_vfprintf_r+0x734>
  106e3c:	e59d3028 	ldr	r3, [sp, #40]	; 0x28
  106e40:	e1d340b0 	ldrh	r4, [r3]
  106e44:	eafffa25 	b	1056e0 <_vfprintf_r+0xae0>
  106e48:	e59d3028 	ldr	r3, [sp, #40]	; 0x28
  106e4c:	e1d340f0 	ldrsh	r4, [r3]
  106e50:	eafff972 	b	105420 <_vfprintf_r+0x820>
  106e54:	e59d3008 	ldr	r3, [sp, #8]
  106e58:	e1a01004 	mov	r1, r4
  106e5c:	e3833b01 	orr	r3, r3, #1024	; 0x400
  106e60:	e58d3008 	str	r3, [sp, #8]
  106e64:	e5d43000 	ldrb	r3, [r4]
  106e68:	eafff7dd 	b	104de4 <_vfprintf_r+0x1e4>
  106e6c:	e59d3008 	ldr	r3, [sp, #8]
  106e70:	e3130001 	tst	r3, #1
  106e74:	0afffd6e 	beq	106434 <_vfprintf_r+0x1834>
  106e78:	eafffd61 	b	106404 <_vfprintf_r+0x1804>
  106e7c:	e59d3018 	ldr	r3, [sp, #24]
  106e80:	e1a07005 	mov	r7, r5
  106e84:	e58d5040 	str	r5, [sp, #64]	; 0x40
  106e88:	e58d5010 	str	r5, [sp, #16]
  106e8c:	e58d3028 	str	r3, [sp, #40]	; 0x28
  106e90:	e58d5024 	str	r5, [sp, #36]	; 0x24
  106e94:	e5dd3077 	ldrb	r3, [sp, #119]	; 0x77
  106e98:	e58d503c 	str	r5, [sp, #60]	; 0x3c
  106e9c:	e58d5044 	str	r5, [sp, #68]	; 0x44
  106ea0:	eafff8ba 	b	105190 <_vfprintf_r+0x590>
  106ea4:	e59d3008 	ldr	r3, [sp, #8]
  106ea8:	e3130001 	tst	r3, #1
  106eac:	0afffb0b 	beq	105ae0 <_vfprintf_r+0xee0>
  106eb0:	eaffff7e 	b	106cb0 <_vfprintf_r+0x20b0>
  106eb4:	e59d002c 	ldr	r0, [sp, #44]	; 0x2c
  106eb8:	e1a07004 	mov	r7, r4
  106ebc:	fafff70f 	blx	104b00 <strlen>
  106ec0:	e59d3018 	ldr	r3, [sp, #24]
  106ec4:	e58d3028 	str	r3, [sp, #40]	; 0x28
  106ec8:	e1a05000 	mov	r5, r0
  106ecc:	e1c03fc0 	bic	r3, r0, r0, asr #31
  106ed0:	e58d3010 	str	r3, [sp, #16]
  106ed4:	e58d7024 	str	r7, [sp, #36]	; 0x24
  106ed8:	e58d703c 	str	r7, [sp, #60]	; 0x3c
  106edc:	e58d7044 	str	r7, [sp, #68]	; 0x44
  106ee0:	e58d7040 	str	r7, [sp, #64]	; 0x40
  106ee4:	e5dd3077 	ldrb	r3, [sp, #119]	; 0x77
  106ee8:	eafff8a8 	b	105190 <_vfprintf_r+0x590>
  106eec:	e28d20a0 	add	r2, sp, #160	; 0xa0
  106ef0:	e59d100c 	ldr	r1, [sp, #12]
  106ef4:	e1a0000a 	mov	r0, sl
  106ef8:	eb001cdf 	bl	10e27c <__sprint_r>
  106efc:	e3500000 	cmp	r0, #0
  106f00:	1afff84a 	bne	105030 <_vfprintf_r+0x430>
  106f04:	e59d407c 	ldr	r4, [sp, #124]	; 0x7c
  106f08:	e28d90ac 	add	r9, sp, #172	; 0xac
  106f0c:	e59d20a8 	ldr	r2, [sp, #168]	; 0xa8
  106f10:	eaffff63 	b	106ca4 <_vfprintf_r+0x20a4>
  106f14:	e59d30a8 	ldr	r3, [sp, #168]	; 0xa8
  106f18:	e3530000 	cmp	r3, #0
  106f1c:	0afff849 	beq	105048 <_vfprintf_r+0x448>
  106f20:	e1a0000a 	mov	r0, sl
  106f24:	e28d20a0 	add	r2, sp, #160	; 0xa0
  106f28:	e59d100c 	ldr	r1, [sp, #12]
  106f2c:	eb001cd2 	bl	10e27c <__sprint_r>
  106f30:	eafff844 	b	105048 <_vfprintf_r+0x448>
  106f34:	e59d2020 	ldr	r2, [sp, #32]
  106f38:	e1a01004 	mov	r1, r4
  106f3c:	e58d3028 	str	r3, [sp, #40]	; 0x28
  106f40:	e2622000 	rsb	r2, r2, #0
  106f44:	e58d2020 	str	r2, [sp, #32]
  106f48:	eafff8d4 	b	1052a0 <_vfprintf_r+0x6a0>
  106f4c:	e28d20a0 	add	r2, sp, #160	; 0xa0
  106f50:	e59d100c 	ldr	r1, [sp, #12]
  106f54:	e1a0000a 	mov	r0, sl
  106f58:	eb001cc7 	bl	10e27c <__sprint_r>
  106f5c:	e3500000 	cmp	r0, #0
  106f60:	1afff832 	bne	105030 <_vfprintf_r+0x430>
  106f64:	e59d20a8 	ldr	r2, [sp, #168]	; 0xa8
  106f68:	e28d90ac 	add	r9, sp, #172	; 0xac
  106f6c:	eafffb50 	b	105cb4 <_vfprintf_r+0x10b4>
  106f70:	e2833001 	add	r3, r3, #1
  106f74:	e0822004 	add	r2, r2, r4
  106f78:	e3530007 	cmp	r3, #7
  106f7c:	e5896000 	str	r6, [r9]
  106f80:	e5894004 	str	r4, [r9, #4]
  106f84:	d2899008 	addle	r9, r9, #8
  106f88:	e58d30a4 	str	r3, [sp, #164]	; 0xa4
  106f8c:	e58d20a8 	str	r2, [sp, #168]	; 0xa8
  106f90:	da000008 	ble	106fb8 <_vfprintf_r+0x23b8>
  106f94:	e28d20a0 	add	r2, sp, #160	; 0xa0
  106f98:	e59d100c 	ldr	r1, [sp, #12]
  106f9c:	e1a0000a 	mov	r0, sl
  106fa0:	eb001cb5 	bl	10e27c <__sprint_r>
  106fa4:	e3500000 	cmp	r0, #0
  106fa8:	1afff820 	bne	105030 <_vfprintf_r+0x430>
  106fac:	e59d20a8 	ldr	r2, [sp, #168]	; 0xa8
  106fb0:	e28d90ac 	add	r9, sp, #172	; 0xac
  106fb4:	e59d30a4 	ldr	r3, [sp, #164]	; 0xa4
  106fb8:	e2833001 	add	r3, r3, #1
  106fbc:	e59d1048 	ldr	r1, [sp, #72]	; 0x48
  106fc0:	e3530007 	cmp	r3, #7
  106fc4:	e58d30a4 	str	r3, [sp, #164]	; 0xa4
  106fc8:	e59d302c 	ldr	r3, [sp, #44]	; 0x2c
  106fcc:	e0822001 	add	r2, r2, r1
  106fd0:	e5891004 	str	r1, [r9, #4]
  106fd4:	e58d20a8 	str	r2, [sp, #168]	; 0xa8
  106fd8:	e5893000 	str	r3, [r9]
  106fdc:	dafffabe 	ble	105adc <_vfprintf_r+0xedc>
  106fe0:	eafffbce 	b	105f20 <_vfprintf_r+0x1320>
  106fe4:	e3066978 	movw	r6, #27000	; 0x6978
  106fe8:	e59d20a8 	ldr	r2, [sp, #168]	; 0xa8
  106fec:	e3406011 	movt	r6, #17
  106ff0:	e59d10a4 	ldr	r1, [sp, #164]	; 0xa4
  106ff4:	eafff89d 	b	105270 <_vfprintf_r+0x670>
  106ff8:	e28d20a0 	add	r2, sp, #160	; 0xa0
  106ffc:	e59d100c 	ldr	r1, [sp, #12]
  107000:	e1a0000a 	mov	r0, sl
  107004:	eb001c9c 	bl	10e27c <__sprint_r>
  107008:	e3500000 	cmp	r0, #0
  10700c:	1afff807 	bne	105030 <_vfprintf_r+0x430>
  107010:	e59d20a8 	ldr	r2, [sp, #168]	; 0xa8
  107014:	e28d90ac 	add	r9, sp, #172	; 0xac
  107018:	eafffc10 	b	106060 <_vfprintf_r+0x1460>
  10701c:	e3570006 	cmp	r7, #6
  107020:	e59d1018 	ldr	r1, [sp, #24]
  107024:	e1a03002 	mov	r3, r2
  107028:	e58d2024 	str	r2, [sp, #36]	; 0x24
  10702c:	31a05007 	movcc	r5, r7
  107030:	23a05006 	movcs	r5, #6
  107034:	e1a07002 	mov	r7, r2
  107038:	e307217c 	movw	r2, #29052	; 0x717c
  10703c:	e58d1028 	str	r1, [sp, #40]	; 0x28
  107040:	e3402011 	movt	r2, #17
  107044:	e1c51fc5 	bic	r1, r5, r5, asr #31
  107048:	e58d303c 	str	r3, [sp, #60]	; 0x3c
  10704c:	e58d1010 	str	r1, [sp, #16]
  107050:	e58d3044 	str	r3, [sp, #68]	; 0x44
  107054:	e58d3040 	str	r3, [sp, #64]	; 0x40
  107058:	e58d202c 	str	r2, [sp, #44]	; 0x2c
  10705c:	eafff84b 	b	105190 <_vfprintf_r+0x590>
  107060:	e59d202c 	ldr	r2, [sp, #44]	; 0x2c
  107064:	e28d3e15 	add	r3, sp, #336	; 0x150
  107068:	e0625003 	rsb	r5, r2, r3
  10706c:	eafff83d 	b	105168 <_vfprintf_r+0x568>
  107070:	e59d3040 	ldr	r3, [sp, #64]	; 0x40
  107074:	e3530000 	cmp	r3, #0
  107078:	da000152 	ble	1075c8 <_vfprintf_r+0x29c8>
  10707c:	e3570000 	cmp	r7, #0
  107080:	1a000002 	bne	107090 <_vfprintf_r+0x2490>
  107084:	e3140001 	tst	r4, #1
  107088:	059d5040 	ldreq	r5, [sp, #64]	; 0x40
  10708c:	0a000002 	beq	10709c <_vfprintf_r+0x249c>
  107090:	e59d2040 	ldr	r2, [sp, #64]	; 0x40
  107094:	e2873001 	add	r3, r7, #1
  107098:	e0835002 	add	r5, r3, r2
  10709c:	e3140b01 	tst	r4, #1024	; 0x400
  1070a0:	1afffe60 	bne	106a28 <_vfprintf_r+0x1e28>
  1070a4:	e1c53fc5 	bic	r3, r5, r5, asr #31
  1070a8:	e3a02000 	mov	r2, #0
  1070ac:	e58d203c 	str	r2, [sp, #60]	; 0x3c
  1070b0:	e58d2044 	str	r2, [sp, #68]	; 0x44
  1070b4:	eafffe7a 	b	106aa4 <_vfprintf_r+0x1ea4>
  1070b8:	e58d3010 	str	r3, [sp, #16]
  1070bc:	e1a07002 	mov	r7, r2
  1070c0:	e5dd3077 	ldrb	r3, [sp, #119]	; 0x77
  1070c4:	eafff831 	b	105190 <_vfprintf_r+0x590>
  1070c8:	00116988 	.word	0x00116988
  1070cc:	e59d3038 	ldr	r3, [sp, #56]	; 0x38
  1070d0:	e3530046 	cmp	r3, #70	; 0x46
  1070d4:	0a00012a 	beq	107584 <_vfprintf_r+0x2984>
  1070d8:	e59d3038 	ldr	r3, [sp, #56]	; 0x38
  1070dc:	e3530065 	cmp	r3, #101	; 0x65
  1070e0:	c59d307c 	ldrgt	r3, [sp, #124]	; 0x7c
  1070e4:	c58d3040 	strgt	r3, [sp, #64]	; 0x40
  1070e8:	cafffe3e 	bgt	1069e8 <_vfprintf_r+0x1de8>
  1070ec:	e59d107c 	ldr	r1, [sp, #124]	; 0x7c
  1070f0:	e59d3010 	ldr	r3, [sp, #16]
  1070f4:	e2411001 	sub	r1, r1, #1
  1070f8:	e58d107c 	str	r1, [sp, #124]	; 0x7c
  1070fc:	e3530000 	cmp	r3, #0
  107100:	159d3038 	ldrne	r3, [sp, #56]	; 0x38
  107104:	05dd3038 	ldrbeq	r3, [sp, #56]	; 0x38
  107108:	1283300f 	addne	r3, r3, #15
  10710c:	16ef3073 	uxtbne	r3, r3
  107110:	e3510000 	cmp	r1, #0
  107114:	b2611000 	rsblt	r1, r1, #0
  107118:	e5cd3088 	strb	r3, [sp, #136]	; 0x88
  10711c:	b3a0302d 	movlt	r3, #45	; 0x2d
  107120:	a3a0302b 	movge	r3, #43	; 0x2b
  107124:	e3510009 	cmp	r1, #9
  107128:	e5cd3089 	strb	r3, [sp, #137]	; 0x89
  10712c:	da00010a 	ble	10755c <_vfprintf_r+0x295c>
  107130:	e28dc09f 	add	ip, sp, #159	; 0x9f
  107134:	e59de06c 	ldr	lr, [sp, #108]	; 0x6c
  107138:	e1a0000c 	mov	r0, ip
  10713c:	e0c32e91 	smull	r2, r3, r1, lr
  107140:	e1a02fc1 	asr	r2, r1, #31
  107144:	e0622143 	rsb	r2, r2, r3, asr #2
  107148:	e3520009 	cmp	r2, #9
  10714c:	e1a03182 	lsl	r3, r2, #3
  107150:	e0833082 	add	r3, r3, r2, lsl #1
  107154:	e0633001 	rsb	r3, r3, r1
  107158:	e1a01002 	mov	r1, r2
  10715c:	e2833030 	add	r3, r3, #48	; 0x30
  107160:	e5603001 	strb	r3, [r0, #-1]!
  107164:	cafffff4 	bgt	10713c <_vfprintf_r+0x253c>
  107168:	e2823030 	add	r3, r2, #48	; 0x30
  10716c:	e1a02000 	mov	r2, r0
  107170:	e6ef3073 	uxtb	r3, r3
  107174:	e5623001 	strb	r3, [r2, #-1]!
  107178:	e15c0002 	cmp	ip, r2
  10717c:	9a00012a 	bls	10762c <_vfprintf_r+0x2a2c>
  107180:	e1a02000 	mov	r2, r0
  107184:	e28d108a 	add	r1, sp, #138	; 0x8a
  107188:	ea000000 	b	107190 <_vfprintf_r+0x2590>
  10718c:	e4d23001 	ldrb	r3, [r2], #1
  107190:	e152000c 	cmp	r2, ip
  107194:	e4c13001 	strb	r3, [r1], #1
  107198:	1afffffb 	bne	10718c <_vfprintf_r+0x258c>
  10719c:	e28d30a0 	add	r3, sp, #160	; 0xa0
  1071a0:	e28d208a 	add	r2, sp, #138	; 0x8a
  1071a4:	e0603003 	rsb	r3, r0, r3
  1071a8:	e0823003 	add	r3, r2, r3
  1071ac:	e59d1048 	ldr	r1, [sp, #72]	; 0x48
  1071b0:	e28d2088 	add	r2, sp, #136	; 0x88
  1071b4:	e0623003 	rsb	r3, r2, r3
  1071b8:	e58d3064 	str	r3, [sp, #100]	; 0x64
  1071bc:	e3510001 	cmp	r1, #1
  1071c0:	e0815003 	add	r5, r1, r3
  1071c4:	da000115 	ble	107620 <_vfprintf_r+0x2a20>
  1071c8:	e2855001 	add	r5, r5, #1
  1071cc:	e3c47b01 	bic	r7, r4, #1024	; 0x400
  1071d0:	e3a03000 	mov	r3, #0
  1071d4:	e3872c01 	orr	r2, r7, #256	; 0x100
  1071d8:	e58d303c 	str	r3, [sp, #60]	; 0x3c
  1071dc:	e58d3044 	str	r3, [sp, #68]	; 0x44
  1071e0:	e58d3040 	str	r3, [sp, #64]	; 0x40
  1071e4:	e1c53fc5 	bic	r3, r5, r5, asr #31
  1071e8:	e58d2008 	str	r2, [sp, #8]
  1071ec:	eafffe2c 	b	106aa4 <_vfprintf_r+0x1ea4>
  1071f0:	e59d3008 	ldr	r3, [sp, #8]
  1071f4:	e3130c02 	tst	r3, #512	; 0x200
  1071f8:	0afffe3f 	beq	106afc <_vfprintf_r+0x1efc>
  1071fc:	e59d2028 	ldr	r2, [sp, #40]	; 0x28
  107200:	e2822004 	add	r2, r2, #4
  107204:	e5123004 	ldr	r3, [r2, #-4]
  107208:	e58d2028 	str	r2, [sp, #40]	; 0x28
  10720c:	e5dd201c 	ldrb	r2, [sp, #28]
  107210:	e5c32000 	strb	r2, [r3]
  107214:	eafff6bb 	b	104d08 <_vfprintf_r+0x108>
  107218:	e3770001 	cmn	r7, #1
  10721c:	03a07006 	moveq	r7, #6
  107220:	0a000002 	beq	107230 <_vfprintf_r+0x2630>
  107224:	e3550047 	cmp	r5, #71	; 0x47
  107228:	03570000 	cmpeq	r7, #0
  10722c:	03a07001 	moveq	r7, #1
  107230:	ee183a90 	vmov	r3, s17
  107234:	e3530000 	cmp	r3, #0
  107238:	e59d3008 	ldr	r3, [sp, #8]
  10723c:	e3833c01 	orr	r3, r3, #256	; 0x100
  107240:	e58d3030 	str	r3, [sp, #48]	; 0x30
  107244:	ba0000b9 	blt	107530 <_vfprintf_r+0x2930>
  107248:	eeb0cb48 	vmov.f64	d12, d8
  10724c:	e3a03000 	mov	r3, #0
  107250:	e58d3018 	str	r3, [sp, #24]
  107254:	e3550046 	cmp	r5, #70	; 0x46
  107258:	0a000053 	beq	1073ac <_vfprintf_r+0x27ac>
  10725c:	e3550045 	cmp	r5, #69	; 0x45
  107260:	1a000089 	bne	10748c <_vfprintf_r+0x288c>
  107264:	e2874001 	add	r4, r7, #1
  107268:	e28d2098 	add	r2, sp, #152	; 0x98
  10726c:	e28d3084 	add	r3, sp, #132	; 0x84
  107270:	e58d2004 	str	r2, [sp, #4]
  107274:	e58d3000 	str	r3, [sp]
  107278:	e1a02004 	mov	r2, r4
  10727c:	e28d307c 	add	r3, sp, #124	; 0x7c
  107280:	e3a01002 	mov	r1, #2
  107284:	eeb00b4c 	vmov.f64	d0, d12
  107288:	e1a0000a 	mov	r0, sl
  10728c:	eb00038e 	bl	1080cc <_dtoa_r>
  107290:	e58d002c 	str	r0, [sp, #44]	; 0x2c
  107294:	e59d302c 	ldr	r3, [sp, #44]	; 0x2c
  107298:	e0834004 	add	r4, r3, r4
  10729c:	eeb5cb40 	vcmp.f64	d12, #0.0
  1072a0:	eef1fa10 	vmrs	APSR_nzcv, fpscr
  1072a4:	01a03004 	moveq	r3, r4
  1072a8:	0a000009 	beq	1072d4 <_vfprintf_r+0x26d4>
  1072ac:	e59d3098 	ldr	r3, [sp, #152]	; 0x98
  1072b0:	e1540003 	cmp	r4, r3
  1072b4:	9a000006 	bls	1072d4 <_vfprintf_r+0x26d4>
  1072b8:	e3a01030 	mov	r1, #48	; 0x30
  1072bc:	e2832001 	add	r2, r3, #1
  1072c0:	e58d2098 	str	r2, [sp, #152]	; 0x98
  1072c4:	e5c31000 	strb	r1, [r3]
  1072c8:	e59d3098 	ldr	r3, [sp, #152]	; 0x98
  1072cc:	e1540003 	cmp	r4, r3
  1072d0:	8afffff9 	bhi	1072bc <_vfprintf_r+0x26bc>
  1072d4:	e59d202c 	ldr	r2, [sp, #44]	; 0x2c
  1072d8:	e59d4008 	ldr	r4, [sp, #8]
  1072dc:	e0623003 	rsb	r3, r2, r3
  1072e0:	e58d3048 	str	r3, [sp, #72]	; 0x48
  1072e4:	e3a03000 	mov	r3, #0
  1072e8:	e58d3024 	str	r3, [sp, #36]	; 0x24
  1072ec:	e59d3030 	ldr	r3, [sp, #48]	; 0x30
  1072f0:	e58d3008 	str	r3, [sp, #8]
  1072f4:	eafffdb2 	b	1069c4 <_vfprintf_r+0x1dc4>
  1072f8:	e1a05007 	mov	r5, r7
  1072fc:	eafffe21 	b	106b88 <_vfprintf_r+0x1f88>
  107300:	e59d3038 	ldr	r3, [sp, #56]	; 0x38
  107304:	e2433002 	sub	r3, r3, #2
  107308:	e58d3038 	str	r3, [sp, #56]	; 0x38
  10730c:	e3c33020 	bic	r3, r3, #32
  107310:	e2433041 	sub	r3, r3, #65	; 0x41
  107314:	e16f3f13 	clz	r3, r3
  107318:	e1a032a3 	lsr	r3, r3, #5
  10731c:	e58d3010 	str	r3, [sp, #16]
  107320:	eaffff72 	b	1070f0 <_vfprintf_r+0x24f0>
  107324:	e1a03001 	mov	r3, r1
  107328:	eafffc56 	b	106488 <_vfprintf_r+0x1888>
  10732c:	e59d200c 	ldr	r2, [sp, #12]
  107330:	e1d230bc 	ldrh	r3, [r2, #12]
  107334:	e3833040 	orr	r3, r3, #64	; 0x40
  107338:	e1c230bc 	strh	r3, [r2, #12]
  10733c:	eafff741 	b	105048 <_vfprintf_r+0x448>
  107340:	e3a03000 	mov	r3, #0
  107344:	e58d3024 	str	r3, [sp, #36]	; 0x24
  107348:	e28d30ec 	add	r3, sp, #236	; 0xec
  10734c:	e58d302c 	str	r3, [sp, #44]	; 0x2c
  107350:	eafffe18 	b	106bb8 <_vfprintf_r+0x1fb8>
  107354:	e28d20a0 	add	r2, sp, #160	; 0xa0
  107358:	e59d100c 	ldr	r1, [sp, #12]
  10735c:	e1a0000a 	mov	r0, sl
  107360:	eb001bc5 	bl	10e27c <__sprint_r>
  107364:	e3500000 	cmp	r0, #0
  107368:	1afff730 	bne	105030 <_vfprintf_r+0x430>
  10736c:	e59d107c 	ldr	r1, [sp, #124]	; 0x7c
  107370:	e28d90ac 	add	r9, sp, #172	; 0xac
  107374:	e59d20a8 	ldr	r2, [sp, #168]	; 0xa8
  107378:	eafffc2d 	b	106434 <_vfprintf_r+0x1834>
  10737c:	e28d20a0 	add	r2, sp, #160	; 0xa0
  107380:	e59d100c 	ldr	r1, [sp, #12]
  107384:	e1a0000a 	mov	r0, sl
  107388:	eb001bbb 	bl	10e27c <__sprint_r>
  10738c:	e3500000 	cmp	r0, #0
  107390:	1afff726 	bne	105030 <_vfprintf_r+0x430>
  107394:	e59d307c 	ldr	r3, [sp, #124]	; 0x7c
  107398:	e28d90ac 	add	r9, sp, #172	; 0xac
  10739c:	e59d1048 	ldr	r1, [sp, #72]	; 0x48
  1073a0:	e59d20a8 	ldr	r2, [sp, #168]	; 0xa8
  1073a4:	e0633001 	rsb	r3, r3, r1
  1073a8:	eafffc36 	b	106488 <_vfprintf_r+0x1888>
  1073ac:	e28d3098 	add	r3, sp, #152	; 0x98
  1073b0:	e28d2084 	add	r2, sp, #132	; 0x84
  1073b4:	e58d3004 	str	r3, [sp, #4]
  1073b8:	e3a01003 	mov	r1, #3
  1073bc:	e28d307c 	add	r3, sp, #124	; 0x7c
  1073c0:	e58d2000 	str	r2, [sp]
  1073c4:	eeb00b4c 	vmov.f64	d0, d12
  1073c8:	e1a02007 	mov	r2, r7
  1073cc:	e1a0000a 	mov	r0, sl
  1073d0:	eb00033d 	bl	1080cc <_dtoa_r>
  1073d4:	eeb5cb40 	vcmp.f64	d12, #0.0
  1073d8:	eef1fa10 	vmrs	APSR_nzcv, fpscr
  1073dc:	13a02001 	movne	r2, #1
  1073e0:	03a02000 	moveq	r2, #0
  1073e4:	e5d01000 	ldrb	r1, [r0]
  1073e8:	e0803007 	add	r3, r0, r7
  1073ec:	e58d002c 	str	r0, [sp, #44]	; 0x2c
  1073f0:	e3510030 	cmp	r1, #48	; 0x30
  1073f4:	13a02000 	movne	r2, #0
  1073f8:	02022001 	andeq	r2, r2, #1
  1073fc:	e3520000 	cmp	r2, #0
  107400:	12674001 	rsbne	r4, r7, #1
  107404:	158d407c 	strne	r4, [sp, #124]	; 0x7c
  107408:	059d407c 	ldreq	r4, [sp, #124]	; 0x7c
  10740c:	e0834004 	add	r4, r3, r4
  107410:	eaffffa1 	b	10729c <_vfprintf_r+0x269c>
  107414:	e28d20a0 	add	r2, sp, #160	; 0xa0
  107418:	e59d100c 	ldr	r1, [sp, #12]
  10741c:	e1a0000a 	mov	r0, sl
  107420:	eb001b95 	bl	10e27c <__sprint_r>
  107424:	e3500000 	cmp	r0, #0
  107428:	1afff700 	bne	105030 <_vfprintf_r+0x430>
  10742c:	e59d407c 	ldr	r4, [sp, #124]	; 0x7c
  107430:	e28d90ac 	add	r9, sp, #172	; 0xac
  107434:	e59d20a8 	ldr	r2, [sp, #168]	; 0xa8
  107438:	e59d30a4 	ldr	r3, [sp, #164]	; 0xa4
  10743c:	eafffe27 	b	106ce0 <_vfprintf_r+0x20e0>
  107440:	e59d3040 	ldr	r3, [sp, #64]	; 0x40
  107444:	e3530000 	cmp	r3, #0
  107448:	d2635002 	rsble	r5, r3, #2
  10744c:	e59d3048 	ldr	r3, [sp, #72]	; 0x48
  107450:	c3a05001 	movgt	r5, #1
  107454:	e0855003 	add	r5, r5, r3
  107458:	eafffd6d 	b	106a14 <_vfprintf_r+0x1e14>
  10745c:	e3a03000 	mov	r3, #0
  107460:	e58d4000 	str	r4, [sp]
  107464:	e1a01003 	mov	r1, r3
  107468:	e28d2084 	add	r2, sp, #132	; 0x84
  10746c:	e1a0000a 	mov	r0, sl
  107470:	eb0000f0 	bl	107838 <_wcsrtombs_r>
  107474:	e3700001 	cmn	r0, #1
  107478:	e1a05000 	mov	r5, r0
  10747c:	0affffaa 	beq	10732c <_vfprintf_r+0x272c>
  107480:	e59d302c 	ldr	r3, [sp, #44]	; 0x2c
  107484:	e58d3084 	str	r3, [sp, #132]	; 0x84
  107488:	eafffdbe 	b	106b88 <_vfprintf_r+0x1f88>
  10748c:	e28d3098 	add	r3, sp, #152	; 0x98
  107490:	e28d2084 	add	r2, sp, #132	; 0x84
  107494:	e58d3004 	str	r3, [sp, #4]
  107498:	e3a01002 	mov	r1, #2
  10749c:	e58d2000 	str	r2, [sp]
  1074a0:	e28d307c 	add	r3, sp, #124	; 0x7c
  1074a4:	e1a02007 	mov	r2, r7
  1074a8:	eeb00b4c 	vmov.f64	d0, d12
  1074ac:	e1a0000a 	mov	r0, sl
  1074b0:	eb000305 	bl	1080cc <_dtoa_r>
  1074b4:	e3550047 	cmp	r5, #71	; 0x47
  1074b8:	e58d002c 	str	r0, [sp, #44]	; 0x2c
  1074bc:	1a00005f 	bne	107640 <_vfprintf_r+0x2a40>
  1074c0:	e59d3008 	ldr	r3, [sp, #8]
  1074c4:	e3130001 	tst	r3, #1
  1074c8:	0a000016 	beq	107528 <_vfprintf_r+0x2928>
  1074cc:	e59d302c 	ldr	r3, [sp, #44]	; 0x2c
  1074d0:	e0834007 	add	r4, r3, r7
  1074d4:	eaffff70 	b	10729c <_vfprintf_r+0x269c>
  1074d8:	e58d1098 	str	r1, [sp, #152]	; 0x98
  1074dc:	e5de200f 	ldrb	r2, [lr, #15]
  1074e0:	e5530001 	ldrb	r0, [r3, #-1]
  1074e4:	e1520000 	cmp	r2, r0
  1074e8:	1a000051 	bne	107634 <_vfprintf_r+0x2a34>
  1074ec:	e1a01003 	mov	r1, r3
  1074f0:	e3a0c030 	mov	ip, #48	; 0x30
  1074f4:	e541c001 	strb	ip, [r1, #-1]
  1074f8:	e59d1098 	ldr	r1, [sp, #152]	; 0x98
  1074fc:	e2412001 	sub	r2, r1, #1
  107500:	e58d2098 	str	r2, [sp, #152]	; 0x98
  107504:	e5512001 	ldrb	r2, [r1, #-1]
  107508:	e1520000 	cmp	r2, r0
  10750c:	0afffff8 	beq	1074f4 <_vfprintf_r+0x28f4>
  107510:	e3520039 	cmp	r2, #57	; 0x39
  107514:	12822001 	addne	r2, r2, #1
  107518:	05de200a 	ldrbeq	r2, [lr, #10]
  10751c:	16ef2072 	uxtbne	r2, r2
  107520:	e5412001 	strb	r2, [r1, #-1]
  107524:	eafffd23 	b	1069b8 <_vfprintf_r+0x1db8>
  107528:	e59d3098 	ldr	r3, [sp, #152]	; 0x98
  10752c:	eaffff68 	b	1072d4 <_vfprintf_r+0x26d4>
  107530:	e3a0302d 	mov	r3, #45	; 0x2d
  107534:	eeb1cb48 	vneg.f64	d12, d8
  107538:	e58d3018 	str	r3, [sp, #24]
  10753c:	eaffff44 	b	107254 <_vfprintf_r+0x2654>
  107540:	e1c73fc7 	bic	r3, r7, r7, asr #31
  107544:	e58d3010 	str	r3, [sp, #16]
  107548:	e59d3018 	ldr	r3, [sp, #24]
  10754c:	e1a05007 	mov	r5, r7
  107550:	e1a07000 	mov	r7, r0
  107554:	e58d3028 	str	r3, [sp, #40]	; 0x28
  107558:	eafffe5d 	b	106ed4 <_vfprintf_r+0x22d4>
  10755c:	e59d3010 	ldr	r3, [sp, #16]
  107560:	e2811030 	add	r1, r1, #48	; 0x30
  107564:	e3530000 	cmp	r3, #0
  107568:	128d308a 	addne	r3, sp, #138	; 0x8a
  10756c:	03a03030 	moveq	r3, #48	; 0x30
  107570:	05cd308a 	strbeq	r3, [sp, #138]	; 0x8a
  107574:	028d308b 	addeq	r3, sp, #139	; 0x8b
  107578:	e2833001 	add	r3, r3, #1
  10757c:	e5431001 	strb	r1, [r3, #-1]
  107580:	eaffff09 	b	1071ac <_vfprintf_r+0x25ac>
  107584:	e3a03066 	mov	r3, #102	; 0x66
  107588:	e59d107c 	ldr	r1, [sp, #124]	; 0x7c
  10758c:	e58d3038 	str	r3, [sp, #56]	; 0x38
  107590:	eafffd13 	b	1069e4 <_vfprintf_r+0x1de4>
  107594:	e3a0302d 	mov	r3, #45	; 0x2d
  107598:	eeb10b48 	vneg.f64	d0, d8
  10759c:	e58d3018 	str	r3, [sp, #24]
  1075a0:	eafffcd0 	b	1068e8 <_vfprintf_r+0x1ce8>
  1075a4:	e2871001 	add	r1, r7, #1
  1075a8:	e1a0000a 	mov	r0, sl
  1075ac:	ebfff318 	bl	104214 <_malloc_r>
  1075b0:	e2503000 	subs	r3, r0, #0
  1075b4:	e58d3024 	str	r3, [sp, #36]	; 0x24
  1075b8:	0a000013 	beq	10760c <_vfprintf_r+0x2a0c>
  1075bc:	e59d3024 	ldr	r3, [sp, #36]	; 0x24
  1075c0:	e58d302c 	str	r3, [sp, #44]	; 0x2c
  1075c4:	eafffcbd 	b	1068c0 <_vfprintf_r+0x1cc0>
  1075c8:	e3570000 	cmp	r7, #0
  1075cc:	1a000003 	bne	1075e0 <_vfprintf_r+0x29e0>
  1075d0:	e3140001 	tst	r4, #1
  1075d4:	03a03001 	moveq	r3, #1
  1075d8:	01a05003 	moveq	r5, r3
  1075dc:	0afffeb1 	beq	1070a8 <_vfprintf_r+0x24a8>
  1075e0:	e2875002 	add	r5, r7, #2
  1075e4:	e1c53fc5 	bic	r3, r5, r5, asr #31
  1075e8:	eafffeae 	b	1070a8 <_vfprintf_r+0x24a8>
  1075ec:	e59d3028 	ldr	r3, [sp, #40]	; 0x28
  1075f0:	e2832004 	add	r2, r3, #4
  1075f4:	e58d2028 	str	r2, [sp, #40]	; 0x28
  1075f8:	e5937000 	ldr	r7, [r3]
  1075fc:	e5d43001 	ldrb	r3, [r4, #1]
  107600:	e3570000 	cmp	r7, #0
  107604:	b3e07000 	mvnlt	r7, #0
  107608:	eafff5f5 	b	104de4 <_vfprintf_r+0x1e4>
  10760c:	e59d200c 	ldr	r2, [sp, #12]
  107610:	e1d230bc 	ldrh	r3, [r2, #12]
  107614:	e3833040 	orr	r3, r3, #64	; 0x40
  107618:	e1c230bc 	strh	r3, [r2, #12]
  10761c:	eafff68b 	b	105050 <_vfprintf_r+0x450>
  107620:	e3140001 	tst	r4, #1
  107624:	0afffee8 	beq	1071cc <_vfprintf_r+0x25cc>
  107628:	eafffee6 	b	1071c8 <_vfprintf_r+0x25c8>
  10762c:	e28d308a 	add	r3, sp, #138	; 0x8a
  107630:	eafffedd 	b	1071ac <_vfprintf_r+0x25ac>
  107634:	e1a02000 	mov	r2, r0
  107638:	e1a01003 	mov	r1, r3
  10763c:	eaffffb3 	b	107510 <_vfprintf_r+0x2910>
  107640:	e1a04007 	mov	r4, r7
  107644:	eaffff12 	b	107294 <_vfprintf_r+0x2694>

00107648 <vfprintf>:
  107648:	e307c988 	movw	ip, #31112	; 0x7988
  10764c:	e1a03002 	mov	r3, r2
  107650:	e340c011 	movt	ip, #17
  107654:	e1a02001 	mov	r2, r1
  107658:	e1a01000 	mov	r1, r0
  10765c:	e59c0000 	ldr	r0, [ip]
  107660:	eafff566 	b	104c00 <_vfprintf_r>

00107664 <__sbprintf>:
  107664:	e92d47f0 	push	{r4, r5, r6, r7, r8, r9, sl, lr}
  107668:	e1a04001 	mov	r4, r1
  10766c:	e24dde46 	sub	sp, sp, #1120	; 0x460
  107670:	e1d470be 	ldrh	r7, [r4, #14]
  107674:	e24dd008 	sub	sp, sp, #8
  107678:	e5949064 	ldr	r9, [r4, #100]	; 0x64
  10767c:	e594a01c 	ldr	sl, [r4, #28]
  107680:	e28d6068 	add	r6, sp, #104	; 0x68
  107684:	e5948024 	ldr	r8, [r4, #36]	; 0x24
  107688:	e1a0100d 	mov	r1, sp
  10768c:	e1d4c0bc 	ldrh	ip, [r4, #12]
  107690:	e3a0eb01 	mov	lr, #1024	; 0x400
  107694:	e1cd70be 	strh	r7, [sp, #14]
  107698:	e3a07000 	mov	r7, #0
  10769c:	e3ccc002 	bic	ip, ip, #2
  1076a0:	e58d9064 	str	r9, [sp, #100]	; 0x64
  1076a4:	e58d6000 	str	r6, [sp]
  1076a8:	e1a09000 	mov	r9, r0
  1076ac:	e58d6010 	str	r6, [sp, #16]
  1076b0:	e1cdc0bc 	strh	ip, [sp, #12]
  1076b4:	e58da01c 	str	sl, [sp, #28]
  1076b8:	e58d8024 	str	r8, [sp, #36]	; 0x24
  1076bc:	e58de008 	str	lr, [sp, #8]
  1076c0:	e58de014 	str	lr, [sp, #20]
  1076c4:	e58d7018 	str	r7, [sp, #24]
  1076c8:	ebfff54c 	bl	104c00 <_vfprintf_r>
  1076cc:	e2506000 	subs	r6, r0, #0
  1076d0:	ba000004 	blt	1076e8 <__sbprintf+0x84>
  1076d4:	e1a0100d 	mov	r1, sp
  1076d8:	e1a00009 	mov	r0, r9
  1076dc:	eb0007ba 	bl	1095cc <_fflush_r>
  1076e0:	e1500007 	cmp	r0, r7
  1076e4:	13e06000 	mvnne	r6, #0
  1076e8:	e1dd30bc 	ldrh	r3, [sp, #12]
  1076ec:	e1a00006 	mov	r0, r6
  1076f0:	e3130040 	tst	r3, #64	; 0x40
  1076f4:	11d430bc 	ldrhne	r3, [r4, #12]
  1076f8:	13833040 	orrne	r3, r3, #64	; 0x40
  1076fc:	11c430bc 	strhne	r3, [r4, #12]
  107700:	e28dde46 	add	sp, sp, #1120	; 0x460
  107704:	e28dd008 	add	sp, sp, #8
  107708:	e8bd87f0 	pop	{r4, r5, r6, r7, r8, r9, sl, pc}
  10770c:	e320f000 	nop	{0}

00107710 <_wcrtomb_r>:
  107710:	e92d41f0 	push	{r4, r5, r6, r7, r8, lr}
  107714:	e2536000 	subs	r6, r3, #0
  107718:	02806f45 	addeq	r6, r0, #276	; 0x114
  10771c:	e3510000 	cmp	r1, #0
  107720:	e24dd018 	sub	sp, sp, #24
  107724:	e1a05000 	mov	r5, r0
  107728:	e1a04001 	mov	r4, r1
  10772c:	e1a07002 	mov	r7, r2
  107730:	0a000010 	beq	107778 <_wcrtomb_r+0x68>
  107734:	e308c1c8 	movw	ip, #33224	; 0x81c8
  107738:	e340c011 	movt	ip, #17
  10773c:	e59c8000 	ldr	r8, [ip]
  107740:	eb000e1f 	bl	10afc4 <__locale_charset>
  107744:	e58d6000 	str	r6, [sp]
  107748:	e1a02007 	mov	r2, r7
  10774c:	e1a01004 	mov	r1, r4
  107750:	e1a03000 	mov	r3, r0
  107754:	e1a00005 	mov	r0, r5
  107758:	e12fff38 	blx	r8
  10775c:	e3700001 	cmn	r0, #1
  107760:	03a02000 	moveq	r2, #0
  107764:	03a0308a 	moveq	r3, #138	; 0x8a
  107768:	05862000 	streq	r2, [r6]
  10776c:	05853000 	streq	r3, [r5]
  107770:	e28dd018 	add	sp, sp, #24
  107774:	e8bd81f0 	pop	{r4, r5, r6, r7, r8, pc}
  107778:	e30831c8 	movw	r3, #33224	; 0x81c8
  10777c:	e3403011 	movt	r3, #17
  107780:	e5937000 	ldr	r7, [r3]
  107784:	eb000e0e 	bl	10afc4 <__locale_charset>
  107788:	e58d6000 	str	r6, [sp]
  10778c:	e1a02004 	mov	r2, r4
  107790:	e28d100c 	add	r1, sp, #12
  107794:	e1a03000 	mov	r3, r0
  107798:	e1a00005 	mov	r0, r5
  10779c:	e12fff37 	blx	r7
  1077a0:	eaffffed 	b	10775c <_wcrtomb_r+0x4c>

001077a4 <wcrtomb>:
  1077a4:	e3073988 	movw	r3, #31112	; 0x7988
  1077a8:	e3403011 	movt	r3, #17
  1077ac:	e92d41f0 	push	{r4, r5, r6, r7, r8, lr}
  1077b0:	e2526000 	subs	r6, r2, #0
  1077b4:	e5935000 	ldr	r5, [r3]
  1077b8:	e30831c8 	movw	r3, #33224	; 0x81c8
  1077bc:	e24dd018 	sub	sp, sp, #24
  1077c0:	e1a04000 	mov	r4, r0
  1077c4:	02856f45 	addeq	r6, r5, #276	; 0x114
  1077c8:	e3500000 	cmp	r0, #0
  1077cc:	e1a07001 	mov	r7, r1
  1077d0:	e3403011 	movt	r3, #17
  1077d4:	0a00000e 	beq	107814 <wcrtomb+0x70>
  1077d8:	e5938000 	ldr	r8, [r3]
  1077dc:	eb000df8 	bl	10afc4 <__locale_charset>
  1077e0:	e58d6000 	str	r6, [sp]
  1077e4:	e1a02007 	mov	r2, r7
  1077e8:	e1a01004 	mov	r1, r4
  1077ec:	e1a03000 	mov	r3, r0
  1077f0:	e1a00005 	mov	r0, r5
  1077f4:	e12fff38 	blx	r8
  1077f8:	e3700001 	cmn	r0, #1
  1077fc:	03a02000 	moveq	r2, #0
  107800:	03a0308a 	moveq	r3, #138	; 0x8a
  107804:	05862000 	streq	r2, [r6]
  107808:	05853000 	streq	r3, [r5]
  10780c:	e28dd018 	add	sp, sp, #24
  107810:	e8bd81f0 	pop	{r4, r5, r6, r7, r8, pc}
  107814:	e5937000 	ldr	r7, [r3]
  107818:	eb000de9 	bl	10afc4 <__locale_charset>
  10781c:	e58d6000 	str	r6, [sp]
  107820:	e1a02004 	mov	r2, r4
  107824:	e28d100c 	add	r1, sp, #12
  107828:	e1a03000 	mov	r3, r0
  10782c:	e1a00005 	mov	r0, r5
  107830:	e12fff37 	blx	r7
  107834:	eaffffef 	b	1077f8 <wcrtomb+0x54>

00107838 <_wcsrtombs_r>:
  107838:	e52de004 	push	{lr}		; (str lr, [sp, #-4]!)
  10783c:	e24dd00c 	sub	sp, sp, #12
  107840:	e59dc010 	ldr	ip, [sp, #16]
  107844:	e58d3000 	str	r3, [sp]
  107848:	e3e03000 	mvn	r3, #0
  10784c:	e58dc004 	str	ip, [sp, #4]
  107850:	eb0020db 	bl	10fbc4 <_wcsnrtombs_r>
  107854:	e28dd00c 	add	sp, sp, #12
  107858:	e49df004 	pop	{pc}		; (ldr pc, [sp], #4)

0010785c <wcsrtombs>:
  10785c:	e52de004 	push	{lr}		; (str lr, [sp, #-4]!)
  107860:	e307c988 	movw	ip, #31112	; 0x7988
  107864:	e24dd00c 	sub	sp, sp, #12
  107868:	e340c011 	movt	ip, #17
  10786c:	e58d2000 	str	r2, [sp]
  107870:	e1a02001 	mov	r2, r1
  107874:	e59cc000 	ldr	ip, [ip]
  107878:	e1a01000 	mov	r1, r0
  10787c:	e58d3004 	str	r3, [sp, #4]
  107880:	e3e03000 	mvn	r3, #0
  107884:	e1a0000c 	mov	r0, ip
  107888:	eb0020cd 	bl	10fbc4 <_wcsnrtombs_r>
  10788c:	e28dd00c 	add	sp, sp, #12
  107890:	e49df004 	pop	{pc}		; (ldr pc, [sp], #4)

00107894 <__ascii_wctomb>:
  107894:	e3510000 	cmp	r1, #0
  107898:	0a000005 	beq	1078b4 <__ascii_wctomb+0x20>
  10789c:	e35200ff 	cmp	r2, #255	; 0xff
  1078a0:	95c12000 	strbls	r2, [r1]
  1078a4:	83e01000 	mvnhi	r1, #0
  1078a8:	93a01001 	movls	r1, #1
  1078ac:	83a0308a 	movhi	r3, #138	; 0x8a
  1078b0:	85803000 	strhi	r3, [r0]
  1078b4:	e1a00001 	mov	r0, r1
  1078b8:	e12fff1e 	bx	lr

001078bc <_wctomb_r>:
  1078bc:	e308c1c8 	movw	ip, #33224	; 0x81c8
  1078c0:	e92d41f0 	push	{r4, r5, r6, r7, r8, lr}
  1078c4:	e340c011 	movt	ip, #17
  1078c8:	e24dd008 	sub	sp, sp, #8
  1078cc:	e1a08003 	mov	r8, r3
  1078d0:	e1a05000 	mov	r5, r0
  1078d4:	e1a06001 	mov	r6, r1
  1078d8:	e1a07002 	mov	r7, r2
  1078dc:	e59c4000 	ldr	r4, [ip]
  1078e0:	eb000db7 	bl	10afc4 <__locale_charset>
  1078e4:	e58d8000 	str	r8, [sp]
  1078e8:	e1a02007 	mov	r2, r7
  1078ec:	e1a01006 	mov	r1, r6
  1078f0:	e1a03000 	mov	r3, r0
  1078f4:	e1a00005 	mov	r0, r5
  1078f8:	e12fff34 	blx	r4
  1078fc:	e28dd008 	add	sp, sp, #8
  107900:	e8bd81f0 	pop	{r4, r5, r6, r7, r8, pc}

00107904 <__utf8_wctomb>:
  107904:	e3510000 	cmp	r1, #0
  107908:	e1a0c000 	mov	ip, r0
  10790c:	0a000022 	beq	10799c <__utf8_wctomb+0x98>
  107910:	e352007f 	cmp	r2, #127	; 0x7f
  107914:	9a00000c 	bls	10794c <__utf8_wctomb+0x48>
  107918:	e2423080 	sub	r3, r2, #128	; 0x80
  10791c:	e3530d1e 	cmp	r3, #1920	; 0x780
  107920:	2a00000c 	bcs	107958 <__utf8_wctomb+0x54>
  107924:	e7e43352 	ubfx	r3, r2, #6, #5
  107928:	e202203f 	and	r2, r2, #63	; 0x3f
  10792c:	e3a00002 	mov	r0, #2
  107930:	e1e03d03 	mvn	r3, r3, lsl #26
  107934:	e1e02c82 	mvn	r2, r2, lsl #25
  107938:	e1e03d23 	mvn	r3, r3, lsr #26
  10793c:	e1e02ca2 	mvn	r2, r2, lsr #25
  107940:	e5c13000 	strb	r3, [r1]
  107944:	e5c12001 	strb	r2, [r1, #1]
  107948:	e12fff1e 	bx	lr
  10794c:	e5c12000 	strb	r2, [r1]
  107950:	e3a00001 	mov	r0, #1
  107954:	e12fff1e 	bx	lr
  107958:	e2423b02 	sub	r3, r2, #2048	; 0x800
  10795c:	e3530b3e 	cmp	r3, #63488	; 0xf800
  107960:	2a00000f 	bcs	1079a4 <__utf8_wctomb+0xa0>
  107964:	e7e3c652 	ubfx	ip, r2, #12, #4
  107968:	e7e53352 	ubfx	r3, r2, #6, #6
  10796c:	e202203f 	and	r2, r2, #63	; 0x3f
  107970:	e3a00003 	mov	r0, #3
  107974:	e1e0cd8c 	mvn	ip, ip, lsl #27
  107978:	e1e03c83 	mvn	r3, r3, lsl #25
  10797c:	e1e02c82 	mvn	r2, r2, lsl #25
  107980:	e1e0cdac 	mvn	ip, ip, lsr #27
  107984:	e1e03ca3 	mvn	r3, r3, lsr #25
  107988:	e1e02ca2 	mvn	r2, r2, lsr #25
  10798c:	e5c1c000 	strb	ip, [r1]
  107990:	e5c13001 	strb	r3, [r1, #1]
  107994:	e5c12002 	strb	r2, [r1, #2]
  107998:	e12fff1e 	bx	lr
  10799c:	e1a00001 	mov	r0, r1
  1079a0:	e12fff1e 	bx	lr
  1079a4:	e2423801 	sub	r3, r2, #65536	; 0x10000
  1079a8:	e3530601 	cmp	r3, #1048576	; 0x100000
  1079ac:	2a000011 	bcs	1079f8 <__utf8_wctomb+0xf4>
  1079b0:	e7e2c952 	ubfx	ip, r2, #18, #3
  1079b4:	e7e50652 	ubfx	r0, r2, #12, #6
  1079b8:	e7e53352 	ubfx	r3, r2, #6, #6
  1079bc:	e202203f 	and	r2, r2, #63	; 0x3f
  1079c0:	e1e0ce0c 	mvn	ip, ip, lsl #28
  1079c4:	e1e00c80 	mvn	r0, r0, lsl #25
  1079c8:	e1e03c83 	mvn	r3, r3, lsl #25
  1079cc:	e1e02c82 	mvn	r2, r2, lsl #25
  1079d0:	e1e0ce2c 	mvn	ip, ip, lsr #28
  1079d4:	e1e00ca0 	mvn	r0, r0, lsr #25
  1079d8:	e1e03ca3 	mvn	r3, r3, lsr #25
  1079dc:	e5c10001 	strb	r0, [r1, #1]
  1079e0:	e1e02ca2 	mvn	r2, r2, lsr #25
  1079e4:	e5c1c000 	strb	ip, [r1]
  1079e8:	e5c13002 	strb	r3, [r1, #2]
  1079ec:	e3a00004 	mov	r0, #4
  1079f0:	e5c12003 	strb	r2, [r1, #3]
  1079f4:	e12fff1e 	bx	lr
  1079f8:	e3a0308a 	mov	r3, #138	; 0x8a
  1079fc:	e3e00000 	mvn	r0, #0
  107a00:	e58c3000 	str	r3, [ip]
  107a04:	e12fff1e 	bx	lr

00107a08 <__sjis_wctomb>:
  107a08:	e3510000 	cmp	r1, #0
  107a0c:	e6ef3072 	uxtb	r3, r2
  107a10:	e7e72452 	ubfx	r2, r2, #8, #8
  107a14:	0a000017 	beq	107a78 <__sjis_wctomb+0x70>
  107a18:	e3520000 	cmp	r2, #0
  107a1c:	0a000011 	beq	107a68 <__sjis_wctomb+0x60>
  107a20:	e52de004 	push	{lr}		; (str lr, [sp, #-4]!)
  107a24:	e282c07f 	add	ip, r2, #127	; 0x7f
  107a28:	e282e020 	add	lr, r2, #32
  107a2c:	e6efc07c 	uxtb	ip, ip
  107a30:	e6efe07e 	uxtb	lr, lr
  107a34:	e35c001e 	cmp	ip, #30
  107a38:	835e000f 	cmphi	lr, #15
  107a3c:	8a000010 	bhi	107a84 <__sjis_wctomb+0x7c>
  107a40:	e223c080 	eor	ip, r3, #128	; 0x80
  107a44:	e243e040 	sub	lr, r3, #64	; 0x40
  107a48:	e35e003e 	cmp	lr, #62	; 0x3e
  107a4c:	835c007c 	cmphi	ip, #124	; 0x7c
  107a50:	8a00000b 	bhi	107a84 <__sjis_wctomb+0x7c>
  107a54:	e5c12000 	strb	r2, [r1]
  107a58:	e3a02002 	mov	r2, #2
  107a5c:	e5c13001 	strb	r3, [r1, #1]
  107a60:	e1a00002 	mov	r0, r2
  107a64:	e49df004 	pop	{pc}		; (ldr pc, [sp], #4)
  107a68:	e3a02001 	mov	r2, #1
  107a6c:	e5c13000 	strb	r3, [r1]
  107a70:	e1a00002 	mov	r0, r2
  107a74:	e12fff1e 	bx	lr
  107a78:	e1a02001 	mov	r2, r1
  107a7c:	e1a00002 	mov	r0, r2
  107a80:	e12fff1e 	bx	lr
  107a84:	e3a0308a 	mov	r3, #138	; 0x8a
  107a88:	e3e02000 	mvn	r2, #0
  107a8c:	e5803000 	str	r3, [r0]
  107a90:	eafffff2 	b	107a60 <__sjis_wctomb+0x58>

00107a94 <__eucjp_wctomb>:
  107a94:	e3510000 	cmp	r1, #0
  107a98:	e6efc072 	uxtb	ip, r2
  107a9c:	e7e72452 	ubfx	r2, r2, #8, #8
  107aa0:	0a00002c 	beq	107b58 <__eucjp_wctomb+0xc4>
  107aa4:	e3520000 	cmp	r2, #0
  107aa8:	0a00000f 	beq	107aec <__eucjp_wctomb+0x58>
  107aac:	e282305f 	add	r3, r2, #95	; 0x5f
  107ab0:	e92d4010 	push	{r4, lr}
  107ab4:	e6ef3073 	uxtb	r3, r3
  107ab8:	e282e072 	add	lr, r2, #114	; 0x72
  107abc:	e353005d 	cmp	r3, #93	; 0x5d
  107ac0:	e6efe07e 	uxtb	lr, lr
  107ac4:	83a04000 	movhi	r4, #0
  107ac8:	93a04001 	movls	r4, #1
  107acc:	e353005d 	cmp	r3, #93	; 0x5d
  107ad0:	835e0001 	cmphi	lr, #1
  107ad4:	9a000008 	bls	107afc <__eucjp_wctomb+0x68>
  107ad8:	e3e03000 	mvn	r3, #0
  107adc:	e3a0208a 	mov	r2, #138	; 0x8a
  107ae0:	e5802000 	str	r2, [r0]
  107ae4:	e1a00003 	mov	r0, r3
  107ae8:	e8bd8010 	pop	{r4, pc}
  107aec:	e3a03001 	mov	r3, #1
  107af0:	e5c1c000 	strb	ip, [r1]
  107af4:	e1a00003 	mov	r0, r3
  107af8:	e12fff1e 	bx	lr
  107afc:	e28c305f 	add	r3, ip, #95	; 0x5f
  107b00:	e6ef3073 	uxtb	r3, r3
  107b04:	e353005d 	cmp	r3, #93	; 0x5d
  107b08:	8a000004 	bhi	107b20 <__eucjp_wctomb+0x8c>
  107b0c:	e3a03002 	mov	r3, #2
  107b10:	e5c12000 	strb	r2, [r1]
  107b14:	e5c1c001 	strb	ip, [r1, #1]
  107b18:	e1a00003 	mov	r0, r3
  107b1c:	e8bd8010 	pop	{r4, pc}
  107b20:	e3540000 	cmp	r4, #0
  107b24:	0affffeb 	beq	107ad8 <__eucjp_wctomb+0x44>
  107b28:	e38cc080 	orr	ip, ip, #128	; 0x80
  107b2c:	e28c305f 	add	r3, ip, #95	; 0x5f
  107b30:	e6ef3073 	uxtb	r3, r3
  107b34:	e353005d 	cmp	r3, #93	; 0x5d
  107b38:	8affffe6 	bhi	107ad8 <__eucjp_wctomb+0x44>
  107b3c:	e3a03003 	mov	r3, #3
  107b40:	e5c12001 	strb	r2, [r1, #1]
  107b44:	e5c1c002 	strb	ip, [r1, #2]
  107b48:	e3e02070 	mvn	r2, #112	; 0x70
  107b4c:	e1a00003 	mov	r0, r3
  107b50:	e5c12000 	strb	r2, [r1]
  107b54:	e8bd8010 	pop	{r4, pc}
  107b58:	e1a03001 	mov	r3, r1
  107b5c:	e1a00003 	mov	r0, r3
  107b60:	e12fff1e 	bx	lr

00107b64 <__jis_wctomb>:
  107b64:	e3510000 	cmp	r1, #0
  107b68:	e6efc072 	uxtb	ip, r2
  107b6c:	e52de004 	push	{lr}		; (str lr, [sp, #-4]!)
  107b70:	e7e72452 	ubfx	r2, r2, #8, #8
  107b74:	e59d3004 	ldr	r3, [sp, #4]
  107b78:	0a000028 	beq	107c20 <__jis_wctomb+0xbc>
  107b7c:	e3520000 	cmp	r2, #0
  107b80:	0a000017 	beq	107be4 <__jis_wctomb+0x80>
  107b84:	e242e021 	sub	lr, r2, #33	; 0x21
  107b88:	e35e005d 	cmp	lr, #93	; 0x5d
  107b8c:	8a000026 	bhi	107c2c <__jis_wctomb+0xc8>
  107b90:	e24ce021 	sub	lr, ip, #33	; 0x21
  107b94:	e35e005d 	cmp	lr, #93	; 0x5d
  107b98:	8a000023 	bhi	107c2c <__jis_wctomb+0xc8>
  107b9c:	e5930000 	ldr	r0, [r3]
  107ba0:	e3500000 	cmp	r0, #0
  107ba4:	13a03002 	movne	r3, #2
  107ba8:	1a000009 	bne	107bd4 <__jis_wctomb+0x70>
  107bac:	e3a0001b 	mov	r0, #27
  107bb0:	e3a0e001 	mov	lr, #1
  107bb4:	e2811003 	add	r1, r1, #3
  107bb8:	e583e000 	str	lr, [r3]
  107bbc:	e3a03024 	mov	r3, #36	; 0x24
  107bc0:	e5410003 	strb	r0, [r1, #-3]
  107bc4:	e5413002 	strb	r3, [r1, #-2]
  107bc8:	e3a00042 	mov	r0, #66	; 0x42
  107bcc:	e5410001 	strb	r0, [r1, #-1]
  107bd0:	e3a03005 	mov	r3, #5
  107bd4:	e5c12000 	strb	r2, [r1]
  107bd8:	e1a00003 	mov	r0, r3
  107bdc:	e5c1c001 	strb	ip, [r1, #1]
  107be0:	e49df004 	pop	{pc}		; (ldr pc, [sp], #4)
  107be4:	e5930000 	ldr	r0, [r3]
  107be8:	e3500000 	cmp	r0, #0
  107bec:	15832000 	strne	r2, [r3]
  107bf0:	13a0201b 	movne	r2, #27
  107bf4:	13a03028 	movne	r3, #40	; 0x28
  107bf8:	15c12000 	strbne	r2, [r1]
  107bfc:	13a02042 	movne	r2, #66	; 0x42
  107c00:	15c13001 	strbne	r3, [r1, #1]
  107c04:	03a03001 	moveq	r3, #1
  107c08:	15c12002 	strbne	r2, [r1, #2]
  107c0c:	12811003 	addne	r1, r1, #3
  107c10:	13a03004 	movne	r3, #4
  107c14:	e5c1c000 	strb	ip, [r1]
  107c18:	e1a00003 	mov	r0, r3
  107c1c:	e49df004 	pop	{pc}		; (ldr pc, [sp], #4)
  107c20:	e3a03001 	mov	r3, #1
  107c24:	e1a00003 	mov	r0, r3
  107c28:	e49df004 	pop	{pc}		; (ldr pc, [sp], #4)
  107c2c:	e3a0208a 	mov	r2, #138	; 0x8a
  107c30:	e3e03000 	mvn	r3, #0
  107c34:	e5802000 	str	r2, [r0]
  107c38:	eafffff6 	b	107c18 <__jis_wctomb+0xb4>

00107c3c <__swsetup_r>:
  107c3c:	e3073988 	movw	r3, #31112	; 0x7988
  107c40:	e3403011 	movt	r3, #17
  107c44:	e92d4070 	push	{r4, r5, r6, lr}
  107c48:	e1a05000 	mov	r5, r0
  107c4c:	e5930000 	ldr	r0, [r3]
  107c50:	e1a04001 	mov	r4, r1
  107c54:	e3500000 	cmp	r0, #0
  107c58:	0a000002 	beq	107c68 <__swsetup_r+0x2c>
  107c5c:	e5902038 	ldr	r2, [r0, #56]	; 0x38
  107c60:	e3520000 	cmp	r2, #0
  107c64:	0a000036 	beq	107d44 <__swsetup_r+0x108>
  107c68:	e1d4c0bc 	ldrh	ip, [r4, #12]
  107c6c:	e6ff307c 	uxth	r3, ip
  107c70:	e3130008 	tst	r3, #8
  107c74:	15942010 	ldrne	r2, [r4, #16]
  107c78:	1a000018 	bne	107ce0 <__swsetup_r+0xa4>
  107c7c:	e3130010 	tst	r3, #16
  107c80:	0a00003a 	beq	107d70 <__swsetup_r+0x134>
  107c84:	e3130004 	tst	r3, #4
  107c88:	05942010 	ldreq	r2, [r4, #16]
  107c8c:	0a000010 	beq	107cd4 <__swsetup_r+0x98>
  107c90:	e5941030 	ldr	r1, [r4, #48]	; 0x30
  107c94:	e3510000 	cmp	r1, #0
  107c98:	0a000007 	beq	107cbc <__swsetup_r+0x80>
  107c9c:	e2843040 	add	r3, r4, #64	; 0x40
  107ca0:	e1510003 	cmp	r1, r3
  107ca4:	0a000002 	beq	107cb4 <__swsetup_r+0x78>
  107ca8:	e1a00005 	mov	r0, r5
  107cac:	eb000769 	bl	109a58 <_free_r>
  107cb0:	e1d4c0bc 	ldrh	ip, [r4, #12]
  107cb4:	e3a03000 	mov	r3, #0
  107cb8:	e5843030 	str	r3, [r4, #48]	; 0x30
  107cbc:	e3ccc024 	bic	ip, ip, #36	; 0x24
  107cc0:	e5942010 	ldr	r2, [r4, #16]
  107cc4:	e3a03000 	mov	r3, #0
  107cc8:	e5843004 	str	r3, [r4, #4]
  107ccc:	e6ffc07c 	uxth	ip, ip
  107cd0:	e5842000 	str	r2, [r4]
  107cd4:	e38c3008 	orr	r3, ip, #8
  107cd8:	e1c430bc 	strh	r3, [r4, #12]
  107cdc:	e6ff3073 	uxth	r3, r3
  107ce0:	e3520000 	cmp	r2, #0
  107ce4:	0a000018 	beq	107d4c <__swsetup_r+0x110>
  107ce8:	e2131001 	ands	r1, r3, #1
  107cec:	1a000006 	bne	107d0c <__swsetup_r+0xd0>
  107cf0:	e3130002 	tst	r3, #2
  107cf4:	05941014 	ldreq	r1, [r4, #20]
  107cf8:	e3520000 	cmp	r2, #0
  107cfc:	e5841008 	str	r1, [r4, #8]
  107d00:	0a000008 	beq	107d28 <__swsetup_r+0xec>
  107d04:	e3a00000 	mov	r0, #0
  107d08:	e8bd8070 	pop	{r4, r5, r6, pc}
  107d0c:	e5943014 	ldr	r3, [r4, #20]
  107d10:	e3520000 	cmp	r2, #0
  107d14:	e3a01000 	mov	r1, #0
  107d18:	e5841008 	str	r1, [r4, #8]
  107d1c:	e2633000 	rsb	r3, r3, #0
  107d20:	e5843018 	str	r3, [r4, #24]
  107d24:	1afffff6 	bne	107d04 <__swsetup_r+0xc8>
  107d28:	e1d430bc 	ldrh	r3, [r4, #12]
  107d2c:	e3130080 	tst	r3, #128	; 0x80
  107d30:	0afffff3 	beq	107d04 <__swsetup_r+0xc8>
  107d34:	e3833040 	orr	r3, r3, #64	; 0x40
  107d38:	e3e00000 	mvn	r0, #0
  107d3c:	e1c430bc 	strh	r3, [r4, #12]
  107d40:	e8bd8070 	pop	{r4, r5, r6, pc}
  107d44:	eb0006f0 	bl	10990c <__sinit>
  107d48:	eaffffc6 	b	107c68 <__swsetup_r+0x2c>
  107d4c:	e2031d0a 	and	r1, r3, #640	; 0x280
  107d50:	e3510c02 	cmp	r1, #512	; 0x200
  107d54:	0affffe3 	beq	107ce8 <__swsetup_r+0xac>
  107d58:	e1a00005 	mov	r0, r5
  107d5c:	e1a01004 	mov	r1, r4
  107d60:	eb000cb1 	bl	10b02c <__smakebuf_r>
  107d64:	e1d430bc 	ldrh	r3, [r4, #12]
  107d68:	e5942010 	ldr	r2, [r4, #16]
  107d6c:	eaffffdd 	b	107ce8 <__swsetup_r+0xac>
  107d70:	e38cc040 	orr	ip, ip, #64	; 0x40
  107d74:	e3a03009 	mov	r3, #9
  107d78:	e3e00000 	mvn	r0, #0
  107d7c:	e5853000 	str	r3, [r5]
  107d80:	e1c4c0bc 	strh	ip, [r4, #12]
  107d84:	e8bd8070 	pop	{r4, r5, r6, pc}

00107d88 <__call_exitprocs>:
  107d88:	e3063974 	movw	r3, #26996	; 0x6974
  107d8c:	e3042200 	movw	r2, #16896	; 0x4200
  107d90:	e3403011 	movt	r3, #17
  107d94:	e3402010 	movt	r2, #16
  107d98:	e5933000 	ldr	r3, [r3]
  107d9c:	e92d4ff0 	push	{r4, r5, r6, r7, r8, r9, sl, fp, lr}
  107da0:	e24dd014 	sub	sp, sp, #20
  107da4:	e1a09000 	mov	r9, r0
  107da8:	e1a06001 	mov	r6, r1
  107dac:	e58d3008 	str	r3, [sp, #8]
  107db0:	e2833f52 	add	r3, r3, #328	; 0x148
  107db4:	e58d2004 	str	r2, [sp, #4]
  107db8:	e58d300c 	str	r3, [sp, #12]
  107dbc:	e59d3008 	ldr	r3, [sp, #8]
  107dc0:	e5938148 	ldr	r8, [r3, #328]	; 0x148
  107dc4:	e3580000 	cmp	r8, #0
  107dc8:	0a000039 	beq	107eb4 <__call_exitprocs+0x12c>
  107dcc:	e59da00c 	ldr	sl, [sp, #12]
  107dd0:	e1a0b00a 	mov	fp, sl
  107dd4:	e5984004 	ldr	r4, [r8, #4]
  107dd8:	e2545001 	subs	r5, r4, #1
  107ddc:	52844001 	addpl	r4, r4, #1
  107de0:	53a07000 	movpl	r7, #0
  107de4:	50884104 	addpl	r4, r8, r4, lsl #2
  107de8:	5a000007 	bpl	107e0c <__call_exitprocs+0x84>
  107dec:	ea000021 	b	107e78 <__call_exitprocs+0xf0>
  107df0:	e5943100 	ldr	r3, [r4, #256]	; 0x100
  107df4:	e1530006 	cmp	r3, r6
  107df8:	0a000005 	beq	107e14 <__call_exitprocs+0x8c>
  107dfc:	e2455001 	sub	r5, r5, #1
  107e00:	e2444004 	sub	r4, r4, #4
  107e04:	e3750001 	cmn	r5, #1
  107e08:	0a00001a 	beq	107e78 <__call_exitprocs+0xf0>
  107e0c:	e3560000 	cmp	r6, #0
  107e10:	1afffff6 	bne	107df0 <__call_exitprocs+0x68>
  107e14:	e5983004 	ldr	r3, [r8, #4]
  107e18:	e5942000 	ldr	r2, [r4]
  107e1c:	e2433001 	sub	r3, r3, #1
  107e20:	e1530005 	cmp	r3, r5
  107e24:	05885004 	streq	r5, [r8, #4]
  107e28:	15847000 	strne	r7, [r4]
  107e2c:	e3520000 	cmp	r2, #0
  107e30:	0afffff1 	beq	107dfc <__call_exitprocs+0x74>
  107e34:	e5983188 	ldr	r3, [r8, #392]	; 0x188
  107e38:	e3a01001 	mov	r1, #1
  107e3c:	e1a01511 	lsl	r1, r1, r5
  107e40:	e598a004 	ldr	sl, [r8, #4]
  107e44:	e1110003 	tst	r1, r3
  107e48:	1a00001b 	bne	107ebc <__call_exitprocs+0x134>
  107e4c:	e12fff32 	blx	r2
  107e50:	e5983004 	ldr	r3, [r8, #4]
  107e54:	e153000a 	cmp	r3, sl
  107e58:	1affffd7 	bne	107dbc <__call_exitprocs+0x34>
  107e5c:	e59b3000 	ldr	r3, [fp]
  107e60:	e1530008 	cmp	r3, r8
  107e64:	1affffd4 	bne	107dbc <__call_exitprocs+0x34>
  107e68:	e2455001 	sub	r5, r5, #1
  107e6c:	e2444004 	sub	r4, r4, #4
  107e70:	e3750001 	cmn	r5, #1
  107e74:	1affffe4 	bne	107e0c <__call_exitprocs+0x84>
  107e78:	e59d3004 	ldr	r3, [sp, #4]
  107e7c:	e3530000 	cmp	r3, #0
  107e80:	0a00000b 	beq	107eb4 <__call_exitprocs+0x12c>
  107e84:	e5983004 	ldr	r3, [r8, #4]
  107e88:	e3530000 	cmp	r3, #0
  107e8c:	e5983000 	ldr	r3, [r8]
  107e90:	1a000013 	bne	107ee4 <__call_exitprocs+0x15c>
  107e94:	e3530000 	cmp	r3, #0
  107e98:	0a000011 	beq	107ee4 <__call_exitprocs+0x15c>
  107e9c:	e1a00008 	mov	r0, r8
  107ea0:	e58b3000 	str	r3, [fp]
  107ea4:	ebfff0d5 	bl	104200 <free>
  107ea8:	e59b8000 	ldr	r8, [fp]
  107eac:	e3580000 	cmp	r8, #0
  107eb0:	1affffc7 	bne	107dd4 <__call_exitprocs+0x4c>
  107eb4:	e28dd014 	add	sp, sp, #20
  107eb8:	e8bd8ff0 	pop	{r4, r5, r6, r7, r8, r9, sl, fp, pc}
  107ebc:	e598318c 	ldr	r3, [r8, #396]	; 0x18c
  107ec0:	e1110003 	tst	r1, r3
  107ec4:	1a000003 	bne	107ed8 <__call_exitprocs+0x150>
  107ec8:	e5941080 	ldr	r1, [r4, #128]	; 0x80
  107ecc:	e1a00009 	mov	r0, r9
  107ed0:	e12fff32 	blx	r2
  107ed4:	eaffffdd 	b	107e50 <__call_exitprocs+0xc8>
  107ed8:	e5940080 	ldr	r0, [r4, #128]	; 0x80
  107edc:	e12fff32 	blx	r2
  107ee0:	eaffffda 	b	107e50 <__call_exitprocs+0xc8>
  107ee4:	e1a0b008 	mov	fp, r8
  107ee8:	e1a08003 	mov	r8, r3
  107eec:	eaffffee 	b	107eac <__call_exitprocs+0x124>

00107ef0 <atexit>:
  107ef0:	e3a03000 	mov	r3, #0
  107ef4:	e1a01000 	mov	r1, r0
  107ef8:	e1a02003 	mov	r2, r3
  107efc:	e1a00003 	mov	r0, r3
  107f00:	ea001fb2 	b	10fdd0 <__register_exitproc>
  107f04:	00000000 	andeq	r0, r0, r0

00107f08 <quorem>:
  107f08:	e92d4ff0 	push	{r4, r5, r6, r7, r8, r9, sl, fp, lr}
  107f0c:	e24dd00c 	sub	sp, sp, #12
  107f10:	e5903010 	ldr	r3, [r0, #16]
  107f14:	e5915010 	ldr	r5, [r1, #16]
  107f18:	e1550003 	cmp	r5, r3
  107f1c:	c3a00000 	movgt	r0, #0
  107f20:	ca000067 	bgt	1080c4 <quorem+0x1bc>
  107f24:	e2455001 	sub	r5, r5, #1
  107f28:	e2814014 	add	r4, r1, #20
  107f2c:	e58d1000 	str	r1, [sp]
  107f30:	e2809014 	add	r9, r0, #20
  107f34:	e7941105 	ldr	r1, [r4, r5, lsl #2]
  107f38:	e1a0a105 	lsl	sl, r5, #2
  107f3c:	e1a07000 	mov	r7, r0
  107f40:	e7990105 	ldr	r0, [r9, r5, lsl #2]
  107f44:	e2811001 	add	r1, r1, #1
  107f48:	e089300a 	add	r3, r9, sl
  107f4c:	e58d3004 	str	r3, [sp, #4]
  107f50:	ebffefe0 	bl	103ed8 <__aeabi_uidiv>
  107f54:	e084800a 	add	r8, r4, sl
  107f58:	e2506000 	subs	r6, r0, #0
  107f5c:	0a00002c 	beq	108014 <quorem+0x10c>
  107f60:	e3a00000 	mov	r0, #0
  107f64:	e1a0b004 	mov	fp, r4
  107f68:	e1a02000 	mov	r2, r0
  107f6c:	e1a0e009 	mov	lr, r9
  107f70:	e49b3004 	ldr	r3, [fp], #4
  107f74:	e59ec000 	ldr	ip, [lr]
  107f78:	e158000b 	cmp	r8, fp
  107f7c:	e6ff1073 	uxth	r1, r3
  107f80:	e1a03823 	lsr	r3, r3, #16
  107f84:	e0210691 	mla	r1, r1, r6, r0
  107f88:	e0000693 	mul	r0, r3, r6
  107f8c:	e6ff3071 	uxth	r3, r1
  107f90:	e0800821 	add	r0, r0, r1, lsr #16
  107f94:	e0633002 	rsb	r3, r3, r2
  107f98:	e6f3307c 	uxtah	r3, r3, ip
  107f9c:	e6ff2070 	uxth	r2, r0
  107fa0:	e062282c 	rsb	r2, r2, ip, lsr #16
  107fa4:	e1a00820 	lsr	r0, r0, #16
  107fa8:	e0822843 	add	r2, r2, r3, asr #16
  107fac:	e6ff3073 	uxth	r3, r3
  107fb0:	e183c802 	orr	ip, r3, r2, lsl #16
  107fb4:	e1a02842 	asr	r2, r2, #16
  107fb8:	e48ec004 	str	ip, [lr], #4
  107fbc:	2affffeb 	bcs	107f70 <quorem+0x68>
  107fc0:	e799300a 	ldr	r3, [r9, sl]
  107fc4:	e3530000 	cmp	r3, #0
  107fc8:	1a000011 	bne	108014 <quorem+0x10c>
  107fcc:	e59d2004 	ldr	r2, [sp, #4]
  107fd0:	e2423004 	sub	r3, r2, #4
  107fd4:	e1590003 	cmp	r9, r3
  107fd8:	2a00000c 	bcs	108010 <quorem+0x108>
  107fdc:	e5123004 	ldr	r3, [r2, #-4]
  107fe0:	e3530000 	cmp	r3, #0
  107fe4:	1a000009 	bne	108010 <quorem+0x108>
  107fe8:	e2423008 	sub	r3, r2, #8
  107fec:	ea000002 	b	107ffc <quorem+0xf4>
  107ff0:	e5922000 	ldr	r2, [r2]
  107ff4:	e3520000 	cmp	r2, #0
  107ff8:	1a000004 	bne	108010 <quorem+0x108>
  107ffc:	e1590003 	cmp	r9, r3
  108000:	e1a02003 	mov	r2, r3
  108004:	e2455001 	sub	r5, r5, #1
  108008:	e2433004 	sub	r3, r3, #4
  10800c:	3afffff7 	bcc	107ff0 <quorem+0xe8>
  108010:	e5875010 	str	r5, [r7, #16]
  108014:	e59d1000 	ldr	r1, [sp]
  108018:	e1a00007 	mov	r0, r7
  10801c:	eb001230 	bl	10c8e4 <__mcmp>
  108020:	e3500000 	cmp	r0, #0
  108024:	ba000025 	blt	1080c0 <quorem+0x1b8>
  108028:	e2866001 	add	r6, r6, #1
  10802c:	e1a0c009 	mov	ip, r9
  108030:	e3a03000 	mov	r3, #0
  108034:	e4940004 	ldr	r0, [r4], #4
  108038:	e59c1000 	ldr	r1, [ip]
  10803c:	e1580004 	cmp	r8, r4
  108040:	e6ff2070 	uxth	r2, r0
  108044:	e1a00820 	lsr	r0, r0, #16
  108048:	e0622003 	rsb	r2, r2, r3
  10804c:	e0603821 	rsb	r3, r0, r1, lsr #16
  108050:	e6f22071 	uxtah	r2, r2, r1
  108054:	e0833842 	add	r3, r3, r2, asr #16
  108058:	e6ff2072 	uxth	r2, r2
  10805c:	e1821803 	orr	r1, r2, r3, lsl #16
  108060:	e1a03843 	asr	r3, r3, #16
  108064:	e48c1004 	str	r1, [ip], #4
  108068:	2afffff1 	bcs	108034 <quorem+0x12c>
  10806c:	e7992105 	ldr	r2, [r9, r5, lsl #2]
  108070:	e0893105 	add	r3, r9, r5, lsl #2
  108074:	e3520000 	cmp	r2, #0
  108078:	1a000010 	bne	1080c0 <quorem+0x1b8>
  10807c:	e2432004 	sub	r2, r3, #4
  108080:	e1590002 	cmp	r9, r2
  108084:	2a00000c 	bcs	1080bc <quorem+0x1b4>
  108088:	e5132004 	ldr	r2, [r3, #-4]
  10808c:	e3520000 	cmp	r2, #0
  108090:	1a000009 	bne	1080bc <quorem+0x1b4>
  108094:	e2433008 	sub	r3, r3, #8
  108098:	ea000002 	b	1080a8 <quorem+0x1a0>
  10809c:	e5922000 	ldr	r2, [r2]
  1080a0:	e3520000 	cmp	r2, #0
  1080a4:	1a000004 	bne	1080bc <quorem+0x1b4>
  1080a8:	e1590003 	cmp	r9, r3
  1080ac:	e1a02003 	mov	r2, r3
  1080b0:	e2455001 	sub	r5, r5, #1
  1080b4:	e2433004 	sub	r3, r3, #4
  1080b8:	3afffff7 	bcc	10809c <quorem+0x194>
  1080bc:	e5875010 	str	r5, [r7, #16]
  1080c0:	e1a00006 	mov	r0, r6
  1080c4:	e28dd00c 	add	sp, sp, #12
  1080c8:	e8bd8ff0 	pop	{r4, r5, r6, r7, r8, r9, sl, fp, pc}

001080cc <_dtoa_r>:
  1080cc:	e92d4ff0 	push	{r4, r5, r6, r7, r8, r9, sl, fp, lr}
  1080d0:	e1a04000 	mov	r4, r0
  1080d4:	ed2d8b02 	vpush	{d8}
  1080d8:	e1a05001 	mov	r5, r1
  1080dc:	e590c040 	ldr	ip, [r0, #64]	; 0x40
  1080e0:	e1a07002 	mov	r7, r2
  1080e4:	e35c0000 	cmp	ip, #0
  1080e8:	ec5bab10 	vmov	sl, fp, d0
  1080ec:	e24dd04c 	sub	sp, sp, #76	; 0x4c
  1080f0:	e58d3004 	str	r3, [sp, #4]
  1080f4:	e59d8078 	ldr	r8, [sp, #120]	; 0x78
  1080f8:	0a000007 	beq	10811c <_dtoa_r+0x50>
  1080fc:	e5902044 	ldr	r2, [r0, #68]	; 0x44
  108100:	e3a03001 	mov	r3, #1
  108104:	e1a0100c 	mov	r1, ip
  108108:	e1a03213 	lsl	r3, r3, r2
  10810c:	e98c000c 	stmib	ip, {r2, r3}
  108110:	eb001045 	bl	10c22c <_Bfree>
  108114:	e3a03000 	mov	r3, #0
  108118:	e5843040 	str	r3, [r4, #64]	; 0x40
  10811c:	e35b0000 	cmp	fp, #0
  108120:	e1a0600b 	mov	r6, fp
  108124:	b3cb6102 	biclt	r6, fp, #-2147483648	; 0x80000000
  108128:	b3a03001 	movlt	r3, #1
  10812c:	a3a03000 	movge	r3, #0
  108130:	b5883000 	strlt	r3, [r8]
  108134:	b1a0b006 	movlt	fp, r6
  108138:	a5883000 	strge	r3, [r8]
  10813c:	e3a03000 	mov	r3, #0
  108140:	e1a02003 	mov	r2, r3
  108144:	e3473ff0 	movt	r3, #32752	; 0x7ff0
  108148:	e0033006 	and	r3, r3, r6
  10814c:	e3472ff0 	movt	r2, #32752	; 0x7ff0
  108150:	e1530002 	cmp	r3, r2
  108154:	0a000010 	beq	10819c <_dtoa_r+0xd0>
  108158:	ec4bab18 	vmov	d8, sl, fp
  10815c:	eeb58b40 	vcmp.f64	d8, #0.0
  108160:	eef1fa10 	vmrs	APSR_nzcv, fpscr
  108164:	1a00001b 	bne	1081d8 <_dtoa_r+0x10c>
  108168:	e59d307c 	ldr	r3, [sp, #124]	; 0x7c
  10816c:	e59d2004 	ldr	r2, [sp, #4]
  108170:	e3530000 	cmp	r3, #0
  108174:	e3a03001 	mov	r3, #1
  108178:	e5823000 	str	r3, [r2]
  10817c:	0a000082 	beq	10838c <_dtoa_r+0x2c0>
  108180:	e59f32f0 	ldr	r3, [pc, #752]	; 108478 <_dtoa_r+0x3ac>
  108184:	e2430001 	sub	r0, r3, #1
  108188:	e59d207c 	ldr	r2, [sp, #124]	; 0x7c
  10818c:	e5823000 	str	r3, [r2]
  108190:	e28dd04c 	add	sp, sp, #76	; 0x4c
  108194:	ecbd8b02 	vpop	{d8}
  108198:	e8bd8ff0 	pop	{r4, r5, r6, r7, r8, r9, sl, fp, pc}
  10819c:	e35a0000 	cmp	sl, #0
  1081a0:	e59d2004 	ldr	r2, [sp, #4]
  1081a4:	e302370f 	movw	r3, #9999	; 0x270f
  1081a8:	13070194 	movwne	r0, #29076	; 0x7194
  1081ac:	e5823000 	str	r3, [r2]
  1081b0:	13400011 	movtne	r0, #17
  1081b4:	0a000060 	beq	10833c <_dtoa_r+0x270>
  1081b8:	e59d307c 	ldr	r3, [sp, #124]	; 0x7c
  1081bc:	e3530000 	cmp	r3, #0
  1081c0:	0afffff2 	beq	108190 <_dtoa_r+0xc4>
  1081c4:	e5d03003 	ldrb	r3, [r0, #3]
  1081c8:	e3530000 	cmp	r3, #0
  1081cc:	12803008 	addne	r3, r0, #8
  1081d0:	02803003 	addeq	r3, r0, #3
  1081d4:	eaffffeb 	b	108188 <_dtoa_r+0xbc>
  1081d8:	e28d2040 	add	r2, sp, #64	; 0x40
  1081dc:	e28d1044 	add	r1, sp, #68	; 0x44
  1081e0:	ec4bab10 	vmov	d0, sl, fp
  1081e4:	e1a00004 	mov	r0, r4
  1081e8:	eb00127c 	bl	10cbe0 <__d2b>
  1081ec:	e1b08a26 	lsrs	r8, r6, #20
  1081f0:	e1a09000 	mov	r9, r0
  1081f4:	1a000059 	bne	108360 <_dtoa_r+0x294>
  1081f8:	e59d8040 	ldr	r8, [sp, #64]	; 0x40
  1081fc:	e3e03e41 	mvn	r3, #1040	; 0x410
  108200:	e59d1044 	ldr	r1, [sp, #68]	; 0x44
  108204:	e0881001 	add	r1, r8, r1
  108208:	e1510003 	cmp	r1, r3
  10820c:	ba000153 	blt	108760 <_dtoa_r+0x694>
  108210:	e2813e41 	add	r3, r1, #1040	; 0x410
  108214:	e30f2c0e 	movw	r2, #64526	; 0xfc0e
  108218:	e2833002 	add	r3, r3, #2
  10821c:	e34f2fff 	movt	r2, #65535	; 0xffff
  108220:	e1a0333a 	lsr	r3, sl, r3
  108224:	e0612002 	rsb	r2, r1, r2
  108228:	e1833216 	orr	r3, r3, r6, lsl r2
  10822c:	ee073a90 	vmov	s15, r3
  108230:	eeb87b67 	vcvt.f64.u32	d7, s15
  108234:	e2411001 	sub	r1, r1, #1
  108238:	e3a00001 	mov	r0, #1
  10823c:	e58d0030 	str	r0, [sp, #48]	; 0x30
  108240:	ec532b17 	vmov	r2, r3, d7
  108244:	e243361f 	sub	r3, r3, #32505856	; 0x1f00000
  108248:	eeb76b08 	vmov.f64	d6, #120	; 0x78
  10824c:	ec432b13 	vmov	d3, r2, r3
  108250:	ed9f4b82 	vldr	d4, [pc, #520]	; 108460 <_dtoa_r+0x394>
  108254:	ed9f7b83 	vldr	d7, [pc, #524]	; 108468 <_dtoa_r+0x39c>
  108258:	ed9f5b84 	vldr	d5, [pc, #528]	; 108470 <_dtoa_r+0x3a4>
  10825c:	ee336b46 	vsub.f64	d6, d3, d6
  108260:	ee067b04 	vmla.f64	d7, d6, d4
  108264:	ee061a90 	vmov	s13, r1
  108268:	eeb86be6 	vcvt.f64.s32	d6, s13
  10826c:	ee067b05 	vmla.f64	d7, d6, d5
  108270:	eefd6bc7 	vcvt.s32.f64	s13, d7
  108274:	eeb57bc0 	vcmpe.f64	d7, #0.0
  108278:	edcd6a02 	vstr	s13, [sp, #8]
  10827c:	eef1fa10 	vmrs	APSR_nzcv, fpscr
  108280:	4a00012f 	bmi	108744 <_dtoa_r+0x678>
  108284:	e59d3008 	ldr	r3, [sp, #8]
  108288:	e3530016 	cmp	r3, #22
  10828c:	83a03001 	movhi	r3, #1
  108290:	858d302c 	strhi	r3, [sp, #44]	; 0x2c
  108294:	8a00000c 	bhi	1082cc <_dtoa_r+0x200>
  108298:	e59d2008 	ldr	r2, [sp, #8]
  10829c:	e3063a58 	movw	r3, #27224	; 0x6a58
  1082a0:	e3403011 	movt	r3, #17
  1082a4:	ec4bab16 	vmov	d6, sl, fp
  1082a8:	e0833182 	add	r3, r3, r2, lsl #3
  1082ac:	ed937b00 	vldr	d7, [r3]
  1082b0:	eeb47bc6 	vcmpe.f64	d7, d6
  1082b4:	eef1fa10 	vmrs	APSR_nzcv, fpscr
  1082b8:	c1a03002 	movgt	r3, r2
  1082bc:	c2433001 	subgt	r3, r3, #1
  1082c0:	c58d3008 	strgt	r3, [sp, #8]
  1082c4:	e3a03000 	mov	r3, #0
  1082c8:	e58d302c 	str	r3, [sp, #44]	; 0x2c
  1082cc:	e0618008 	rsb	r8, r1, r8
  1082d0:	e2588001 	subs	r8, r8, #1
  1082d4:	42683000 	rsbmi	r3, r8, #0
  1082d8:	458d3020 	strmi	r3, [sp, #32]
  1082dc:	53a03000 	movpl	r3, #0
  1082e0:	558d3020 	strpl	r3, [sp, #32]
  1082e4:	e59d3008 	ldr	r3, [sp, #8]
  1082e8:	43a08000 	movmi	r8, #0
  1082ec:	e3530000 	cmp	r3, #0
  1082f0:	ba00010a 	blt	108720 <_dtoa_r+0x654>
  1082f4:	e0888003 	add	r8, r8, r3
  1082f8:	e58d3028 	str	r3, [sp, #40]	; 0x28
  1082fc:	e3a03000 	mov	r3, #0
  108300:	e58d3010 	str	r3, [sp, #16]
  108304:	e3550009 	cmp	r5, #9
  108308:	8a000022 	bhi	108398 <_dtoa_r+0x2cc>
  10830c:	e3550005 	cmp	r5, #5
  108310:	d3a02001 	movle	r2, #1
  108314:	c2455004 	subgt	r5, r5, #4
  108318:	c3a02000 	movgt	r2, #0
  10831c:	e2453002 	sub	r3, r5, #2
  108320:	e3530003 	cmp	r3, #3
  108324:	979ff103 	ldrls	pc, [pc, r3, lsl #2]
  108328:	ea000112 	b	108778 <_dtoa_r+0x6ac>
  10832c:	00108aac 	.word	0x00108aac
  108330:	00108a6c 	.word	0x00108a6c
  108334:	0010885c 	.word	0x0010885c
  108338:	00109370 	.word	0x00109370
  10833c:	e7f30056 	ubfx	r0, r6, #0, #20
  108340:	e3073194 	movw	r3, #29076	; 0x7194
  108344:	e3500000 	cmp	r0, #0
  108348:	e3072188 	movw	r2, #29064	; 0x7188
  10834c:	e3403011 	movt	r3, #17
  108350:	e3402011 	movt	r2, #17
  108354:	11a00003 	movne	r0, r3
  108358:	01a00002 	moveq	r0, r2
  10835c:	eaffff95 	b	1081b8 <_dtoa_r+0xec>
  108360:	e1cda0f8 	strd	sl, [sp, #8]
  108364:	e2481fff 	sub	r1, r8, #1020	; 0x3fc
  108368:	e1cd20d8 	ldrd	r2, [sp, #8]
  10836c:	e2411003 	sub	r1, r1, #3
  108370:	e59d8040 	ldr	r8, [sp, #64]	; 0x40
  108374:	e7f30053 	ubfx	r0, r3, #0, #20
  108378:	e38035ff 	orr	r3, r0, #1069547520	; 0x3fc00000
  10837c:	e3a00000 	mov	r0, #0
  108380:	e3833603 	orr	r3, r3, #3145728	; 0x300000
  108384:	e58d0030 	str	r0, [sp, #48]	; 0x30
  108388:	eaffffae 	b	108248 <_dtoa_r+0x17c>
  10838c:	e3070184 	movw	r0, #29060	; 0x7184
  108390:	e3400011 	movt	r0, #17
  108394:	eaffff7d 	b	108190 <_dtoa_r+0xc4>
  108398:	e3a01000 	mov	r1, #0
  10839c:	e1a00004 	mov	r0, r4
  1083a0:	e5841044 	str	r1, [r4, #68]	; 0x44
  1083a4:	e3e03000 	mvn	r3, #0
  1083a8:	e1a07001 	mov	r7, r1
  1083ac:	e58d3034 	str	r3, [sp, #52]	; 0x34
  1083b0:	eb000f7a 	bl	10c1a0 <_Balloc>
  1083b4:	e59d3034 	ldr	r3, [sp, #52]	; 0x34
  1083b8:	e1a05007 	mov	r5, r7
  1083bc:	e58d3014 	str	r3, [sp, #20]
  1083c0:	e3a03001 	mov	r3, #1
  1083c4:	e58d3024 	str	r3, [sp, #36]	; 0x24
  1083c8:	e1a06000 	mov	r6, r0
  1083cc:	e5840040 	str	r0, [r4, #64]	; 0x40
  1083d0:	e59d3044 	ldr	r3, [sp, #68]	; 0x44
  1083d4:	e59d1008 	ldr	r1, [sp, #8]
  1083d8:	e1e02003 	mvn	r2, r3
  1083dc:	e351000e 	cmp	r1, #14
  1083e0:	e1a02fa2 	lsr	r2, r2, #31
  1083e4:	c3a02000 	movgt	r2, #0
  1083e8:	e3520000 	cmp	r2, #0
  1083ec:	0a000022 	beq	10847c <_dtoa_r+0x3b0>
  1083f0:	e59d1014 	ldr	r1, [sp, #20]
  1083f4:	e1a02fa7 	lsr	r2, r7, #31
  1083f8:	e3063a58 	movw	r3, #27224	; 0x6a58
  1083fc:	e3510000 	cmp	r1, #0
  108400:	c3a02000 	movgt	r2, #0
  108404:	d2022001 	andle	r2, r2, #1
  108408:	e3403011 	movt	r3, #17
  10840c:	e3520000 	cmp	r2, #0
  108410:	e59d2008 	ldr	r2, [sp, #8]
  108414:	e0833182 	add	r3, r3, r2, lsl #3
  108418:	ed933b00 	vldr	d3, [r3]
  10841c:	0a0001a5 	beq	108ab8 <_dtoa_r+0x9ec>
  108420:	e59d3014 	ldr	r3, [sp, #20]
  108424:	e3530000 	cmp	r3, #0
  108428:	1a0001f4 	bne	108c00 <_dtoa_r+0xb34>
  10842c:	eeb17b04 	vmov.f64	d7, #20
  108430:	ee233b07 	vmul.f64	d3, d3, d7
  108434:	ec4bab17 	vmov	d7, sl, fp
  108438:	eeb43bc7 	vcmpe.f64	d3, d7
  10843c:	eef1fa10 	vmrs	APSR_nzcv, fpscr
  108440:	ba000236 	blt	108d20 <_dtoa_r+0xc54>
  108444:	e59d3014 	ldr	r3, [sp, #20]
  108448:	e58d3010 	str	r3, [sp, #16]
  10844c:	e58d3018 	str	r3, [sp, #24]
  108450:	e1e03007 	mvn	r3, r7
  108454:	e58d3008 	str	r3, [sp, #8]
  108458:	e1a03006 	mov	r3, r6
  10845c:	ea00008d 	b	108698 <_dtoa_r+0x5cc>
  108460:	636f4361 	.word	0x636f4361
  108464:	3fd287a7 	.word	0x3fd287a7
  108468:	8b60c8b3 	.word	0x8b60c8b3
  10846c:	3fc68a28 	.word	0x3fc68a28
  108470:	509f79fb 	.word	0x509f79fb
  108474:	3fd34413 	.word	0x3fd34413
  108478:	00117185 	.word	0x00117185
  10847c:	e59d2024 	ldr	r2, [sp, #36]	; 0x24
  108480:	e3520000 	cmp	r2, #0
  108484:	1a0000d2 	bne	1087d4 <_dtoa_r+0x708>
  108488:	e59d3020 	ldr	r3, [sp, #32]
  10848c:	e59dc010 	ldr	ip, [sp, #16]
  108490:	e58d3030 	str	r3, [sp, #48]	; 0x30
  108494:	e59d3024 	ldr	r3, [sp, #36]	; 0x24
  108498:	e58d3018 	str	r3, [sp, #24]
  10849c:	e3580000 	cmp	r8, #0
  1084a0:	e59d2030 	ldr	r2, [sp, #48]	; 0x30
  1084a4:	c3a03001 	movgt	r3, #1
  1084a8:	d3a03000 	movle	r3, #0
  1084ac:	e3520000 	cmp	r2, #0
  1084b0:	c2033001 	andgt	r3, r3, #1
  1084b4:	d3a03000 	movle	r3, #0
  1084b8:	e3530000 	cmp	r3, #0
  1084bc:	0a000008 	beq	1084e4 <_dtoa_r+0x418>
  1084c0:	e1580002 	cmp	r8, r2
  1084c4:	e1a03002 	mov	r3, r2
  1084c8:	e59d1020 	ldr	r1, [sp, #32]
  1084cc:	b1a03008 	movlt	r3, r8
  1084d0:	e0638008 	rsb	r8, r3, r8
  1084d4:	e0631001 	rsb	r1, r3, r1
  1084d8:	e0632002 	rsb	r2, r3, r2
  1084dc:	e58d1020 	str	r1, [sp, #32]
  1084e0:	e58d2030 	str	r2, [sp, #48]	; 0x30
  1084e4:	e59d3010 	ldr	r3, [sp, #16]
  1084e8:	e3530000 	cmp	r3, #0
  1084ec:	da000018 	ble	108554 <_dtoa_r+0x488>
  1084f0:	e59d3024 	ldr	r3, [sp, #36]	; 0x24
  1084f4:	e3530000 	cmp	r3, #0
  1084f8:	0a00020b 	beq	108d2c <_dtoa_r+0xc60>
  1084fc:	e35c0000 	cmp	ip, #0
  108500:	da000010 	ble	108548 <_dtoa_r+0x47c>
  108504:	e1a0200c 	mov	r2, ip
  108508:	e59d1018 	ldr	r1, [sp, #24]
  10850c:	e1a00004 	mov	r0, r4
  108510:	e58dc03c 	str	ip, [sp, #60]	; 0x3c
  108514:	eb001074 	bl	10c6ec <__pow5mult>
  108518:	e1a02009 	mov	r2, r9
  10851c:	e1a01000 	mov	r1, r0
  108520:	e58d0018 	str	r0, [sp, #24]
  108524:	e1a00004 	mov	r0, r4
  108528:	eb000ff8 	bl	10c510 <__multiply>
  10852c:	e1a01009 	mov	r1, r9
  108530:	e58d0038 	str	r0, [sp, #56]	; 0x38
  108534:	e1a00004 	mov	r0, r4
  108538:	eb000f3b 	bl	10c22c <_Bfree>
  10853c:	e59d3038 	ldr	r3, [sp, #56]	; 0x38
  108540:	e59dc03c 	ldr	ip, [sp, #60]	; 0x3c
  108544:	e1a09003 	mov	r9, r3
  108548:	e59d3010 	ldr	r3, [sp, #16]
  10854c:	e053200c 	subs	r2, r3, ip
  108550:	1a0001f6 	bne	108d30 <_dtoa_r+0xc64>
  108554:	e3a01001 	mov	r1, #1
  108558:	e1a00004 	mov	r0, r4
  10855c:	eb000fe3 	bl	10c4f0 <__i2b>
  108560:	e59d3028 	ldr	r3, [sp, #40]	; 0x28
  108564:	e3530000 	cmp	r3, #0
  108568:	e58d0010 	str	r0, [sp, #16]
  10856c:	da00018a 	ble	108b9c <_dtoa_r+0xad0>
  108570:	e1a01000 	mov	r1, r0
  108574:	e1a02003 	mov	r2, r3
  108578:	e1a00004 	mov	r0, r4
  10857c:	eb00105a 	bl	10c6ec <__pow5mult>
  108580:	e3550001 	cmp	r5, #1
  108584:	e58d0010 	str	r0, [sp, #16]
  108588:	da000301 	ble	109194 <_dtoa_r+0x10c8>
  10858c:	e3a03000 	mov	r3, #0
  108590:	e58d3038 	str	r3, [sp, #56]	; 0x38
  108594:	e59d2010 	ldr	r2, [sp, #16]
  108598:	e5923010 	ldr	r3, [r2, #16]
  10859c:	e0823103 	add	r3, r2, r3, lsl #2
  1085a0:	e5930010 	ldr	r0, [r3, #16]
  1085a4:	eb000f94 	bl	10c3fc <__hi0bits>
  1085a8:	e2600020 	rsb	r0, r0, #32
  1085ac:	e0800008 	add	r0, r0, r8
  1085b0:	e210001f 	ands	r0, r0, #31
  1085b4:	0a0001d6 	beq	108d14 <_dtoa_r+0xc48>
  1085b8:	e2603020 	rsb	r3, r0, #32
  1085bc:	e3530004 	cmp	r3, #4
  1085c0:	da000367 	ble	109364 <_dtoa_r+0x1298>
  1085c4:	e260001c 	rsb	r0, r0, #28
  1085c8:	e59d3020 	ldr	r3, [sp, #32]
  1085cc:	e0888000 	add	r8, r8, r0
  1085d0:	e0833000 	add	r3, r3, r0
  1085d4:	e58d3020 	str	r3, [sp, #32]
  1085d8:	e59d3030 	ldr	r3, [sp, #48]	; 0x30
  1085dc:	e0833000 	add	r3, r3, r0
  1085e0:	e58d3030 	str	r3, [sp, #48]	; 0x30
  1085e4:	e59d3020 	ldr	r3, [sp, #32]
  1085e8:	e3530000 	cmp	r3, #0
  1085ec:	da000004 	ble	108604 <_dtoa_r+0x538>
  1085f0:	e1a01009 	mov	r1, r9
  1085f4:	e1a02003 	mov	r2, r3
  1085f8:	e1a00004 	mov	r0, r4
  1085fc:	eb001079 	bl	10c7e8 <__lshift>
  108600:	e1a09000 	mov	r9, r0
  108604:	e3580000 	cmp	r8, #0
  108608:	da000004 	ble	108620 <_dtoa_r+0x554>
  10860c:	e1a02008 	mov	r2, r8
  108610:	e59d1010 	ldr	r1, [sp, #16]
  108614:	e1a00004 	mov	r0, r4
  108618:	eb001072 	bl	10c7e8 <__lshift>
  10861c:	e58d0010 	str	r0, [sp, #16]
  108620:	e59d302c 	ldr	r3, [sp, #44]	; 0x2c
  108624:	e3530000 	cmp	r3, #0
  108628:	1a00020e 	bne	108e68 <_dtoa_r+0xd9c>
  10862c:	e3550002 	cmp	r5, #2
  108630:	e59d2014 	ldr	r2, [sp, #20]
  108634:	c3a03001 	movgt	r3, #1
  108638:	d3a03000 	movle	r3, #0
  10863c:	e3520000 	cmp	r2, #0
  108640:	c3a03000 	movgt	r3, #0
  108644:	e3530000 	cmp	r3, #0
  108648:	0a000170 	beq	108c10 <_dtoa_r+0xb44>
  10864c:	e59d3014 	ldr	r3, [sp, #20]
  108650:	e3530000 	cmp	r3, #0
  108654:	1affff7d 	bne	108450 <_dtoa_r+0x384>
  108658:	e59d1010 	ldr	r1, [sp, #16]
  10865c:	e3a02005 	mov	r2, #5
  108660:	e1a00004 	mov	r0, r4
  108664:	eb000ef7 	bl	10c248 <__multadd>
  108668:	e1a01000 	mov	r1, r0
  10866c:	e58d0010 	str	r0, [sp, #16]
  108670:	e1a00009 	mov	r0, r9
  108674:	eb00109a 	bl	10c8e4 <__mcmp>
  108678:	e3500000 	cmp	r0, #0
  10867c:	daffff73 	ble	108450 <_dtoa_r+0x384>
  108680:	e59d3008 	ldr	r3, [sp, #8]
  108684:	e3a02031 	mov	r2, #49	; 0x31
  108688:	e5c62000 	strb	r2, [r6]
  10868c:	e2833001 	add	r3, r3, #1
  108690:	e58d3008 	str	r3, [sp, #8]
  108694:	e2863001 	add	r3, r6, #1
  108698:	e59d1010 	ldr	r1, [sp, #16]
  10869c:	e1a00004 	mov	r0, r4
  1086a0:	e58d3014 	str	r3, [sp, #20]
  1086a4:	eb000ee0 	bl	10c22c <_Bfree>
  1086a8:	e59d3018 	ldr	r3, [sp, #24]
  1086ac:	e3530000 	cmp	r3, #0
  1086b0:	e59d3014 	ldr	r3, [sp, #20]
  1086b4:	0a000004 	beq	1086cc <_dtoa_r+0x600>
  1086b8:	e59d1018 	ldr	r1, [sp, #24]
  1086bc:	e1a00004 	mov	r0, r4
  1086c0:	e58d3010 	str	r3, [sp, #16]
  1086c4:	eb000ed8 	bl	10c22c <_Bfree>
  1086c8:	e59d3010 	ldr	r3, [sp, #16]
  1086cc:	e1a01009 	mov	r1, r9
  1086d0:	e1a00004 	mov	r0, r4
  1086d4:	e58d3010 	str	r3, [sp, #16]
  1086d8:	eb000ed3 	bl	10c22c <_Bfree>
  1086dc:	e59d307c 	ldr	r3, [sp, #124]	; 0x7c
  1086e0:	e3a01000 	mov	r1, #0
  1086e4:	e3530000 	cmp	r3, #0
  1086e8:	e59d3008 	ldr	r3, [sp, #8]
  1086ec:	e2832001 	add	r2, r3, #1
  1086f0:	e59d3010 	ldr	r3, [sp, #16]
  1086f4:	01a00006 	moveq	r0, r6
  1086f8:	e5c31000 	strb	r1, [r3]
  1086fc:	e59d1004 	ldr	r1, [sp, #4]
  108700:	e5812000 	str	r2, [r1]
  108704:	0afffea1 	beq	108190 <_dtoa_r+0xc4>
  108708:	e59d207c 	ldr	r2, [sp, #124]	; 0x7c
  10870c:	e1a00006 	mov	r0, r6
  108710:	e5823000 	str	r3, [r2]
  108714:	e28dd04c 	add	sp, sp, #76	; 0x4c
  108718:	ecbd8b02 	vpop	{d8}
  10871c:	e8bd8ff0 	pop	{r4, r5, r6, r7, r8, r9, sl, fp, pc}
  108720:	e59d2020 	ldr	r2, [sp, #32]
  108724:	e59d3008 	ldr	r3, [sp, #8]
  108728:	e0632002 	rsb	r2, r3, r2
  10872c:	e2633000 	rsb	r3, r3, #0
  108730:	e58d2020 	str	r2, [sp, #32]
  108734:	e58d3010 	str	r3, [sp, #16]
  108738:	e3a03000 	mov	r3, #0
  10873c:	e58d3028 	str	r3, [sp, #40]	; 0x28
  108740:	eafffeef 	b	108304 <_dtoa_r+0x238>
  108744:	eeb86be6 	vcvt.f64.s32	d6, s13
  108748:	eeb46b47 	vcmp.f64	d6, d7
  10874c:	eef1fa10 	vmrs	APSR_nzcv, fpscr
  108750:	159d3008 	ldrne	r3, [sp, #8]
  108754:	12433001 	subne	r3, r3, #1
  108758:	158d3008 	strne	r3, [sp, #8]
  10875c:	eafffec8 	b	108284 <_dtoa_r+0x1b8>
  108760:	e30f3bee 	movw	r3, #64494	; 0xfbee
  108764:	e34f3fff 	movt	r3, #65535	; 0xffff
  108768:	e0613003 	rsb	r3, r1, r3
  10876c:	e1a0331a 	lsl	r3, sl, r3
  108770:	ee073a90 	vmov	s15, r3
  108774:	eafffead 	b	108230 <_dtoa_r+0x164>
  108778:	e3a02000 	mov	r2, #0
  10877c:	e1a00004 	mov	r0, r4
  108780:	e5842044 	str	r2, [r4, #68]	; 0x44
  108784:	e1a01002 	mov	r1, r2
  108788:	e58d2014 	str	r2, [sp, #20]
  10878c:	eb000e83 	bl	10c1a0 <_Balloc>
  108790:	e59d7008 	ldr	r7, [sp, #8]
  108794:	e59d3044 	ldr	r3, [sp, #68]	; 0x44
  108798:	e357000e 	cmp	r7, #14
  10879c:	e59d2014 	ldr	r2, [sp, #20]
  1087a0:	c3a07000 	movgt	r7, #0
  1087a4:	d3a07001 	movle	r7, #1
  1087a8:	e3530000 	cmp	r3, #0
  1087ac:	b3a07000 	movlt	r7, #0
  1087b0:	e3570000 	cmp	r7, #0
  1087b4:	e1a06000 	mov	r6, r0
  1087b8:	e5840040 	str	r0, [r4, #64]	; 0x40
  1087bc:	1a0002ee 	bne	10937c <_dtoa_r+0x12b0>
  1087c0:	e3e02000 	mvn	r2, #0
  1087c4:	e58d2014 	str	r2, [sp, #20]
  1087c8:	e58d2034 	str	r2, [sp, #52]	; 0x34
  1087cc:	e3a02001 	mov	r2, #1
  1087d0:	e58d2024 	str	r2, [sp, #36]	; 0x24
  1087d4:	e3550001 	cmp	r5, #1
  1087d8:	da000276 	ble	1091b8 <_dtoa_r+0x10ec>
  1087dc:	e59d3014 	ldr	r3, [sp, #20]
  1087e0:	e2432001 	sub	r2, r3, #1
  1087e4:	e59d3010 	ldr	r3, [sp, #16]
  1087e8:	e1530002 	cmp	r3, r2
  1087ec:	a062c003 	rsbge	ip, r2, r3
  1087f0:	b59d3010 	ldrlt	r3, [sp, #16]
  1087f4:	b3a0c000 	movlt	ip, #0
  1087f8:	b58d2010 	strlt	r2, [sp, #16]
  1087fc:	b0633002 	rsblt	r3, r3, r2
  108800:	b59d2028 	ldrlt	r2, [sp, #40]	; 0x28
  108804:	b0823003 	addlt	r3, r2, r3
  108808:	b58d3028 	strlt	r3, [sp, #40]	; 0x28
  10880c:	e59d3014 	ldr	r3, [sp, #20]
  108810:	e3530000 	cmp	r3, #0
  108814:	e59d3020 	ldr	r3, [sp, #32]
  108818:	b59d2014 	ldrlt	r2, [sp, #20]
  10881c:	a58d3030 	strge	r3, [sp, #48]	; 0x30
  108820:	a59d3014 	ldrge	r3, [sp, #20]
  108824:	b0623003 	rsblt	r3, r2, r3
  108828:	b58d3030 	strlt	r3, [sp, #48]	; 0x30
  10882c:	b3a03000 	movlt	r3, #0
  108830:	e59d2020 	ldr	r2, [sp, #32]
  108834:	e3a01001 	mov	r1, #1
  108838:	e1a00004 	mov	r0, r4
  10883c:	e58dc038 	str	ip, [sp, #56]	; 0x38
  108840:	e0822003 	add	r2, r2, r3
  108844:	e0888003 	add	r8, r8, r3
  108848:	e58d2020 	str	r2, [sp, #32]
  10884c:	eb000f27 	bl	10c4f0 <__i2b>
  108850:	e59dc038 	ldr	ip, [sp, #56]	; 0x38
  108854:	e58d0018 	str	r0, [sp, #24]
  108858:	eaffff0f 	b	10849c <_dtoa_r+0x3d0>
  10885c:	e3a03001 	mov	r3, #1
  108860:	e58d3024 	str	r3, [sp, #36]	; 0x24
  108864:	e3570000 	cmp	r7, #0
  108868:	da00022b 	ble	10911c <_dtoa_r+0x1050>
  10886c:	e1a0c007 	mov	ip, r7
  108870:	e357000e 	cmp	r7, #14
  108874:	83a02000 	movhi	r2, #0
  108878:	92022001 	andls	r2, r2, #1
  10887c:	e58d7034 	str	r7, [sp, #52]	; 0x34
  108880:	e58d2018 	str	r2, [sp, #24]
  108884:	e58d7014 	str	r7, [sp, #20]
  108888:	e35c0017 	cmp	ip, #23
  10888c:	e3a01000 	mov	r1, #0
  108890:	e5841044 	str	r1, [r4, #68]	; 0x44
  108894:	9a000008 	bls	1088bc <_dtoa_r+0x7f0>
  108898:	e3a02001 	mov	r2, #1
  10889c:	e3a03004 	mov	r3, #4
  1088a0:	e1a03083 	lsl	r3, r3, #1
  1088a4:	e1a01002 	mov	r1, r2
  1088a8:	e2830014 	add	r0, r3, #20
  1088ac:	e2822001 	add	r2, r2, #1
  1088b0:	e150000c 	cmp	r0, ip
  1088b4:	9afffff9 	bls	1088a0 <_dtoa_r+0x7d4>
  1088b8:	e5841044 	str	r1, [r4, #68]	; 0x44
  1088bc:	e1a00004 	mov	r0, r4
  1088c0:	eb000e36 	bl	10c1a0 <_Balloc>
  1088c4:	e59d3018 	ldr	r3, [sp, #24]
  1088c8:	e3530000 	cmp	r3, #0
  1088cc:	e1a06000 	mov	r6, r0
  1088d0:	e5840040 	str	r0, [r4, #64]	; 0x40
  1088d4:	0afffebd 	beq	1083d0 <_dtoa_r+0x304>
  1088d8:	e59d3008 	ldr	r3, [sp, #8]
  1088dc:	ec4bab15 	vmov	d5, sl, fp
  1088e0:	e3530000 	cmp	r3, #0
  1088e4:	da000119 	ble	108d50 <_dtoa_r+0xc84>
  1088e8:	e203100f 	and	r1, r3, #15
  1088ec:	e3062a58 	movw	r2, #27224	; 0x6a58
  1088f0:	e1a03243 	asr	r3, r3, #4
  1088f4:	e3402011 	movt	r2, #17
  1088f8:	e3130010 	tst	r3, #16
  1088fc:	e0822181 	add	r2, r2, r1, lsl #3
  108900:	1203300f 	andne	r3, r3, #15
  108904:	ed927b00 	vldr	d7, [r2]
  108908:	13062b48 	movwne	r2, #27464	; 0x6b48
  10890c:	13402011 	movtne	r2, #17
  108910:	13a01003 	movne	r1, #3
  108914:	03a01002 	moveq	r1, #2
  108918:	1d923b08 	vldrne	d3, [r2, #32]
  10891c:	0eb03b45 	vmoveq.f64	d3, d5
  108920:	1e853b03 	vdivne.f64	d3, d5, d3
  108924:	e3530000 	cmp	r3, #0
  108928:	0a000008 	beq	108950 <_dtoa_r+0x884>
  10892c:	e3062b48 	movw	r2, #27464	; 0x6b48
  108930:	e3402011 	movt	r2, #17
  108934:	e3130001 	tst	r3, #1
  108938:	e2822008 	add	r2, r2, #8
  10893c:	12811001 	addne	r1, r1, #1
  108940:	1d126b02 	vldrne	d6, [r2, #-8]
  108944:	1e277b06 	vmulne.f64	d7, d7, d6
  108948:	e1b030c3 	asrs	r3, r3, #1
  10894c:	1afffff8 	bne	108934 <_dtoa_r+0x868>
  108950:	ee833b07 	vdiv.f64	d3, d3, d7
  108954:	e59d302c 	ldr	r3, [sp, #44]	; 0x2c
  108958:	e3530000 	cmp	r3, #0
  10895c:	0a000003 	beq	108970 <_dtoa_r+0x8a4>
  108960:	eeb77b00 	vmov.f64	d7, #112	; 0x70
  108964:	eeb43bc7 	vcmpe.f64	d3, d7
  108968:	eef1fa10 	vmrs	APSR_nzcv, fpscr
  10896c:	4a0001f5 	bmi	109148 <_dtoa_r+0x107c>
  108970:	eeb17b0c 	vmov.f64	d7, #28
  108974:	e59d3014 	ldr	r3, [sp, #20]
  108978:	ee061a90 	vmov	s13, r1
  10897c:	e3530000 	cmp	r3, #0
  108980:	eeb86be6 	vcvt.f64.s32	d6, s13
  108984:	ee067b03 	vmla.f64	d7, d6, d3
  108988:	ec5bab17 	vmov	sl, fp, d7
  10898c:	e24bb50d 	sub	fp, fp, #54525952	; 0x3400000
  108990:	0a000090 	beq	108bd8 <_dtoa_r+0xb0c>
  108994:	e59de008 	ldr	lr, [sp, #8]
  108998:	e59d2014 	ldr	r2, [sp, #20]
  10899c:	e59d3024 	ldr	r3, [sp, #36]	; 0x24
  1089a0:	e3530000 	cmp	r3, #0
  1089a4:	0a000102 	beq	108db4 <_dtoa_r+0xce8>
  1089a8:	eeb67b00 	vmov.f64	d7, #96	; 0x60
  1089ac:	e3061a58 	movw	r1, #27224	; 0x6a58
  1089b0:	e3401011 	movt	r1, #17
  1089b4:	e0811182 	add	r1, r1, r2, lsl #3
  1089b8:	e2863001 	add	r3, r6, #1
  1089bc:	ed114b02 	vldr	d4, [r1, #-8]
  1089c0:	ee874b04 	vdiv.f64	d4, d7, d4
  1089c4:	eefd6bc3 	vcvt.s32.f64	s13, d3
  1089c8:	ee161a90 	vmov	r1, s13
  1089cc:	eeb87be6 	vcvt.f64.s32	d7, s13
  1089d0:	ec4bab16 	vmov	d6, sl, fp
  1089d4:	ee337b47 	vsub.f64	d7, d3, d7
  1089d8:	ee344b46 	vsub.f64	d4, d4, d6
  1089dc:	e2811030 	add	r1, r1, #48	; 0x30
  1089e0:	e6ef1071 	uxtb	r1, r1
  1089e4:	e5c61000 	strb	r1, [r6]
  1089e8:	eeb44bc7 	vcmpe.f64	d4, d7
  1089ec:	eef1fa10 	vmrs	APSR_nzcv, fpscr
  1089f0:	ca00001b 	bgt	108a64 <_dtoa_r+0x998>
  1089f4:	eeb72b00 	vmov.f64	d2, #112	; 0x70
  1089f8:	ee326b47 	vsub.f64	d6, d2, d7
  1089fc:	eeb44bc6 	vcmpe.f64	d4, d6
  108a00:	eef1fa10 	vmrs	APSR_nzcv, fpscr
  108a04:	ca000057 	bgt	108b68 <_dtoa_r+0xa9c>
  108a08:	e3520001 	cmp	r2, #1
  108a0c:	da0000cc 	ble	108d44 <_dtoa_r+0xc78>
  108a10:	e0862002 	add	r2, r6, r2
  108a14:	eeb23b04 	vmov.f64	d3, #36	; 0x24
  108a18:	ea000005 	b	108a34 <_dtoa_r+0x968>
  108a1c:	ee326b47 	vsub.f64	d6, d2, d7
  108a20:	eeb46bc4 	vcmpe.f64	d6, d4
  108a24:	eef1fa10 	vmrs	APSR_nzcv, fpscr
  108a28:	4a00004e 	bmi	108b68 <_dtoa_r+0xa9c>
  108a2c:	e1530002 	cmp	r3, r2
  108a30:	0a0000c3 	beq	108d44 <_dtoa_r+0xc78>
  108a34:	ee277b03 	vmul.f64	d7, d7, d3
  108a38:	eebd6bc7 	vcvt.s32.f64	s12, d7
  108a3c:	ee161a10 	vmov	r1, s12
  108a40:	ee244b03 	vmul.f64	d4, d4, d3
  108a44:	eeb86bc6 	vcvt.f64.s32	d6, s12
  108a48:	e2811030 	add	r1, r1, #48	; 0x30
  108a4c:	e6ef1071 	uxtb	r1, r1
  108a50:	e4c31001 	strb	r1, [r3], #1
  108a54:	ee377b46 	vsub.f64	d7, d7, d6
  108a58:	eeb47bc4 	vcmpe.f64	d7, d4
  108a5c:	eef1fa10 	vmrs	APSR_nzcv, fpscr
  108a60:	5affffed 	bpl	108a1c <_dtoa_r+0x950>
  108a64:	e58de008 	str	lr, [sp, #8]
  108a68:	eaffff17 	b	1086cc <_dtoa_r+0x600>
  108a6c:	e3a03000 	mov	r3, #0
  108a70:	e58d3024 	str	r3, [sp, #36]	; 0x24
  108a74:	e59d3008 	ldr	r3, [sp, #8]
  108a78:	e0873003 	add	r3, r7, r3
  108a7c:	e58d3034 	str	r3, [sp, #52]	; 0x34
  108a80:	e2833001 	add	r3, r3, #1
  108a84:	e58d3014 	str	r3, [sp, #20]
  108a88:	e3530000 	cmp	r3, #0
  108a8c:	da00019a 	ble	1090fc <_dtoa_r+0x1030>
  108a90:	e59d3014 	ldr	r3, [sp, #20]
  108a94:	e353000e 	cmp	r3, #14
  108a98:	83a02000 	movhi	r2, #0
  108a9c:	92022001 	andls	r2, r2, #1
  108aa0:	e58d2018 	str	r2, [sp, #24]
  108aa4:	e1a0c003 	mov	ip, r3
  108aa8:	eaffff76 	b	108888 <_dtoa_r+0x7bc>
  108aac:	e3a03000 	mov	r3, #0
  108ab0:	e58d3024 	str	r3, [sp, #36]	; 0x24
  108ab4:	eaffff6a 	b	108864 <_dtoa_r+0x798>
  108ab8:	ec4bab17 	vmov	d7, sl, fp
  108abc:	e3510001 	cmp	r1, #1
  108ac0:	e2863001 	add	r3, r6, #1
  108ac4:	ee876b03 	vdiv.f64	d6, d7, d3
  108ac8:	eebd6bc6 	vcvt.s32.f64	s12, d6
  108acc:	ee162a10 	vmov	r2, s12
  108ad0:	eeb85bc6 	vcvt.f64.s32	d5, s12
  108ad4:	ee057b43 	vmls.f64	d7, d5, d3
  108ad8:	e2822030 	add	r2, r2, #48	; 0x30
  108adc:	e5c62000 	strb	r2, [r6]
  108ae0:	0a000014 	beq	108b38 <_dtoa_r+0xa6c>
  108ae4:	eeb24b04 	vmov.f64	d4, #36	; 0x24
  108ae8:	ee277b04 	vmul.f64	d7, d7, d4
  108aec:	eeb57b40 	vcmp.f64	d7, #0.0
  108af0:	eef1fa10 	vmrs	APSR_nzcv, fpscr
  108af4:	159d1014 	ldrne	r1, [sp, #20]
  108af8:	1a000004 	bne	108b10 <_dtoa_r+0xa44>
  108afc:	eafffef2 	b	1086cc <_dtoa_r+0x600>
  108b00:	ee277b04 	vmul.f64	d7, d7, d4
  108b04:	eeb57b40 	vcmp.f64	d7, #0.0
  108b08:	eef1fa10 	vmrs	APSR_nzcv, fpscr
  108b0c:	0afffeee 	beq	1086cc <_dtoa_r+0x600>
  108b10:	ee876b03 	vdiv.f64	d6, d7, d3
  108b14:	eebd6bc6 	vcvt.s32.f64	s12, d6
  108b18:	ee162a10 	vmov	r2, s12
  108b1c:	eeb85bc6 	vcvt.f64.s32	d5, s12
  108b20:	ee057b43 	vmls.f64	d7, d5, d3
  108b24:	e2822030 	add	r2, r2, #48	; 0x30
  108b28:	e4c32001 	strb	r2, [r3], #1
  108b2c:	e0662003 	rsb	r2, r6, r3
  108b30:	e1510002 	cmp	r1, r2
  108b34:	1afffff1 	bne	108b00 <_dtoa_r+0xa34>
  108b38:	ee377b07 	vadd.f64	d7, d7, d7
  108b3c:	eeb43bc7 	vcmpe.f64	d3, d7
  108b40:	eef1fa10 	vmrs	APSR_nzcv, fpscr
  108b44:	4a000005 	bmi	108b60 <_dtoa_r+0xa94>
  108b48:	eeb43b47 	vcmp.f64	d3, d7
  108b4c:	eef1fa10 	vmrs	APSR_nzcv, fpscr
  108b50:	1afffedd 	bne	1086cc <_dtoa_r+0x600>
  108b54:	ee162a10 	vmov	r2, s12
  108b58:	e3120001 	tst	r2, #1
  108b5c:	0afffeda 	beq	1086cc <_dtoa_r+0x600>
  108b60:	e59de008 	ldr	lr, [sp, #8]
  108b64:	e5531001 	ldrb	r1, [r3, #-1]
  108b68:	e2430001 	sub	r0, r3, #1
  108b6c:	ea000002 	b	108b7c <_dtoa_r+0xab0>
  108b70:	e1500006 	cmp	r0, r6
  108b74:	0a00016d 	beq	109130 <_dtoa_r+0x1064>
  108b78:	e5701001 	ldrb	r1, [r0, #-1]!
  108b7c:	e3510039 	cmp	r1, #57	; 0x39
  108b80:	e2803001 	add	r3, r0, #1
  108b84:	0afffff9 	beq	108b70 <_dtoa_r+0xaa4>
  108b88:	e2812001 	add	r2, r1, #1
  108b8c:	e58de008 	str	lr, [sp, #8]
  108b90:	e6ef2072 	uxtb	r2, r2
  108b94:	e5c02000 	strb	r2, [r0]
  108b98:	eafffecb 	b	1086cc <_dtoa_r+0x600>
  108b9c:	e3550001 	cmp	r5, #1
  108ba0:	da0000ce 	ble	108ee0 <_dtoa_r+0xe14>
  108ba4:	e3a03000 	mov	r3, #0
  108ba8:	e58d3038 	str	r3, [sp, #56]	; 0x38
  108bac:	e59d3028 	ldr	r3, [sp, #40]	; 0x28
  108bb0:	e3530000 	cmp	r3, #0
  108bb4:	03a00001 	moveq	r0, #1
  108bb8:	0afffe7b 	beq	1085ac <_dtoa_r+0x4e0>
  108bbc:	eafffe74 	b	108594 <_dtoa_r+0x4c8>
  108bc0:	eeb17b0c 	vmov.f64	d7, #28
  108bc4:	ee061a90 	vmov	s13, r1
  108bc8:	eeb86be6 	vcvt.f64.s32	d6, s13
  108bcc:	ee067b03 	vmla.f64	d7, d6, d3
  108bd0:	ec5bab17 	vmov	sl, fp, d7
  108bd4:	e24bb50d 	sub	fp, fp, #54525952	; 0x3400000
  108bd8:	eeb17b04 	vmov.f64	d7, #20
  108bdc:	ec4bab16 	vmov	d6, sl, fp
  108be0:	ee337b47 	vsub.f64	d7, d3, d7
  108be4:	eeb47bc6 	vcmpe.f64	d7, d6
  108be8:	eef1fa10 	vmrs	APSR_nzcv, fpscr
  108bec:	ca00004a 	bgt	108d1c <_dtoa_r+0xc50>
  108bf0:	eeb16b46 	vneg.f64	d6, d6
  108bf4:	eeb47bc6 	vcmpe.f64	d7, d6
  108bf8:	eef1fa10 	vmrs	APSR_nzcv, fpscr
  108bfc:	5a000050 	bpl	108d44 <_dtoa_r+0xc78>
  108c00:	e3a03000 	mov	r3, #0
  108c04:	e58d3010 	str	r3, [sp, #16]
  108c08:	e58d3018 	str	r3, [sp, #24]
  108c0c:	eafffe0f 	b	108450 <_dtoa_r+0x384>
  108c10:	e59d3024 	ldr	r3, [sp, #36]	; 0x24
  108c14:	e3530000 	cmp	r3, #0
  108c18:	1a0000d2 	bne	108f68 <_dtoa_r+0xe9c>
  108c1c:	e1a07006 	mov	r7, r6
  108c20:	e59d5010 	ldr	r5, [sp, #16]
  108c24:	e59da014 	ldr	sl, [sp, #20]
  108c28:	ea000001 	b	108c34 <_dtoa_r+0xb68>
  108c2c:	eb000d85 	bl	10c248 <__multadd>
  108c30:	e1a09000 	mov	r9, r0
  108c34:	e1a01005 	mov	r1, r5
  108c38:	e1a00009 	mov	r0, r9
  108c3c:	ebfffcb1 	bl	107f08 <quorem>
  108c40:	e3a03000 	mov	r3, #0
  108c44:	e3a0200a 	mov	r2, #10
  108c48:	e1a01009 	mov	r1, r9
  108c4c:	e2808030 	add	r8, r0, #48	; 0x30
  108c50:	e4c78001 	strb	r8, [r7], #1
  108c54:	e066c007 	rsb	ip, r6, r7
  108c58:	e1a00004 	mov	r0, r4
  108c5c:	e15c000a 	cmp	ip, sl
  108c60:	bafffff1 	blt	108c2c <_dtoa_r+0xb60>
  108c64:	e59d3014 	ldr	r3, [sp, #20]
  108c68:	e3a0a000 	mov	sl, #0
  108c6c:	e3530001 	cmp	r3, #1
  108c70:	a0863003 	addge	r3, r6, r3
  108c74:	b2863001 	addlt	r3, r6, #1
  108c78:	e1a01009 	mov	r1, r9
  108c7c:	e3a02001 	mov	r2, #1
  108c80:	e1a00004 	mov	r0, r4
  108c84:	e58d3014 	str	r3, [sp, #20]
  108c88:	eb000ed6 	bl	10c7e8 <__lshift>
  108c8c:	e59d1010 	ldr	r1, [sp, #16]
  108c90:	e1a09000 	mov	r9, r0
  108c94:	eb000f12 	bl	10c8e4 <__mcmp>
  108c98:	e59d3014 	ldr	r3, [sp, #20]
  108c9c:	e3500000 	cmp	r0, #0
  108ca0:	da000169 	ble	10924c <_dtoa_r+0x1180>
  108ca4:	e5531001 	ldrb	r1, [r3, #-1]
  108ca8:	e2432001 	sub	r2, r3, #1
  108cac:	ea000002 	b	108cbc <_dtoa_r+0xbf0>
  108cb0:	e1520006 	cmp	r2, r6
  108cb4:	0a000139 	beq	1091a0 <_dtoa_r+0x10d4>
  108cb8:	e5721001 	ldrb	r1, [r2, #-1]!
  108cbc:	e3510039 	cmp	r1, #57	; 0x39
  108cc0:	e2823001 	add	r3, r2, #1
  108cc4:	0afffff9 	beq	108cb0 <_dtoa_r+0xbe4>
  108cc8:	e2811001 	add	r1, r1, #1
  108ccc:	e5c21000 	strb	r1, [r2]
  108cd0:	e59d1010 	ldr	r1, [sp, #16]
  108cd4:	e1a00004 	mov	r0, r4
  108cd8:	e58d3014 	str	r3, [sp, #20]
  108cdc:	eb000d52 	bl	10c22c <_Bfree>
  108ce0:	e59d2018 	ldr	r2, [sp, #24]
  108ce4:	e59d3014 	ldr	r3, [sp, #20]
  108ce8:	e3520000 	cmp	r2, #0
  108cec:	0afffe76 	beq	1086cc <_dtoa_r+0x600>
  108cf0:	e15a0002 	cmp	sl, r2
  108cf4:	135a0000 	cmpne	sl, #0
  108cf8:	0afffe6e 	beq	1086b8 <_dtoa_r+0x5ec>
  108cfc:	e1a0100a 	mov	r1, sl
  108d00:	e1a00004 	mov	r0, r4
  108d04:	e58d3010 	str	r3, [sp, #16]
  108d08:	eb000d47 	bl	10c22c <_Bfree>
  108d0c:	e59d3010 	ldr	r3, [sp, #16]
  108d10:	eafffe68 	b	1086b8 <_dtoa_r+0x5ec>
  108d14:	e3a0001c 	mov	r0, #28
  108d18:	eafffe2a 	b	1085c8 <_dtoa_r+0x4fc>
  108d1c:	e3a03000 	mov	r3, #0
  108d20:	e58d3010 	str	r3, [sp, #16]
  108d24:	e58d3018 	str	r3, [sp, #24]
  108d28:	eafffe54 	b	108680 <_dtoa_r+0x5b4>
  108d2c:	e59d2010 	ldr	r2, [sp, #16]
  108d30:	e1a01009 	mov	r1, r9
  108d34:	e1a00004 	mov	r0, r4
  108d38:	eb000e6b 	bl	10c6ec <__pow5mult>
  108d3c:	e1a09000 	mov	r9, r0
  108d40:	eafffe03 	b	108554 <_dtoa_r+0x488>
  108d44:	ed8d5b06 	vstr	d5, [sp, #24]
  108d48:	e1cda1d8 	ldrd	sl, [sp, #24]
  108d4c:	eafffd9f 	b	1083d0 <_dtoa_r+0x304>
  108d50:	e59d3008 	ldr	r3, [sp, #8]
  108d54:	e2633000 	rsb	r3, r3, #0
  108d58:	e3530000 	cmp	r3, #0
  108d5c:	0eb03b45 	vmoveq.f64	d3, d5
  108d60:	03a01002 	moveq	r1, #2
  108d64:	0afffefa 	beq	108954 <_dtoa_r+0x888>
  108d68:	e203100f 	and	r1, r3, #15
  108d6c:	e3062a58 	movw	r2, #27224	; 0x6a58
  108d70:	e3402011 	movt	r2, #17
  108d74:	e1b03243 	asrs	r3, r3, #4
  108d78:	e0822181 	add	r2, r2, r1, lsl #3
  108d7c:	ed927b00 	vldr	d7, [r2]
  108d80:	ee253b07 	vmul.f64	d3, d5, d7
  108d84:	0a000174 	beq	10935c <_dtoa_r+0x1290>
  108d88:	e3062b48 	movw	r2, #27464	; 0x6b48
  108d8c:	e3a01002 	mov	r1, #2
  108d90:	e3402011 	movt	r2, #17
  108d94:	e3130001 	tst	r3, #1
  108d98:	e2822008 	add	r2, r2, #8
  108d9c:	12811001 	addne	r1, r1, #1
  108da0:	1d127b02 	vldrne	d7, [r2, #-8]
  108da4:	1e233b07 	vmulne.f64	d3, d3, d7
  108da8:	e1b030c3 	asrs	r3, r3, #1
  108dac:	1afffff8 	bne	108d94 <_dtoa_r+0xcc8>
  108db0:	eafffee7 	b	108954 <_dtoa_r+0x888>
  108db4:	eefd7bc3 	vcvt.s32.f64	s15, d3
  108db8:	e2420001 	sub	r0, r2, #1
  108dbc:	e3061a58 	movw	r1, #27224	; 0x6a58
  108dc0:	e3520001 	cmp	r2, #1
  108dc4:	e3401011 	movt	r1, #17
  108dc8:	e0811180 	add	r1, r1, r0, lsl #3
  108dcc:	e2863001 	add	r3, r6, #1
  108dd0:	ed912b00 	vldr	d2, [r1]
  108dd4:	ee171a90 	vmov	r1, s15
  108dd8:	eeb86be7 	vcvt.f64.s32	d6, s15
  108ddc:	ec4bab17 	vmov	d7, sl, fp
  108de0:	ee222b07 	vmul.f64	d2, d2, d7
  108de4:	e2811030 	add	r1, r1, #48	; 0x30
  108de8:	e5c61000 	strb	r1, [r6]
  108dec:	ee337b46 	vsub.f64	d7, d3, d6
  108df0:	0a00000c 	beq	108e28 <_dtoa_r+0xd5c>
  108df4:	e0862002 	add	r2, r6, r2
  108df8:	e1a0c003 	mov	ip, r3
  108dfc:	eeb23b04 	vmov.f64	d3, #36	; 0x24
  108e00:	ee277b03 	vmul.f64	d7, d7, d3
  108e04:	eefd4bc7 	vcvt.s32.f64	s9, d7
  108e08:	ee141a90 	vmov	r1, s9
  108e0c:	eeb86be4 	vcvt.f64.s32	d6, s9
  108e10:	ee377b46 	vsub.f64	d7, d7, d6
  108e14:	e2811030 	add	r1, r1, #48	; 0x30
  108e18:	e4cc1001 	strb	r1, [ip], #1
  108e1c:	e15c0002 	cmp	ip, r2
  108e20:	1afffff6 	bne	108e00 <_dtoa_r+0xd34>
  108e24:	e0833000 	add	r3, r3, r0
  108e28:	eeb66b00 	vmov.f64	d6, #96	; 0x60
  108e2c:	ee324b06 	vadd.f64	d4, d2, d6
  108e30:	eeb44bc7 	vcmpe.f64	d4, d7
  108e34:	eef1fa10 	vmrs	APSR_nzcv, fpscr
  108e38:	4affff49 	bmi	108b64 <_dtoa_r+0xa98>
  108e3c:	ee366b42 	vsub.f64	d6, d6, d2
  108e40:	eeb46bc7 	vcmpe.f64	d6, d7
  108e44:	eef1fa10 	vmrs	APSR_nzcv, fpscr
  108e48:	ca000001 	bgt	108e54 <_dtoa_r+0xd88>
  108e4c:	eaffffbc 	b	108d44 <_dtoa_r+0xc78>
  108e50:	e1a03001 	mov	r3, r1
  108e54:	e5532001 	ldrb	r2, [r3, #-1]
  108e58:	e2431001 	sub	r1, r3, #1
  108e5c:	e3520030 	cmp	r2, #48	; 0x30
  108e60:	0afffffa 	beq	108e50 <_dtoa_r+0xd84>
  108e64:	eafffefe 	b	108a64 <_dtoa_r+0x998>
  108e68:	e59d1010 	ldr	r1, [sp, #16]
  108e6c:	e1a00009 	mov	r0, r9
  108e70:	eb000e9b 	bl	10c8e4 <__mcmp>
  108e74:	e3500000 	cmp	r0, #0
  108e78:	aafffdeb 	bge	10862c <_dtoa_r+0x560>
  108e7c:	e1a01009 	mov	r1, r9
  108e80:	e3a03000 	mov	r3, #0
  108e84:	e3a0200a 	mov	r2, #10
  108e88:	e1a00004 	mov	r0, r4
  108e8c:	eb000ced 	bl	10c248 <__multadd>
  108e90:	e59d3024 	ldr	r3, [sp, #36]	; 0x24
  108e94:	e3530000 	cmp	r3, #0
  108e98:	e59d3008 	ldr	r3, [sp, #8]
  108e9c:	e2433001 	sub	r3, r3, #1
  108ea0:	e58d3008 	str	r3, [sp, #8]
  108ea4:	e1a09000 	mov	r9, r0
  108ea8:	1a00001e 	bne	108f28 <_dtoa_r+0xe5c>
  108eac:	e3550002 	cmp	r5, #2
  108eb0:	e59d2034 	ldr	r2, [sp, #52]	; 0x34
  108eb4:	c3a03001 	movgt	r3, #1
  108eb8:	d3a03000 	movle	r3, #0
  108ebc:	e3520000 	cmp	r2, #0
  108ec0:	c3a03000 	movgt	r3, #0
  108ec4:	e3530000 	cmp	r3, #0
  108ec8:	01a03002 	moveq	r3, r2
  108ecc:	058d3014 	streq	r3, [sp, #20]
  108ed0:	0affff51 	beq	108c1c <_dtoa_r+0xb50>
  108ed4:	e59d3034 	ldr	r3, [sp, #52]	; 0x34
  108ed8:	e58d3014 	str	r3, [sp, #20]
  108edc:	eafffdda 	b	10864c <_dtoa_r+0x580>
  108ee0:	e35a0000 	cmp	sl, #0
  108ee4:	1affff2e 	bne	108ba4 <_dtoa_r+0xad8>
  108ee8:	e7f3305b 	ubfx	r3, fp, #0, #20
  108eec:	e3530000 	cmp	r3, #0
  108ef0:	1affff2b 	bne	108ba4 <_dtoa_r+0xad8>
  108ef4:	e3cb3102 	bic	r3, fp, #-2147483648	; 0x80000000
  108ef8:	e1a03a23 	lsr	r3, r3, #20
  108efc:	e1a03a03 	lsl	r3, r3, #20
  108f00:	e3530000 	cmp	r3, #0
  108f04:	058d3038 	streq	r3, [sp, #56]	; 0x38
  108f08:	0affff27 	beq	108bac <_dtoa_r+0xae0>
  108f0c:	e59d3020 	ldr	r3, [sp, #32]
  108f10:	e2888001 	add	r8, r8, #1
  108f14:	e2833001 	add	r3, r3, #1
  108f18:	e58d3020 	str	r3, [sp, #32]
  108f1c:	e3a03001 	mov	r3, #1
  108f20:	e58d3038 	str	r3, [sp, #56]	; 0x38
  108f24:	eaffff20 	b	108bac <_dtoa_r+0xae0>
  108f28:	e3a03000 	mov	r3, #0
  108f2c:	e3a0200a 	mov	r2, #10
  108f30:	e59d1018 	ldr	r1, [sp, #24]
  108f34:	e1a00004 	mov	r0, r4
  108f38:	eb000cc2 	bl	10c248 <__multadd>
  108f3c:	e3550002 	cmp	r5, #2
  108f40:	e59d2034 	ldr	r2, [sp, #52]	; 0x34
  108f44:	c3a03001 	movgt	r3, #1
  108f48:	d3a03000 	movle	r3, #0
  108f4c:	e3520000 	cmp	r2, #0
  108f50:	c3a03000 	movgt	r3, #0
  108f54:	e3530000 	cmp	r3, #0
  108f58:	e58d0018 	str	r0, [sp, #24]
  108f5c:	01a03002 	moveq	r3, r2
  108f60:	058d3014 	streq	r3, [sp, #20]
  108f64:	1affffda 	bne	108ed4 <_dtoa_r+0xe08>
  108f68:	e59d3030 	ldr	r3, [sp, #48]	; 0x30
  108f6c:	e3530000 	cmp	r3, #0
  108f70:	da000004 	ble	108f88 <_dtoa_r+0xebc>
  108f74:	e1a02003 	mov	r2, r3
  108f78:	e59d1018 	ldr	r1, [sp, #24]
  108f7c:	e1a00004 	mov	r0, r4
  108f80:	eb000e18 	bl	10c7e8 <__lshift>
  108f84:	e58d0018 	str	r0, [sp, #24]
  108f88:	e59d3038 	ldr	r3, [sp, #56]	; 0x38
  108f8c:	e3530000 	cmp	r3, #0
  108f90:	059d3018 	ldreq	r3, [sp, #24]
  108f94:	058d302c 	streq	r3, [sp, #44]	; 0x2c
  108f98:	1a0000b5 	bne	109274 <_dtoa_r+0x11a8>
  108f9c:	e59d3014 	ldr	r3, [sp, #20]
  108fa0:	e20a2001 	and	r2, sl, #1
  108fa4:	e1a07006 	mov	r7, r6
  108fa8:	e58d6030 	str	r6, [sp, #48]	; 0x30
  108fac:	e2433001 	sub	r3, r3, #1
  108fb0:	e1a0b005 	mov	fp, r5
  108fb4:	e0863003 	add	r3, r6, r3
  108fb8:	e58d2020 	str	r2, [sp, #32]
  108fbc:	e58d3024 	str	r3, [sp, #36]	; 0x24
  108fc0:	e59d602c 	ldr	r6, [sp, #44]	; 0x2c
  108fc4:	e59d5018 	ldr	r5, [sp, #24]
  108fc8:	ea000008 	b	108ff0 <_dtoa_r+0xf24>
  108fcc:	eb000c9d 	bl	10c248 <__multadd>
  108fd0:	e1a01006 	mov	r1, r6
  108fd4:	e3a03000 	mov	r3, #0
  108fd8:	e3a0200a 	mov	r2, #10
  108fdc:	e1a05000 	mov	r5, r0
  108fe0:	e1a00004 	mov	r0, r4
  108fe4:	eb000c97 	bl	10c248 <__multadd>
  108fe8:	e1a06000 	mov	r6, r0
  108fec:	e1a0700a 	mov	r7, sl
  108ff0:	e59d1010 	ldr	r1, [sp, #16]
  108ff4:	e1a00009 	mov	r0, r9
  108ff8:	ebfffbc2 	bl	107f08 <quorem>
  108ffc:	e1a01005 	mov	r1, r5
  109000:	e1a08000 	mov	r8, r0
  109004:	e58d0028 	str	r0, [sp, #40]	; 0x28
  109008:	e1a00009 	mov	r0, r9
  10900c:	e2888030 	add	r8, r8, #48	; 0x30
  109010:	eb000e33 	bl	10c8e4 <__mcmp>
  109014:	e1a02006 	mov	r2, r6
  109018:	e59d1010 	ldr	r1, [sp, #16]
  10901c:	e1a0a000 	mov	sl, r0
  109020:	e1a00004 	mov	r0, r4
  109024:	eb000e47 	bl	10c948 <__mdiff>
  109028:	e590200c 	ldr	r2, [r0, #12]
  10902c:	e1a03000 	mov	r3, r0
  109030:	e3520000 	cmp	r2, #0
  109034:	1a00002e 	bne	1090f4 <_dtoa_r+0x1028>
  109038:	e1a01000 	mov	r1, r0
  10903c:	e58d0014 	str	r0, [sp, #20]
  109040:	e1a00009 	mov	r0, r9
  109044:	eb000e26 	bl	10c8e4 <__mcmp>
  109048:	e59d3014 	ldr	r3, [sp, #20]
  10904c:	e1a02000 	mov	r2, r0
  109050:	e1a01003 	mov	r1, r3
  109054:	e1a00004 	mov	r0, r4
  109058:	e58d2014 	str	r2, [sp, #20]
  10905c:	eb000c72 	bl	10c22c <_Bfree>
  109060:	e59d2014 	ldr	r2, [sp, #20]
  109064:	e192300b 	orrs	r3, r2, fp
  109068:	1a000002 	bne	109078 <_dtoa_r+0xfac>
  10906c:	e59d3020 	ldr	r3, [sp, #32]
  109070:	e3530000 	cmp	r3, #0
  109074:	0a0000a0 	beq	1092fc <_dtoa_r+0x1230>
  109078:	e35a0000 	cmp	sl, #0
  10907c:	ba00005a 	blt	1091ec <_dtoa_r+0x1120>
  109080:	e19a300b 	orrs	r3, sl, fp
  109084:	1a000002 	bne	109094 <_dtoa_r+0xfc8>
  109088:	e59d3020 	ldr	r3, [sp, #32]
  10908c:	e3530000 	cmp	r3, #0
  109090:	0a000055 	beq	1091ec <_dtoa_r+0x1120>
  109094:	e3520000 	cmp	r2, #0
  109098:	ca000086 	bgt	1092b8 <_dtoa_r+0x11ec>
  10909c:	e59d3024 	ldr	r3, [sp, #36]	; 0x24
  1090a0:	e287a001 	add	sl, r7, #1
  1090a4:	e5c78000 	strb	r8, [r7]
  1090a8:	e1570003 	cmp	r7, r3
  1090ac:	e1a0300a 	mov	r3, sl
  1090b0:	0a00008c 	beq	1092e8 <_dtoa_r+0x121c>
  1090b4:	e1a01009 	mov	r1, r9
  1090b8:	e3a03000 	mov	r3, #0
  1090bc:	e3a0200a 	mov	r2, #10
  1090c0:	e1a00004 	mov	r0, r4
  1090c4:	eb000c5f 	bl	10c248 <__multadd>
  1090c8:	e1550006 	cmp	r5, r6
  1090cc:	e1a01005 	mov	r1, r5
  1090d0:	e3a03000 	mov	r3, #0
  1090d4:	e3a0200a 	mov	r2, #10
  1090d8:	e1a09000 	mov	r9, r0
  1090dc:	e1a00004 	mov	r0, r4
  1090e0:	1affffb9 	bne	108fcc <_dtoa_r+0xf00>
  1090e4:	eb000c57 	bl	10c248 <__multadd>
  1090e8:	e1a05000 	mov	r5, r0
  1090ec:	e1a06000 	mov	r6, r0
  1090f0:	eaffffbd 	b	108fec <_dtoa_r+0xf20>
  1090f4:	e3a02001 	mov	r2, #1
  1090f8:	eaffffd4 	b	109050 <_dtoa_r+0xf84>
  1090fc:	e353000e 	cmp	r3, #14
  109100:	83a03000 	movhi	r3, #0
  109104:	93a03001 	movls	r3, #1
  109108:	e3a01000 	mov	r1, #0
  10910c:	e0033002 	and	r3, r3, r2
  109110:	e5841044 	str	r1, [r4, #68]	; 0x44
  109114:	e58d3018 	str	r3, [sp, #24]
  109118:	eafffde7 	b	1088bc <_dtoa_r+0x7f0>
  10911c:	e3a03001 	mov	r3, #1
  109120:	e58d3034 	str	r3, [sp, #52]	; 0x34
  109124:	e58d3014 	str	r3, [sp, #20]
  109128:	e1a07003 	mov	r7, r3
  10912c:	eafffff5 	b	109108 <_dtoa_r+0x103c>
  109130:	e28e2001 	add	r2, lr, #1
  109134:	e3a01030 	mov	r1, #48	; 0x30
  109138:	e58d2008 	str	r2, [sp, #8]
  10913c:	e3a02031 	mov	r2, #49	; 0x31
  109140:	e5c01000 	strb	r1, [r0]
  109144:	eafffe92 	b	108b94 <_dtoa_r+0xac8>
  109148:	e59d3014 	ldr	r3, [sp, #20]
  10914c:	e3530000 	cmp	r3, #0
  109150:	0afffe9a 	beq	108bc0 <_dtoa_r+0xaf4>
  109154:	e59d3034 	ldr	r3, [sp, #52]	; 0x34
  109158:	e3530000 	cmp	r3, #0
  10915c:	dafffef8 	ble	108d44 <_dtoa_r+0xc78>
  109160:	eeb27b04 	vmov.f64	d7, #36	; 0x24
  109164:	e2811001 	add	r1, r1, #1
  109168:	e59d2008 	ldr	r2, [sp, #8]
  10916c:	e242e001 	sub	lr, r2, #1
  109170:	e1a02003 	mov	r2, r3
  109174:	ee233b07 	vmul.f64	d3, d3, d7
  109178:	ee071a90 	vmov	s15, r1
  10917c:	eeb16b0c 	vmov.f64	d6, #28
  109180:	eeb87be7 	vcvt.f64.s32	d7, s15
  109184:	ee036b07 	vmla.f64	d6, d3, d7
  109188:	ec5bab16 	vmov	sl, fp, d6
  10918c:	e24bb50d 	sub	fp, fp, #54525952	; 0x3400000
  109190:	eafffe01 	b	10899c <_dtoa_r+0x8d0>
  109194:	e35a0000 	cmp	sl, #0
  109198:	0affff52 	beq	108ee8 <_dtoa_r+0xe1c>
  10919c:	eafffcfa 	b	10858c <_dtoa_r+0x4c0>
  1091a0:	e59d2008 	ldr	r2, [sp, #8]
  1091a4:	e2822001 	add	r2, r2, #1
  1091a8:	e58d2008 	str	r2, [sp, #8]
  1091ac:	e3a02031 	mov	r2, #49	; 0x31
  1091b0:	e5c62000 	strb	r2, [r6]
  1091b4:	eafffec5 	b	108cd0 <_dtoa_r+0xc04>
  1091b8:	e59d2030 	ldr	r2, [sp, #48]	; 0x30
  1091bc:	e3520000 	cmp	r2, #0
  1091c0:	12833e43 	addne	r3, r3, #1072	; 0x430
  1091c4:	159d2020 	ldrne	r2, [sp, #32]
  1091c8:	12833003 	addne	r3, r3, #3
  1091cc:	059d2020 	ldreq	r2, [sp, #32]
  1091d0:	059d3040 	ldreq	r3, [sp, #64]	; 0x40
  1091d4:	159dc010 	ldrne	ip, [sp, #16]
  1091d8:	158d2030 	strne	r2, [sp, #48]	; 0x30
  1091dc:	02633036 	rsbeq	r3, r3, #54	; 0x36
  1091e0:	059dc010 	ldreq	ip, [sp, #16]
  1091e4:	058d2030 	streq	r2, [sp, #48]	; 0x30
  1091e8:	eafffd90 	b	108830 <_dtoa_r+0x764>
  1091ec:	e3520000 	cmp	r2, #0
  1091f0:	e58d602c 	str	r6, [sp, #44]	; 0x2c
  1091f4:	e58d5018 	str	r5, [sp, #24]
  1091f8:	e1a0b008 	mov	fp, r8
  1091fc:	e59d6030 	ldr	r6, [sp, #48]	; 0x30
  109200:	da00000b 	ble	109234 <_dtoa_r+0x1168>
  109204:	e1a01009 	mov	r1, r9
  109208:	e3a02001 	mov	r2, #1
  10920c:	e1a00004 	mov	r0, r4
  109210:	eb000d74 	bl	10c7e8 <__lshift>
  109214:	e59d1010 	ldr	r1, [sp, #16]
  109218:	e1a09000 	mov	r9, r0
  10921c:	eb000db0 	bl	10c8e4 <__mcmp>
  109220:	e3500000 	cmp	r0, #0
  109224:	da000048 	ble	10934c <_dtoa_r+0x1280>
  109228:	e3580039 	cmp	r8, #57	; 0x39
  10922c:	0a00003b 	beq	109320 <_dtoa_r+0x1254>
  109230:	e288b001 	add	fp, r8, #1
  109234:	e59d202c 	ldr	r2, [sp, #44]	; 0x2c
  109238:	e2873001 	add	r3, r7, #1
  10923c:	e59da018 	ldr	sl, [sp, #24]
  109240:	e5c7b000 	strb	fp, [r7]
  109244:	e58d2018 	str	r2, [sp, #24]
  109248:	eafffea0 	b	108cd0 <_dtoa_r+0xc04>
  10924c:	1a000003 	bne	109260 <_dtoa_r+0x1194>
  109250:	e3180001 	tst	r8, #1
  109254:	0a000001 	beq	109260 <_dtoa_r+0x1194>
  109258:	eafffe91 	b	108ca4 <_dtoa_r+0xbd8>
  10925c:	e1a03001 	mov	r3, r1
  109260:	e5532001 	ldrb	r2, [r3, #-1]
  109264:	e2431001 	sub	r1, r3, #1
  109268:	e3520030 	cmp	r2, #48	; 0x30
  10926c:	0afffffa 	beq	10925c <_dtoa_r+0x1190>
  109270:	eafffe96 	b	108cd0 <_dtoa_r+0xc04>
  109274:	e59d8018 	ldr	r8, [sp, #24]
  109278:	e1a00004 	mov	r0, r4
  10927c:	e5981004 	ldr	r1, [r8, #4]
  109280:	eb000bc6 	bl	10c1a0 <_Balloc>
  109284:	e5982010 	ldr	r2, [r8, #16]
  109288:	e288100c 	add	r1, r8, #12
  10928c:	e2822002 	add	r2, r2, #2
  109290:	e1a02102 	lsl	r2, r2, #2
  109294:	e1a07000 	mov	r7, r0
  109298:	e280000c 	add	r0, r0, #12
  10929c:	eb0009b7 	bl	10b980 <memcpy>
  1092a0:	e1a01007 	mov	r1, r7
  1092a4:	e3a02001 	mov	r2, #1
  1092a8:	e1a00004 	mov	r0, r4
  1092ac:	eb000d4d 	bl	10c7e8 <__lshift>
  1092b0:	e58d002c 	str	r0, [sp, #44]	; 0x2c
  1092b4:	eaffff38 	b	108f9c <_dtoa_r+0xed0>
  1092b8:	e3580039 	cmp	r8, #57	; 0x39
  1092bc:	e58d602c 	str	r6, [sp, #44]	; 0x2c
  1092c0:	e58d5018 	str	r5, [sp, #24]
  1092c4:	12888001 	addne	r8, r8, #1
  1092c8:	e59d6030 	ldr	r6, [sp, #48]	; 0x30
  1092cc:	0a00001a 	beq	10933c <_dtoa_r+0x1270>
  1092d0:	e59da018 	ldr	sl, [sp, #24]
  1092d4:	e2873001 	add	r3, r7, #1
  1092d8:	e5c78000 	strb	r8, [r7]
  1092dc:	e59d202c 	ldr	r2, [sp, #44]	; 0x2c
  1092e0:	e58d2018 	str	r2, [sp, #24]
  1092e4:	eafffe79 	b	108cd0 <_dtoa_r+0xc04>
  1092e8:	e1a02006 	mov	r2, r6
  1092ec:	e1a0a005 	mov	sl, r5
  1092f0:	e59d6030 	ldr	r6, [sp, #48]	; 0x30
  1092f4:	e58d2018 	str	r2, [sp, #24]
  1092f8:	eafffe5e 	b	108c78 <_dtoa_r+0xbac>
  1092fc:	e3580039 	cmp	r8, #57	; 0x39
  109300:	e58d602c 	str	r6, [sp, #44]	; 0x2c
  109304:	e58d5018 	str	r5, [sp, #24]
  109308:	e59db028 	ldr	fp, [sp, #40]	; 0x28
  10930c:	e59d6030 	ldr	r6, [sp, #48]	; 0x30
  109310:	0a000002 	beq	109320 <_dtoa_r+0x1254>
  109314:	e35a0000 	cmp	sl, #0
  109318:	c28b8031 	addgt	r8, fp, #49	; 0x31
  10931c:	eaffffeb 	b	1092d0 <_dtoa_r+0x1204>
  109320:	e59d302c 	ldr	r3, [sp, #44]	; 0x2c
  109324:	e59da018 	ldr	sl, [sp, #24]
  109328:	e58d3018 	str	r3, [sp, #24]
  10932c:	e3a01039 	mov	r1, #57	; 0x39
  109330:	e2873001 	add	r3, r7, #1
  109334:	e5c71000 	strb	r1, [r7]
  109338:	eafffe5a 	b	108ca8 <_dtoa_r+0xbdc>
  10933c:	e59d302c 	ldr	r3, [sp, #44]	; 0x2c
  109340:	e1a0a005 	mov	sl, r5
  109344:	e58d3018 	str	r3, [sp, #24]
  109348:	eafffff7 	b	10932c <_dtoa_r+0x1260>
  10934c:	1affffb8 	bne	109234 <_dtoa_r+0x1168>
  109350:	e3180001 	tst	r8, #1
  109354:	0affffb6 	beq	109234 <_dtoa_r+0x1168>
  109358:	eaffffb2 	b	109228 <_dtoa_r+0x115c>
  10935c:	e3a01002 	mov	r1, #2
  109360:	eafffd7b 	b	108954 <_dtoa_r+0x888>
  109364:	1260003c 	rsbne	r0, r0, #60	; 0x3c
  109368:	0afffc9d 	beq	1085e4 <_dtoa_r+0x518>
  10936c:	eafffc95 	b	1085c8 <_dtoa_r+0x4fc>
  109370:	e3a03001 	mov	r3, #1
  109374:	e58d3024 	str	r3, [sp, #36]	; 0x24
  109378:	eafffdbd 	b	108a74 <_dtoa_r+0x9a8>
  10937c:	e3e03000 	mvn	r3, #0
  109380:	e1a07002 	mov	r7, r2
  109384:	e58d3014 	str	r3, [sp, #20]
  109388:	eafffc18 	b	1083f0 <_dtoa_r+0x324>
  10938c:	e320f000 	nop	{0}

00109390 <__sflush_r>:
  109390:	e1d130bc 	ldrh	r3, [r1, #12]
  109394:	e92d41f0 	push	{r4, r5, r6, r7, r8, lr}
  109398:	e1a05001 	mov	r5, r1
  10939c:	e6ff2073 	uxth	r2, r3
  1093a0:	e1a07000 	mov	r7, r0
  1093a4:	e3120008 	tst	r2, #8
  1093a8:	1a000034 	bne	109480 <__sflush_r+0xf0>
  1093ac:	e5912004 	ldr	r2, [r1, #4]
  1093b0:	e3833b02 	orr	r3, r3, #2048	; 0x800
  1093b4:	e1c130bc 	strh	r3, [r1, #12]
  1093b8:	e3520000 	cmp	r2, #0
  1093bc:	da00004d 	ble	1094f8 <__sflush_r+0x168>
  1093c0:	e595c028 	ldr	ip, [r5, #40]	; 0x28
  1093c4:	e35c0000 	cmp	ip, #0
  1093c8:	0a00004d 	beq	109504 <__sflush_r+0x174>
  1093cc:	e6ff3073 	uxth	r3, r3
  1093d0:	e3a02000 	mov	r2, #0
  1093d4:	e2030a01 	and	r0, r3, #4096	; 0x1000
  1093d8:	e5974000 	ldr	r4, [r7]
  1093dc:	e5872000 	str	r2, [r7]
  1093e0:	e6ff6070 	uxth	r6, r0
  1093e4:	e1560002 	cmp	r6, r2
  1093e8:	0a00005f 	beq	10956c <__sflush_r+0x1dc>
  1093ec:	e5952050 	ldr	r2, [r5, #80]	; 0x50
  1093f0:	e3130004 	tst	r3, #4
  1093f4:	0a000005 	beq	109410 <__sflush_r+0x80>
  1093f8:	e5951030 	ldr	r1, [r5, #48]	; 0x30
  1093fc:	e5953004 	ldr	r3, [r5, #4]
  109400:	e3510000 	cmp	r1, #0
  109404:	e0632002 	rsb	r2, r3, r2
  109408:	1595303c 	ldrne	r3, [r5, #60]	; 0x3c
  10940c:	10632002 	rsbne	r2, r3, r2
  109410:	e3a03000 	mov	r3, #0
  109414:	e595101c 	ldr	r1, [r5, #28]
  109418:	e1a00007 	mov	r0, r7
  10941c:	e12fff3c 	blx	ip
  109420:	e3700001 	cmn	r0, #1
  109424:	0a000038 	beq	10950c <__sflush_r+0x17c>
  109428:	e1d530bc 	ldrh	r3, [r5, #12]
  10942c:	e3a01000 	mov	r1, #0
  109430:	e5952010 	ldr	r2, [r5, #16]
  109434:	e3c33b02 	bic	r3, r3, #2048	; 0x800
  109438:	e5851004 	str	r1, [r5, #4]
  10943c:	e6ff3073 	uxth	r3, r3
  109440:	e5852000 	str	r2, [r5]
  109444:	e3130a01 	tst	r3, #4096	; 0x1000
  109448:	e1c530bc 	strh	r3, [r5, #12]
  10944c:	1a000044 	bne	109564 <__sflush_r+0x1d4>
  109450:	e5951030 	ldr	r1, [r5, #48]	; 0x30
  109454:	e5874000 	str	r4, [r7]
  109458:	e3510000 	cmp	r1, #0
  10945c:	0a000028 	beq	109504 <__sflush_r+0x174>
  109460:	e2853040 	add	r3, r5, #64	; 0x40
  109464:	e1510003 	cmp	r1, r3
  109468:	0a000001 	beq	109474 <__sflush_r+0xe4>
  10946c:	e1a00007 	mov	r0, r7
  109470:	eb000178 	bl	109a58 <_free_r>
  109474:	e3a00000 	mov	r0, #0
  109478:	e5850030 	str	r0, [r5, #48]	; 0x30
  10947c:	e8bd81f0 	pop	{r4, r5, r6, r7, r8, pc}
  109480:	e5916010 	ldr	r6, [r1, #16]
  109484:	e3560000 	cmp	r6, #0
  109488:	0a00001d 	beq	109504 <__sflush_r+0x174>
  10948c:	e3120003 	tst	r2, #3
  109490:	e5914000 	ldr	r4, [r1]
  109494:	e5816000 	str	r6, [r1]
  109498:	05913014 	ldreq	r3, [r1, #20]
  10949c:	e0664004 	rsb	r4, r6, r4
  1094a0:	13a03000 	movne	r3, #0
  1094a4:	e3540000 	cmp	r4, #0
  1094a8:	e5813008 	str	r3, [r1, #8]
  1094ac:	ca000002 	bgt	1094bc <__sflush_r+0x12c>
  1094b0:	ea000013 	b	109504 <__sflush_r+0x174>
  1094b4:	e3540000 	cmp	r4, #0
  1094b8:	da000011 	ble	109504 <__sflush_r+0x174>
  1094bc:	e1a03004 	mov	r3, r4
  1094c0:	e1a02006 	mov	r2, r6
  1094c4:	e595c024 	ldr	ip, [r5, #36]	; 0x24
  1094c8:	e1a00007 	mov	r0, r7
  1094cc:	e595101c 	ldr	r1, [r5, #28]
  1094d0:	e12fff3c 	blx	ip
  1094d4:	e3500000 	cmp	r0, #0
  1094d8:	e0604004 	rsb	r4, r0, r4
  1094dc:	e0866000 	add	r6, r6, r0
  1094e0:	cafffff3 	bgt	1094b4 <__sflush_r+0x124>
  1094e4:	e1d530bc 	ldrh	r3, [r5, #12]
  1094e8:	e3e00000 	mvn	r0, #0
  1094ec:	e3833040 	orr	r3, r3, #64	; 0x40
  1094f0:	e1c530bc 	strh	r3, [r5, #12]
  1094f4:	e8bd81f0 	pop	{r4, r5, r6, r7, r8, pc}
  1094f8:	e591203c 	ldr	r2, [r1, #60]	; 0x3c
  1094fc:	e3520000 	cmp	r2, #0
  109500:	caffffae 	bgt	1093c0 <__sflush_r+0x30>
  109504:	e3a00000 	mov	r0, #0
  109508:	e8bd81f0 	pop	{r4, r5, r6, r7, r8, pc}
  10950c:	e5971000 	ldr	r1, [r7]
  109510:	e16f2f11 	clz	r2, r1
  109514:	e1a022a2 	lsr	r2, r2, #5
  109518:	e351001d 	cmp	r1, #29
  10951c:	11a03002 	movne	r3, r2
  109520:	03823001 	orreq	r3, r2, #1
  109524:	e3510016 	cmp	r1, #22
  109528:	03833001 	orreq	r3, r3, #1
  10952c:	e3530000 	cmp	r3, #0
  109530:	0a000021 	beq	1095bc <__sflush_r+0x22c>
  109534:	e1d530bc 	ldrh	r3, [r5, #12]
  109538:	e3a0c000 	mov	ip, #0
  10953c:	e5951010 	ldr	r1, [r5, #16]
  109540:	e3c33b02 	bic	r3, r3, #2048	; 0x800
  109544:	e585c004 	str	ip, [r5, #4]
  109548:	e6ff3073 	uxth	r3, r3
  10954c:	e5851000 	str	r1, [r5]
  109550:	e3130a01 	tst	r3, #4096	; 0x1000
  109554:	e1c530bc 	strh	r3, [r5, #12]
  109558:	0affffbc 	beq	109450 <__sflush_r+0xc0>
  10955c:	e3520000 	cmp	r2, #0
  109560:	0affffba 	beq	109450 <__sflush_r+0xc0>
  109564:	e5850050 	str	r0, [r5, #80]	; 0x50
  109568:	eaffffb8 	b	109450 <__sflush_r+0xc0>
  10956c:	e1a02006 	mov	r2, r6
  109570:	e3a03001 	mov	r3, #1
  109574:	e595101c 	ldr	r1, [r5, #28]
  109578:	e1a00007 	mov	r0, r7
  10957c:	e12fff3c 	blx	ip
  109580:	e3700001 	cmn	r0, #1
  109584:	e1a02000 	mov	r2, r0
  109588:	0a000002 	beq	109598 <__sflush_r+0x208>
  10958c:	e1d530bc 	ldrh	r3, [r5, #12]
  109590:	e595c028 	ldr	ip, [r5, #40]	; 0x28
  109594:	eaffff95 	b	1093f0 <__sflush_r+0x60>
  109598:	e5973000 	ldr	r3, [r7]
  10959c:	e3530000 	cmp	r3, #0
  1095a0:	0afffff9 	beq	10958c <__sflush_r+0x1fc>
  1095a4:	e353001d 	cmp	r3, #29
  1095a8:	13530016 	cmpne	r3, #22
  1095ac:	1affffcc 	bne	1094e4 <__sflush_r+0x154>
  1095b0:	e5874000 	str	r4, [r7]
  1095b4:	e1a00006 	mov	r0, r6
  1095b8:	e8bd81f0 	pop	{r4, r5, r6, r7, r8, pc}
  1095bc:	e1d530bc 	ldrh	r3, [r5, #12]
  1095c0:	e3833040 	orr	r3, r3, #64	; 0x40
  1095c4:	e1c530bc 	strh	r3, [r5, #12]
  1095c8:	e8bd81f0 	pop	{r4, r5, r6, r7, r8, pc}

001095cc <_fflush_r>:
  1095cc:	e92d4010 	push	{r4, lr}
  1095d0:	e2504000 	subs	r4, r0, #0
  1095d4:	e24dd008 	sub	sp, sp, #8
  1095d8:	0a000002 	beq	1095e8 <_fflush_r+0x1c>
  1095dc:	e5943038 	ldr	r3, [r4, #56]	; 0x38
  1095e0:	e3530000 	cmp	r3, #0
  1095e4:	0a000008 	beq	10960c <_fflush_r+0x40>
  1095e8:	e1d100fc 	ldrsh	r0, [r1, #12]
  1095ec:	e3500000 	cmp	r0, #0
  1095f0:	1a000001 	bne	1095fc <_fflush_r+0x30>
  1095f4:	e28dd008 	add	sp, sp, #8
  1095f8:	e8bd8010 	pop	{r4, pc}
  1095fc:	e1a00004 	mov	r0, r4
  109600:	e28dd008 	add	sp, sp, #8
  109604:	e8bd4010 	pop	{r4, lr}
  109608:	eaffff60 	b	109390 <__sflush_r>
  10960c:	e58d1004 	str	r1, [sp, #4]
  109610:	eb0000bd 	bl	10990c <__sinit>
  109614:	e59d1004 	ldr	r1, [sp, #4]
  109618:	eafffff2 	b	1095e8 <_fflush_r+0x1c>

0010961c <fflush>:
  10961c:	e2501000 	subs	r1, r0, #0
  109620:	0a000003 	beq	109634 <fflush+0x18>
  109624:	e3073988 	movw	r3, #31112	; 0x7988
  109628:	e3403011 	movt	r3, #17
  10962c:	e5930000 	ldr	r0, [r3]
  109630:	eaffffe5 	b	1095cc <_fflush_r>
  109634:	e3063974 	movw	r3, #26996	; 0x6974
  109638:	e30915cc 	movw	r1, #38348	; 0x95cc
  10963c:	e3403011 	movt	r3, #17
  109640:	e3401010 	movt	r1, #16
  109644:	e5930000 	ldr	r0, [r3]
  109648:	ea0002fc 	b	10a240 <_fwalk_reent>

0010964c <__fp_lock>:
  10964c:	e3a00000 	mov	r0, #0
  109650:	e12fff1e 	bx	lr

00109654 <__fp_unlock>:
  109654:	e3a00000 	mov	r0, #0
  109658:	e12fff1e 	bx	lr

0010965c <_cleanup_r>:
  10965c:	e30f1f74 	movw	r1, #65396	; 0xff74
  109660:	e3401010 	movt	r1, #16
  109664:	ea0002f5 	b	10a240 <_fwalk_reent>

00109668 <__sinit.part.1>:
  109668:	e92d4ff0 	push	{r4, r5, r6, r7, r8, r9, sl, fp, lr}
  10966c:	e309365c 	movw	r3, #38492	; 0x965c
  109670:	e5905004 	ldr	r5, [r0, #4]
  109674:	e3a04000 	mov	r4, #0
  109678:	e1a07000 	mov	r7, r0
  10967c:	e24dd00c 	sub	sp, sp, #12
  109680:	e2802fbb 	add	r2, r0, #748	; 0x2ec
  109684:	e3403010 	movt	r3, #16
  109688:	e58022e8 	str	r2, [r0, #744]	; 0x2e8
  10968c:	e3a01003 	mov	r1, #3
  109690:	e580303c 	str	r3, [r0, #60]	; 0x3c
  109694:	e3a02008 	mov	r2, #8
  109698:	e58012e4 	str	r1, [r0, #740]	; 0x2e4
  10969c:	e3a03004 	mov	r3, #4
  1096a0:	e58742e0 	str	r4, [r7, #736]	; 0x2e0
  1096a4:	e1a01004 	mov	r1, r4
  1096a8:	e5854000 	str	r4, [r5]
  1096ac:	e285005c 	add	r0, r5, #92	; 0x5c
  1096b0:	e5854004 	str	r4, [r5, #4]
  1096b4:	e30db608 	movw	fp, #54792	; 0xd608
  1096b8:	e5854008 	str	r4, [r5, #8]
  1096bc:	e30da640 	movw	sl, #54848	; 0xd640
  1096c0:	e5854064 	str	r4, [r5, #100]	; 0x64
  1096c4:	e30d9694 	movw	r9, #54932	; 0xd694
  1096c8:	e1c540be 	strh	r4, [r5, #14]
  1096cc:	e30d86c0 	movw	r8, #54976	; 0xd6c0
  1096d0:	e5854010 	str	r4, [r5, #16]
  1096d4:	e340b010 	movt	fp, #16
  1096d8:	e5854014 	str	r4, [r5, #20]
  1096dc:	e340a010 	movt	sl, #16
  1096e0:	e5854018 	str	r4, [r5, #24]
  1096e4:	e3409010 	movt	r9, #16
  1096e8:	e1c530bc 	strh	r3, [r5, #12]
  1096ec:	e3408010 	movt	r8, #16
  1096f0:	eb000a6c 	bl	10c0a8 <memset>
  1096f4:	e5976008 	ldr	r6, [r7, #8]
  1096f8:	e3a03001 	mov	r3, #1
  1096fc:	e585b020 	str	fp, [r5, #32]
  109700:	e585a024 	str	sl, [r5, #36]	; 0x24
  109704:	e3a0c009 	mov	ip, #9
  109708:	e5859028 	str	r9, [r5, #40]	; 0x28
  10970c:	e1a01004 	mov	r1, r4
  109710:	e585802c 	str	r8, [r5, #44]	; 0x2c
  109714:	e286005c 	add	r0, r6, #92	; 0x5c
  109718:	e585501c 	str	r5, [r5, #28]
  10971c:	e3a02008 	mov	r2, #8
  109720:	e1c630be 	strh	r3, [r6, #14]
  109724:	e1c6c0bc 	strh	ip, [r6, #12]
  109728:	e5864000 	str	r4, [r6]
  10972c:	e5864004 	str	r4, [r6, #4]
  109730:	e5864008 	str	r4, [r6, #8]
  109734:	e5864064 	str	r4, [r6, #100]	; 0x64
  109738:	e5864010 	str	r4, [r6, #16]
  10973c:	e5864014 	str	r4, [r6, #20]
  109740:	e5864018 	str	r4, [r6, #24]
  109744:	e58d3004 	str	r3, [sp, #4]
  109748:	eb000a56 	bl	10c0a8 <memset>
  10974c:	e597500c 	ldr	r5, [r7, #12]
  109750:	e3a0e012 	mov	lr, #18
  109754:	e586601c 	str	r6, [r6, #28]
  109758:	e3a0c002 	mov	ip, #2
  10975c:	e586b020 	str	fp, [r6, #32]
  109760:	e1a01004 	mov	r1, r4
  109764:	e586a024 	str	sl, [r6, #36]	; 0x24
  109768:	e285005c 	add	r0, r5, #92	; 0x5c
  10976c:	e5869028 	str	r9, [r6, #40]	; 0x28
  109770:	e3a02008 	mov	r2, #8
  109774:	e586802c 	str	r8, [r6, #44]	; 0x2c
  109778:	e5854000 	str	r4, [r5]
  10977c:	e5854004 	str	r4, [r5, #4]
  109780:	e5854008 	str	r4, [r5, #8]
  109784:	e5854064 	str	r4, [r5, #100]	; 0x64
  109788:	e5854010 	str	r4, [r5, #16]
  10978c:	e5854014 	str	r4, [r5, #20]
  109790:	e5854018 	str	r4, [r5, #24]
  109794:	e1c5e0bc 	strh	lr, [r5, #12]
  109798:	e1c5c0be 	strh	ip, [r5, #14]
  10979c:	eb000a41 	bl	10c0a8 <memset>
  1097a0:	e59d3004 	ldr	r3, [sp, #4]
  1097a4:	e585501c 	str	r5, [r5, #28]
  1097a8:	e585b020 	str	fp, [r5, #32]
  1097ac:	e585a024 	str	sl, [r5, #36]	; 0x24
  1097b0:	e5859028 	str	r9, [r5, #40]	; 0x28
  1097b4:	e585802c 	str	r8, [r5, #44]	; 0x2c
  1097b8:	e5873038 	str	r3, [r7, #56]	; 0x38
  1097bc:	e28dd00c 	add	sp, sp, #12
  1097c0:	e8bd8ff0 	pop	{r4, r5, r6, r7, r8, r9, sl, fp, pc}

001097c4 <__sfmoreglue>:
  1097c4:	e92d4070 	push	{r4, r5, r6, lr}
  1097c8:	e2415001 	sub	r5, r1, #1
  1097cc:	e3a03068 	mov	r3, #104	; 0x68
  1097d0:	e1a06001 	mov	r6, r1
  1097d4:	e0050593 	mul	r5, r3, r5
  1097d8:	e2851074 	add	r1, r5, #116	; 0x74
  1097dc:	ebffea8c 	bl	104214 <_malloc_r>
  1097e0:	e2504000 	subs	r4, r0, #0
  1097e4:	0a000006 	beq	109804 <__sfmoreglue+0x40>
  1097e8:	e284000c 	add	r0, r4, #12
  1097ec:	e3a01000 	mov	r1, #0
  1097f0:	e5846004 	str	r6, [r4, #4]
  1097f4:	e2852068 	add	r2, r5, #104	; 0x68
  1097f8:	e5840008 	str	r0, [r4, #8]
  1097fc:	e5841000 	str	r1, [r4]
  109800:	eb000a28 	bl	10c0a8 <memset>
  109804:	e1a00004 	mov	r0, r4
  109808:	e8bd8070 	pop	{r4, r5, r6, pc}

0010980c <__sfp>:
  10980c:	e3063974 	movw	r3, #26996	; 0x6974
  109810:	e3403011 	movt	r3, #17
  109814:	e92d4070 	push	{r4, r5, r6, lr}
  109818:	e1a06000 	mov	r6, r0
  10981c:	e5935000 	ldr	r5, [r3]
  109820:	e5953038 	ldr	r3, [r5, #56]	; 0x38
  109824:	e3530000 	cmp	r3, #0
  109828:	1a000001 	bne	109834 <__sfp+0x28>
  10982c:	e1a00005 	mov	r0, r5
  109830:	ebffff8c 	bl	109668 <__sinit.part.1>
  109834:	e2855e2e 	add	r5, r5, #736	; 0x2e0
  109838:	e9950018 	ldmib	r5, {r3, r4}
  10983c:	e2533001 	subs	r3, r3, #1
  109840:	5a000004 	bpl	109858 <__sfp+0x4c>
  109844:	ea00001c 	b	1098bc <__sfp+0xb0>
  109848:	e2433001 	sub	r3, r3, #1
  10984c:	e2844068 	add	r4, r4, #104	; 0x68
  109850:	e3730001 	cmn	r3, #1
  109854:	0a000018 	beq	1098bc <__sfp+0xb0>
  109858:	e1d420fc 	ldrsh	r2, [r4, #12]
  10985c:	e3520000 	cmp	r2, #0
  109860:	1afffff8 	bne	109848 <__sfp+0x3c>
  109864:	e3a05000 	mov	r5, #0
  109868:	e3e0c000 	mvn	ip, #0
  10986c:	e3a03001 	mov	r3, #1
  109870:	e5845064 	str	r5, [r4, #100]	; 0x64
  109874:	e1a01005 	mov	r1, r5
  109878:	e5845000 	str	r5, [r4]
  10987c:	e5845008 	str	r5, [r4, #8]
  109880:	e3a02008 	mov	r2, #8
  109884:	e5845004 	str	r5, [r4, #4]
  109888:	e284005c 	add	r0, r4, #92	; 0x5c
  10988c:	e5845010 	str	r5, [r4, #16]
  109890:	e5845014 	str	r5, [r4, #20]
  109894:	e5845018 	str	r5, [r4, #24]
  109898:	e1c4c0be 	strh	ip, [r4, #14]
  10989c:	e1c430bc 	strh	r3, [r4, #12]
  1098a0:	eb000a00 	bl	10c0a8 <memset>
  1098a4:	e1a00004 	mov	r0, r4
  1098a8:	e5845030 	str	r5, [r4, #48]	; 0x30
  1098ac:	e5845034 	str	r5, [r4, #52]	; 0x34
  1098b0:	e5845044 	str	r5, [r4, #68]	; 0x44
  1098b4:	e5845048 	str	r5, [r4, #72]	; 0x48
  1098b8:	e8bd8070 	pop	{r4, r5, r6, pc}
  1098bc:	e5953000 	ldr	r3, [r5]
  1098c0:	e3530000 	cmp	r3, #0
  1098c4:	11a05003 	movne	r5, r3
  1098c8:	1affffda 	bne	109838 <__sfp+0x2c>
  1098cc:	e3a01004 	mov	r1, #4
  1098d0:	e1a00006 	mov	r0, r6
  1098d4:	ebffffba 	bl	1097c4 <__sfmoreglue>
  1098d8:	e3500000 	cmp	r0, #0
  1098dc:	e5850000 	str	r0, [r5]
  1098e0:	11a05000 	movne	r5, r0
  1098e4:	1affffd3 	bne	109838 <__sfp+0x2c>
  1098e8:	e3a0200c 	mov	r2, #12
  1098ec:	e5862000 	str	r2, [r6]
  1098f0:	e8bd8070 	pop	{r4, r5, r6, pc}

001098f4 <_cleanup>:
  1098f4:	e3063974 	movw	r3, #26996	; 0x6974
  1098f8:	e30f1f74 	movw	r1, #65396	; 0xff74
  1098fc:	e3403011 	movt	r3, #17
  109900:	e3401010 	movt	r1, #16
  109904:	e5930000 	ldr	r0, [r3]
  109908:	ea00024c 	b	10a240 <_fwalk_reent>

0010990c <__sinit>:
  10990c:	e5903038 	ldr	r3, [r0, #56]	; 0x38
  109910:	e3530000 	cmp	r3, #0
  109914:	112fff1e 	bxne	lr
  109918:	eaffff52 	b	109668 <__sinit.part.1>

0010991c <__sfp_lock_acquire>:
  10991c:	e12fff1e 	bx	lr

00109920 <__sfp_lock_release>:
  109920:	e12fff1e 	bx	lr

00109924 <__sinit_lock_acquire>:
  109924:	e12fff1e 	bx	lr

00109928 <__sinit_lock_release>:
  109928:	e12fff1e 	bx	lr

0010992c <__fp_lock_all>:
  10992c:	e3073988 	movw	r3, #31112	; 0x7988
  109930:	e309164c 	movw	r1, #38476	; 0x964c
  109934:	e3403011 	movt	r3, #17
  109938:	e3401010 	movt	r1, #16
  10993c:	e5930000 	ldr	r0, [r3]
  109940:	ea000220 	b	10a1c8 <_fwalk>

00109944 <__fp_unlock_all>:
  109944:	e3073988 	movw	r3, #31112	; 0x7988
  109948:	e3091654 	movw	r1, #38484	; 0x9654
  10994c:	e3403011 	movt	r3, #17
  109950:	e3401010 	movt	r1, #16
  109954:	e5930000 	ldr	r0, [r3]
  109958:	ea00021a 	b	10a1c8 <_fwalk>

0010995c <_malloc_trim_r>:
  10995c:	e92d41f0 	push	{r4, r5, r6, r7, r8, lr}
  109960:	e3077db8 	movw	r7, #32184	; 0x7db8
  109964:	e3407011 	movt	r7, #17
  109968:	e1a04001 	mov	r4, r1
  10996c:	e1a06000 	mov	r6, r0
  109970:	ebffec01 	bl	10497c <__malloc_lock>
  109974:	e5973008 	ldr	r3, [r7, #8]
  109978:	e5935004 	ldr	r5, [r3, #4]
  10997c:	e3c55003 	bic	r5, r5, #3
  109980:	e0641005 	rsb	r1, r4, r5
  109984:	e2811efe 	add	r1, r1, #4064	; 0xfe0
  109988:	e281100f 	add	r1, r1, #15
  10998c:	e3c11eff 	bic	r1, r1, #4080	; 0xff0
  109990:	e3c1100f 	bic	r1, r1, #15
  109994:	e2414a01 	sub	r4, r1, #4096	; 0x1000
  109998:	e3540a01 	cmp	r4, #4096	; 0x1000
  10999c:	ba000006 	blt	1099bc <_malloc_trim_r+0x60>
  1099a0:	e3a01000 	mov	r1, #0
  1099a4:	e1a00006 	mov	r0, r6
  1099a8:	ebffec3a 	bl	104a98 <_sbrk_r>
  1099ac:	e5973008 	ldr	r3, [r7, #8]
  1099b0:	e0833005 	add	r3, r3, r5
  1099b4:	e1500003 	cmp	r0, r3
  1099b8:	0a000003 	beq	1099cc <_malloc_trim_r+0x70>
  1099bc:	e1a00006 	mov	r0, r6
  1099c0:	ebffebee 	bl	104980 <__malloc_unlock>
  1099c4:	e3a00000 	mov	r0, #0
  1099c8:	e8bd81f0 	pop	{r4, r5, r6, r7, r8, pc}
  1099cc:	e2641000 	rsb	r1, r4, #0
  1099d0:	e1a00006 	mov	r0, r6
  1099d4:	ebffec2f 	bl	104a98 <_sbrk_r>
  1099d8:	e3700001 	cmn	r0, #1
  1099dc:	0a00000c 	beq	109a14 <_malloc_trim_r+0xb8>
  1099e0:	e5972008 	ldr	r2, [r7, #8]
  1099e4:	e3003058 	movw	r3, #88	; 0x58
  1099e8:	e3403012 	movt	r3, #18
  1099ec:	e0645005 	rsb	r5, r4, r5
  1099f0:	e5931000 	ldr	r1, [r3]
  1099f4:	e1a00006 	mov	r0, r6
  1099f8:	e3855001 	orr	r5, r5, #1
  1099fc:	e5825004 	str	r5, [r2, #4]
  109a00:	e0641001 	rsb	r1, r4, r1
  109a04:	e5831000 	str	r1, [r3]
  109a08:	ebffebdc 	bl	104980 <__malloc_unlock>
  109a0c:	e3a00001 	mov	r0, #1
  109a10:	e8bd81f0 	pop	{r4, r5, r6, r7, r8, pc}
  109a14:	e3a01000 	mov	r1, #0
  109a18:	e1a00006 	mov	r0, r6
  109a1c:	ebffec1d 	bl	104a98 <_sbrk_r>
  109a20:	e5972008 	ldr	r2, [r7, #8]
  109a24:	e0623000 	rsb	r3, r2, r0
  109a28:	e353000f 	cmp	r3, #15
  109a2c:	daffffe2 	ble	1099bc <_malloc_trim_r+0x60>
  109a30:	e308c1c0 	movw	ip, #33216	; 0x81c0
  109a34:	e3001058 	movw	r1, #88	; 0x58
  109a38:	e340c011 	movt	ip, #17
  109a3c:	e3401012 	movt	r1, #18
  109a40:	e59cc000 	ldr	ip, [ip]
  109a44:	e3833001 	orr	r3, r3, #1
  109a48:	e5823004 	str	r3, [r2, #4]
  109a4c:	e06c0000 	rsb	r0, ip, r0
  109a50:	e5810000 	str	r0, [r1]
  109a54:	eaffffd8 	b	1099bc <_malloc_trim_r+0x60>

00109a58 <_free_r>:
  109a58:	e3510000 	cmp	r1, #0
  109a5c:	012fff1e 	bxeq	lr
  109a60:	e92d4070 	push	{r4, r5, r6, lr}
  109a64:	e1a04001 	mov	r4, r1
  109a68:	e1a05000 	mov	r5, r0
  109a6c:	ebffebc2 	bl	10497c <__malloc_lock>
  109a70:	e5140004 	ldr	r0, [r4, #-4]
  109a74:	e3073db8 	movw	r3, #32184	; 0x7db8
  109a78:	e244c008 	sub	ip, r4, #8
  109a7c:	e3403011 	movt	r3, #17
  109a80:	e3c02001 	bic	r2, r0, #1
  109a84:	e5936008 	ldr	r6, [r3, #8]
  109a88:	e08ce002 	add	lr, ip, r2
  109a8c:	e156000e 	cmp	r6, lr
  109a90:	e59e1004 	ldr	r1, [lr, #4]
  109a94:	e3c11003 	bic	r1, r1, #3
  109a98:	0a00004b 	beq	109bcc <_free_r+0x174>
  109a9c:	e3100001 	tst	r0, #1
  109aa0:	e58e1004 	str	r1, [lr, #4]
  109aa4:	1a000009 	bne	109ad0 <_free_r+0x78>
  109aa8:	e5140008 	ldr	r0, [r4, #-8]
  109aac:	e2834008 	add	r4, r3, #8
  109ab0:	e060c00c 	rsb	ip, r0, ip
  109ab4:	e0822000 	add	r2, r2, r0
  109ab8:	e59c0008 	ldr	r0, [ip, #8]
  109abc:	e1500004 	cmp	r0, r4
  109ac0:	0a000059 	beq	109c2c <_free_r+0x1d4>
  109ac4:	e59c400c 	ldr	r4, [ip, #12]
  109ac8:	e580400c 	str	r4, [r0, #12]
  109acc:	e5840008 	str	r0, [r4, #8]
  109ad0:	e08e0001 	add	r0, lr, r1
  109ad4:	e5900004 	ldr	r0, [r0, #4]
  109ad8:	e3100001 	tst	r0, #1
  109adc:	1a00000b 	bne	109b10 <_free_r+0xb8>
  109ae0:	e59f021c 	ldr	r0, [pc, #540]	; 109d04 <_free_r+0x2ac>
  109ae4:	e0822001 	add	r2, r2, r1
  109ae8:	e59e1008 	ldr	r1, [lr, #8]
  109aec:	e1510000 	cmp	r1, r0
  109af0:	0a00006f 	beq	109cb4 <_free_r+0x25c>
  109af4:	e59ee00c 	ldr	lr, [lr, #12]
  109af8:	e3820001 	orr	r0, r2, #1
  109afc:	e581e00c 	str	lr, [r1, #12]
  109b00:	e58e1008 	str	r1, [lr, #8]
  109b04:	e58c0004 	str	r0, [ip, #4]
  109b08:	e78c2002 	str	r2, [ip, r2]
  109b0c:	ea000002 	b	109b1c <_free_r+0xc4>
  109b10:	e3821001 	orr	r1, r2, #1
  109b14:	e58c1004 	str	r1, [ip, #4]
  109b18:	e78c2002 	str	r2, [ip, r2]
  109b1c:	e3520c02 	cmp	r2, #512	; 0x200
  109b20:	2a00000e 	bcs	109b60 <_free_r+0x108>
  109b24:	e1a021a2 	lsr	r2, r2, #3
  109b28:	e5930004 	ldr	r0, [r3, #4]
  109b2c:	e3a0e001 	mov	lr, #1
  109b30:	e0831182 	add	r1, r3, r2, lsl #3
  109b34:	e1a02142 	asr	r2, r2, #2
  109b38:	e180221e 	orr	r2, r0, lr, lsl r2
  109b3c:	e5832004 	str	r2, [r3, #4]
  109b40:	e5913008 	ldr	r3, [r1, #8]
  109b44:	e58c100c 	str	r1, [ip, #12]
  109b48:	e58c3008 	str	r3, [ip, #8]
  109b4c:	e581c008 	str	ip, [r1, #8]
  109b50:	e583c00c 	str	ip, [r3, #12]
  109b54:	e1a00005 	mov	r0, r5
  109b58:	e8bd4070 	pop	{r4, r5, r6, lr}
  109b5c:	eaffeb87 	b	104980 <__malloc_unlock>
  109b60:	e1a014a2 	lsr	r1, r2, #9
  109b64:	e3510004 	cmp	r1, #4
  109b68:	8a000040 	bhi	109c70 <_free_r+0x218>
  109b6c:	e1a01322 	lsr	r1, r2, #6
  109b70:	e2811038 	add	r1, r1, #56	; 0x38
  109b74:	e1a00081 	lsl	r0, r1, #1
  109b78:	e0830100 	add	r0, r3, r0, lsl #2
  109b7c:	e307edb8 	movw	lr, #32184	; 0x7db8
  109b80:	e340e011 	movt	lr, #17
  109b84:	e5903008 	ldr	r3, [r0, #8]
  109b88:	e1530000 	cmp	r3, r0
  109b8c:	0a000041 	beq	109c98 <_free_r+0x240>
  109b90:	e5931004 	ldr	r1, [r3, #4]
  109b94:	e3c11003 	bic	r1, r1, #3
  109b98:	e1510002 	cmp	r1, r2
  109b9c:	9a000002 	bls	109bac <_free_r+0x154>
  109ba0:	e5933008 	ldr	r3, [r3, #8]
  109ba4:	e1500003 	cmp	r0, r3
  109ba8:	1afffff8 	bne	109b90 <_free_r+0x138>
  109bac:	e593200c 	ldr	r2, [r3, #12]
  109bb0:	e58c200c 	str	r2, [ip, #12]
  109bb4:	e1a00005 	mov	r0, r5
  109bb8:	e58c3008 	str	r3, [ip, #8]
  109bbc:	e8bd4070 	pop	{r4, r5, r6, lr}
  109bc0:	e582c008 	str	ip, [r2, #8]
  109bc4:	e583c00c 	str	ip, [r3, #12]
  109bc8:	eaffeb6c 	b	104980 <__malloc_unlock>
  109bcc:	e3100001 	tst	r0, #1
  109bd0:	e0812002 	add	r2, r1, r2
  109bd4:	1a000006 	bne	109bf4 <_free_r+0x19c>
  109bd8:	e5141008 	ldr	r1, [r4, #-8]
  109bdc:	e061c00c 	rsb	ip, r1, ip
  109be0:	e0822001 	add	r2, r2, r1
  109be4:	e59c0008 	ldr	r0, [ip, #8]
  109be8:	e59c100c 	ldr	r1, [ip, #12]
  109bec:	e580100c 	str	r1, [r0, #12]
  109bf0:	e5810008 	str	r0, [r1, #8]
  109bf4:	e30801c4 	movw	r0, #33220	; 0x81c4
  109bf8:	e3821001 	orr	r1, r2, #1
  109bfc:	e3400011 	movt	r0, #17
  109c00:	e58c1004 	str	r1, [ip, #4]
  109c04:	e5901000 	ldr	r1, [r0]
  109c08:	e583c008 	str	ip, [r3, #8]
  109c0c:	e1520001 	cmp	r2, r1
  109c10:	3affffcf 	bcc	109b54 <_free_r+0xfc>
  109c14:	e3003054 	movw	r3, #84	; 0x54
  109c18:	e1a00005 	mov	r0, r5
  109c1c:	e3403012 	movt	r3, #18
  109c20:	e5931000 	ldr	r1, [r3]
  109c24:	ebffff4c 	bl	10995c <_malloc_trim_r>
  109c28:	eaffffc9 	b	109b54 <_free_r+0xfc>
  109c2c:	e08e3001 	add	r3, lr, r1
  109c30:	e5933004 	ldr	r3, [r3, #4]
  109c34:	e3130001 	tst	r3, #1
  109c38:	1a000008 	bne	109c60 <_free_r+0x208>
  109c3c:	e59e300c 	ldr	r3, [lr, #12]
  109c40:	e0822001 	add	r2, r2, r1
  109c44:	e59e1008 	ldr	r1, [lr, #8]
  109c48:	e3820001 	orr	r0, r2, #1
  109c4c:	e581300c 	str	r3, [r1, #12]
  109c50:	e5831008 	str	r1, [r3, #8]
  109c54:	e58c0004 	str	r0, [ip, #4]
  109c58:	e78c2002 	str	r2, [ip, r2]
  109c5c:	eaffffbc 	b	109b54 <_free_r+0xfc>
  109c60:	e3823001 	orr	r3, r2, #1
  109c64:	e58c3004 	str	r3, [ip, #4]
  109c68:	e78c2002 	str	r2, [ip, r2]
  109c6c:	eaffffb8 	b	109b54 <_free_r+0xfc>
  109c70:	e3510014 	cmp	r1, #20
  109c74:	9281105b 	addls	r1, r1, #91	; 0x5b
  109c78:	91a00081 	lslls	r0, r1, #1
  109c7c:	9affffbd 	bls	109b78 <_free_r+0x120>
  109c80:	e3510054 	cmp	r1, #84	; 0x54
  109c84:	8a000011 	bhi	109cd0 <_free_r+0x278>
  109c88:	e1a01622 	lsr	r1, r2, #12
  109c8c:	e281106e 	add	r1, r1, #110	; 0x6e
  109c90:	e1a00081 	lsl	r0, r1, #1
  109c94:	eaffffb7 	b	109b78 <_free_r+0x120>
  109c98:	e59e0004 	ldr	r0, [lr, #4]
  109c9c:	e1a01141 	asr	r1, r1, #2
  109ca0:	e3a04001 	mov	r4, #1
  109ca4:	e1a02003 	mov	r2, r3
  109ca8:	e1801114 	orr	r1, r0, r4, lsl r1
  109cac:	e58e1004 	str	r1, [lr, #4]
  109cb0:	eaffffbe 	b	109bb0 <_free_r+0x158>
  109cb4:	e583c014 	str	ip, [r3, #20]
  109cb8:	e3820001 	orr	r0, r2, #1
  109cbc:	e583c010 	str	ip, [r3, #16]
  109cc0:	e58c100c 	str	r1, [ip, #12]
  109cc4:	e98c0003 	stmib	ip, {r0, r1}
  109cc8:	e78c2002 	str	r2, [ip, r2]
  109ccc:	eaffffa0 	b	109b54 <_free_r+0xfc>
  109cd0:	e3510f55 	cmp	r1, #340	; 0x154
  109cd4:	91a017a2 	lsrls	r1, r2, #15
  109cd8:	92811077 	addls	r1, r1, #119	; 0x77
  109cdc:	91a00081 	lslls	r0, r1, #1
  109ce0:	9affffa4 	bls	109b78 <_free_r+0x120>
  109ce4:	e3000554 	movw	r0, #1364	; 0x554
  109ce8:	e1510000 	cmp	r1, r0
  109cec:	91a01922 	lsrls	r1, r2, #18
  109cf0:	9281107c 	addls	r1, r1, #124	; 0x7c
  109cf4:	83a000fc 	movhi	r0, #252	; 0xfc
  109cf8:	83a0107e 	movhi	r1, #126	; 0x7e
  109cfc:	91a00081 	lslls	r0, r1, #1
  109d00:	eaffff9c 	b	109b78 <_free_r+0x120>
  109d04:	00117dc0 	.word	0x00117dc0

00109d08 <__sfvwrite_r>:
  109d08:	e5923008 	ldr	r3, [r2, #8]
  109d0c:	e3530000 	cmp	r3, #0
  109d10:	0a000034 	beq	109de8 <__sfvwrite_r+0xe0>
  109d14:	e1d1c0bc 	ldrh	ip, [r1, #12]
  109d18:	e92d4ff0 	push	{r4, r5, r6, r7, r8, r9, sl, fp, lr}
  109d1c:	e31c0008 	tst	ip, #8
  109d20:	e24dd00c 	sub	sp, sp, #12
  109d24:	e1a04001 	mov	r4, r1
  109d28:	e1a0b000 	mov	fp, r0
  109d2c:	e1a06002 	mov	r6, r2
  109d30:	0a000021 	beq	109dbc <__sfvwrite_r+0xb4>
  109d34:	e5913010 	ldr	r3, [r1, #16]
  109d38:	e3530000 	cmp	r3, #0
  109d3c:	0a00001e 	beq	109dbc <__sfvwrite_r+0xb4>
  109d40:	e20c8002 	and	r8, ip, #2
  109d44:	e5965000 	ldr	r5, [r6]
  109d48:	e6ff8078 	uxth	r8, r8
  109d4c:	e3580000 	cmp	r8, #0
  109d50:	0a000026 	beq	109df0 <__sfvwrite_r+0xe8>
  109d54:	e3a08000 	mov	r8, #0
  109d58:	e3a09b3f 	mov	r9, #64512	; 0xfc00
  109d5c:	e1a07008 	mov	r7, r8
  109d60:	e3479fff 	movt	r9, #32767	; 0x7fff
  109d64:	e3570000 	cmp	r7, #0
  109d68:	e1a02008 	mov	r2, r8
  109d6c:	e1a0000b 	mov	r0, fp
  109d70:	0a000018 	beq	109dd8 <__sfvwrite_r+0xd0>
  109d74:	e1570009 	cmp	r7, r9
  109d78:	e594c024 	ldr	ip, [r4, #36]	; 0x24
  109d7c:	e594101c 	ldr	r1, [r4, #28]
  109d80:	31a03007 	movcc	r3, r7
  109d84:	21a03009 	movcs	r3, r9
  109d88:	e12fff3c 	blx	ip
  109d8c:	e3500000 	cmp	r0, #0
  109d90:	e0888000 	add	r8, r8, r0
  109d94:	e0607007 	rsb	r7, r0, r7
  109d98:	da000064 	ble	109f30 <__sfvwrite_r+0x228>
  109d9c:	e5963008 	ldr	r3, [r6, #8]
  109da0:	e0600003 	rsb	r0, r0, r3
  109da4:	e5860008 	str	r0, [r6, #8]
  109da8:	e3500000 	cmp	r0, #0
  109dac:	1affffec 	bne	109d64 <__sfvwrite_r+0x5c>
  109db0:	e3a00000 	mov	r0, #0
  109db4:	e28dd00c 	add	sp, sp, #12
  109db8:	e8bd8ff0 	pop	{r4, r5, r6, r7, r8, r9, sl, fp, pc}
  109dbc:	e1a01004 	mov	r1, r4
  109dc0:	e1a0000b 	mov	r0, fp
  109dc4:	ebfff79c 	bl	107c3c <__swsetup_r>
  109dc8:	e3500000 	cmp	r0, #0
  109dcc:	1a0000f7 	bne	10a1b0 <__sfvwrite_r+0x4a8>
  109dd0:	e1d4c0bc 	ldrh	ip, [r4, #12]
  109dd4:	eaffffd9 	b	109d40 <__sfvwrite_r+0x38>
  109dd8:	e5958000 	ldr	r8, [r5]
  109ddc:	e2855008 	add	r5, r5, #8
  109de0:	e5157004 	ldr	r7, [r5, #-4]
  109de4:	eaffffde 	b	109d64 <__sfvwrite_r+0x5c>
  109de8:	e3a00000 	mov	r0, #0
  109dec:	e12fff1e 	bx	lr
  109df0:	e21c9001 	ands	r9, ip, #1
  109df4:	1a000053 	bne	109f48 <__sfvwrite_r+0x240>
  109df8:	e1a07009 	mov	r7, r9
  109dfc:	e3570000 	cmp	r7, #0
  109e00:	0a000041 	beq	109f0c <__sfvwrite_r+0x204>
  109e04:	e31c0c02 	tst	ip, #512	; 0x200
  109e08:	e594a008 	ldr	sl, [r4, #8]
  109e0c:	0a000081 	beq	10a018 <__sfvwrite_r+0x310>
  109e10:	e157000a 	cmp	r7, sl
  109e14:	e1a0800a 	mov	r8, sl
  109e18:	3a0000a7 	bcc	10a0bc <__sfvwrite_r+0x3b4>
  109e1c:	e31c0d12 	tst	ip, #1152	; 0x480
  109e20:	05940000 	ldreq	r0, [r4]
  109e24:	0a000024 	beq	109ebc <__sfvwrite_r+0x1b4>
  109e28:	e5943014 	ldr	r3, [r4, #20]
  109e2c:	e5941010 	ldr	r1, [r4, #16]
  109e30:	e594a000 	ldr	sl, [r4]
  109e34:	e0833083 	add	r3, r3, r3, lsl #1
  109e38:	e061a00a 	rsb	sl, r1, sl
  109e3c:	e0833fa3 	add	r3, r3, r3, lsr #31
  109e40:	e28a0001 	add	r0, sl, #1
  109e44:	e0800007 	add	r0, r0, r7
  109e48:	e1a080c3 	asr	r8, r3, #1
  109e4c:	e1580000 	cmp	r8, r0
  109e50:	e1a02008 	mov	r2, r8
  109e54:	31a08000 	movcc	r8, r0
  109e58:	31a02008 	movcc	r2, r8
  109e5c:	e31c0b01 	tst	ip, #1024	; 0x400
  109e60:	0a0000c5 	beq	10a17c <__sfvwrite_r+0x474>
  109e64:	e1a01002 	mov	r1, r2
  109e68:	e1a0000b 	mov	r0, fp
  109e6c:	ebffe8e8 	bl	104214 <_malloc_r>
  109e70:	e250c000 	subs	ip, r0, #0
  109e74:	0a0000cf 	beq	10a1b8 <__sfvwrite_r+0x4b0>
  109e78:	e1a0200a 	mov	r2, sl
  109e7c:	e5941010 	ldr	r1, [r4, #16]
  109e80:	e58dc000 	str	ip, [sp]
  109e84:	eb0006bd 	bl	10b980 <memcpy>
  109e88:	e1d420bc 	ldrh	r2, [r4, #12]
  109e8c:	e59dc000 	ldr	ip, [sp]
  109e90:	e3c22d12 	bic	r2, r2, #1152	; 0x480
  109e94:	e3822080 	orr	r2, r2, #128	; 0x80
  109e98:	e1c420bc 	strh	r2, [r4, #12]
  109e9c:	e08c000a 	add	r0, ip, sl
  109ea0:	e5848014 	str	r8, [r4, #20]
  109ea4:	e06aa008 	rsb	sl, sl, r8
  109ea8:	e1a08007 	mov	r8, r7
  109eac:	e584a008 	str	sl, [r4, #8]
  109eb0:	e1a0a007 	mov	sl, r7
  109eb4:	e584c010 	str	ip, [r4, #16]
  109eb8:	e5840000 	str	r0, [r4]
  109ebc:	e1a02008 	mov	r2, r8
  109ec0:	e1a01009 	mov	r1, r9
  109ec4:	eb00082d 	bl	10bf80 <memmove>
  109ec8:	e5941008 	ldr	r1, [r4, #8]
  109ecc:	e5942000 	ldr	r2, [r4]
  109ed0:	e1a00007 	mov	r0, r7
  109ed4:	e06aa001 	rsb	sl, sl, r1
  109ed8:	e584a008 	str	sl, [r4, #8]
  109edc:	e0823008 	add	r3, r2, r8
  109ee0:	e5843000 	str	r3, [r4]
  109ee4:	e5963008 	ldr	r3, [r6, #8]
  109ee8:	e0899000 	add	r9, r9, r0
  109eec:	e0607007 	rsb	r7, r0, r7
  109ef0:	e0600003 	rsb	r0, r0, r3
  109ef4:	e5860008 	str	r0, [r6, #8]
  109ef8:	e3500000 	cmp	r0, #0
  109efc:	0affffab 	beq	109db0 <__sfvwrite_r+0xa8>
  109f00:	e3570000 	cmp	r7, #0
  109f04:	e1d4c0bc 	ldrh	ip, [r4, #12]
  109f08:	1affffbd 	bne	109e04 <__sfvwrite_r+0xfc>
  109f0c:	e5959000 	ldr	r9, [r5]
  109f10:	e2855008 	add	r5, r5, #8
  109f14:	e5157004 	ldr	r7, [r5, #-4]
  109f18:	eaffffb7 	b	109dfc <__sfvwrite_r+0xf4>
  109f1c:	e1a01004 	mov	r1, r4
  109f20:	e1a0000b 	mov	r0, fp
  109f24:	ebfffda8 	bl	1095cc <_fflush_r>
  109f28:	e3500000 	cmp	r0, #0
  109f2c:	0a00004d 	beq	10a068 <__sfvwrite_r+0x360>
  109f30:	e1d430bc 	ldrh	r3, [r4, #12]
  109f34:	e3833040 	orr	r3, r3, #64	; 0x40
  109f38:	e3e00000 	mvn	r0, #0
  109f3c:	e1c430bc 	strh	r3, [r4, #12]
  109f40:	e28dd00c 	add	sp, sp, #12
  109f44:	e8bd8ff0 	pop	{r4, r5, r6, r7, r8, r9, sl, fp, pc}
  109f48:	e1a0c008 	mov	ip, r8
  109f4c:	e1a0a008 	mov	sl, r8
  109f50:	e1a09008 	mov	r9, r8
  109f54:	e3590000 	cmp	r9, #0
  109f58:	0a000029 	beq	10a004 <__sfvwrite_r+0x2fc>
  109f5c:	e35c0000 	cmp	ip, #0
  109f60:	0a000059 	beq	10a0cc <__sfvwrite_r+0x3c4>
  109f64:	e5941014 	ldr	r1, [r4, #20]
  109f68:	e1580009 	cmp	r8, r9
  109f6c:	e5943008 	ldr	r3, [r4, #8]
  109f70:	31a02008 	movcc	r2, r8
  109f74:	21a02009 	movcs	r2, r9
  109f78:	e0813003 	add	r3, r1, r3
  109f7c:	e58d1000 	str	r1, [sp]
  109f80:	e1520003 	cmp	r2, r3
  109f84:	e5940000 	ldr	r0, [r4]
  109f88:	e5941010 	ldr	r1, [r4, #16]
  109f8c:	e1a07002 	mov	r7, r2
  109f90:	d3a0e000 	movle	lr, #0
  109f94:	c3a0e001 	movgt	lr, #1
  109f98:	e1500001 	cmp	r0, r1
  109f9c:	93a0e000 	movls	lr, #0
  109fa0:	e35e0000 	cmp	lr, #0
  109fa4:	1a000063 	bne	10a138 <__sfvwrite_r+0x430>
  109fa8:	e59d3000 	ldr	r3, [sp]
  109fac:	e1520003 	cmp	r2, r3
  109fb0:	ba00002e 	blt	10a070 <__sfvwrite_r+0x368>
  109fb4:	e5947024 	ldr	r7, [r4, #36]	; 0x24
  109fb8:	e1a0200a 	mov	r2, sl
  109fbc:	e594101c 	ldr	r1, [r4, #28]
  109fc0:	e1a0000b 	mov	r0, fp
  109fc4:	e58dc004 	str	ip, [sp, #4]
  109fc8:	e12fff37 	blx	r7
  109fcc:	e59dc004 	ldr	ip, [sp, #4]
  109fd0:	e2507000 	subs	r7, r0, #0
  109fd4:	daffffd5 	ble	109f30 <__sfvwrite_r+0x228>
  109fd8:	e0588007 	subs	r8, r8, r7
  109fdc:	0a00002f 	beq	10a0a0 <__sfvwrite_r+0x398>
  109fe0:	e5963008 	ldr	r3, [r6, #8]
  109fe4:	e08aa007 	add	sl, sl, r7
  109fe8:	e0679009 	rsb	r9, r7, r9
  109fec:	e0677003 	rsb	r7, r7, r3
  109ff0:	e5867008 	str	r7, [r6, #8]
  109ff4:	e3570000 	cmp	r7, #0
  109ff8:	0affff6c 	beq	109db0 <__sfvwrite_r+0xa8>
  109ffc:	e3590000 	cmp	r9, #0
  10a000:	1affffd5 	bne	109f5c <__sfvwrite_r+0x254>
  10a004:	e595a000 	ldr	sl, [r5]
  10a008:	e3a0c000 	mov	ip, #0
  10a00c:	e5959004 	ldr	r9, [r5, #4]
  10a010:	e2855008 	add	r5, r5, #8
  10a014:	eaffffce 	b	109f54 <__sfvwrite_r+0x24c>
  10a018:	e5940000 	ldr	r0, [r4]
  10a01c:	e5943010 	ldr	r3, [r4, #16]
  10a020:	e1500003 	cmp	r0, r3
  10a024:	8a000002 	bhi	10a034 <__sfvwrite_r+0x32c>
  10a028:	e5943014 	ldr	r3, [r4, #20]
  10a02c:	e1570003 	cmp	r7, r3
  10a030:	2a000030 	bcs	10a0f8 <__sfvwrite_r+0x3f0>
  10a034:	e157000a 	cmp	r7, sl
  10a038:	e1a01009 	mov	r1, r9
  10a03c:	31a0a007 	movcc	sl, r7
  10a040:	e1a0200a 	mov	r2, sl
  10a044:	eb0007cd 	bl	10bf80 <memmove>
  10a048:	e5943008 	ldr	r3, [r4, #8]
  10a04c:	e5942000 	ldr	r2, [r4]
  10a050:	e06a3003 	rsb	r3, sl, r3
  10a054:	e5843008 	str	r3, [r4, #8]
  10a058:	e3530000 	cmp	r3, #0
  10a05c:	e082300a 	add	r3, r2, sl
  10a060:	e5843000 	str	r3, [r4]
  10a064:	0affffac 	beq	109f1c <__sfvwrite_r+0x214>
  10a068:	e1a0000a 	mov	r0, sl
  10a06c:	eaffff9c 	b	109ee4 <__sfvwrite_r+0x1dc>
  10a070:	e1a0100a 	mov	r1, sl
  10a074:	e58dc000 	str	ip, [sp]
  10a078:	eb0007c0 	bl	10bf80 <memmove>
  10a07c:	e5942008 	ldr	r2, [r4, #8]
  10a080:	e5943000 	ldr	r3, [r4]
  10a084:	e0588007 	subs	r8, r8, r7
  10a088:	e0672002 	rsb	r2, r7, r2
  10a08c:	e59dc000 	ldr	ip, [sp]
  10a090:	e0833007 	add	r3, r3, r7
  10a094:	e5842008 	str	r2, [r4, #8]
  10a098:	e5843000 	str	r3, [r4]
  10a09c:	1affffcf 	bne	109fe0 <__sfvwrite_r+0x2d8>
  10a0a0:	e1a01004 	mov	r1, r4
  10a0a4:	e1a0000b 	mov	r0, fp
  10a0a8:	ebfffd47 	bl	1095cc <_fflush_r>
  10a0ac:	e3500000 	cmp	r0, #0
  10a0b0:	1affff9e 	bne	109f30 <__sfvwrite_r+0x228>
  10a0b4:	e1a0c008 	mov	ip, r8
  10a0b8:	eaffffc8 	b	109fe0 <__sfvwrite_r+0x2d8>
  10a0bc:	e5940000 	ldr	r0, [r4]
  10a0c0:	e1a0a007 	mov	sl, r7
  10a0c4:	e1a08007 	mov	r8, r7
  10a0c8:	eaffff7b 	b	109ebc <__sfvwrite_r+0x1b4>
  10a0cc:	e1a02009 	mov	r2, r9
  10a0d0:	e3a0100a 	mov	r1, #10
  10a0d4:	e1a0000a 	mov	r0, sl
  10a0d8:	fa000600 	blx	10b8e0 <memchr>
  10a0dc:	e3500000 	cmp	r0, #0
  10a0e0:	12800001 	addne	r0, r0, #1
  10a0e4:	02898001 	addeq	r8, r9, #1
  10a0e8:	13a0c001 	movne	ip, #1
  10a0ec:	106a8000 	rsbne	r8, sl, r0
  10a0f0:	03a0c001 	moveq	ip, #1
  10a0f4:	eaffff9a 	b	109f64 <__sfvwrite_r+0x25c>
  10a0f8:	e3770106 	cmn	r7, #-2147483647	; 0x80000001
  10a0fc:	e1a01003 	mov	r1, r3
  10a100:	e58d3000 	str	r3, [sp]
  10a104:	31a00007 	movcc	r0, r7
  10a108:	23e00102 	mvncs	r0, #-2147483648	; 0x80000000
  10a10c:	eb001993 	bl	110760 <__aeabi_idiv>
  10a110:	e59d3000 	ldr	r3, [sp]
  10a114:	e594c024 	ldr	ip, [r4, #36]	; 0x24
  10a118:	e1a02009 	mov	r2, r9
  10a11c:	e594101c 	ldr	r1, [r4, #28]
  10a120:	e0030390 	mul	r3, r0, r3
  10a124:	e1a0000b 	mov	r0, fp
  10a128:	e12fff3c 	blx	ip
  10a12c:	e3500000 	cmp	r0, #0
  10a130:	caffff6b 	bgt	109ee4 <__sfvwrite_r+0x1dc>
  10a134:	eaffff7d 	b	109f30 <__sfvwrite_r+0x228>
  10a138:	e1a02003 	mov	r2, r3
  10a13c:	e1a0100a 	mov	r1, sl
  10a140:	e58dc004 	str	ip, [sp, #4]
  10a144:	e58d3000 	str	r3, [sp]
  10a148:	eb00078c 	bl	10bf80 <memmove>
  10a14c:	e5942000 	ldr	r2, [r4]
  10a150:	e1a01004 	mov	r1, r4
  10a154:	e59d3000 	ldr	r3, [sp]
  10a158:	e1a0000b 	mov	r0, fp
  10a15c:	e0822003 	add	r2, r2, r3
  10a160:	e5842000 	str	r2, [r4]
  10a164:	ebfffd18 	bl	1095cc <_fflush_r>
  10a168:	e89d1008 	ldm	sp, {r3, ip}
  10a16c:	e3500000 	cmp	r0, #0
  10a170:	1affff6e 	bne	109f30 <__sfvwrite_r+0x228>
  10a174:	e1a07003 	mov	r7, r3
  10a178:	eaffff96 	b	109fd8 <__sfvwrite_r+0x2d0>
  10a17c:	e1a0000b 	mov	r0, fp
  10a180:	eb000b3d 	bl	10ce7c <_realloc_r>
  10a184:	e250c000 	subs	ip, r0, #0
  10a188:	1affff43 	bne	109e9c <__sfvwrite_r+0x194>
  10a18c:	e5941010 	ldr	r1, [r4, #16]
  10a190:	e1a0000b 	mov	r0, fp
  10a194:	ebfffe2f 	bl	109a58 <_free_r>
  10a198:	e1d430bc 	ldrh	r3, [r4, #12]
  10a19c:	e3a0200c 	mov	r2, #12
  10a1a0:	e58b2000 	str	r2, [fp]
  10a1a4:	e3c33080 	bic	r3, r3, #128	; 0x80
  10a1a8:	e6ff3073 	uxth	r3, r3
  10a1ac:	eaffff60 	b	109f34 <__sfvwrite_r+0x22c>
  10a1b0:	e3e00000 	mvn	r0, #0
  10a1b4:	eafffefe 	b	109db4 <__sfvwrite_r+0xac>
  10a1b8:	e3a0200c 	mov	r2, #12
  10a1bc:	e1d430bc 	ldrh	r3, [r4, #12]
  10a1c0:	e58b2000 	str	r2, [fp]
  10a1c4:	eaffff5a 	b	109f34 <__sfvwrite_r+0x22c>

0010a1c8 <_fwalk>:
  10a1c8:	e92d41f0 	push	{r4, r5, r6, r7, r8, lr}
  10a1cc:	e2907e2e 	adds	r7, r0, #736	; 0x2e0
  10a1d0:	0a000017 	beq	10a234 <_fwalk+0x6c>
  10a1d4:	e1a08001 	mov	r8, r1
  10a1d8:	e3a06000 	mov	r6, #0
  10a1dc:	e5975004 	ldr	r5, [r7, #4]
  10a1e0:	e5974008 	ldr	r4, [r7, #8]
  10a1e4:	e2555001 	subs	r5, r5, #1
  10a1e8:	4a00000c 	bmi	10a220 <_fwalk+0x58>
  10a1ec:	e1d430bc 	ldrh	r3, [r4, #12]
  10a1f0:	e2455001 	sub	r5, r5, #1
  10a1f4:	e3530001 	cmp	r3, #1
  10a1f8:	9a000005 	bls	10a214 <_fwalk+0x4c>
  10a1fc:	e1d430fe 	ldrsh	r3, [r4, #14]
  10a200:	e1a00004 	mov	r0, r4
  10a204:	e3730001 	cmn	r3, #1
  10a208:	0a000001 	beq	10a214 <_fwalk+0x4c>
  10a20c:	e12fff38 	blx	r8
  10a210:	e1866000 	orr	r6, r6, r0
  10a214:	e3750001 	cmn	r5, #1
  10a218:	e2844068 	add	r4, r4, #104	; 0x68
  10a21c:	1afffff2 	bne	10a1ec <_fwalk+0x24>
  10a220:	e5977000 	ldr	r7, [r7]
  10a224:	e3570000 	cmp	r7, #0
  10a228:	1affffeb 	bne	10a1dc <_fwalk+0x14>
  10a22c:	e1a00006 	mov	r0, r6
  10a230:	e8bd81f0 	pop	{r4, r5, r6, r7, r8, pc}
  10a234:	e1a06007 	mov	r6, r7
  10a238:	e1a00006 	mov	r0, r6
  10a23c:	e8bd81f0 	pop	{r4, r5, r6, r7, r8, pc}

0010a240 <_fwalk_reent>:
  10a240:	e92d47f0 	push	{r4, r5, r6, r7, r8, r9, sl, lr}
  10a244:	e2906e2e 	adds	r6, r0, #736	; 0x2e0
  10a248:	0a000019 	beq	10a2b4 <_fwalk_reent+0x74>
  10a24c:	e1a08001 	mov	r8, r1
  10a250:	e1a07000 	mov	r7, r0
  10a254:	e3a09000 	mov	r9, #0
  10a258:	e5965004 	ldr	r5, [r6, #4]
  10a25c:	e5964008 	ldr	r4, [r6, #8]
  10a260:	e2555001 	subs	r5, r5, #1
  10a264:	4a00000d 	bmi	10a2a0 <_fwalk_reent+0x60>
  10a268:	e1d430bc 	ldrh	r3, [r4, #12]
  10a26c:	e2455001 	sub	r5, r5, #1
  10a270:	e3530001 	cmp	r3, #1
  10a274:	9a000006 	bls	10a294 <_fwalk_reent+0x54>
  10a278:	e1d430fe 	ldrsh	r3, [r4, #14]
  10a27c:	e1a01004 	mov	r1, r4
  10a280:	e1a00007 	mov	r0, r7
  10a284:	e3730001 	cmn	r3, #1
  10a288:	0a000001 	beq	10a294 <_fwalk_reent+0x54>
  10a28c:	e12fff38 	blx	r8
  10a290:	e1899000 	orr	r9, r9, r0
  10a294:	e3750001 	cmn	r5, #1
  10a298:	e2844068 	add	r4, r4, #104	; 0x68
  10a29c:	1afffff1 	bne	10a268 <_fwalk_reent+0x28>
  10a2a0:	e5966000 	ldr	r6, [r6]
  10a2a4:	e3560000 	cmp	r6, #0
  10a2a8:	1affffea 	bne	10a258 <_fwalk_reent+0x18>
  10a2ac:	e1a00009 	mov	r0, r9
  10a2b0:	e8bd87f0 	pop	{r4, r5, r6, r7, r8, r9, sl, pc}
  10a2b4:	e1a09006 	mov	r9, r6
  10a2b8:	e1a00009 	mov	r0, r9
  10a2bc:	e8bd87f0 	pop	{r4, r5, r6, r7, r8, r9, sl, pc}

0010a2c0 <__get_locale_env>:
  10a2c0:	e92d4070 	push	{r4, r5, r6, lr}
  10a2c4:	e1a05001 	mov	r5, r1
  10a2c8:	e3071198 	movw	r1, #29080	; 0x7198
  10a2cc:	e1a04000 	mov	r4, r0
  10a2d0:	e3401011 	movt	r1, #17
  10a2d4:	eb00180d 	bl	110310 <_getenv_r>
  10a2d8:	e3500000 	cmp	r0, #0
  10a2dc:	0a000002 	beq	10a2ec <__get_locale_env+0x2c>
  10a2e0:	e5d02000 	ldrb	r2, [r0]
  10a2e4:	e3520000 	cmp	r2, #0
  10a2e8:	18bd8070 	popne	{r4, r5, r6, pc}
  10a2ec:	e3063998 	movw	r3, #27032	; 0x6998
  10a2f0:	e1a00004 	mov	r0, r4
  10a2f4:	e3403011 	movt	r3, #17
  10a2f8:	e7931105 	ldr	r1, [r3, r5, lsl #2]
  10a2fc:	eb001803 	bl	110310 <_getenv_r>
  10a300:	e3500000 	cmp	r0, #0
  10a304:	0a000002 	beq	10a314 <__get_locale_env+0x54>
  10a308:	e5d02000 	ldrb	r2, [r0]
  10a30c:	e3520000 	cmp	r2, #0
  10a310:	18bd8070 	popne	{r4, r5, r6, pc}
  10a314:	e30711a0 	movw	r1, #29088	; 0x71a0
  10a318:	e1a00004 	mov	r0, r4
  10a31c:	e3401011 	movt	r1, #17
  10a320:	eb0017fa 	bl	110310 <_getenv_r>
  10a324:	e3500000 	cmp	r0, #0
  10a328:	0a000005 	beq	10a344 <__get_locale_env+0x84>
  10a32c:	e5d01000 	ldrb	r1, [r0]
  10a330:	e30821cc 	movw	r2, #33228	; 0x81cc
  10a334:	e3402011 	movt	r2, #17
  10a338:	e3510000 	cmp	r1, #0
  10a33c:	01a00002 	moveq	r0, r2
  10a340:	e8bd8070 	pop	{r4, r5, r6, pc}
  10a344:	e30801cc 	movw	r0, #33228	; 0x81cc
  10a348:	e3400011 	movt	r0, #17
  10a34c:	e8bd8070 	pop	{r4, r5, r6, pc}

0010a350 <loadlocale>:
  10a350:	e92d4ff0 	push	{r4, r5, r6, r7, r8, r9, sl, fp, lr}
  10a354:	e1a04281 	lsl	r4, r1, #5
  10a358:	e59f58d8 	ldr	r5, [pc, #2264]	; 10ac38 <loadlocale+0x8e8>
  10a35c:	e3006088 	movw	r6, #136	; 0x88
  10a360:	e3406012 	movt	r6, #18
  10a364:	e24dd034 	sub	sp, sp, #52	; 0x34
  10a368:	e0855004 	add	r5, r5, r4
  10a36c:	e0864004 	add	r4, r6, r4
  10a370:	e1a07001 	mov	r7, r1
  10a374:	e1a0a000 	mov	sl, r0
  10a378:	e1a01005 	mov	r1, r5
  10a37c:	e1a00004 	mov	r0, r4
  10a380:	fa000d70 	blx	10d948 <strcmp>
  10a384:	e3500000 	cmp	r0, #0
  10a388:	01a00005 	moveq	r0, r5
  10a38c:	1a000001 	bne	10a398 <loadlocale+0x48>
  10a390:	e28dd034 	add	sp, sp, #52	; 0x34
  10a394:	e8bd8ff0 	pop	{r4, r5, r6, r7, r8, r9, sl, fp, pc}
  10a398:	e30711a8 	movw	r1, #29096	; 0x71a8
  10a39c:	e1a00004 	mov	r0, r4
  10a3a0:	e3401011 	movt	r1, #17
  10a3a4:	e1a09006 	mov	r9, r6
  10a3a8:	fa000d66 	blx	10d948 <strcmp>
  10a3ac:	e3500000 	cmp	r0, #0
  10a3b0:	0a00006c 	beq	10a568 <loadlocale+0x218>
  10a3b4:	e3071150 	movw	r1, #29008	; 0x7150
  10a3b8:	e1a00004 	mov	r0, r4
  10a3bc:	e3401011 	movt	r1, #17
  10a3c0:	fa000d60 	blx	10d948 <strcmp>
  10a3c4:	e3500000 	cmp	r0, #0
  10a3c8:	0a00005f 	beq	10a54c <loadlocale+0x1fc>
  10a3cc:	e7d93287 	ldrb	r3, [r9, r7, lsl #5]
  10a3d0:	e3530043 	cmp	r3, #67	; 0x43
  10a3d4:	0a000055 	beq	10a530 <loadlocale+0x1e0>
  10a3d8:	e2433061 	sub	r3, r3, #97	; 0x61
  10a3dc:	e3530019 	cmp	r3, #25
  10a3e0:	8a000056 	bhi	10a540 <loadlocale+0x1f0>
  10a3e4:	e5d43001 	ldrb	r3, [r4, #1]
  10a3e8:	e2433061 	sub	r3, r3, #97	; 0x61
  10a3ec:	e3530019 	cmp	r3, #25
  10a3f0:	8a000052 	bhi	10a540 <loadlocale+0x1f0>
  10a3f4:	e5d43002 	ldrb	r3, [r4, #2]
  10a3f8:	e2432061 	sub	r2, r3, #97	; 0x61
  10a3fc:	e3520019 	cmp	r2, #25
  10a400:	82848002 	addhi	r8, r4, #2
  10a404:	92848003 	addls	r8, r4, #3
  10a408:	95d43003 	ldrbls	r3, [r4, #3]
  10a40c:	e353005f 	cmp	r3, #95	; 0x5f
  10a410:	0a000059 	beq	10a57c <loadlocale+0x22c>
  10a414:	e353002e 	cmp	r3, #46	; 0x2e
  10a418:	0a0001ab 	beq	10aacc <loadlocale+0x77c>
  10a41c:	e31300bf 	tst	r3, #191	; 0xbf
  10a420:	1a000046 	bne	10a540 <loadlocale+0x1f0>
  10a424:	e28d9010 	add	r9, sp, #16
  10a428:	e30711b8 	movw	r1, #29112	; 0x71b8
  10a42c:	e3401011 	movt	r1, #17
  10a430:	e1a00009 	mov	r0, r9
  10a434:	eb000df9 	bl	10dc20 <strcpy>
  10a438:	e5d83000 	ldrb	r3, [r8]
  10a43c:	e3530040 	cmp	r3, #64	; 0x40
  10a440:	0a00019a 	beq	10aab0 <loadlocale+0x760>
  10a444:	e3a08000 	mov	r8, #0
  10a448:	e5dd3010 	ldrb	r3, [sp, #16]
  10a44c:	e2433041 	sub	r3, r3, #65	; 0x41
  10a450:	e3530034 	cmp	r3, #52	; 0x34
  10a454:	979ff103 	ldrls	pc, [pc, r3, lsl #2]
  10a458:	ea000038 	b	10a540 <loadlocale+0x1f0>
  10a45c:	0010a864 	.word	0x0010a864
  10a460:	0010a540 	.word	0x0010a540
  10a464:	0010a7f0 	.word	0x0010a7f0
  10a468:	0010a540 	.word	0x0010a540
  10a46c:	0010a8e4 	.word	0x0010a8e4
  10a470:	0010a540 	.word	0x0010a540
  10a474:	0010a890 	.word	0x0010a890
  10a478:	0010a540 	.word	0x0010a540
  10a47c:	0010a954 	.word	0x0010a954
  10a480:	0010a7a8 	.word	0x0010a7a8
  10a484:	0010a758 	.word	0x0010a758
  10a488:	0010a540 	.word	0x0010a540
  10a48c:	0010a540 	.word	0x0010a540
  10a490:	0010a540 	.word	0x0010a540
  10a494:	0010a540 	.word	0x0010a540
  10a498:	0010a72c 	.word	0x0010a72c
  10a49c:	0010a540 	.word	0x0010a540
  10a4a0:	0010a540 	.word	0x0010a540
  10a4a4:	0010a6e4 	.word	0x0010a6e4
  10a4a8:	0010a634 	.word	0x0010a634
  10a4ac:	0010a5a8 	.word	0x0010a5a8
  10a4b0:	0010a540 	.word	0x0010a540
  10a4b4:	0010a540 	.word	0x0010a540
  10a4b8:	0010a540 	.word	0x0010a540
  10a4bc:	0010a540 	.word	0x0010a540
  10a4c0:	0010a540 	.word	0x0010a540
  10a4c4:	0010a540 	.word	0x0010a540
  10a4c8:	0010a540 	.word	0x0010a540
  10a4cc:	0010a540 	.word	0x0010a540
  10a4d0:	0010a540 	.word	0x0010a540
  10a4d4:	0010a540 	.word	0x0010a540
  10a4d8:	0010a540 	.word	0x0010a540
  10a4dc:	0010a864 	.word	0x0010a864
  10a4e0:	0010a540 	.word	0x0010a540
  10a4e4:	0010a7f0 	.word	0x0010a7f0
  10a4e8:	0010a540 	.word	0x0010a540
  10a4ec:	0010a8e4 	.word	0x0010a8e4
  10a4f0:	0010a540 	.word	0x0010a540
  10a4f4:	0010a890 	.word	0x0010a890
  10a4f8:	0010a540 	.word	0x0010a540
  10a4fc:	0010a954 	.word	0x0010a954
  10a500:	0010a7a8 	.word	0x0010a7a8
  10a504:	0010a758 	.word	0x0010a758
  10a508:	0010a540 	.word	0x0010a540
  10a50c:	0010a540 	.word	0x0010a540
  10a510:	0010a540 	.word	0x0010a540
  10a514:	0010a540 	.word	0x0010a540
  10a518:	0010a72c 	.word	0x0010a72c
  10a51c:	0010a540 	.word	0x0010a540
  10a520:	0010a540 	.word	0x0010a540
  10a524:	0010a6e4 	.word	0x0010a6e4
  10a528:	0010a634 	.word	0x0010a634
  10a52c:	0010a5a8 	.word	0x0010a5a8
  10a530:	e5d43001 	ldrb	r3, [r4, #1]
  10a534:	e243302d 	sub	r3, r3, #45	; 0x2d
  10a538:	e3530001 	cmp	r3, #1
  10a53c:	9a000173 	bls	10ab10 <loadlocale+0x7c0>
  10a540:	e3a00000 	mov	r0, #0
  10a544:	e28dd034 	add	sp, sp, #52	; 0x34
  10a548:	e8bd8ff0 	pop	{r4, r5, r6, r7, r8, r9, sl, fp, pc}
  10a54c:	e28d9010 	add	r9, sp, #16
  10a550:	e30711b0 	movw	r1, #29104	; 0x71b0
  10a554:	e1a08000 	mov	r8, r0
  10a558:	e3401011 	movt	r1, #17
  10a55c:	e1a00009 	mov	r0, r9
  10a560:	eb000dae 	bl	10dc20 <strcpy>
  10a564:	eaffffb7 	b	10a448 <loadlocale+0xf8>
  10a568:	e3071150 	movw	r1, #29008	; 0x7150
  10a56c:	e1a00004 	mov	r0, r4
  10a570:	e3401011 	movt	r1, #17
  10a574:	eb000da9 	bl	10dc20 <strcpy>
  10a578:	eaffff8d 	b	10a3b4 <loadlocale+0x64>
  10a57c:	e5d83001 	ldrb	r3, [r8, #1]
  10a580:	e2433041 	sub	r3, r3, #65	; 0x41
  10a584:	e3530019 	cmp	r3, #25
  10a588:	8affffec 	bhi	10a540 <loadlocale+0x1f0>
  10a58c:	e5d83002 	ldrb	r3, [r8, #2]
  10a590:	e2433041 	sub	r3, r3, #65	; 0x41
  10a594:	e3530019 	cmp	r3, #25
  10a598:	8affffe8 	bhi	10a540 <loadlocale+0x1f0>
  10a59c:	e5d83003 	ldrb	r3, [r8, #3]
  10a5a0:	e2888003 	add	r8, r8, #3
  10a5a4:	eaffff9a 	b	10a414 <loadlocale+0xc4>
  10a5a8:	e30711d0 	movw	r1, #29136	; 0x71d0
  10a5ac:	e1a00009 	mov	r0, r9
  10a5b0:	e3401011 	movt	r1, #17
  10a5b4:	eb000c43 	bl	10d6c8 <strcasecmp>
  10a5b8:	e3500000 	cmp	r0, #0
  10a5bc:	0a000005 	beq	10a5d8 <loadlocale+0x288>
  10a5c0:	e30711d8 	movw	r1, #29144	; 0x71d8
  10a5c4:	e1a00009 	mov	r0, r9
  10a5c8:	e3401011 	movt	r1, #17
  10a5cc:	eb000c3d 	bl	10d6c8 <strcasecmp>
  10a5d0:	e3500000 	cmp	r0, #0
  10a5d4:	1affffd9 	bne	10a540 <loadlocale+0x1f0>
  10a5d8:	e30711d0 	movw	r1, #29136	; 0x71d0
  10a5dc:	e1a00009 	mov	r0, r9
  10a5e0:	e3401011 	movt	r1, #17
  10a5e4:	e3073904 	movw	r3, #30980	; 0x7904
  10a5e8:	e58d3000 	str	r3, [sp]
  10a5ec:	eb000d8b 	bl	10dc20 <strcpy>
  10a5f0:	e59d3000 	ldr	r3, [sp]
  10a5f4:	e30bb230 	movw	fp, #45616	; 0xb230
  10a5f8:	e340b010 	movt	fp, #16
  10a5fc:	e3a0c006 	mov	ip, #6
  10a600:	e3403010 	movt	r3, #16
  10a604:	e3570002 	cmp	r7, #2
  10a608:	0a00010d 	beq	10aa44 <loadlocale+0x6f4>
  10a60c:	e3570006 	cmp	r7, #6
  10a610:	1a000002 	bne	10a620 <loadlocale+0x2d0>
  10a614:	e1a01009 	mov	r1, r9
  10a618:	e59f061c 	ldr	r0, [pc, #1564]	; 10ac3c <loadlocale+0x8ec>
  10a61c:	eb000d7f 	bl	10dc20 <strcpy>
  10a620:	e1a01004 	mov	r1, r4
  10a624:	e1a00005 	mov	r0, r5
  10a628:	eb000d7c 	bl	10dc20 <strcpy>
  10a62c:	e28dd034 	add	sp, sp, #52	; 0x34
  10a630:	e8bd8ff0 	pop	{r4, r5, r6, r7, r8, r9, sl, fp, pc}
  10a634:	e3071258 	movw	r1, #29272	; 0x7258
  10a638:	e3a02003 	mov	r2, #3
  10a63c:	e3401011 	movt	r1, #17
  10a640:	e1a00009 	mov	r0, r9
  10a644:	eb000dc5 	bl	10dd60 <strncasecmp>
  10a648:	e3500000 	cmp	r0, #0
  10a64c:	1affffbb 	bne	10a540 <loadlocale+0x1f0>
  10a650:	e5dd3013 	ldrb	r3, [sp, #19]
  10a654:	e307125c 	movw	r1, #29276	; 0x725c
  10a658:	e3401011 	movt	r1, #17
  10a65c:	e353002d 	cmp	r3, #45	; 0x2d
  10a660:	028d0014 	addeq	r0, sp, #20
  10a664:	128d0013 	addne	r0, sp, #19
  10a668:	eb000c16 	bl	10d6c8 <strcasecmp>
  10a66c:	e3500000 	cmp	r0, #0
  10a670:	1affffb2 	bne	10a540 <loadlocale+0x1f0>
  10a674:	e3071260 	movw	r1, #29280	; 0x7260
  10a678:	e1a00009 	mov	r0, r9
  10a67c:	e3401011 	movt	r1, #17
  10a680:	eb000d66 	bl	10dc20 <strcpy>
  10a684:	e3570002 	cmp	r7, #2
  10a688:	1affffdf 	bne	10a60c <loadlocale+0x2bc>
  10a68c:	e30871cc 	movw	r7, #33228	; 0x81cc
  10a690:	e1a01009 	mov	r1, r9
  10a694:	e3407011 	movt	r7, #17
  10a698:	e2870c01 	add	r0, r7, #256	; 0x100
  10a69c:	eb000d5f 	bl	10dc20 <strcpy>
  10a6a0:	e30811c8 	movw	r1, #33224	; 0x81c8
  10a6a4:	e3083348 	movw	r3, #33608	; 0x8348
  10a6a8:	e1a00009 	mov	r0, r9
  10a6ac:	e3401011 	movt	r1, #17
  10a6b0:	e3403011 	movt	r3, #17
  10a6b4:	e307c894 	movw	ip, #30868	; 0x7894
  10a6b8:	e30b2198 	movw	r2, #45464	; 0xb198
  10a6bc:	e3a0e001 	mov	lr, #1
  10a6c0:	e340c010 	movt	ip, #16
  10a6c4:	e3402010 	movt	r2, #16
  10a6c8:	e587e120 	str	lr, [r7, #288]	; 0x120
  10a6cc:	e581c000 	str	ip, [r1]
  10a6d0:	e5832000 	str	r2, [r3]
  10a6d4:	ebffe683 	bl	1040e8 <__set_ctype>
  10a6d8:	e3a00000 	mov	r0, #0
  10a6dc:	e58600e0 	str	r0, [r6, #224]	; 0xe0
  10a6e0:	eaffffce 	b	10a620 <loadlocale+0x2d0>
  10a6e4:	e30711f4 	movw	r1, #29172	; 0x71f4
  10a6e8:	e1a00009 	mov	r0, r9
  10a6ec:	e3401011 	movt	r1, #17
  10a6f0:	eb000bf4 	bl	10d6c8 <strcasecmp>
  10a6f4:	e3500000 	cmp	r0, #0
  10a6f8:	1affff90 	bne	10a540 <loadlocale+0x1f0>
  10a6fc:	e30711f4 	movw	r1, #29172	; 0x71f4
  10a700:	e1a00009 	mov	r0, r9
  10a704:	e3401011 	movt	r1, #17
  10a708:	e3073a08 	movw	r3, #31240	; 0x7a08
  10a70c:	e58d3000 	str	r3, [sp]
  10a710:	eb000d42 	bl	10dc20 <strcpy>
  10a714:	e59d3000 	ldr	r3, [sp]
  10a718:	e30bb52c 	movw	fp, #46380	; 0xb52c
  10a71c:	e340b010 	movt	fp, #16
  10a720:	e3a0c002 	mov	ip, #2
  10a724:	e3403010 	movt	r3, #16
  10a728:	eaffffb5 	b	10a604 <loadlocale+0x2b4>
  10a72c:	e3071248 	movw	r1, #29256	; 0x7248
  10a730:	e1a00009 	mov	r0, r9
  10a734:	e3401011 	movt	r1, #17
  10a738:	eb000be2 	bl	10d6c8 <strcasecmp>
  10a73c:	e3500000 	cmp	r0, #0
  10a740:	1affff7e 	bne	10a540 <loadlocale+0x1f0>
  10a744:	e3071250 	movw	r1, #29264	; 0x7250
  10a748:	e1a00009 	mov	r0, r9
  10a74c:	e3401011 	movt	r1, #17
  10a750:	eb000d32 	bl	10dc20 <strcpy>
  10a754:	eaffffca 	b	10a684 <loadlocale+0x334>
  10a758:	e3071218 	movw	r1, #29208	; 0x7218
  10a75c:	e3a02004 	mov	r2, #4
  10a760:	e3401011 	movt	r1, #17
  10a764:	e1a00009 	mov	r0, r9
  10a768:	eb000d7c 	bl	10dd60 <strncasecmp>
  10a76c:	e3500000 	cmp	r0, #0
  10a770:	1affff72 	bne	10a540 <loadlocale+0x1f0>
  10a774:	e5dd3014 	ldrb	r3, [sp, #20]
  10a778:	e353002d 	cmp	r3, #45	; 0x2d
  10a77c:	05dd3015 	ldrbeq	r3, [sp, #21]
  10a780:	e20330df 	and	r3, r3, #223	; 0xdf
  10a784:	e3530052 	cmp	r3, #82	; 0x52
  10a788:	0a0000e2 	beq	10ab18 <loadlocale+0x7c8>
  10a78c:	e3530055 	cmp	r3, #85	; 0x55
  10a790:	1affff6a 	bne	10a540 <loadlocale+0x1f0>
  10a794:	e3071228 	movw	r1, #29224	; 0x7228
  10a798:	e1a00009 	mov	r0, r9
  10a79c:	e3401011 	movt	r1, #17
  10a7a0:	eb000d1e 	bl	10dc20 <strcpy>
  10a7a4:	eaffffb6 	b	10a684 <loadlocale+0x334>
  10a7a8:	e30711e0 	movw	r1, #29152	; 0x71e0
  10a7ac:	e1a00009 	mov	r0, r9
  10a7b0:	e3401011 	movt	r1, #17
  10a7b4:	eb000bc3 	bl	10d6c8 <strcasecmp>
  10a7b8:	e3500000 	cmp	r0, #0
  10a7bc:	1affff5f 	bne	10a540 <loadlocale+0x1f0>
  10a7c0:	e30711e0 	movw	r1, #29152	; 0x71e0
  10a7c4:	e1a00009 	mov	r0, r9
  10a7c8:	e3401011 	movt	r1, #17
  10a7cc:	e3073b64 	movw	r3, #31588	; 0x7b64
  10a7d0:	e58d3000 	str	r3, [sp]
  10a7d4:	eb000d11 	bl	10dc20 <strcpy>
  10a7d8:	e59d3000 	ldr	r3, [sp]
  10a7dc:	e30bb740 	movw	fp, #46912	; 0xb740
  10a7e0:	e340b010 	movt	fp, #16
  10a7e4:	e3a0c008 	mov	ip, #8
  10a7e8:	e3403010 	movt	r3, #16
  10a7ec:	eaffff84 	b	10a604 <loadlocale+0x2b4>
  10a7f0:	e5dd3011 	ldrb	r3, [sp, #17]
  10a7f4:	e20330df 	and	r3, r3, #223	; 0xdf
  10a7f8:	e3530050 	cmp	r3, #80	; 0x50
  10a7fc:	1affff4f 	bne	10a540 <loadlocale+0x1f0>
  10a800:	e3071214 	movw	r1, #29204	; 0x7214
  10a804:	e3a02002 	mov	r2, #2
  10a808:	e3401011 	movt	r1, #17
  10a80c:	e1a00009 	mov	r0, r9
  10a810:	eb000dba 	bl	10df00 <strncpy>
  10a814:	e3a0300a 	mov	r3, #10
  10a818:	e1a0000a 	mov	r0, sl
  10a81c:	e28d200c 	add	r2, sp, #12
  10a820:	e28d1012 	add	r1, sp, #18
  10a824:	eb000dec 	bl	10dfdc <_strtol_r>
  10a828:	e59d300c 	ldr	r3, [sp, #12]
  10a82c:	e5d33000 	ldrb	r3, [r3]
  10a830:	e3530000 	cmp	r3, #0
  10a834:	1affff41 	bne	10a540 <loadlocale+0x1f0>
  10a838:	e300335a 	movw	r3, #858	; 0x35a
  10a83c:	e1500003 	cmp	r0, r3
  10a840:	9a0000b9 	bls	10ab2c <loadlocale+0x7dc>
  10a844:	e3500fe9 	cmp	r0, #932	; 0x3a4
  10a848:	1a0000c7 	bne	10ab6c <loadlocale+0x81c>
  10a84c:	e30bb52c 	movw	fp, #46380	; 0xb52c
  10a850:	e3073a08 	movw	r3, #31240	; 0x7a08
  10a854:	e340b010 	movt	fp, #16
  10a858:	e3403010 	movt	r3, #16
  10a85c:	e3a0c002 	mov	ip, #2
  10a860:	eaffff67 	b	10a604 <loadlocale+0x2b4>
  10a864:	e30711b0 	movw	r1, #29104	; 0x71b0
  10a868:	e1a00009 	mov	r0, r9
  10a86c:	e3401011 	movt	r1, #17
  10a870:	eb000b94 	bl	10d6c8 <strcasecmp>
  10a874:	e3500000 	cmp	r0, #0
  10a878:	1affff30 	bne	10a540 <loadlocale+0x1f0>
  10a87c:	e30711b0 	movw	r1, #29104	; 0x71b0
  10a880:	e1a00009 	mov	r0, r9
  10a884:	e3401011 	movt	r1, #17
  10a888:	eb000ce4 	bl	10dc20 <strcpy>
  10a88c:	eaffff7c 	b	10a684 <loadlocale+0x334>
  10a890:	e3071230 	movw	r1, #29232	; 0x7230
  10a894:	e3a02008 	mov	r2, #8
  10a898:	e3401011 	movt	r1, #17
  10a89c:	e1a00009 	mov	r0, r9
  10a8a0:	eb000d2e 	bl	10dd60 <strncasecmp>
  10a8a4:	e3500000 	cmp	r0, #0
  10a8a8:	1affff24 	bne	10a540 <loadlocale+0x1f0>
  10a8ac:	e5dd3018 	ldrb	r3, [sp, #24]
  10a8b0:	e307123c 	movw	r1, #29244	; 0x723c
  10a8b4:	e3401011 	movt	r1, #17
  10a8b8:	e353002d 	cmp	r3, #45	; 0x2d
  10a8bc:	028d0019 	addeq	r0, sp, #25
  10a8c0:	128d0018 	addne	r0, sp, #24
  10a8c4:	eb000b7f 	bl	10d6c8 <strcasecmp>
  10a8c8:	e3500000 	cmp	r0, #0
  10a8cc:	1affff1b 	bne	10a540 <loadlocale+0x1f0>
  10a8d0:	e3071240 	movw	r1, #29248	; 0x7240
  10a8d4:	e1a00009 	mov	r0, r9
  10a8d8:	e3401011 	movt	r1, #17
  10a8dc:	eb000ccf 	bl	10dc20 <strcpy>
  10a8e0:	eaffff67 	b	10a684 <loadlocale+0x334>
  10a8e4:	e30711e4 	movw	r1, #29156	; 0x71e4
  10a8e8:	e3a02003 	mov	r2, #3
  10a8ec:	e3401011 	movt	r1, #17
  10a8f0:	e1a00009 	mov	r0, r9
  10a8f4:	eb000d19 	bl	10dd60 <strncasecmp>
  10a8f8:	e3500000 	cmp	r0, #0
  10a8fc:	1affff0f 	bne	10a540 <loadlocale+0x1f0>
  10a900:	e5dd3013 	ldrb	r3, [sp, #19]
  10a904:	e30711e8 	movw	r1, #29160	; 0x71e8
  10a908:	e3401011 	movt	r1, #17
  10a90c:	e353002d 	cmp	r3, #45	; 0x2d
  10a910:	028d0014 	addeq	r0, sp, #20
  10a914:	128d0013 	addne	r0, sp, #19
  10a918:	eb000b6a 	bl	10d6c8 <strcasecmp>
  10a91c:	e3500000 	cmp	r0, #0
  10a920:	1affff06 	bne	10a540 <loadlocale+0x1f0>
  10a924:	e30711ec 	movw	r1, #29164	; 0x71ec
  10a928:	e1a00009 	mov	r0, r9
  10a92c:	e3401011 	movt	r1, #17
  10a930:	e3073a94 	movw	r3, #31380	; 0x7a94
  10a934:	e58d3000 	str	r3, [sp]
  10a938:	eb000cb8 	bl	10dc20 <strcpy>
  10a93c:	e59d3000 	ldr	r3, [sp]
  10a940:	e30bb600 	movw	fp, #46592	; 0xb600
  10a944:	e340b010 	movt	fp, #16
  10a948:	e3a0c003 	mov	ip, #3
  10a94c:	e3403010 	movt	r3, #16
  10a950:	eaffff2b 	b	10a604 <loadlocale+0x2b4>
  10a954:	e30711fc 	movw	r1, #29180	; 0x71fc
  10a958:	e3a02003 	mov	r2, #3
  10a95c:	e3401011 	movt	r1, #17
  10a960:	e1a00009 	mov	r0, r9
  10a964:	eb000cfd 	bl	10dd60 <strncasecmp>
  10a968:	e3500000 	cmp	r0, #0
  10a96c:	1afffef3 	bne	10a540 <loadlocale+0x1f0>
  10a970:	e5dd3013 	ldrb	r3, [sp, #19]
  10a974:	e3071200 	movw	r1, #29184	; 0x7200
  10a978:	e3a02004 	mov	r2, #4
  10a97c:	e3401011 	movt	r1, #17
  10a980:	e353002d 	cmp	r3, #45	; 0x2d
  10a984:	028d8014 	addeq	r8, sp, #20
  10a988:	128d8013 	addne	r8, sp, #19
  10a98c:	e1a00008 	mov	r0, r8
  10a990:	eb000cf2 	bl	10dd60 <strncasecmp>
  10a994:	e3500000 	cmp	r0, #0
  10a998:	1afffee8 	bne	10a540 <loadlocale+0x1f0>
  10a99c:	e5d83004 	ldrb	r3, [r8, #4]
  10a9a0:	e28d200c 	add	r2, sp, #12
  10a9a4:	e1a0000a 	mov	r0, sl
  10a9a8:	e353002d 	cmp	r3, #45	; 0x2d
  10a9ac:	e3a0300a 	mov	r3, #10
  10a9b0:	12881004 	addne	r1, r8, #4
  10a9b4:	02881005 	addeq	r1, r8, #5
  10a9b8:	eb000d87 	bl	10dfdc <_strtol_r>
  10a9bc:	e240300c 	sub	r3, r0, #12
  10a9c0:	e2402001 	sub	r2, r0, #1
  10a9c4:	e16f3f13 	clz	r3, r3
  10a9c8:	e1a08000 	mov	r8, r0
  10a9cc:	e1a032a3 	lsr	r3, r3, #5
  10a9d0:	e352000f 	cmp	r2, #15
  10a9d4:	83833001 	orrhi	r3, r3, #1
  10a9d8:	e3530000 	cmp	r3, #0
  10a9dc:	1afffed7 	bne	10a540 <loadlocale+0x1f0>
  10a9e0:	e59d300c 	ldr	r3, [sp, #12]
  10a9e4:	e5d33000 	ldrb	r3, [r3]
  10a9e8:	e3530000 	cmp	r3, #0
  10a9ec:	1afffed3 	bne	10a540 <loadlocale+0x1f0>
  10a9f0:	e3071208 	movw	r1, #29192	; 0x7208
  10a9f4:	e1a00009 	mov	r0, r9
  10a9f8:	e3401011 	movt	r1, #17
  10a9fc:	eb000c87 	bl	10dc20 <strcpy>
  10aa00:	e358000a 	cmp	r8, #10
  10aa04:	828d101a 	addhi	r1, sp, #26
  10aa08:	928d1019 	addls	r1, sp, #25
  10aa0c:	e30c2ccd 	movw	r2, #52429	; 0xcccd
  10aa10:	83a03031 	movhi	r3, #49	; 0x31
  10aa14:	e34c2ccc 	movt	r2, #52428	; 0xcccc
  10aa18:	85cd3019 	strbhi	r3, [sp, #25]
  10aa1c:	e3a03000 	mov	r3, #0
  10aa20:	e5c13001 	strb	r3, [r1, #1]
  10aa24:	e0832298 	umull	r2, r3, r8, r2
  10aa28:	e1a021a3 	lsr	r2, r3, #3
  10aa2c:	e1a03182 	lsl	r3, r2, #3
  10aa30:	e0833082 	add	r3, r3, r2, lsl #1
  10aa34:	e0633008 	rsb	r3, r3, r8
  10aa38:	e2833030 	add	r3, r3, #48	; 0x30
  10aa3c:	e5c13000 	strb	r3, [r1]
  10aa40:	eaffff0f 	b	10a684 <loadlocale+0x334>
  10aa44:	e308a1cc 	movw	sl, #33228	; 0x81cc
  10aa48:	e1a01009 	mov	r1, r9
  10aa4c:	e340a011 	movt	sl, #17
  10aa50:	e28a0c01 	add	r0, sl, #256	; 0x100
  10aa54:	e58d3004 	str	r3, [sp, #4]
  10aa58:	e2288001 	eor	r8, r8, #1
  10aa5c:	e58dc000 	str	ip, [sp]
  10aa60:	eb000c6e 	bl	10dc20 <strcpy>
  10aa64:	e59dc000 	ldr	ip, [sp]
  10aa68:	e30811c8 	movw	r1, #33224	; 0x81c8
  10aa6c:	e59d3004 	ldr	r3, [sp, #4]
  10aa70:	e3082348 	movw	r2, #33608	; 0x8348
  10aa74:	e1a00009 	mov	r0, r9
  10aa78:	e3401011 	movt	r1, #17
  10aa7c:	e3402011 	movt	r2, #17
  10aa80:	e58ac120 	str	ip, [sl, #288]	; 0x120
  10aa84:	e5813000 	str	r3, [r1]
  10aa88:	e582b000 	str	fp, [r2]
  10aa8c:	ebffe595 	bl	1040e8 <__set_ctype>
  10aa90:	e2188001 	ands	r8, r8, #1
  10aa94:	01a00008 	moveq	r0, r8
  10aa98:	0affff0f 	beq	10a6dc <loadlocale+0x38c>
  10aa9c:	e5dd3010 	ldrb	r3, [sp, #16]
  10aaa0:	e3530055 	cmp	r3, #85	; 0x55
  10aaa4:	0a00003b 	beq	10ab98 <loadlocale+0x848>
  10aaa8:	e3a00001 	mov	r0, #1
  10aaac:	eaffff0a 	b	10a6dc <loadlocale+0x38c>
  10aab0:	e30711c4 	movw	r1, #29124	; 0x71c4
  10aab4:	e2880001 	add	r0, r8, #1
  10aab8:	e3401011 	movt	r1, #17
  10aabc:	fa000ba1 	blx	10d948 <strcmp>
  10aac0:	e16f8f10 	clz	r8, r0
  10aac4:	e1a082a8 	lsr	r8, r8, #5
  10aac8:	eafffe5e 	b	10a448 <loadlocale+0xf8>
  10aacc:	e2888001 	add	r8, r8, #1
  10aad0:	e28d9010 	add	r9, sp, #16
  10aad4:	e1a01008 	mov	r1, r8
  10aad8:	e1a00009 	mov	r0, r9
  10aadc:	eb000c4f 	bl	10dc20 <strcpy>
  10aae0:	e3a01040 	mov	r1, #64	; 0x40
  10aae4:	e1a00009 	mov	r0, r9
  10aae8:	eb000b31 	bl	10d7b4 <strchr>
  10aaec:	e3500000 	cmp	r0, #0
  10aaf0:	13a03000 	movne	r3, #0
  10aaf4:	15c03000 	strbne	r3, [r0]
  10aaf8:	e1a00009 	mov	r0, r9
  10aafc:	faffe7ff 	blx	104b00 <strlen>
  10ab00:	e0888000 	add	r8, r8, r0
  10ab04:	e3580000 	cmp	r8, #0
  10ab08:	1afffe4a 	bne	10a438 <loadlocale+0xe8>
  10ab0c:	eafffe4c 	b	10a444 <loadlocale+0xf4>
  10ab10:	e2848002 	add	r8, r4, #2
  10ab14:	eaffffed 	b	10aad0 <loadlocale+0x780>
  10ab18:	e3071220 	movw	r1, #29216	; 0x7220
  10ab1c:	e1a00009 	mov	r0, r9
  10ab20:	e3401011 	movt	r1, #17
  10ab24:	eb000c3d 	bl	10dc20 <strcpy>
  10ab28:	eafffed5 	b	10a684 <loadlocale+0x334>
  10ab2c:	e3500fd6 	cmp	r0, #856	; 0x358
  10ab30:	8afffed3 	bhi	10a684 <loadlocale+0x334>
  10ab34:	e3003307 	movw	r3, #775	; 0x307
  10ab38:	e1500003 	cmp	r0, r3
  10ab3c:	0afffed0 	beq	10a684 <loadlocale+0x334>
  10ab40:	e3500fc2 	cmp	r0, #776	; 0x308
  10ab44:	2a000029 	bcs	10abf0 <loadlocale+0x8a0>
  10ab48:	e3500e2d 	cmp	r0, #720	; 0x2d0
  10ab4c:	0afffecc 	beq	10a684 <loadlocale+0x334>
  10ab50:	e30032e1 	movw	r3, #737	; 0x2e1
  10ab54:	e1500003 	cmp	r0, r3
  10ab58:	0afffec9 	beq	10a684 <loadlocale+0x334>
  10ab5c:	e30031b5 	movw	r3, #437	; 0x1b5
  10ab60:	e1500003 	cmp	r0, r3
  10ab64:	1afffe75 	bne	10a540 <loadlocale+0x1f0>
  10ab68:	eafffec5 	b	10a684 <loadlocale+0x334>
  10ab6c:	8a000028 	bhi	10ac14 <loadlocale+0x8c4>
  10ab70:	e3003362 	movw	r3, #866	; 0x362
  10ab74:	e1500003 	cmp	r0, r3
  10ab78:	0afffec1 	beq	10a684 <loadlocale+0x334>
  10ab7c:	e300336a 	movw	r3, #874	; 0x36a
  10ab80:	e1500003 	cmp	r0, r3
  10ab84:	0afffebe 	beq	10a684 <loadlocale+0x334>
  10ab88:	e300335e 	movw	r3, #862	; 0x35e
  10ab8c:	e1500003 	cmp	r0, r3
  10ab90:	1afffe6a 	bne	10a540 <loadlocale+0x1f0>
  10ab94:	eafffeba 	b	10a684 <loadlocale+0x334>
  10ab98:	e3071268 	movw	r1, #29288	; 0x7268
  10ab9c:	e1a02007 	mov	r2, r7
  10aba0:	e3401011 	movt	r1, #17
  10aba4:	e1a00004 	mov	r0, r4
  10aba8:	eb000c90 	bl	10ddf0 <strncmp>
  10abac:	e3500000 	cmp	r0, #0
  10abb0:	0affffbc 	beq	10aaa8 <loadlocale+0x758>
  10abb4:	e307126c 	movw	r1, #29292	; 0x726c
  10abb8:	e1a02007 	mov	r2, r7
  10abbc:	e3401011 	movt	r1, #17
  10abc0:	e1a00004 	mov	r0, r4
  10abc4:	eb000c89 	bl	10ddf0 <strncmp>
  10abc8:	e3500000 	cmp	r0, #0
  10abcc:	0affffb5 	beq	10aaa8 <loadlocale+0x758>
  10abd0:	e3071270 	movw	r1, #29296	; 0x7270
  10abd4:	e1a02007 	mov	r2, r7
  10abd8:	e3401011 	movt	r1, #17
  10abdc:	e1a00004 	mov	r0, r4
  10abe0:	eb000c82 	bl	10ddf0 <strncmp>
  10abe4:	e16f0f10 	clz	r0, r0
  10abe8:	e1a002a0 	lsr	r0, r0, #5
  10abec:	eafffeba 	b	10a6dc <loadlocale+0x38c>
  10abf0:	e3500fd5 	cmp	r0, #852	; 0x354
  10abf4:	0afffea2 	beq	10a684 <loadlocale+0x334>
  10abf8:	e3003357 	movw	r3, #855	; 0x357
  10abfc:	e1500003 	cmp	r0, r3
  10ac00:	0afffe9f 	beq	10a684 <loadlocale+0x334>
  10ac04:	e3003352 	movw	r3, #850	; 0x352
  10ac08:	e1500003 	cmp	r0, r3
  10ac0c:	1afffe4b 	bne	10a540 <loadlocale+0x1f0>
  10ac10:	eafffe9b 	b	10a684 <loadlocale+0x334>
  10ac14:	e3003465 	movw	r3, #1125	; 0x465
  10ac18:	e1500003 	cmp	r0, r3
  10ac1c:	0afffe98 	beq	10a684 <loadlocale+0x334>
  10ac20:	3afffe46 	bcc	10a540 <loadlocale+0x1f0>
  10ac24:	e2400e4e 	sub	r0, r0, #1248	; 0x4e0
  10ac28:	e2400002 	sub	r0, r0, #2
  10ac2c:	e3500008 	cmp	r0, #8
  10ac30:	8afffe42 	bhi	10a540 <loadlocale+0x1f0>
  10ac34:	eafffe92 	b	10a684 <loadlocale+0x334>
  10ac38:	001181ec 	.word	0x001181ec
  10ac3c:	001182f0 	.word	0x001182f0

0010ac40 <currentlocale>:
  10ac40:	e92d4070 	push	{r4, r5, r6, lr}
  10ac44:	e59f1064 	ldr	r1, [pc, #100]	; 10acb0 <currentlocale+0x70>
  10ac48:	e59f0064 	ldr	r0, [pc, #100]	; 10acb4 <currentlocale+0x74>
  10ac4c:	eb000bf3 	bl	10dc20 <strcpy>
  10ac50:	e59f5060 	ldr	r5, [pc, #96]	; 10acb8 <currentlocale+0x78>
  10ac54:	e28560a0 	add	r6, r5, #160	; 0xa0
  10ac58:	e1a04005 	mov	r4, r5
  10ac5c:	e1a01004 	mov	r1, r4
  10ac60:	e59f0048 	ldr	r0, [pc, #72]	; 10acb0 <currentlocale+0x70>
  10ac64:	fa000b37 	blx	10d948 <strcmp>
  10ac68:	e2844020 	add	r4, r4, #32
  10ac6c:	e3500000 	cmp	r0, #0
  10ac70:	1a000003 	bne	10ac84 <currentlocale+0x44>
  10ac74:	e1540006 	cmp	r4, r6
  10ac78:	1afffff7 	bne	10ac5c <currentlocale+0x1c>
  10ac7c:	e59f0030 	ldr	r0, [pc, #48]	; 10acb4 <currentlocale+0x74>
  10ac80:	e8bd8070 	pop	{r4, r5, r6, pc}
  10ac84:	e3071274 	movw	r1, #29300	; 0x7274
  10ac88:	e59f0024 	ldr	r0, [pc, #36]	; 10acb4 <currentlocale+0x74>
  10ac8c:	e3401011 	movt	r1, #17
  10ac90:	eb000aa7 	bl	10d734 <strcat>
  10ac94:	e1a01005 	mov	r1, r5
  10ac98:	e59f0014 	ldr	r0, [pc, #20]	; 10acb4 <currentlocale+0x74>
  10ac9c:	e2855020 	add	r5, r5, #32
  10aca0:	eb000aa3 	bl	10d734 <strcat>
  10aca4:	e1550006 	cmp	r5, r6
  10aca8:	1afffff5 	bne	10ac84 <currentlocale+0x44>
  10acac:	eafffff2 	b	10ac7c <currentlocale+0x3c>
  10acb0:	0011820c 	.word	0x0011820c
  10acb4:	0012016c 	.word	0x0012016c
  10acb8:	0011822c 	.word	0x0011822c

0010acbc <_setlocale_r>:
  10acbc:	e3510006 	cmp	r1, #6
  10acc0:	e92d4ff8 	push	{r3, r4, r5, r6, r7, r8, r9, sl, fp, lr}
  10acc4:	e1a09001 	mov	r9, r1
  10acc8:	e1a08000 	mov	r8, r0
  10accc:	8a000042 	bhi	10addc <_setlocale_r+0x120>
  10acd0:	e3520000 	cmp	r2, #0
  10acd4:	e1a05002 	mov	r5, r2
  10acd8:	0a000070 	beq	10aea0 <_setlocale_r+0x1e4>
  10acdc:	e59f72d4 	ldr	r7, [pc, #724]	; 10afb8 <_setlocale_r+0x2fc>
  10ace0:	e3006088 	movw	r6, #136	; 0x88
  10ace4:	e3406012 	movt	r6, #18
  10ace8:	e3a04000 	mov	r4, #0
  10acec:	e2844020 	add	r4, r4, #32
  10acf0:	e300a088 	movw	sl, #136	; 0x88
  10acf4:	e0871004 	add	r1, r7, r4
  10acf8:	e0860004 	add	r0, r6, r4
  10acfc:	eb000bc7 	bl	10dc20 <strcpy>
  10ad00:	e35400c0 	cmp	r4, #192	; 0xc0
  10ad04:	e340a012 	movt	sl, #18
  10ad08:	1afffff7 	bne	10acec <_setlocale_r+0x30>
  10ad0c:	e5d53000 	ldrb	r3, [r5]
  10ad10:	e3530000 	cmp	r3, #0
  10ad14:	1a000023 	bne	10ada8 <_setlocale_r+0xec>
  10ad18:	e3590000 	cmp	r9, #0
  10ad1c:	1a000064 	bne	10aeb4 <_setlocale_r+0x1f8>
  10ad20:	e28a9020 	add	r9, sl, #32
  10ad24:	e3a04001 	mov	r4, #1
  10ad28:	e1a05009 	mov	r5, r9
  10ad2c:	e1a01004 	mov	r1, r4
  10ad30:	e1a00008 	mov	r0, r8
  10ad34:	ebfffd61 	bl	10a2c0 <__get_locale_env>
  10ad38:	e2844001 	add	r4, r4, #1
  10ad3c:	e1a06000 	mov	r6, r0
  10ad40:	faffe76e 	blx	104b00 <strlen>
  10ad44:	e1a01006 	mov	r1, r6
  10ad48:	e350001f 	cmp	r0, #31
  10ad4c:	e1a00005 	mov	r0, r5
  10ad50:	e2855020 	add	r5, r5, #32
  10ad54:	8a000020 	bhi	10addc <_setlocale_r+0x120>
  10ad58:	eb000bb0 	bl	10dc20 <strcpy>
  10ad5c:	e3540007 	cmp	r4, #7
  10ad60:	1afffff1 	bne	10ad2c <_setlocale_r+0x70>
  10ad64:	e59f6250 	ldr	r6, [pc, #592]	; 10afbc <_setlocale_r+0x300>
  10ad68:	e3a05000 	mov	r5, #0
  10ad6c:	e3a04001 	mov	r4, #1
  10ad70:	e2855020 	add	r5, r5, #32
  10ad74:	e0871005 	add	r1, r7, r5
  10ad78:	e0860005 	add	r0, r6, r5
  10ad7c:	eb000ba7 	bl	10dc20 <strcpy>
  10ad80:	e1a01004 	mov	r1, r4
  10ad84:	e1a00008 	mov	r0, r8
  10ad88:	ebfffd70 	bl	10a350 <loadlocale>
  10ad8c:	e250a000 	subs	sl, r0, #0
  10ad90:	0a000052 	beq	10aee0 <_setlocale_r+0x224>
  10ad94:	e2844001 	add	r4, r4, #1
  10ad98:	e3540007 	cmp	r4, #7
  10ad9c:	1afffff3 	bne	10ad70 <_setlocale_r+0xb4>
  10ada0:	e8bd4ff8 	pop	{r3, r4, r5, r6, r7, r8, r9, sl, fp, lr}
  10ada4:	eaffffa5 	b	10ac40 <currentlocale>
  10ada8:	e3590000 	cmp	r9, #0
  10adac:	0a00000f 	beq	10adf0 <_setlocale_r+0x134>
  10adb0:	e1a00005 	mov	r0, r5
  10adb4:	faffe751 	blx	104b00 <strlen>
  10adb8:	e350001f 	cmp	r0, #31
  10adbc:	8a000006 	bhi	10addc <_setlocale_r+0x120>
  10adc0:	e1a01005 	mov	r1, r5
  10adc4:	e08a0289 	add	r0, sl, r9, lsl #5
  10adc8:	eb000b94 	bl	10dc20 <strcpy>
  10adcc:	e1a01009 	mov	r1, r9
  10add0:	e1a00008 	mov	r0, r8
  10add4:	e8bd4ff8 	pop	{r3, r4, r5, r6, r7, r8, r9, sl, fp, lr}
  10add8:	eafffd5c 	b	10a350 <loadlocale>
  10addc:	e3a0a000 	mov	sl, #0
  10ade0:	e3a03016 	mov	r3, #22
  10ade4:	e5883000 	str	r3, [r8]
  10ade8:	e1a0000a 	mov	r0, sl
  10adec:	e8bd8ff8 	pop	{r3, r4, r5, r6, r7, r8, r9, sl, fp, pc}
  10adf0:	e3a0102f 	mov	r1, #47	; 0x2f
  10adf4:	e1a00005 	mov	r0, r5
  10adf8:	eb000a6d 	bl	10d7b4 <strchr>
  10adfc:	e2504000 	subs	r4, r0, #0
  10ae00:	0a00005e 	beq	10af80 <_setlocale_r+0x2c4>
  10ae04:	e5d42001 	ldrb	r2, [r4, #1]
  10ae08:	e352002f 	cmp	r2, #47	; 0x2f
  10ae0c:	02843001 	addeq	r3, r4, #1
  10ae10:	1a000003 	bne	10ae24 <_setlocale_r+0x168>
  10ae14:	e1a04003 	mov	r4, r3
  10ae18:	e5f32001 	ldrb	r2, [r3, #1]!
  10ae1c:	e352002f 	cmp	r2, #47	; 0x2f
  10ae20:	0afffffb 	beq	10ae14 <_setlocale_r+0x158>
  10ae24:	e3520000 	cmp	r2, #0
  10ae28:	159f9190 	ldrne	r9, [pc, #400]	; 10afc0 <_setlocale_r+0x304>
  10ae2c:	13a0a001 	movne	sl, #1
  10ae30:	11a0b009 	movne	fp, r9
  10ae34:	0affffe8 	beq	10addc <_setlocale_r+0x120>
  10ae38:	e0652004 	rsb	r2, r5, r4
  10ae3c:	e352001f 	cmp	r2, #31
  10ae40:	caffffe5 	bgt	10addc <_setlocale_r+0x120>
  10ae44:	e1a01005 	mov	r1, r5
  10ae48:	e2822001 	add	r2, r2, #1
  10ae4c:	e1a0000b 	mov	r0, fp
  10ae50:	e28aa001 	add	sl, sl, #1
  10ae54:	eb000baf 	bl	10dd18 <strlcpy>
  10ae58:	e5d43000 	ldrb	r3, [r4]
  10ae5c:	e1a05004 	mov	r5, r4
  10ae60:	e353002f 	cmp	r3, #47	; 0x2f
  10ae64:	1a000002 	bne	10ae74 <_setlocale_r+0x1b8>
  10ae68:	e5f53001 	ldrb	r3, [r5, #1]!
  10ae6c:	e353002f 	cmp	r3, #47	; 0x2f
  10ae70:	0afffffc 	beq	10ae68 <_setlocale_r+0x1ac>
  10ae74:	e3530000 	cmp	r3, #0
  10ae78:	0a000035 	beq	10af54 <_setlocale_r+0x298>
  10ae7c:	e1a04005 	mov	r4, r5
  10ae80:	e5f43001 	ldrb	r3, [r4, #1]!
  10ae84:	e353002f 	cmp	r3, #47	; 0x2f
  10ae88:	13530000 	cmpne	r3, #0
  10ae8c:	1afffffb 	bne	10ae80 <_setlocale_r+0x1c4>
  10ae90:	e35a0007 	cmp	sl, #7
  10ae94:	e28bb020 	add	fp, fp, #32
  10ae98:	1affffe6 	bne	10ae38 <_setlocale_r+0x17c>
  10ae9c:	eaffffb0 	b	10ad64 <_setlocale_r+0xa8>
  10aea0:	e3510000 	cmp	r1, #0
  10aea4:	0affffbd 	beq	10ada0 <_setlocale_r+0xe4>
  10aea8:	e59fa108 	ldr	sl, [pc, #264]	; 10afb8 <_setlocale_r+0x2fc>
  10aeac:	e08aa281 	add	sl, sl, r1, lsl #5
  10aeb0:	eaffffcc 	b	10ade8 <_setlocale_r+0x12c>
  10aeb4:	e1a01009 	mov	r1, r9
  10aeb8:	e1a00008 	mov	r0, r8
  10aebc:	ebfffcff 	bl	10a2c0 <__get_locale_env>
  10aec0:	e1a04000 	mov	r4, r0
  10aec4:	faffe70d 	blx	104b00 <strlen>
  10aec8:	e350001f 	cmp	r0, #31
  10aecc:	8affffc2 	bhi	10addc <_setlocale_r+0x120>
  10aed0:	e1a01004 	mov	r1, r4
  10aed4:	e08a0289 	add	r0, sl, r9, lsl #5
  10aed8:	eb000b50 	bl	10dc20 <strcpy>
  10aedc:	eaffffba 	b	10adcc <_setlocale_r+0x110>
  10aee0:	e3540001 	cmp	r4, #1
  10aee4:	e5987000 	ldr	r7, [r8]
  10aee8:	12896f73 	addne	r6, r9, #460	; 0x1cc
  10aeec:	13a05001 	movne	r5, #1
  10aef0:	0a00000c 	beq	10af28 <_setlocale_r+0x26c>
  10aef4:	e1a01006 	mov	r1, r6
  10aef8:	e1a00009 	mov	r0, r9
  10aefc:	eb000b47 	bl	10dc20 <strcpy>
  10af00:	e1a01005 	mov	r1, r5
  10af04:	e1a00008 	mov	r0, r8
  10af08:	e2866020 	add	r6, r6, #32
  10af0c:	ebfffd0f 	bl	10a350 <loadlocale>
  10af10:	e3500000 	cmp	r0, #0
  10af14:	0a000006 	beq	10af34 <_setlocale_r+0x278>
  10af18:	e2855001 	add	r5, r5, #1
  10af1c:	e2899020 	add	r9, r9, #32
  10af20:	e1550004 	cmp	r5, r4
  10af24:	1afffff2 	bne	10aef4 <_setlocale_r+0x238>
  10af28:	e5887000 	str	r7, [r8]
  10af2c:	e1a0000a 	mov	r0, sl
  10af30:	e8bd8ff8 	pop	{r3, r4, r5, r6, r7, r8, r9, sl, fp, pc}
  10af34:	e3071150 	movw	r1, #29008	; 0x7150
  10af38:	e1a00009 	mov	r0, r9
  10af3c:	e3401011 	movt	r1, #17
  10af40:	eb000b36 	bl	10dc20 <strcpy>
  10af44:	e1a01005 	mov	r1, r5
  10af48:	e1a00008 	mov	r0, r8
  10af4c:	ebfffcff 	bl	10a350 <loadlocale>
  10af50:	eafffff0 	b	10af18 <_setlocale_r+0x25c>
  10af54:	e35a0007 	cmp	sl, #7
  10af58:	0affff81 	beq	10ad64 <_setlocale_r+0xa8>
  10af5c:	e086628a 	add	r6, r6, sl, lsl #5
  10af60:	e2461020 	sub	r1, r6, #32
  10af64:	e1a00006 	mov	r0, r6
  10af68:	e28aa001 	add	sl, sl, #1
  10af6c:	eb000b2b 	bl	10dc20 <strcpy>
  10af70:	e35a0007 	cmp	sl, #7
  10af74:	e2866020 	add	r6, r6, #32
  10af78:	1afffff8 	bne	10af60 <_setlocale_r+0x2a4>
  10af7c:	eaffff78 	b	10ad64 <_setlocale_r+0xa8>
  10af80:	e1a00005 	mov	r0, r5
  10af84:	faffe6dd 	blx	104b00 <strlen>
  10af88:	e350001f 	cmp	r0, #31
  10af8c:	8affff92 	bhi	10addc <_setlocale_r+0x120>
  10af90:	e28a9020 	add	r9, sl, #32
  10af94:	e28aa0e0 	add	sl, sl, #224	; 0xe0
  10af98:	e1a04009 	mov	r4, r9
  10af9c:	e1a00004 	mov	r0, r4
  10afa0:	e1a01005 	mov	r1, r5
  10afa4:	e2844020 	add	r4, r4, #32
  10afa8:	eb000b1c 	bl	10dc20 <strcpy>
  10afac:	e154000a 	cmp	r4, sl
  10afb0:	1afffff9 	bne	10af9c <_setlocale_r+0x2e0>
  10afb4:	eaffff6a 	b	10ad64 <_setlocale_r+0xa8>
  10afb8:	001181ec 	.word	0x001181ec
  10afbc:	00120254 	.word	0x00120254
  10afc0:	001200a8 	.word	0x001200a8

0010afc4 <__locale_charset>:
  10afc4:	e59f0000 	ldr	r0, [pc]	; 10afcc <__locale_charset+0x8>
  10afc8:	e12fff1e 	bx	lr
  10afcc:	001182cc 	.word	0x001182cc

0010afd0 <__locale_mb_cur_max>:
  10afd0:	e30831cc 	movw	r3, #33228	; 0x81cc
  10afd4:	e3403011 	movt	r3, #17
  10afd8:	e5930120 	ldr	r0, [r3, #288]	; 0x120
  10afdc:	e12fff1e 	bx	lr

0010afe0 <__locale_msgcharset>:
  10afe0:	e59f0000 	ldr	r0, [pc]	; 10afe8 <__locale_msgcharset+0x8>
  10afe4:	e12fff1e 	bx	lr
  10afe8:	001182f0 	.word	0x001182f0

0010afec <__locale_cjk_lang>:
  10afec:	e3003088 	movw	r3, #136	; 0x88
  10aff0:	e3403012 	movt	r3, #18
  10aff4:	e59300e0 	ldr	r0, [r3, #224]	; 0xe0
  10aff8:	e12fff1e 	bx	lr

0010affc <_localeconv_r>:
  10affc:	e59f0000 	ldr	r0, [pc]	; 10b004 <_localeconv_r+0x8>
  10b000:	e12fff1e 	bx	lr
  10b004:	00118310 	.word	0x00118310

0010b008 <setlocale>:
  10b008:	e3073988 	movw	r3, #31112	; 0x7988
  10b00c:	e1a02001 	mov	r2, r1
  10b010:	e3403011 	movt	r3, #17
  10b014:	e1a01000 	mov	r1, r0
  10b018:	e5930000 	ldr	r0, [r3]
  10b01c:	eaffff26 	b	10acbc <_setlocale_r>

0010b020 <localeconv>:
  10b020:	e59f0000 	ldr	r0, [pc]	; 10b028 <localeconv+0x8>
  10b024:	e12fff1e 	bx	lr
  10b028:	00118310 	.word	0x00118310

0010b02c <__smakebuf_r>:
  10b02c:	e1d130bc 	ldrh	r3, [r1, #12]
  10b030:	e6ff2073 	uxth	r2, r3
  10b034:	e3120002 	tst	r2, #2
  10b038:	1a000030 	bne	10b100 <__smakebuf_r+0xd4>
  10b03c:	e92d40f0 	push	{r4, r5, r6, r7, lr}
  10b040:	e1a04001 	mov	r4, r1
  10b044:	e1d110fe 	ldrsh	r1, [r1, #14]
  10b048:	e24dd044 	sub	sp, sp, #68	; 0x44
  10b04c:	e1a05000 	mov	r5, r0
  10b050:	e3510000 	cmp	r1, #0
  10b054:	ba000011 	blt	10b0a0 <__smakebuf_r+0x74>
  10b058:	e28d2004 	add	r2, sp, #4
  10b05c:	eb001469 	bl	110208 <_fstat_r>
  10b060:	e3500000 	cmp	r0, #0
  10b064:	ba00000b 	blt	10b098 <__smakebuf_r+0x6c>
  10b068:	e59d3008 	ldr	r3, [sp, #8]
  10b06c:	e2033a0f 	and	r3, r3, #61440	; 0xf000
  10b070:	e2437a02 	sub	r7, r3, #8192	; 0x2000
  10b074:	e3530902 	cmp	r3, #32768	; 0x8000
  10b078:	e16f7f17 	clz	r7, r7
  10b07c:	e1a072a7 	lsr	r7, r7, #5
  10b080:	0a000024 	beq	10b118 <__smakebuf_r+0xec>
  10b084:	e1d430bc 	ldrh	r3, [r4, #12]
  10b088:	e3a06b01 	mov	r6, #1024	; 0x400
  10b08c:	e3833b02 	orr	r3, r3, #2048	; 0x800
  10b090:	e1c430bc 	strh	r3, [r4, #12]
  10b094:	ea000007 	b	10b0b8 <__smakebuf_r+0x8c>
  10b098:	e1d430bc 	ldrh	r3, [r4, #12]
  10b09c:	e6ff2073 	uxth	r2, r3
  10b0a0:	e3120080 	tst	r2, #128	; 0x80
  10b0a4:	e3a07000 	mov	r7, #0
  10b0a8:	e3833b02 	orr	r3, r3, #2048	; 0x800
  10b0ac:	e1c430bc 	strh	r3, [r4, #12]
  10b0b0:	03a06b01 	moveq	r6, #1024	; 0x400
  10b0b4:	13a06040 	movne	r6, #64	; 0x40
  10b0b8:	e1a01006 	mov	r1, r6
  10b0bc:	e1a00005 	mov	r0, r5
  10b0c0:	ebffe453 	bl	104214 <_malloc_r>
  10b0c4:	e3500000 	cmp	r0, #0
  10b0c8:	0a000027 	beq	10b16c <__smakebuf_r+0x140>
  10b0cc:	e1d430bc 	ldrh	r3, [r4, #12]
  10b0d0:	e3570000 	cmp	r7, #0
  10b0d4:	e309265c 	movw	r2, #38492	; 0x965c
  10b0d8:	e3402010 	movt	r2, #16
  10b0dc:	e3833080 	orr	r3, r3, #128	; 0x80
  10b0e0:	e585203c 	str	r2, [r5, #60]	; 0x3c
  10b0e4:	e5840000 	str	r0, [r4]
  10b0e8:	e5840010 	str	r0, [r4, #16]
  10b0ec:	e5846014 	str	r6, [r4, #20]
  10b0f0:	e1c430bc 	strh	r3, [r4, #12]
  10b0f4:	1a000013 	bne	10b148 <__smakebuf_r+0x11c>
  10b0f8:	e28dd044 	add	sp, sp, #68	; 0x44
  10b0fc:	e8bd80f0 	pop	{r4, r5, r6, r7, pc}
  10b100:	e2813043 	add	r3, r1, #67	; 0x43
  10b104:	e3a02001 	mov	r2, #1
  10b108:	e5813000 	str	r3, [r1]
  10b10c:	e5813010 	str	r3, [r1, #16]
  10b110:	e5812014 	str	r2, [r1, #20]
  10b114:	e12fff1e 	bx	lr
  10b118:	e5942028 	ldr	r2, [r4, #40]	; 0x28
  10b11c:	e30d3694 	movw	r3, #54932	; 0xd694
  10b120:	e3403010 	movt	r3, #16
  10b124:	e1520003 	cmp	r2, r3
  10b128:	1affffd5 	bne	10b084 <__smakebuf_r+0x58>
  10b12c:	e1d430bc 	ldrh	r3, [r4, #12]
  10b130:	e3a02b01 	mov	r2, #1024	; 0x400
  10b134:	e1a06002 	mov	r6, r2
  10b138:	e584204c 	str	r2, [r4, #76]	; 0x4c
  10b13c:	e1833002 	orr	r3, r3, r2
  10b140:	e1c430bc 	strh	r3, [r4, #12]
  10b144:	eaffffdb 	b	10b0b8 <__smakebuf_r+0x8c>
  10b148:	e1a00005 	mov	r0, r5
  10b14c:	e1d410fe 	ldrsh	r1, [r4, #14]
  10b150:	eb001474 	bl	110328 <_isatty_r>
  10b154:	e3500000 	cmp	r0, #0
  10b158:	11d430bc 	ldrhne	r3, [r4, #12]
  10b15c:	13833001 	orrne	r3, r3, #1
  10b160:	11c430bc 	strhne	r3, [r4, #12]
  10b164:	e28dd044 	add	sp, sp, #68	; 0x44
  10b168:	e8bd80f0 	pop	{r4, r5, r6, r7, pc}
  10b16c:	e1d430bc 	ldrh	r3, [r4, #12]
  10b170:	e3130c02 	tst	r3, #512	; 0x200
  10b174:	1affffdf 	bne	10b0f8 <__smakebuf_r+0xcc>
  10b178:	e3833002 	orr	r3, r3, #2
  10b17c:	e2842043 	add	r2, r4, #67	; 0x43
  10b180:	e1c430bc 	strh	r3, [r4, #12]
  10b184:	e3a03001 	mov	r3, #1
  10b188:	e5842000 	str	r2, [r4]
  10b18c:	e5842010 	str	r2, [r4, #16]
  10b190:	e5843014 	str	r3, [r4, #20]
  10b194:	eaffffd7 	b	10b0f8 <__smakebuf_r+0xcc>

0010b198 <__ascii_mbtowc>:
  10b198:	e3510000 	cmp	r1, #0
  10b19c:	e24dd008 	sub	sp, sp, #8
  10b1a0:	028d1004 	addeq	r1, sp, #4
  10b1a4:	e3520000 	cmp	r2, #0
  10b1a8:	0a000008 	beq	10b1d0 <__ascii_mbtowc+0x38>
  10b1ac:	e3530000 	cmp	r3, #0
  10b1b0:	0a000009 	beq	10b1dc <__ascii_mbtowc+0x44>
  10b1b4:	e5d23000 	ldrb	r3, [r2]
  10b1b8:	e5813000 	str	r3, [r1]
  10b1bc:	e5d22000 	ldrb	r2, [r2]
  10b1c0:	e2920000 	adds	r0, r2, #0
  10b1c4:	13a00001 	movne	r0, #1
  10b1c8:	e28dd008 	add	sp, sp, #8
  10b1cc:	e12fff1e 	bx	lr
  10b1d0:	e1a00002 	mov	r0, r2
  10b1d4:	e28dd008 	add	sp, sp, #8
  10b1d8:	e12fff1e 	bx	lr
  10b1dc:	e3e00001 	mvn	r0, #1
  10b1e0:	eafffff8 	b	10b1c8 <__ascii_mbtowc+0x30>

0010b1e4 <_mbtowc_r>:
  10b1e4:	e92d43f0 	push	{r4, r5, r6, r7, r8, r9, lr}
  10b1e8:	e308c348 	movw	ip, #33608	; 0x8348
  10b1ec:	e24dd00c 	sub	sp, sp, #12
  10b1f0:	e340c011 	movt	ip, #17
  10b1f4:	e1a05000 	mov	r5, r0
  10b1f8:	e1a07001 	mov	r7, r1
  10b1fc:	e1a08002 	mov	r8, r2
  10b200:	e1a09003 	mov	r9, r3
  10b204:	e59c4000 	ldr	r4, [ip]
  10b208:	e59d6028 	ldr	r6, [sp, #40]	; 0x28
  10b20c:	ebffff6c 	bl	10afc4 <__locale_charset>
  10b210:	e1a03009 	mov	r3, r9
  10b214:	e1a02008 	mov	r2, r8
  10b218:	e1a01007 	mov	r1, r7
  10b21c:	e88d0041 	stm	sp, {r0, r6}
  10b220:	e1a00005 	mov	r0, r5
  10b224:	e12fff34 	blx	r4
  10b228:	e28dd00c 	add	sp, sp, #12
  10b22c:	e8bd83f0 	pop	{r4, r5, r6, r7, r8, r9, pc}

0010b230 <__utf8_mbtowc>:
  10b230:	e92d41f0 	push	{r4, r5, r6, r7, r8, lr}
  10b234:	e3510000 	cmp	r1, #0
  10b238:	e24dd008 	sub	sp, sp, #8
  10b23c:	028d1004 	addeq	r1, sp, #4
  10b240:	e3520000 	cmp	r2, #0
  10b244:	e59de024 	ldr	lr, [sp, #36]	; 0x24
  10b248:	0a000023 	beq	10b2dc <__utf8_mbtowc+0xac>
  10b24c:	e3530000 	cmp	r3, #0
  10b250:	0a0000a0 	beq	10b4d8 <__utf8_mbtowc+0x2a8>
  10b254:	e59e4000 	ldr	r4, [lr]
  10b258:	e3540000 	cmp	r4, #0
  10b25c:	05d2c000 	ldrbeq	ip, [r2]
  10b260:	03a05001 	moveq	r5, #1
  10b264:	15dec004 	ldrbne	ip, [lr, #4]
  10b268:	13a05000 	movne	r5, #0
  10b26c:	e35c0000 	cmp	ip, #0
  10b270:	0a000023 	beq	10b304 <__utf8_mbtowc+0xd4>
  10b274:	e35c007f 	cmp	ip, #127	; 0x7f
  10b278:	da00001a 	ble	10b2e8 <__utf8_mbtowc+0xb8>
  10b27c:	e24c60c0 	sub	r6, ip, #192	; 0xc0
  10b280:	e356001f 	cmp	r6, #31
  10b284:	8a000024 	bhi	10b31c <__utf8_mbtowc+0xec>
  10b288:	e3540000 	cmp	r4, #0
  10b28c:	e6ef407c 	uxtb	r4, ip
  10b290:	e5ce4004 	strb	r4, [lr, #4]
  10b294:	1a000003 	bne	10b2a8 <__utf8_mbtowc+0x78>
  10b298:	e3530001 	cmp	r3, #1
  10b29c:	e3a03001 	mov	r3, #1
  10b2a0:	e58e3000 	str	r3, [lr]
  10b2a4:	9a00008b 	bls	10b4d8 <__utf8_mbtowc+0x2a8>
  10b2a8:	e7d23005 	ldrb	r3, [r2, r5]
  10b2ac:	e2852001 	add	r2, r5, #1
  10b2b0:	e2436080 	sub	r6, r3, #128	; 0x80
  10b2b4:	e356003f 	cmp	r6, #63	; 0x3f
  10b2b8:	8a000088 	bhi	10b4e0 <__utf8_mbtowc+0x2b0>
  10b2bc:	e35c00c1 	cmp	ip, #193	; 0xc1
  10b2c0:	da000086 	ble	10b4e0 <__utf8_mbtowc+0x2b0>
  10b2c4:	e204401f 	and	r4, r4, #31
  10b2c8:	e203303f 	and	r3, r3, #63	; 0x3f
  10b2cc:	e3a00000 	mov	r0, #0
  10b2d0:	e58e0000 	str	r0, [lr]
  10b2d4:	e1833304 	orr	r3, r3, r4, lsl #6
  10b2d8:	e5813000 	str	r3, [r1]
  10b2dc:	e1a00002 	mov	r0, r2
  10b2e0:	e28dd008 	add	sp, sp, #8
  10b2e4:	e8bd81f0 	pop	{r4, r5, r6, r7, r8, pc}
  10b2e8:	e3a02001 	mov	r2, #1
  10b2ec:	e3a03000 	mov	r3, #0
  10b2f0:	e1a00002 	mov	r0, r2
  10b2f4:	e58e3000 	str	r3, [lr]
  10b2f8:	e581c000 	str	ip, [r1]
  10b2fc:	e28dd008 	add	sp, sp, #8
  10b300:	e8bd81f0 	pop	{r4, r5, r6, r7, r8, pc}
  10b304:	e1a0200c 	mov	r2, ip
  10b308:	e581c000 	str	ip, [r1]
  10b30c:	e1a00002 	mov	r0, r2
  10b310:	e58ec000 	str	ip, [lr]
  10b314:	e28dd008 	add	sp, sp, #8
  10b318:	e8bd81f0 	pop	{r4, r5, r6, r7, r8, pc}
  10b31c:	e24c60e0 	sub	r6, ip, #224	; 0xe0
  10b320:	e356000f 	cmp	r6, #15
  10b324:	8a000020 	bhi	10b3ac <__utf8_mbtowc+0x17c>
  10b328:	e3540000 	cmp	r4, #0
  10b32c:	e5cec004 	strb	ip, [lr, #4]
  10b330:	0a000054 	beq	10b488 <__utf8_mbtowc+0x258>
  10b334:	e3730001 	cmn	r3, #1
  10b338:	12833001 	addne	r3, r3, #1
  10b33c:	e3540001 	cmp	r4, #1
  10b340:	15de6005 	ldrbne	r6, [lr, #5]
  10b344:	0a000053 	beq	10b498 <__utf8_mbtowc+0x268>
  10b348:	e356009f 	cmp	r6, #159	; 0x9f
  10b34c:	d35c00e0 	cmple	ip, #224	; 0xe0
  10b350:	0a000062 	beq	10b4e0 <__utf8_mbtowc+0x2b0>
  10b354:	e2467080 	sub	r7, r6, #128	; 0x80
  10b358:	e357003f 	cmp	r7, #63	; 0x3f
  10b35c:	8a00005f 	bhi	10b4e0 <__utf8_mbtowc+0x2b0>
  10b360:	e3540001 	cmp	r4, #1
  10b364:	e6ef6076 	uxtb	r6, r6
  10b368:	e5ce6005 	strb	r6, [lr, #5]
  10b36c:	0a000055 	beq	10b4c8 <__utf8_mbtowc+0x298>
  10b370:	e7d23005 	ldrb	r3, [r2, r5]
  10b374:	e2852001 	add	r2, r5, #1
  10b378:	e2434080 	sub	r4, r3, #128	; 0x80
  10b37c:	e354003f 	cmp	r4, #63	; 0x3f
  10b380:	8a000056 	bhi	10b4e0 <__utf8_mbtowc+0x2b0>
  10b384:	e206603f 	and	r6, r6, #63	; 0x3f
  10b388:	e1a0c60c 	lsl	ip, ip, #12
  10b38c:	e203303f 	and	r3, r3, #63	; 0x3f
  10b390:	e1836306 	orr	r6, r3, r6, lsl #6
  10b394:	e6ffc07c 	uxth	ip, ip
  10b398:	e186600c 	orr	r6, r6, ip
  10b39c:	e3a03000 	mov	r3, #0
  10b3a0:	e58e3000 	str	r3, [lr]
  10b3a4:	e5816000 	str	r6, [r1]
  10b3a8:	eaffffcb 	b	10b2dc <__utf8_mbtowc+0xac>
  10b3ac:	e24c60f0 	sub	r6, ip, #240	; 0xf0
  10b3b0:	e3560004 	cmp	r6, #4
  10b3b4:	8a000049 	bhi	10b4e0 <__utf8_mbtowc+0x2b0>
  10b3b8:	e3540000 	cmp	r4, #0
  10b3bc:	e6ef607c 	uxtb	r6, ip
  10b3c0:	e5ce6004 	strb	r6, [lr, #4]
  10b3c4:	0a000037 	beq	10b4a8 <__utf8_mbtowc+0x278>
  10b3c8:	e3730001 	cmn	r3, #1
  10b3cc:	12833001 	addne	r3, r3, #1
  10b3d0:	e3540001 	cmp	r4, #1
  10b3d4:	15de7005 	ldrbne	r7, [lr, #5]
  10b3d8:	0a000036 	beq	10b4b8 <__utf8_mbtowc+0x288>
  10b3dc:	e357008f 	cmp	r7, #143	; 0x8f
  10b3e0:	d35c00f0 	cmple	ip, #240	; 0xf0
  10b3e4:	0a00003d 	beq	10b4e0 <__utf8_mbtowc+0x2b0>
  10b3e8:	e357008f 	cmp	r7, #143	; 0x8f
  10b3ec:	d3a08000 	movle	r8, #0
  10b3f0:	c3a08001 	movgt	r8, #1
  10b3f4:	e35c00f4 	cmp	ip, #244	; 0xf4
  10b3f8:	13a08000 	movne	r8, #0
  10b3fc:	e3580000 	cmp	r8, #0
  10b400:	1a000036 	bne	10b4e0 <__utf8_mbtowc+0x2b0>
  10b404:	e247c080 	sub	ip, r7, #128	; 0x80
  10b408:	e35c003f 	cmp	ip, #63	; 0x3f
  10b40c:	8a000033 	bhi	10b4e0 <__utf8_mbtowc+0x2b0>
  10b410:	e3540001 	cmp	r4, #1
  10b414:	e6ef7077 	uxtb	r7, r7
  10b418:	e5ce7005 	strb	r7, [lr, #5]
  10b41c:	0a000033 	beq	10b4f0 <__utf8_mbtowc+0x2c0>
  10b420:	e59ec000 	ldr	ip, [lr]
  10b424:	e3730001 	cmn	r3, #1
  10b428:	12833001 	addne	r3, r3, #1
  10b42c:	e35c0002 	cmp	ip, #2
  10b430:	0a000032 	beq	10b500 <__utf8_mbtowc+0x2d0>
  10b434:	e5de4006 	ldrb	r4, [lr, #6]
  10b438:	e2443080 	sub	r3, r4, #128	; 0x80
  10b43c:	e353003f 	cmp	r3, #63	; 0x3f
  10b440:	8a000026 	bhi	10b4e0 <__utf8_mbtowc+0x2b0>
  10b444:	e7d2c005 	ldrb	ip, [r2, r5]
  10b448:	e2852001 	add	r2, r5, #1
  10b44c:	e24c3080 	sub	r3, ip, #128	; 0x80
  10b450:	e353003f 	cmp	r3, #63	; 0x3f
  10b454:	8a000021 	bhi	10b4e0 <__utf8_mbtowc+0x2b0>
  10b458:	e2066007 	and	r6, r6, #7
  10b45c:	e207703f 	and	r7, r7, #63	; 0x3f
  10b460:	e204403f 	and	r4, r4, #63	; 0x3f
  10b464:	e20cc03f 	and	ip, ip, #63	; 0x3f
  10b468:	e1a06906 	lsl	r6, r6, #18
  10b46c:	e3a05000 	mov	r5, #0
  10b470:	e1860607 	orr	r0, r6, r7, lsl #12
  10b474:	e1803304 	orr	r3, r0, r4, lsl #6
  10b478:	e183300c 	orr	r3, r3, ip
  10b47c:	e5813000 	str	r3, [r1]
  10b480:	e58e5000 	str	r5, [lr]
  10b484:	eaffff94 	b	10b2dc <__utf8_mbtowc+0xac>
  10b488:	e3530001 	cmp	r3, #1
  10b48c:	e3a04001 	mov	r4, #1
  10b490:	e58e4000 	str	r4, [lr]
  10b494:	9a00000f 	bls	10b4d8 <__utf8_mbtowc+0x2a8>
  10b498:	e7d26005 	ldrb	r6, [r2, r5]
  10b49c:	e3a04001 	mov	r4, #1
  10b4a0:	e0855004 	add	r5, r5, r4
  10b4a4:	eaffffa7 	b	10b348 <__utf8_mbtowc+0x118>
  10b4a8:	e3530001 	cmp	r3, #1
  10b4ac:	e3a04001 	mov	r4, #1
  10b4b0:	e58e4000 	str	r4, [lr]
  10b4b4:	9a000007 	bls	10b4d8 <__utf8_mbtowc+0x2a8>
  10b4b8:	e7d27005 	ldrb	r7, [r2, r5]
  10b4bc:	e3a04001 	mov	r4, #1
  10b4c0:	e0855004 	add	r5, r5, r4
  10b4c4:	eaffffc4 	b	10b3dc <__utf8_mbtowc+0x1ac>
  10b4c8:	e3530002 	cmp	r3, #2
  10b4cc:	e3a03002 	mov	r3, #2
  10b4d0:	e58e3000 	str	r3, [lr]
  10b4d4:	1affffa5 	bne	10b370 <__utf8_mbtowc+0x140>
  10b4d8:	e3e02001 	mvn	r2, #1
  10b4dc:	eaffff7e 	b	10b2dc <__utf8_mbtowc+0xac>
  10b4e0:	e3a0308a 	mov	r3, #138	; 0x8a
  10b4e4:	e3e02000 	mvn	r2, #0
  10b4e8:	e5803000 	str	r3, [r0]
  10b4ec:	eaffff7a 	b	10b2dc <__utf8_mbtowc+0xac>
  10b4f0:	e3530002 	cmp	r3, #2
  10b4f4:	e3a0c002 	mov	ip, #2
  10b4f8:	e58ec000 	str	ip, [lr]
  10b4fc:	0afffff5 	beq	10b4d8 <__utf8_mbtowc+0x2a8>
  10b500:	e7d24005 	ldrb	r4, [r2, r5]
  10b504:	e244c080 	sub	ip, r4, #128	; 0x80
  10b508:	e35c003f 	cmp	ip, #63	; 0x3f
  10b50c:	8afffff3 	bhi	10b4e0 <__utf8_mbtowc+0x2b0>
  10b510:	e3530003 	cmp	r3, #3
  10b514:	e5ce4006 	strb	r4, [lr, #6]
  10b518:	e3a03003 	mov	r3, #3
  10b51c:	12855001 	addne	r5, r5, #1
  10b520:	e58e3000 	str	r3, [lr]
  10b524:	1affffc6 	bne	10b444 <__utf8_mbtowc+0x214>
  10b528:	eaffffea 	b	10b4d8 <__utf8_mbtowc+0x2a8>

0010b52c <__sjis_mbtowc>:
  10b52c:	e92d4030 	push	{r4, r5, lr}
  10b530:	e3510000 	cmp	r1, #0
  10b534:	e24dd00c 	sub	sp, sp, #12
  10b538:	028d1004 	addeq	r1, sp, #4
  10b53c:	e3520000 	cmp	r2, #0
  10b540:	e59de01c 	ldr	lr, [sp, #28]
  10b544:	0a00001d 	beq	10b5c0 <__sjis_mbtowc+0x94>
  10b548:	e3530000 	cmp	r3, #0
  10b54c:	0a000027 	beq	10b5f0 <__sjis_mbtowc+0xc4>
  10b550:	e59e4000 	ldr	r4, [lr]
  10b554:	e5d2c000 	ldrb	ip, [r2]
  10b558:	e3540000 	cmp	r4, #0
  10b55c:	1a00001a 	bne	10b5cc <__sjis_mbtowc+0xa0>
  10b560:	e24c40e0 	sub	r4, ip, #224	; 0xe0
  10b564:	e24c5081 	sub	r5, ip, #129	; 0x81
  10b568:	e355001e 	cmp	r5, #30
  10b56c:	8354000f 	cmphi	r4, #15
  10b570:	8a000017 	bhi	10b5d4 <__sjis_mbtowc+0xa8>
  10b574:	e3530001 	cmp	r3, #1
  10b578:	e5cec004 	strb	ip, [lr, #4]
  10b57c:	e3a03001 	mov	r3, #1
  10b580:	e58e3000 	str	r3, [lr]
  10b584:	9a000019 	bls	10b5f0 <__sjis_mbtowc+0xc4>
  10b588:	e5d2c001 	ldrb	ip, [r2, #1]
  10b58c:	e3a02002 	mov	r2, #2
  10b590:	e24c3080 	sub	r3, ip, #128	; 0x80
  10b594:	e24c4040 	sub	r4, ip, #64	; 0x40
  10b598:	e354003e 	cmp	r4, #62	; 0x3e
  10b59c:	8353007c 	cmphi	r3, #124	; 0x7c
  10b5a0:	95de0004 	ldrbls	r0, [lr, #4]
  10b5a4:	83e02000 	mvnhi	r2, #0
  10b5a8:	93a03000 	movls	r3, #0
  10b5ac:	83a0308a 	movhi	r3, #138	; 0x8a
  10b5b0:	85803000 	strhi	r3, [r0]
  10b5b4:	908cc400 	addls	ip, ip, r0, lsl #8
  10b5b8:	9581c000 	strls	ip, [r1]
  10b5bc:	958e3000 	strls	r3, [lr]
  10b5c0:	e1a00002 	mov	r0, r2
  10b5c4:	e28dd00c 	add	sp, sp, #12
  10b5c8:	e8bd8030 	pop	{r4, r5, pc}
  10b5cc:	e3540001 	cmp	r4, #1
  10b5d0:	0a000008 	beq	10b5f8 <__sjis_mbtowc+0xcc>
  10b5d4:	e581c000 	str	ip, [r1]
  10b5d8:	e5d22000 	ldrb	r2, [r2]
  10b5dc:	e2922000 	adds	r2, r2, #0
  10b5e0:	13a02001 	movne	r2, #1
  10b5e4:	e1a00002 	mov	r0, r2
  10b5e8:	e28dd00c 	add	sp, sp, #12
  10b5ec:	e8bd8030 	pop	{r4, r5, pc}
  10b5f0:	e3e02001 	mvn	r2, #1
  10b5f4:	eafffff1 	b	10b5c0 <__sjis_mbtowc+0x94>
  10b5f8:	e1a02004 	mov	r2, r4
  10b5fc:	eaffffe3 	b	10b590 <__sjis_mbtowc+0x64>

0010b600 <__eucjp_mbtowc>:
  10b600:	e92d4070 	push	{r4, r5, r6, lr}
  10b604:	e3510000 	cmp	r1, #0
  10b608:	e24dd008 	sub	sp, sp, #8
  10b60c:	028d1004 	addeq	r1, sp, #4
  10b610:	e3520000 	cmp	r2, #0
  10b614:	e59d401c 	ldr	r4, [sp, #28]
  10b618:	0a00003e 	beq	10b718 <__eucjp_mbtowc+0x118>
  10b61c:	e3530000 	cmp	r3, #0
  10b620:	0a000040 	beq	10b728 <__eucjp_mbtowc+0x128>
  10b624:	e594c000 	ldr	ip, [r4]
  10b628:	e5d2e000 	ldrb	lr, [r2]
  10b62c:	e35c0000 	cmp	ip, #0
  10b630:	1a000018 	bne	10b698 <__eucjp_mbtowc+0x98>
  10b634:	e24e50a1 	sub	r5, lr, #161	; 0xa1
  10b638:	e24e608e 	sub	r6, lr, #142	; 0x8e
  10b63c:	e3560001 	cmp	r6, #1
  10b640:	8355005d 	cmphi	r5, #93	; 0x5d
  10b644:	8a000017 	bhi	10b6a8 <__eucjp_mbtowc+0xa8>
  10b648:	e3530001 	cmp	r3, #1
  10b64c:	e3a0c001 	mov	ip, #1
  10b650:	e5c4e004 	strb	lr, [r4, #4]
  10b654:	e584c000 	str	ip, [r4]
  10b658:	9a000032 	bls	10b728 <__eucjp_mbtowc+0x128>
  10b65c:	e5d2e001 	ldrb	lr, [r2, #1]
  10b660:	e3a0c002 	mov	ip, #2
  10b664:	e24e50a1 	sub	r5, lr, #161	; 0xa1
  10b668:	e355005d 	cmp	r5, #93	; 0x5d
  10b66c:	8a00002f 	bhi	10b730 <__eucjp_mbtowc+0x130>
  10b670:	e5d45004 	ldrb	r5, [r4, #4]
  10b674:	e355008f 	cmp	r5, #143	; 0x8f
  10b678:	0a000011 	beq	10b6c4 <__eucjp_mbtowc+0xc4>
  10b67c:	e08ee405 	add	lr, lr, r5, lsl #8
  10b680:	e3a03000 	mov	r3, #0
  10b684:	e581e000 	str	lr, [r1]
  10b688:	e1a0000c 	mov	r0, ip
  10b68c:	e5843000 	str	r3, [r4]
  10b690:	e28dd008 	add	sp, sp, #8
  10b694:	e8bd8070 	pop	{r4, r5, r6, pc}
  10b698:	e35c0001 	cmp	ip, #1
  10b69c:	0afffff0 	beq	10b664 <__eucjp_mbtowc+0x64>
  10b6a0:	e35c0002 	cmp	ip, #2
  10b6a4:	0a000019 	beq	10b710 <__eucjp_mbtowc+0x110>
  10b6a8:	e581e000 	str	lr, [r1]
  10b6ac:	e5d2c000 	ldrb	ip, [r2]
  10b6b0:	e29cc000 	adds	ip, ip, #0
  10b6b4:	13a0c001 	movne	ip, #1
  10b6b8:	e1a0000c 	mov	r0, ip
  10b6bc:	e28dd008 	add	sp, sp, #8
  10b6c0:	e8bd8070 	pop	{r4, r5, r6, pc}
  10b6c4:	e153000c 	cmp	r3, ip
  10b6c8:	e5c4e005 	strb	lr, [r4, #5]
  10b6cc:	e3a03002 	mov	r3, #2
  10b6d0:	e5843000 	str	r3, [r4]
  10b6d4:	9a000013 	bls	10b728 <__eucjp_mbtowc+0x128>
  10b6d8:	e7d2e00c 	ldrb	lr, [r2, ip]
  10b6dc:	e28cc001 	add	ip, ip, #1
  10b6e0:	e24e30a1 	sub	r3, lr, #161	; 0xa1
  10b6e4:	e353005d 	cmp	r3, #93	; 0x5d
  10b6e8:	8a000010 	bhi	10b730 <__eucjp_mbtowc+0x130>
  10b6ec:	e5d42005 	ldrb	r2, [r4, #5]
  10b6f0:	e20ee07f 	and	lr, lr, #127	; 0x7f
  10b6f4:	e3a03000 	mov	r3, #0
  10b6f8:	e1a0000c 	mov	r0, ip
  10b6fc:	e08ee402 	add	lr, lr, r2, lsl #8
  10b700:	e581e000 	str	lr, [r1]
  10b704:	e5843000 	str	r3, [r4]
  10b708:	e28dd008 	add	sp, sp, #8
  10b70c:	e8bd8070 	pop	{r4, r5, r6, pc}
  10b710:	e3a0c001 	mov	ip, #1
  10b714:	eafffff1 	b	10b6e0 <__eucjp_mbtowc+0xe0>
  10b718:	e1a0c002 	mov	ip, r2
  10b71c:	e1a0000c 	mov	r0, ip
  10b720:	e28dd008 	add	sp, sp, #8
  10b724:	e8bd8070 	pop	{r4, r5, r6, pc}
  10b728:	e3e0c001 	mvn	ip, #1
  10b72c:	eaffffe1 	b	10b6b8 <__eucjp_mbtowc+0xb8>
  10b730:	e3a0308a 	mov	r3, #138	; 0x8a
  10b734:	e3e0c000 	mvn	ip, #0
  10b738:	e5803000 	str	r3, [r0]
  10b73c:	eaffffdd 	b	10b6b8 <__eucjp_mbtowc+0xb8>

0010b740 <__jis_mbtowc>:
  10b740:	e92d47f0 	push	{r4, r5, r6, r7, r8, r9, sl, lr}
  10b744:	e24dd008 	sub	sp, sp, #8
  10b748:	e3510000 	cmp	r1, #0
  10b74c:	e1a09000 	mov	r9, r0
  10b750:	e59d802c 	ldr	r8, [sp, #44]	; 0x2c
  10b754:	028d1004 	addeq	r1, sp, #4
  10b758:	e3520000 	cmp	r2, #0
  10b75c:	05882000 	streq	r2, [r8]
  10b760:	03a00001 	moveq	r0, #1
  10b764:	0a00002c 	beq	10b81c <__jis_mbtowc+0xdc>
  10b768:	e3530000 	cmp	r3, #0
  10b76c:	0a000059 	beq	10b8d8 <__jis_mbtowc+0x198>
  10b770:	e5d8c000 	ldrb	ip, [r8]
  10b774:	e30669b4 	movw	r6, #27060	; 0x69b4
  10b778:	e3406011 	movt	r6, #17
  10b77c:	e1a07002 	mov	r7, r2
  10b780:	e3a0e000 	mov	lr, #0
  10b784:	e1a0a007 	mov	sl, r7
  10b788:	e4d74001 	ldrb	r4, [r7], #1
  10b78c:	e28ee001 	add	lr, lr, #1
  10b790:	e3540028 	cmp	r4, #40	; 0x28
  10b794:	0a00004d 	beq	10b8d0 <__jis_mbtowc+0x190>
  10b798:	8a000021 	bhi	10b824 <__jis_mbtowc+0xe4>
  10b79c:	e354001b 	cmp	r4, #27
  10b7a0:	03a00000 	moveq	r0, #0
  10b7a4:	0a000008 	beq	10b7cc <__jis_mbtowc+0x8c>
  10b7a8:	e3540024 	cmp	r4, #36	; 0x24
  10b7ac:	03a00001 	moveq	r0, #1
  10b7b0:	0a000005 	beq	10b7cc <__jis_mbtowc+0x8c>
  10b7b4:	e3540000 	cmp	r4, #0
  10b7b8:	0a000042 	beq	10b8c8 <__jis_mbtowc+0x188>
  10b7bc:	e2440021 	sub	r0, r4, #33	; 0x21
  10b7c0:	e350005e 	cmp	r0, #94	; 0x5e
  10b7c4:	33a00007 	movcc	r0, #7
  10b7c8:	23a00008 	movcs	r0, #8
  10b7cc:	e08cc18c 	add	ip, ip, ip, lsl #3
  10b7d0:	e086500c 	add	r5, r6, ip
  10b7d4:	e08cc000 	add	ip, ip, r0
  10b7d8:	e0855000 	add	r5, r5, r0
  10b7dc:	e7d6c00c 	ldrb	ip, [r6, ip]
  10b7e0:	e5d50048 	ldrb	r0, [r5, #72]	; 0x48
  10b7e4:	e3500005 	cmp	r0, #5
  10b7e8:	979ff100 	ldrls	pc, [pc, r0, lsl #2]
  10b7ec:	ea000030 	b	10b8b4 <__jis_mbtowc+0x174>
  10b7f0:	0010b898 	.word	0x0010b898
  10b7f4:	0010b808 	.word	0x0010b808
  10b7f8:	0010b874 	.word	0x0010b874
  10b7fc:	0010b864 	.word	0x0010b864
  10b800:	0010b80c 	.word	0x0010b80c
  10b804:	0010b84c 	.word	0x0010b84c
  10b808:	e5c84004 	strb	r4, [r8, #4]
  10b80c:	e15e0003 	cmp	lr, r3
  10b810:	3affffdb 	bcc	10b784 <__jis_mbtowc+0x44>
  10b814:	e3e00001 	mvn	r0, #1
  10b818:	e588c000 	str	ip, [r8]
  10b81c:	e28dd008 	add	sp, sp, #8
  10b820:	e8bd87f0 	pop	{r4, r5, r6, r7, r8, r9, sl, pc}
  10b824:	e3540042 	cmp	r4, #66	; 0x42
  10b828:	03a00004 	moveq	r0, #4
  10b82c:	0affffe6 	beq	10b7cc <__jis_mbtowc+0x8c>
  10b830:	e354004a 	cmp	r4, #74	; 0x4a
  10b834:	03a00005 	moveq	r0, #5
  10b838:	0affffe3 	beq	10b7cc <__jis_mbtowc+0x8c>
  10b83c:	e3540040 	cmp	r4, #64	; 0x40
  10b840:	1affffdd 	bne	10b7bc <__jis_mbtowc+0x7c>
  10b844:	e3a00003 	mov	r0, #3
  10b848:	eaffffdf 	b	10b7cc <__jis_mbtowc+0x8c>
  10b84c:	e3a03000 	mov	r3, #0
  10b850:	e5883000 	str	r3, [r8]
  10b854:	e1a00003 	mov	r0, r3
  10b858:	e5813000 	str	r3, [r1]
  10b85c:	e28dd008 	add	sp, sp, #8
  10b860:	e8bd87f0 	pop	{r4, r5, r6, r7, r8, r9, sl, pc}
  10b864:	e15e0003 	cmp	lr, r3
  10b868:	e1a02007 	mov	r2, r7
  10b86c:	3affffc4 	bcc	10b784 <__jis_mbtowc+0x44>
  10b870:	eaffffe7 	b	10b814 <__jis_mbtowc+0xd4>
  10b874:	e5d82004 	ldrb	r2, [r8, #4]
  10b878:	e3a03001 	mov	r3, #1
  10b87c:	e5883000 	str	r3, [r8]
  10b880:	e1a0000e 	mov	r0, lr
  10b884:	e5da3000 	ldrb	r3, [sl]
  10b888:	e0833402 	add	r3, r3, r2, lsl #8
  10b88c:	e5813000 	str	r3, [r1]
  10b890:	e28dd008 	add	sp, sp, #8
  10b894:	e8bd87f0 	pop	{r4, r5, r6, r7, r8, r9, sl, pc}
  10b898:	e3a03000 	mov	r3, #0
  10b89c:	e5883000 	str	r3, [r8]
  10b8a0:	e5d23000 	ldrb	r3, [r2]
  10b8a4:	e1a0000e 	mov	r0, lr
  10b8a8:	e5813000 	str	r3, [r1]
  10b8ac:	e28dd008 	add	sp, sp, #8
  10b8b0:	e8bd87f0 	pop	{r4, r5, r6, r7, r8, r9, sl, pc}
  10b8b4:	e3a0308a 	mov	r3, #138	; 0x8a
  10b8b8:	e3e00000 	mvn	r0, #0
  10b8bc:	e5893000 	str	r3, [r9]
  10b8c0:	e28dd008 	add	sp, sp, #8
  10b8c4:	e8bd87f0 	pop	{r4, r5, r6, r7, r8, r9, sl, pc}
  10b8c8:	e3a00006 	mov	r0, #6
  10b8cc:	eaffffbe 	b	10b7cc <__jis_mbtowc+0x8c>
  10b8d0:	e3a00002 	mov	r0, #2
  10b8d4:	eaffffbc 	b	10b7cc <__jis_mbtowc+0x8c>
  10b8d8:	e3e00001 	mvn	r0, #1
  10b8dc:	eaffffce 	b	10b81c <__jis_mbtowc+0xdc>

0010b8e0 <memchr>:
  10b8e0:	f001 01ff 	and.w	r1, r1, #255	; 0xff
  10b8e4:	2a10      	cmp	r2, #16
  10b8e6:	db2b      	blt.n	10b940 <memchr+0x60>
  10b8e8:	f010 0f07 	tst.w	r0, #7
  10b8ec:	d008      	beq.n	10b900 <memchr+0x20>
  10b8ee:	f810 3b01 	ldrb.w	r3, [r0], #1
  10b8f2:	3a01      	subs	r2, #1
  10b8f4:	428b      	cmp	r3, r1
  10b8f6:	d02d      	beq.n	10b954 <memchr+0x74>
  10b8f8:	f010 0f07 	tst.w	r0, #7
  10b8fc:	b342      	cbz	r2, 10b950 <memchr+0x70>
  10b8fe:	d1f6      	bne.n	10b8ee <memchr+0xe>
  10b900:	b4f0      	push	{r4, r5, r6, r7}
  10b902:	ea41 2101 	orr.w	r1, r1, r1, lsl #8
  10b906:	ea41 4101 	orr.w	r1, r1, r1, lsl #16
  10b90a:	f022 0407 	bic.w	r4, r2, #7
  10b90e:	f07f 0700 	mvns.w	r7, #0
  10b912:	2300      	movs	r3, #0
  10b914:	e8f0 5602 	ldrd	r5, r6, [r0], #8
  10b918:	3c08      	subs	r4, #8
  10b91a:	ea85 0501 	eor.w	r5, r5, r1
  10b91e:	ea86 0601 	eor.w	r6, r6, r1
  10b922:	fa85 f547 	uadd8	r5, r5, r7
  10b926:	faa3 f587 	sel	r5, r3, r7
  10b92a:	fa86 f647 	uadd8	r6, r6, r7
  10b92e:	faa5 f687 	sel	r6, r5, r7
  10b932:	b98e      	cbnz	r6, 10b958 <memchr+0x78>
  10b934:	d1ee      	bne.n	10b914 <memchr+0x34>
  10b936:	bcf0      	pop	{r4, r5, r6, r7}
  10b938:	f001 01ff 	and.w	r1, r1, #255	; 0xff
  10b93c:	f002 0207 	and.w	r2, r2, #7
  10b940:	b132      	cbz	r2, 10b950 <memchr+0x70>
  10b942:	f810 3b01 	ldrb.w	r3, [r0], #1
  10b946:	3a01      	subs	r2, #1
  10b948:	ea83 0301 	eor.w	r3, r3, r1
  10b94c:	b113      	cbz	r3, 10b954 <memchr+0x74>
  10b94e:	d1f8      	bne.n	10b942 <memchr+0x62>
  10b950:	2000      	movs	r0, #0
  10b952:	4770      	bx	lr
  10b954:	3801      	subs	r0, #1
  10b956:	4770      	bx	lr
  10b958:	2d00      	cmp	r5, #0
  10b95a:	bf06      	itte	eq
  10b95c:	4635      	moveq	r5, r6
  10b95e:	3803      	subeq	r0, #3
  10b960:	3807      	subne	r0, #7
  10b962:	f015 0f01 	tst.w	r5, #1
  10b966:	d107      	bne.n	10b978 <memchr+0x98>
  10b968:	3001      	adds	r0, #1
  10b96a:	f415 7f80 	tst.w	r5, #256	; 0x100
  10b96e:	bf02      	ittt	eq
  10b970:	3001      	addeq	r0, #1
  10b972:	f415 3fc0 	tsteq.w	r5, #98304	; 0x18000
  10b976:	3001      	addeq	r0, #1
  10b978:	bcf0      	pop	{r4, r5, r6, r7}
  10b97a:	3801      	subs	r0, #1
  10b97c:	4770      	bx	lr
  10b97e:	bf00      	nop

0010b980 <memcpy>:
  10b980:	e1a0c000 	mov	ip, r0
  10b984:	e3520040 	cmp	r2, #64	; 0x40
  10b988:	aa000028 	bge	10ba30 <memcpy+0xb0>
  10b98c:	e202303c 	and	r3, r2, #60	; 0x3c
  10b990:	e08cc003 	add	ip, ip, r3
  10b994:	e0811003 	add	r1, r1, r3
  10b998:	e263303a 	rsb	r3, r3, #58	; 0x3a
  10b99c:	e08ff083 	add	pc, pc, r3, lsl #1
  10b9a0:	e511303c 	ldr	r3, [r1, #-60]	; 0xffffffc4
  10b9a4:	e50c303c 	str	r3, [ip, #-60]	; 0xffffffc4
  10b9a8:	e5113038 	ldr	r3, [r1, #-56]	; 0xffffffc8
  10b9ac:	e50c3038 	str	r3, [ip, #-56]	; 0xffffffc8
  10b9b0:	e5113034 	ldr	r3, [r1, #-52]	; 0xffffffcc
  10b9b4:	e50c3034 	str	r3, [ip, #-52]	; 0xffffffcc
  10b9b8:	e5113030 	ldr	r3, [r1, #-48]	; 0xffffffd0
  10b9bc:	e50c3030 	str	r3, [ip, #-48]	; 0xffffffd0
  10b9c0:	e511302c 	ldr	r3, [r1, #-44]	; 0xffffffd4
  10b9c4:	e50c302c 	str	r3, [ip, #-44]	; 0xffffffd4
  10b9c8:	e5113028 	ldr	r3, [r1, #-40]	; 0xffffffd8
  10b9cc:	e50c3028 	str	r3, [ip, #-40]	; 0xffffffd8
  10b9d0:	e5113024 	ldr	r3, [r1, #-36]	; 0xffffffdc
  10b9d4:	e50c3024 	str	r3, [ip, #-36]	; 0xffffffdc
  10b9d8:	e5113020 	ldr	r3, [r1, #-32]	; 0xffffffe0
  10b9dc:	e50c3020 	str	r3, [ip, #-32]	; 0xffffffe0
  10b9e0:	e511301c 	ldr	r3, [r1, #-28]	; 0xffffffe4
  10b9e4:	e50c301c 	str	r3, [ip, #-28]	; 0xffffffe4
  10b9e8:	e5113018 	ldr	r3, [r1, #-24]	; 0xffffffe8
  10b9ec:	e50c3018 	str	r3, [ip, #-24]	; 0xffffffe8
  10b9f0:	e5113014 	ldr	r3, [r1, #-20]	; 0xffffffec
  10b9f4:	e50c3014 	str	r3, [ip, #-20]	; 0xffffffec
  10b9f8:	e5113010 	ldr	r3, [r1, #-16]
  10b9fc:	e50c3010 	str	r3, [ip, #-16]
  10ba00:	e511300c 	ldr	r3, [r1, #-12]
  10ba04:	e50c300c 	str	r3, [ip, #-12]
  10ba08:	e5113008 	ldr	r3, [r1, #-8]
  10ba0c:	e50c3008 	str	r3, [ip, #-8]
  10ba10:	e5113004 	ldr	r3, [r1, #-4]
  10ba14:	e50c3004 	str	r3, [ip, #-4]
  10ba18:	e1b02f82 	lsls	r2, r2, #31
  10ba1c:	20d130b2 	ldrhcs	r3, [r1], #2
  10ba20:	15d11000 	ldrbne	r1, [r1]
  10ba24:	20cc30b2 	strhcs	r3, [ip], #2
  10ba28:	15cc1000 	strbne	r1, [ip]
  10ba2c:	e12fff1e 	bx	lr
  10ba30:	e52da020 	str	sl, [sp, #-32]!	; 0xffffffe0
  10ba34:	e201a007 	and	sl, r1, #7
  10ba38:	e20c3007 	and	r3, ip, #7
  10ba3c:	e153000a 	cmp	r3, sl
  10ba40:	1a0000f1 	bne	10be0c <memcpy+0x48c>
  10ba44:	eeb00a40 	vmov.f32	s0, s0
  10ba48:	e1b0ae8c 	lsls	sl, ip, #29
  10ba4c:	0a000008 	beq	10ba74 <memcpy+0xf4>
  10ba50:	e27aa000 	rsbs	sl, sl, #0
  10ba54:	e0422eaa 	sub	r2, r2, sl, lsr #29
  10ba58:	44913004 	ldrmi	r3, [r1], #4
  10ba5c:	448c3004 	strmi	r3, [ip], #4
  10ba60:	e1b0a10a 	lsls	sl, sl, #2
  10ba64:	20d130b2 	ldrhcs	r3, [r1], #2
  10ba68:	14d1a001 	ldrbne	sl, [r1], #1
  10ba6c:	20cc30b2 	strhcs	r3, [ip], #2
  10ba70:	14cca001 	strbne	sl, [ip], #1
  10ba74:	e252a040 	subs	sl, r2, #64	; 0x40
  10ba78:	ba000017 	blt	10badc <memcpy+0x15c>
  10ba7c:	e35a0c02 	cmp	sl, #512	; 0x200
  10ba80:	aa000032 	bge	10bb50 <memcpy+0x1d0>
  10ba84:	ed910b00 	vldr	d0, [r1]
  10ba88:	e25aa040 	subs	sl, sl, #64	; 0x40
  10ba8c:	ed911b02 	vldr	d1, [r1, #8]
  10ba90:	ed8c0b00 	vstr	d0, [ip]
  10ba94:	ed910b04 	vldr	d0, [r1, #16]
  10ba98:	ed8c1b02 	vstr	d1, [ip, #8]
  10ba9c:	ed911b06 	vldr	d1, [r1, #24]
  10baa0:	ed8c0b04 	vstr	d0, [ip, #16]
  10baa4:	ed910b08 	vldr	d0, [r1, #32]
  10baa8:	ed8c1b06 	vstr	d1, [ip, #24]
  10baac:	ed911b0a 	vldr	d1, [r1, #40]	; 0x28
  10bab0:	ed8c0b08 	vstr	d0, [ip, #32]
  10bab4:	ed910b0c 	vldr	d0, [r1, #48]	; 0x30
  10bab8:	ed8c1b0a 	vstr	d1, [ip, #40]	; 0x28
  10babc:	ed911b0e 	vldr	d1, [r1, #56]	; 0x38
  10bac0:	ed8c0b0c 	vstr	d0, [ip, #48]	; 0x30
  10bac4:	e2811040 	add	r1, r1, #64	; 0x40
  10bac8:	ed8c1b0e 	vstr	d1, [ip, #56]	; 0x38
  10bacc:	e28cc040 	add	ip, ip, #64	; 0x40
  10bad0:	aaffffeb 	bge	10ba84 <memcpy+0x104>
  10bad4:	e31a003f 	tst	sl, #63	; 0x3f
  10bad8:	0a00001a 	beq	10bb48 <memcpy+0x1c8>
  10badc:	e20a3038 	and	r3, sl, #56	; 0x38
  10bae0:	e08cc003 	add	ip, ip, r3
  10bae4:	e0811003 	add	r1, r1, r3
  10bae8:	e2633034 	rsb	r3, r3, #52	; 0x34
  10baec:	e08ff003 	add	pc, pc, r3
  10baf0:	ed110b0e 	vldr	d0, [r1, #-56]	; 0xffffffc8
  10baf4:	ed0c0b0e 	vstr	d0, [ip, #-56]	; 0xffffffc8
  10baf8:	ed110b0c 	vldr	d0, [r1, #-48]	; 0xffffffd0
  10bafc:	ed0c0b0c 	vstr	d0, [ip, #-48]	; 0xffffffd0
  10bb00:	ed110b0a 	vldr	d0, [r1, #-40]	; 0xffffffd8
  10bb04:	ed0c0b0a 	vstr	d0, [ip, #-40]	; 0xffffffd8
  10bb08:	ed110b08 	vldr	d0, [r1, #-32]	; 0xffffffe0
  10bb0c:	ed0c0b08 	vstr	d0, [ip, #-32]	; 0xffffffe0
  10bb10:	ed110b06 	vldr	d0, [r1, #-24]	; 0xffffffe8
  10bb14:	ed0c0b06 	vstr	d0, [ip, #-24]	; 0xffffffe8
  10bb18:	ed110b04 	vldr	d0, [r1, #-16]
  10bb1c:	ed0c0b04 	vstr	d0, [ip, #-16]
  10bb20:	ed110b02 	vldr	d0, [r1, #-8]
  10bb24:	ed0c0b02 	vstr	d0, [ip, #-8]
  10bb28:	e31a0004 	tst	sl, #4
  10bb2c:	14913004 	ldrne	r3, [r1], #4
  10bb30:	148c3004 	strne	r3, [ip], #4
  10bb34:	e1b0af8a 	lsls	sl, sl, #31
  10bb38:	20d130b2 	ldrhcs	r3, [r1], #2
  10bb3c:	15d1a000 	ldrbne	sl, [r1]
  10bb40:	20cc30b2 	strhcs	r3, [ip], #2
  10bb44:	15cca000 	strbne	sl, [ip]
  10bb48:	e49da020 	ldr	sl, [sp], #32
  10bb4c:	e12fff1e 	bx	lr
  10bb50:	ed913b00 	vldr	d3, [r1]
  10bb54:	ed914b10 	vldr	d4, [r1, #64]	; 0x40
  10bb58:	ed915b20 	vldr	d5, [r1, #128]	; 0x80
  10bb5c:	ed916b30 	vldr	d6, [r1, #192]	; 0xc0
  10bb60:	ed917b40 	vldr	d7, [r1, #256]	; 0x100
  10bb64:	ed910b02 	vldr	d0, [r1, #8]
  10bb68:	ed911b04 	vldr	d1, [r1, #16]
  10bb6c:	ed912b06 	vldr	d2, [r1, #24]
  10bb70:	e2811020 	add	r1, r1, #32
  10bb74:	e25aad0a 	subs	sl, sl, #640	; 0x280
  10bb78:	ba000055 	blt	10bcd4 <memcpy+0x354>
  10bb7c:	ed8c3b00 	vstr	d3, [ip]
  10bb80:	ed913b00 	vldr	d3, [r1]
  10bb84:	ed8c0b02 	vstr	d0, [ip, #8]
  10bb88:	ed910b02 	vldr	d0, [r1, #8]
  10bb8c:	ed8c1b04 	vstr	d1, [ip, #16]
  10bb90:	ed911b04 	vldr	d1, [r1, #16]
  10bb94:	ed8c2b06 	vstr	d2, [ip, #24]
  10bb98:	ed912b06 	vldr	d2, [r1, #24]
  10bb9c:	ed8c3b08 	vstr	d3, [ip, #32]
  10bba0:	ed913b48 	vldr	d3, [r1, #288]	; 0x120
  10bba4:	ed8c0b0a 	vstr	d0, [ip, #40]	; 0x28
  10bba8:	ed910b0a 	vldr	d0, [r1, #40]	; 0x28
  10bbac:	ed8c1b0c 	vstr	d1, [ip, #48]	; 0x30
  10bbb0:	ed911b0c 	vldr	d1, [r1, #48]	; 0x30
  10bbb4:	ed8c2b0e 	vstr	d2, [ip, #56]	; 0x38
  10bbb8:	ed912b0e 	vldr	d2, [r1, #56]	; 0x38
  10bbbc:	ed8c4b10 	vstr	d4, [ip, #64]	; 0x40
  10bbc0:	ed914b10 	vldr	d4, [r1, #64]	; 0x40
  10bbc4:	ed8c0b12 	vstr	d0, [ip, #72]	; 0x48
  10bbc8:	ed910b12 	vldr	d0, [r1, #72]	; 0x48
  10bbcc:	ed8c1b14 	vstr	d1, [ip, #80]	; 0x50
  10bbd0:	ed911b14 	vldr	d1, [r1, #80]	; 0x50
  10bbd4:	ed8c2b16 	vstr	d2, [ip, #88]	; 0x58
  10bbd8:	ed912b16 	vldr	d2, [r1, #88]	; 0x58
  10bbdc:	ed8c4b18 	vstr	d4, [ip, #96]	; 0x60
  10bbe0:	ed914b58 	vldr	d4, [r1, #352]	; 0x160
  10bbe4:	ed8c0b1a 	vstr	d0, [ip, #104]	; 0x68
  10bbe8:	ed910b1a 	vldr	d0, [r1, #104]	; 0x68
  10bbec:	ed8c1b1c 	vstr	d1, [ip, #112]	; 0x70
  10bbf0:	ed911b1c 	vldr	d1, [r1, #112]	; 0x70
  10bbf4:	ed8c2b1e 	vstr	d2, [ip, #120]	; 0x78
  10bbf8:	ed912b1e 	vldr	d2, [r1, #120]	; 0x78
  10bbfc:	ed8c5b20 	vstr	d5, [ip, #128]	; 0x80
  10bc00:	ed915b20 	vldr	d5, [r1, #128]	; 0x80
  10bc04:	ed8c0b22 	vstr	d0, [ip, #136]	; 0x88
  10bc08:	ed910b22 	vldr	d0, [r1, #136]	; 0x88
  10bc0c:	ed8c1b24 	vstr	d1, [ip, #144]	; 0x90
  10bc10:	ed911b24 	vldr	d1, [r1, #144]	; 0x90
  10bc14:	ed8c2b26 	vstr	d2, [ip, #152]	; 0x98
  10bc18:	ed912b26 	vldr	d2, [r1, #152]	; 0x98
  10bc1c:	ed8c5b28 	vstr	d5, [ip, #160]	; 0xa0
  10bc20:	ed915b68 	vldr	d5, [r1, #416]	; 0x1a0
  10bc24:	ed8c0b2a 	vstr	d0, [ip, #168]	; 0xa8
  10bc28:	ed910b2a 	vldr	d0, [r1, #168]	; 0xa8
  10bc2c:	ed8c1b2c 	vstr	d1, [ip, #176]	; 0xb0
  10bc30:	ed911b2c 	vldr	d1, [r1, #176]	; 0xb0
  10bc34:	ed8c2b2e 	vstr	d2, [ip, #184]	; 0xb8
  10bc38:	ed912b2e 	vldr	d2, [r1, #184]	; 0xb8
  10bc3c:	e28cc0c0 	add	ip, ip, #192	; 0xc0
  10bc40:	e28110c0 	add	r1, r1, #192	; 0xc0
  10bc44:	ed8c6b00 	vstr	d6, [ip]
  10bc48:	ed916b00 	vldr	d6, [r1]
  10bc4c:	ed8c0b02 	vstr	d0, [ip, #8]
  10bc50:	ed910b02 	vldr	d0, [r1, #8]
  10bc54:	ed8c1b04 	vstr	d1, [ip, #16]
  10bc58:	ed911b04 	vldr	d1, [r1, #16]
  10bc5c:	ed8c2b06 	vstr	d2, [ip, #24]
  10bc60:	ed912b06 	vldr	d2, [r1, #24]
  10bc64:	ed8c6b08 	vstr	d6, [ip, #32]
  10bc68:	ed916b48 	vldr	d6, [r1, #288]	; 0x120
  10bc6c:	ed8c0b0a 	vstr	d0, [ip, #40]	; 0x28
  10bc70:	ed910b0a 	vldr	d0, [r1, #40]	; 0x28
  10bc74:	ed8c1b0c 	vstr	d1, [ip, #48]	; 0x30
  10bc78:	ed911b0c 	vldr	d1, [r1, #48]	; 0x30
  10bc7c:	ed8c2b0e 	vstr	d2, [ip, #56]	; 0x38
  10bc80:	ed912b0e 	vldr	d2, [r1, #56]	; 0x38
  10bc84:	ed8c7b10 	vstr	d7, [ip, #64]	; 0x40
  10bc88:	ed917b10 	vldr	d7, [r1, #64]	; 0x40
  10bc8c:	ed8c0b12 	vstr	d0, [ip, #72]	; 0x48
  10bc90:	ed910b12 	vldr	d0, [r1, #72]	; 0x48
  10bc94:	ed8c1b14 	vstr	d1, [ip, #80]	; 0x50
  10bc98:	ed911b14 	vldr	d1, [r1, #80]	; 0x50
  10bc9c:	ed8c2b16 	vstr	d2, [ip, #88]	; 0x58
  10bca0:	ed912b16 	vldr	d2, [r1, #88]	; 0x58
  10bca4:	ed8c7b18 	vstr	d7, [ip, #96]	; 0x60
  10bca8:	ed917b58 	vldr	d7, [r1, #352]	; 0x160
  10bcac:	ed8c0b1a 	vstr	d0, [ip, #104]	; 0x68
  10bcb0:	ed910b1a 	vldr	d0, [r1, #104]	; 0x68
  10bcb4:	ed8c1b1c 	vstr	d1, [ip, #112]	; 0x70
  10bcb8:	ed911b1c 	vldr	d1, [r1, #112]	; 0x70
  10bcbc:	ed8c2b1e 	vstr	d2, [ip, #120]	; 0x78
  10bcc0:	ed912b1e 	vldr	d2, [r1, #120]	; 0x78
  10bcc4:	e28cc080 	add	ip, ip, #128	; 0x80
  10bcc8:	e2811080 	add	r1, r1, #128	; 0x80
  10bccc:	e25aad05 	subs	sl, sl, #320	; 0x140
  10bcd0:	aaffffa9 	bge	10bb7c <memcpy+0x1fc>
  10bcd4:	ed8c3b00 	vstr	d3, [ip]
  10bcd8:	ed913b00 	vldr	d3, [r1]
  10bcdc:	ed8c0b02 	vstr	d0, [ip, #8]
  10bce0:	ed910b02 	vldr	d0, [r1, #8]
  10bce4:	ed8c1b04 	vstr	d1, [ip, #16]
  10bce8:	ed911b04 	vldr	d1, [r1, #16]
  10bcec:	ed8c2b06 	vstr	d2, [ip, #24]
  10bcf0:	ed912b06 	vldr	d2, [r1, #24]
  10bcf4:	ed8c3b08 	vstr	d3, [ip, #32]
  10bcf8:	ed8c0b0a 	vstr	d0, [ip, #40]	; 0x28
  10bcfc:	ed910b0a 	vldr	d0, [r1, #40]	; 0x28
  10bd00:	ed8c1b0c 	vstr	d1, [ip, #48]	; 0x30
  10bd04:	ed911b0c 	vldr	d1, [r1, #48]	; 0x30
  10bd08:	ed8c2b0e 	vstr	d2, [ip, #56]	; 0x38
  10bd0c:	ed912b0e 	vldr	d2, [r1, #56]	; 0x38
  10bd10:	ed8c4b10 	vstr	d4, [ip, #64]	; 0x40
  10bd14:	ed914b10 	vldr	d4, [r1, #64]	; 0x40
  10bd18:	ed8c0b12 	vstr	d0, [ip, #72]	; 0x48
  10bd1c:	ed910b12 	vldr	d0, [r1, #72]	; 0x48
  10bd20:	ed8c1b14 	vstr	d1, [ip, #80]	; 0x50
  10bd24:	ed911b14 	vldr	d1, [r1, #80]	; 0x50
  10bd28:	ed8c2b16 	vstr	d2, [ip, #88]	; 0x58
  10bd2c:	ed912b16 	vldr	d2, [r1, #88]	; 0x58
  10bd30:	ed8c4b18 	vstr	d4, [ip, #96]	; 0x60
  10bd34:	ed8c0b1a 	vstr	d0, [ip, #104]	; 0x68
  10bd38:	ed910b1a 	vldr	d0, [r1, #104]	; 0x68
  10bd3c:	ed8c1b1c 	vstr	d1, [ip, #112]	; 0x70
  10bd40:	ed911b1c 	vldr	d1, [r1, #112]	; 0x70
  10bd44:	ed8c2b1e 	vstr	d2, [ip, #120]	; 0x78
  10bd48:	ed912b1e 	vldr	d2, [r1, #120]	; 0x78
  10bd4c:	ed8c5b20 	vstr	d5, [ip, #128]	; 0x80
  10bd50:	ed915b20 	vldr	d5, [r1, #128]	; 0x80
  10bd54:	ed8c0b22 	vstr	d0, [ip, #136]	; 0x88
  10bd58:	ed910b22 	vldr	d0, [r1, #136]	; 0x88
  10bd5c:	ed8c1b24 	vstr	d1, [ip, #144]	; 0x90
  10bd60:	ed911b24 	vldr	d1, [r1, #144]	; 0x90
  10bd64:	ed8c2b26 	vstr	d2, [ip, #152]	; 0x98
  10bd68:	ed912b26 	vldr	d2, [r1, #152]	; 0x98
  10bd6c:	ed8c5b28 	vstr	d5, [ip, #160]	; 0xa0
  10bd70:	ed8c0b2a 	vstr	d0, [ip, #168]	; 0xa8
  10bd74:	ed910b2a 	vldr	d0, [r1, #168]	; 0xa8
  10bd78:	ed8c1b2c 	vstr	d1, [ip, #176]	; 0xb0
  10bd7c:	ed911b2c 	vldr	d1, [r1, #176]	; 0xb0
  10bd80:	ed8c2b2e 	vstr	d2, [ip, #184]	; 0xb8
  10bd84:	ed912b2e 	vldr	d2, [r1, #184]	; 0xb8
  10bd88:	e28110c0 	add	r1, r1, #192	; 0xc0
  10bd8c:	e28cc0c0 	add	ip, ip, #192	; 0xc0
  10bd90:	ed8c6b00 	vstr	d6, [ip]
  10bd94:	ed916b00 	vldr	d6, [r1]
  10bd98:	ed8c0b02 	vstr	d0, [ip, #8]
  10bd9c:	ed910b02 	vldr	d0, [r1, #8]
  10bda0:	ed8c1b04 	vstr	d1, [ip, #16]
  10bda4:	ed911b04 	vldr	d1, [r1, #16]
  10bda8:	ed8c2b06 	vstr	d2, [ip, #24]
  10bdac:	ed912b06 	vldr	d2, [r1, #24]
  10bdb0:	ed8c6b08 	vstr	d6, [ip, #32]
  10bdb4:	ed8c0b0a 	vstr	d0, [ip, #40]	; 0x28
  10bdb8:	ed910b0a 	vldr	d0, [r1, #40]	; 0x28
  10bdbc:	ed8c1b0c 	vstr	d1, [ip, #48]	; 0x30
  10bdc0:	ed911b0c 	vldr	d1, [r1, #48]	; 0x30
  10bdc4:	ed8c2b0e 	vstr	d2, [ip, #56]	; 0x38
  10bdc8:	ed912b0e 	vldr	d2, [r1, #56]	; 0x38
  10bdcc:	ed8c7b10 	vstr	d7, [ip, #64]	; 0x40
  10bdd0:	ed917b10 	vldr	d7, [r1, #64]	; 0x40
  10bdd4:	ed8c0b12 	vstr	d0, [ip, #72]	; 0x48
  10bdd8:	ed910b12 	vldr	d0, [r1, #72]	; 0x48
  10bddc:	ed8c1b14 	vstr	d1, [ip, #80]	; 0x50
  10bde0:	ed911b14 	vldr	d1, [r1, #80]	; 0x50
  10bde4:	ed8c2b16 	vstr	d2, [ip, #88]	; 0x58
  10bde8:	ed912b16 	vldr	d2, [r1, #88]	; 0x58
  10bdec:	ed8c7b18 	vstr	d7, [ip, #96]	; 0x60
  10bdf0:	e2811060 	add	r1, r1, #96	; 0x60
  10bdf4:	ed8c0b1a 	vstr	d0, [ip, #104]	; 0x68
  10bdf8:	ed8c1b1c 	vstr	d1, [ip, #112]	; 0x70
  10bdfc:	ed8c2b1e 	vstr	d2, [ip, #120]	; 0x78
  10be00:	e28cc080 	add	ip, ip, #128	; 0x80
  10be04:	e28aad05 	add	sl, sl, #320	; 0x140
  10be08:	eaffff1d 	b	10ba84 <memcpy+0x104>
  10be0c:	f5d1f000 	pld	[r1]
  10be10:	f5d1f040 	pld	[r1, #64]	; 0x40
  10be14:	e1b0ae8c 	lsls	sl, ip, #29
  10be18:	f5d1f080 	pld	[r1, #128]	; 0x80
  10be1c:	0a000008 	beq	10be44 <memcpy+0x4c4>
  10be20:	e27aa000 	rsbs	sl, sl, #0
  10be24:	e0422eaa 	sub	r2, r2, sl, lsr #29
  10be28:	44913004 	ldrmi	r3, [r1], #4
  10be2c:	448c3004 	strmi	r3, [ip], #4
  10be30:	e1b0a10a 	lsls	sl, sl, #2
  10be34:	14d13001 	ldrbne	r3, [r1], #1
  10be38:	20d1a0b2 	ldrhcs	sl, [r1], #2
  10be3c:	14cc3001 	strbne	r3, [ip], #1
  10be40:	20cca0b2 	strhcs	sl, [ip], #2
  10be44:	f5d1f0c0 	pld	[r1, #192]	; 0xc0
  10be48:	e2522040 	subs	r2, r2, #64	; 0x40
  10be4c:	449da020 	ldrmi	sl, [sp], #32
  10be50:	4afffecd 	bmi	10b98c <memcpy+0xc>
  10be54:	f5d1f100 	pld	[r1, #256]	; 0x100
  10be58:	e2411004 	sub	r1, r1, #4
  10be5c:	e24cc008 	sub	ip, ip, #8
  10be60:	e252a040 	subs	sl, r2, #64	; 0x40
  10be64:	e5912004 	ldr	r2, [r1, #4]
  10be68:	e5913008 	ldr	r3, [r1, #8]
  10be6c:	e1cd40f8 	strd	r4, [sp, #8]
  10be70:	e591400c 	ldr	r4, [r1, #12]
  10be74:	e5915010 	ldr	r5, [r1, #16]
  10be78:	e1cd61f0 	strd	r6, [sp, #16]
  10be7c:	e5916014 	ldr	r6, [r1, #20]
  10be80:	e5917018 	ldr	r7, [r1, #24]
  10be84:	e1cd81f8 	strd	r8, [sp, #24]
  10be88:	e591801c 	ldr	r8, [r1, #28]
  10be8c:	e5b19020 	ldr	r9, [r1, #32]!
  10be90:	ea000018 	b	10bef8 <memcpy+0x578>
  10be94:	e1a00000 	nop			; (mov r0, r0)
  10be98:	e1a00000 	nop			; (mov r0, r0)
  10be9c:	e1a00000 	nop			; (mov r0, r0)
  10bea0:	e1a00000 	nop			; (mov r0, r0)
  10bea4:	e1a00000 	nop			; (mov r0, r0)
  10bea8:	e1a00000 	nop			; (mov r0, r0)
  10beac:	e1a00000 	nop			; (mov r0, r0)
  10beb0:	e1a00000 	nop			; (mov r0, r0)
  10beb4:	e1a00000 	nop			; (mov r0, r0)
  10beb8:	e1a00000 	nop			; (mov r0, r0)
  10bebc:	e1a00000 	nop			; (mov r0, r0)
  10bec0:	f5d1f124 	pld	[r1, #292]	; 0x124
  10bec4:	e1cc22f8 	strd	r2, [ip, #40]	; 0x28
  10bec8:	e5912024 	ldr	r2, [r1, #36]	; 0x24
  10becc:	e5913028 	ldr	r3, [r1, #40]	; 0x28
  10bed0:	e1cc43f0 	strd	r4, [ip, #48]	; 0x30
  10bed4:	e591402c 	ldr	r4, [r1, #44]	; 0x2c
  10bed8:	e5915030 	ldr	r5, [r1, #48]	; 0x30
  10bedc:	e1cc63f8 	strd	r6, [ip, #56]	; 0x38
  10bee0:	e5916034 	ldr	r6, [r1, #52]	; 0x34
  10bee4:	e5917038 	ldr	r7, [r1, #56]	; 0x38
  10bee8:	e1ec84f0 	strd	r8, [ip, #64]!	; 0x40
  10beec:	e591803c 	ldr	r8, [r1, #60]	; 0x3c
  10bef0:	e5b19040 	ldr	r9, [r1, #64]!	; 0x40
  10bef4:	e25aa040 	subs	sl, sl, #64	; 0x40
  10bef8:	e1cc20f8 	strd	r2, [ip, #8]
  10befc:	e5912004 	ldr	r2, [r1, #4]
  10bf00:	e5913008 	ldr	r3, [r1, #8]
  10bf04:	e1cc41f0 	strd	r4, [ip, #16]
  10bf08:	e591400c 	ldr	r4, [r1, #12]
  10bf0c:	e5915010 	ldr	r5, [r1, #16]
  10bf10:	e1cc61f8 	strd	r6, [ip, #24]
  10bf14:	e5916014 	ldr	r6, [r1, #20]
  10bf18:	e5917018 	ldr	r7, [r1, #24]
  10bf1c:	e1cc82f0 	strd	r8, [ip, #32]
  10bf20:	e591801c 	ldr	r8, [r1, #28]
  10bf24:	e5919020 	ldr	r9, [r1, #32]
  10bf28:	2affffe4 	bcs	10bec0 <memcpy+0x540>
  10bf2c:	e1cc22f8 	strd	r2, [ip, #40]	; 0x28
  10bf30:	e2811024 	add	r1, r1, #36	; 0x24
  10bf34:	e1cc43f0 	strd	r4, [ip, #48]	; 0x30
  10bf38:	e1cd40d8 	ldrd	r4, [sp, #8]
  10bf3c:	e1cc63f8 	strd	r6, [ip, #56]	; 0x38
  10bf40:	e1cd61d0 	ldrd	r6, [sp, #16]
  10bf44:	e1cc84f0 	strd	r8, [ip, #64]	; 0x40
  10bf48:	e1cd81d8 	ldrd	r8, [sp, #24]
  10bf4c:	e28cc048 	add	ip, ip, #72	; 0x48
  10bf50:	e21a203f 	ands	r2, sl, #63	; 0x3f
  10bf54:	e49da020 	ldr	sl, [sp], #32
  10bf58:	1afffe8b 	bne	10b98c <memcpy+0xc>
  10bf5c:	e12fff1e 	bx	lr
  10bf60:	e1a00000 	nop			; (mov r0, r0)
  10bf64:	e1a00000 	nop			; (mov r0, r0)
  10bf68:	e1a00000 	nop			; (mov r0, r0)
  10bf6c:	e1a00000 	nop			; (mov r0, r0)
  10bf70:	e1a00000 	nop			; (mov r0, r0)
  10bf74:	e1a00000 	nop			; (mov r0, r0)
  10bf78:	e1a00000 	nop			; (mov r0, r0)
  10bf7c:	e1a00000 	nop			; (mov r0, r0)

0010bf80 <memmove>:
  10bf80:	e1500001 	cmp	r0, r1
  10bf84:	e92d4030 	push	{r4, r5, lr}
  10bf88:	9a00000b 	bls	10bfbc <memmove+0x3c>
  10bf8c:	e0813002 	add	r3, r1, r2
  10bf90:	e1500003 	cmp	r0, r3
  10bf94:	2a000008 	bcs	10bfbc <memmove+0x3c>
  10bf98:	e3520000 	cmp	r2, #0
  10bf9c:	e0801002 	add	r1, r0, r2
  10bfa0:	08bd8030 	popeq	{r4, r5, pc}
  10bfa4:	e0622003 	rsb	r2, r2, r3
  10bfa8:	e573c001 	ldrb	ip, [r3, #-1]!
  10bfac:	e1530002 	cmp	r3, r2
  10bfb0:	e561c001 	strb	ip, [r1, #-1]!
  10bfb4:	1afffffb 	bne	10bfa8 <memmove+0x28>
  10bfb8:	e8bd8030 	pop	{r4, r5, pc}
  10bfbc:	e352000f 	cmp	r2, #15
  10bfc0:	8a000009 	bhi	10bfec <memmove+0x6c>
  10bfc4:	e1a03000 	mov	r3, r0
  10bfc8:	e3520000 	cmp	r2, #0
  10bfcc:	08bd8030 	popeq	{r4, r5, pc}
  10bfd0:	e2433001 	sub	r3, r3, #1
  10bfd4:	e0812002 	add	r2, r1, r2
  10bfd8:	e4d1c001 	ldrb	ip, [r1], #1
  10bfdc:	e1510002 	cmp	r1, r2
  10bfe0:	e5e3c001 	strb	ip, [r3, #1]!
  10bfe4:	1afffffb 	bne	10bfd8 <memmove+0x58>
  10bfe8:	e8bd8030 	pop	{r4, r5, pc}
  10bfec:	e1803001 	orr	r3, r0, r1
  10bff0:	e3130003 	tst	r3, #3
  10bff4:	1a000026 	bne	10c094 <memmove+0x114>
  10bff8:	e2423010 	sub	r3, r2, #16
  10bffc:	e280c010 	add	ip, r0, #16
  10c000:	e281e010 	add	lr, r1, #16
  10c004:	e1a03223 	lsr	r3, r3, #4
  10c008:	e2835002 	add	r5, r3, #2
  10c00c:	e0805205 	add	r5, r0, r5, lsl #4
  10c010:	e51e4010 	ldr	r4, [lr, #-16]
  10c014:	e28cc010 	add	ip, ip, #16
  10c018:	e28ee010 	add	lr, lr, #16
  10c01c:	e50c4020 	str	r4, [ip, #-32]	; 0xffffffe0
  10c020:	e51e401c 	ldr	r4, [lr, #-28]	; 0xffffffe4
  10c024:	e50c401c 	str	r4, [ip, #-28]	; 0xffffffe4
  10c028:	e51e4018 	ldr	r4, [lr, #-24]	; 0xffffffe8
  10c02c:	e50c4018 	str	r4, [ip, #-24]	; 0xffffffe8
  10c030:	e51e4014 	ldr	r4, [lr, #-20]	; 0xffffffec
  10c034:	e50c4014 	str	r4, [ip, #-20]	; 0xffffffec
  10c038:	e15c0005 	cmp	ip, r5
  10c03c:	1afffff3 	bne	10c010 <memmove+0x90>
  10c040:	e2833001 	add	r3, r3, #1
  10c044:	e202e00f 	and	lr, r2, #15
  10c048:	e35e0003 	cmp	lr, #3
  10c04c:	e1a03203 	lsl	r3, r3, #4
  10c050:	e081c003 	add	ip, r1, r3
  10c054:	e0803003 	add	r3, r0, r3
  10c058:	9a00000f 	bls	10c09c <memmove+0x11c>
  10c05c:	e24e5004 	sub	r5, lr, #4
  10c060:	e243e004 	sub	lr, r3, #4
  10c064:	e3c55003 	bic	r5, r5, #3
  10c068:	e2855004 	add	r5, r5, #4
  10c06c:	e08c1005 	add	r1, ip, r5
  10c070:	e49c4004 	ldr	r4, [ip], #4
  10c074:	e15c0001 	cmp	ip, r1
  10c078:	e5ae4004 	str	r4, [lr, #4]!
  10c07c:	1afffffb 	bne	10c070 <memmove+0xf0>
  10c080:	e2022003 	and	r2, r2, #3
  10c084:	e0833005 	add	r3, r3, r5
  10c088:	e3520000 	cmp	r2, #0
  10c08c:	1affffcf 	bne	10bfd0 <memmove+0x50>
  10c090:	e8bd8030 	pop	{r4, r5, pc}
  10c094:	e1a03000 	mov	r3, r0
  10c098:	eaffffcc 	b	10bfd0 <memmove+0x50>
  10c09c:	e1a0100c 	mov	r1, ip
  10c0a0:	e1a0200e 	mov	r2, lr
  10c0a4:	eaffffc7 	b	10bfc8 <memmove+0x48>

0010c0a8 <memset>:
  10c0a8:	e3100003 	tst	r0, #3
  10c0ac:	e92d4030 	push	{r4, r5, lr}
  10c0b0:	0a000034 	beq	10c188 <memset+0xe0>
  10c0b4:	e3520000 	cmp	r2, #0
  10c0b8:	e2422001 	sub	r2, r2, #1
  10c0bc:	08bd8030 	popeq	{r4, r5, pc}
  10c0c0:	e6efe071 	uxtb	lr, r1
  10c0c4:	e1a03000 	mov	r3, r0
  10c0c8:	ea000002 	b	10c0d8 <memset+0x30>
  10c0cc:	e3520000 	cmp	r2, #0
  10c0d0:	e1a0200c 	mov	r2, ip
  10c0d4:	08bd8030 	popeq	{r4, r5, pc}
  10c0d8:	e4c3e001 	strb	lr, [r3], #1
  10c0dc:	e3130003 	tst	r3, #3
  10c0e0:	e242c001 	sub	ip, r2, #1
  10c0e4:	1afffff8 	bne	10c0cc <memset+0x24>
  10c0e8:	e3520003 	cmp	r2, #3
  10c0ec:	9a00001d 	bls	10c168 <memset+0xc0>
  10c0f0:	e6efe071 	uxtb	lr, r1
  10c0f4:	e352000f 	cmp	r2, #15
  10c0f8:	e18ee40e 	orr	lr, lr, lr, lsl #8
  10c0fc:	e18ee80e 	orr	lr, lr, lr, lsl #16
  10c100:	9a000022 	bls	10c190 <memset+0xe8>
  10c104:	e2424010 	sub	r4, r2, #16
  10c108:	e283c010 	add	ip, r3, #16
  10c10c:	e1a04224 	lsr	r4, r4, #4
  10c110:	e2845002 	add	r5, r4, #2
  10c114:	e0835205 	add	r5, r3, r5, lsl #4
  10c118:	e50ce010 	str	lr, [ip, #-16]
  10c11c:	e28cc010 	add	ip, ip, #16
  10c120:	e50ce01c 	str	lr, [ip, #-28]	; 0xffffffe4
  10c124:	e50ce018 	str	lr, [ip, #-24]	; 0xffffffe8
  10c128:	e50ce014 	str	lr, [ip, #-20]	; 0xffffffec
  10c12c:	e15c0005 	cmp	ip, r5
  10c130:	1afffff8 	bne	10c118 <memset+0x70>
  10c134:	e202200f 	and	r2, r2, #15
  10c138:	e284c001 	add	ip, r4, #1
  10c13c:	e3520003 	cmp	r2, #3
  10c140:	e083c20c 	add	ip, r3, ip, lsl #4
  10c144:	9a000013 	bls	10c198 <memset+0xf0>
  10c148:	e2423004 	sub	r3, r2, #4
  10c14c:	e3c33003 	bic	r3, r3, #3
  10c150:	e2833004 	add	r3, r3, #4
  10c154:	e08c3003 	add	r3, ip, r3
  10c158:	e48ce004 	str	lr, [ip], #4
  10c15c:	e15c0003 	cmp	ip, r3
  10c160:	1afffffc 	bne	10c158 <memset+0xb0>
  10c164:	e2022003 	and	r2, r2, #3
  10c168:	e3520000 	cmp	r2, #0
  10c16c:	08bd8030 	popeq	{r4, r5, pc}
  10c170:	e6ef1071 	uxtb	r1, r1
  10c174:	e0832002 	add	r2, r3, r2
  10c178:	e4c31001 	strb	r1, [r3], #1
  10c17c:	e1530002 	cmp	r3, r2
  10c180:	1afffffc 	bne	10c178 <memset+0xd0>
  10c184:	e8bd8030 	pop	{r4, r5, pc}
  10c188:	e1a03000 	mov	r3, r0
  10c18c:	eaffffd5 	b	10c0e8 <memset+0x40>
  10c190:	e1a0c003 	mov	ip, r3
  10c194:	eaffffeb 	b	10c148 <memset+0xa0>
  10c198:	e1a0300c 	mov	r3, ip
  10c19c:	eafffff1 	b	10c168 <memset+0xc0>

0010c1a0 <_Balloc>:
  10c1a0:	e590204c 	ldr	r2, [r0, #76]	; 0x4c
  10c1a4:	e92d4070 	push	{r4, r5, r6, lr}
  10c1a8:	e3520000 	cmp	r2, #0
  10c1ac:	e1a05000 	mov	r5, r0
  10c1b0:	e1a04001 	mov	r4, r1
  10c1b4:	0a000009 	beq	10c1e0 <_Balloc+0x40>
  10c1b8:	e7923104 	ldr	r3, [r2, r4, lsl #2]
  10c1bc:	e3530000 	cmp	r3, #0
  10c1c0:	0a00000f 	beq	10c204 <_Balloc+0x64>
  10c1c4:	e5931000 	ldr	r1, [r3]
  10c1c8:	e7821104 	str	r1, [r2, r4, lsl #2]
  10c1cc:	e3a02000 	mov	r2, #0
  10c1d0:	e1a00003 	mov	r0, r3
  10c1d4:	e5832010 	str	r2, [r3, #16]
  10c1d8:	e583200c 	str	r2, [r3, #12]
  10c1dc:	e8bd8070 	pop	{r4, r5, r6, pc}
  10c1e0:	e3a02021 	mov	r2, #33	; 0x21
  10c1e4:	e3a01004 	mov	r1, #4
  10c1e8:	eb000f2e 	bl	10fea8 <_calloc_r>
  10c1ec:	e3500000 	cmp	r0, #0
  10c1f0:	e585004c 	str	r0, [r5, #76]	; 0x4c
  10c1f4:	11a02000 	movne	r2, r0
  10c1f8:	1affffee 	bne	10c1b8 <_Balloc+0x18>
  10c1fc:	e3a00000 	mov	r0, #0
  10c200:	e8bd8070 	pop	{r4, r5, r6, pc}
  10c204:	e3a01001 	mov	r1, #1
  10c208:	e1a00005 	mov	r0, r5
  10c20c:	e1a05411 	lsl	r5, r1, r4
  10c210:	e2852005 	add	r2, r5, #5
  10c214:	e1a02102 	lsl	r2, r2, #2
  10c218:	eb000f22 	bl	10fea8 <_calloc_r>
  10c21c:	e2503000 	subs	r3, r0, #0
  10c220:	0afffff5 	beq	10c1fc <_Balloc+0x5c>
  10c224:	e9830030 	stmib	r3, {r4, r5}
  10c228:	eaffffe7 	b	10c1cc <_Balloc+0x2c>

0010c22c <_Bfree>:
  10c22c:	e3510000 	cmp	r1, #0
  10c230:	1590304c 	ldrne	r3, [r0, #76]	; 0x4c
  10c234:	15912004 	ldrne	r2, [r1, #4]
  10c238:	17930102 	ldrne	r0, [r3, r2, lsl #2]
  10c23c:	15810000 	strne	r0, [r1]
  10c240:	17831102 	strne	r1, [r3, r2, lsl #2]
  10c244:	e12fff1e 	bx	lr

0010c248 <__multadd>:
  10c248:	e92d40f0 	push	{r4, r5, r6, r7, lr}
  10c24c:	e1a05001 	mov	r5, r1
  10c250:	e5954010 	ldr	r4, [r5, #16]
  10c254:	e24dd00c 	sub	sp, sp, #12
  10c258:	e2811014 	add	r1, r1, #20
  10c25c:	e1a06000 	mov	r6, r0
  10c260:	e3a00000 	mov	r0, #0
  10c264:	e591e000 	ldr	lr, [r1]
  10c268:	e2800001 	add	r0, r0, #1
  10c26c:	e1540000 	cmp	r4, r0
  10c270:	e6ffc07e 	uxth	ip, lr
  10c274:	e1a0e82e 	lsr	lr, lr, #16
  10c278:	e0233c92 	mla	r3, r2, ip, r3
  10c27c:	e00c0e92 	mul	ip, r2, lr
  10c280:	e08cc823 	add	ip, ip, r3, lsr #16
  10c284:	e6ff3073 	uxth	r3, r3
  10c288:	e083e80c 	add	lr, r3, ip, lsl #16
  10c28c:	e1a0382c 	lsr	r3, ip, #16
  10c290:	e481e004 	str	lr, [r1], #4
  10c294:	cafffff2 	bgt	10c264 <__multadd+0x1c>
  10c298:	e3530000 	cmp	r3, #0
  10c29c:	0a000006 	beq	10c2bc <__multadd+0x74>
  10c2a0:	e5952008 	ldr	r2, [r5, #8]
  10c2a4:	e1540002 	cmp	r4, r2
  10c2a8:	aa000006 	bge	10c2c8 <__multadd+0x80>
  10c2ac:	e0852104 	add	r2, r5, r4, lsl #2
  10c2b0:	e2844001 	add	r4, r4, #1
  10c2b4:	e5823014 	str	r3, [r2, #20]
  10c2b8:	e5854010 	str	r4, [r5, #16]
  10c2bc:	e1a00005 	mov	r0, r5
  10c2c0:	e28dd00c 	add	sp, sp, #12
  10c2c4:	e8bd80f0 	pop	{r4, r5, r6, r7, pc}
  10c2c8:	e5951004 	ldr	r1, [r5, #4]
  10c2cc:	e1a00006 	mov	r0, r6
  10c2d0:	e58d3004 	str	r3, [sp, #4]
  10c2d4:	e2811001 	add	r1, r1, #1
  10c2d8:	ebffffb0 	bl	10c1a0 <_Balloc>
  10c2dc:	e5952010 	ldr	r2, [r5, #16]
  10c2e0:	e285100c 	add	r1, r5, #12
  10c2e4:	e2822002 	add	r2, r2, #2
  10c2e8:	e1a02102 	lsl	r2, r2, #2
  10c2ec:	e1a07000 	mov	r7, r0
  10c2f0:	e280000c 	add	r0, r0, #12
  10c2f4:	ebfffda1 	bl	10b980 <memcpy>
  10c2f8:	e596204c 	ldr	r2, [r6, #76]	; 0x4c
  10c2fc:	e5951004 	ldr	r1, [r5, #4]
  10c300:	e59d3004 	ldr	r3, [sp, #4]
  10c304:	e7920101 	ldr	r0, [r2, r1, lsl #2]
  10c308:	e5850000 	str	r0, [r5]
  10c30c:	e7825101 	str	r5, [r2, r1, lsl #2]
  10c310:	e1a05007 	mov	r5, r7
  10c314:	eaffffe4 	b	10c2ac <__multadd+0x64>

0010c318 <__s2b>:
  10c318:	e92d47f0 	push	{r4, r5, r6, r7, r8, r9, sl, lr}
  10c31c:	e308ce39 	movw	ip, #36409	; 0x8e39
  10c320:	e1a06003 	mov	r6, r3
  10c324:	e2833008 	add	r3, r3, #8
  10c328:	e343c8e3 	movt	ip, #14563	; 0x38e3
  10c32c:	e1a05000 	mov	r5, r0
  10c330:	e1a04001 	mov	r4, r1
  10c334:	e1a07002 	mov	r7, r2
  10c338:	e0c10c93 	smull	r0, r1, r3, ip
  10c33c:	e1a03fc3 	asr	r3, r3, #31
  10c340:	e59d8020 	ldr	r8, [sp, #32]
  10c344:	e06330c1 	rsb	r3, r3, r1, asr #1
  10c348:	e3530001 	cmp	r3, #1
  10c34c:	da000028 	ble	10c3f4 <__s2b+0xdc>
  10c350:	e3a0c001 	mov	ip, #1
  10c354:	e3a01000 	mov	r1, #0
  10c358:	e1a0c08c 	lsl	ip, ip, #1
  10c35c:	e2811001 	add	r1, r1, #1
  10c360:	e153000c 	cmp	r3, ip
  10c364:	cafffffb 	bgt	10c358 <__s2b+0x40>
  10c368:	e1a00005 	mov	r0, r5
  10c36c:	ebffff8b 	bl	10c1a0 <_Balloc>
  10c370:	e3570009 	cmp	r7, #9
  10c374:	e3a03001 	mov	r3, #1
  10c378:	d284400a 	addle	r4, r4, #10
  10c37c:	d3a07009 	movle	r7, #9
  10c380:	e5808014 	str	r8, [r0, #20]
  10c384:	e5803010 	str	r3, [r0, #16]
  10c388:	da00000c 	ble	10c3c0 <__s2b+0xa8>
  10c38c:	e2849009 	add	r9, r4, #9
  10c390:	e0844007 	add	r4, r4, r7
  10c394:	e1a08009 	mov	r8, r9
  10c398:	e4d83001 	ldrb	r3, [r8], #1
  10c39c:	e1a01000 	mov	r1, r0
  10c3a0:	e3a0200a 	mov	r2, #10
  10c3a4:	e1a00005 	mov	r0, r5
  10c3a8:	e2433030 	sub	r3, r3, #48	; 0x30
  10c3ac:	ebffffa5 	bl	10c248 <__multadd>
  10c3b0:	e1580004 	cmp	r8, r4
  10c3b4:	1afffff7 	bne	10c398 <__s2b+0x80>
  10c3b8:	e0894007 	add	r4, r9, r7
  10c3bc:	e2444008 	sub	r4, r4, #8
  10c3c0:	e1560007 	cmp	r6, r7
  10c3c4:	d8bd87f0 	pople	{r4, r5, r6, r7, r8, r9, sl, pc}
  10c3c8:	e0676006 	rsb	r6, r7, r6
  10c3cc:	e0846006 	add	r6, r4, r6
  10c3d0:	e4d43001 	ldrb	r3, [r4], #1
  10c3d4:	e1a01000 	mov	r1, r0
  10c3d8:	e3a0200a 	mov	r2, #10
  10c3dc:	e1a00005 	mov	r0, r5
  10c3e0:	e2433030 	sub	r3, r3, #48	; 0x30
  10c3e4:	ebffff97 	bl	10c248 <__multadd>
  10c3e8:	e1540006 	cmp	r4, r6
  10c3ec:	1afffff7 	bne	10c3d0 <__s2b+0xb8>
  10c3f0:	e8bd87f0 	pop	{r4, r5, r6, r7, r8, r9, sl, pc}
  10c3f4:	e3a01000 	mov	r1, #0
  10c3f8:	eaffffda 	b	10c368 <__s2b+0x50>

0010c3fc <__hi0bits>:
  10c3fc:	e1a03820 	lsr	r3, r0, #16
  10c400:	e1a03803 	lsl	r3, r3, #16
  10c404:	e3530000 	cmp	r3, #0
  10c408:	01a00800 	lsleq	r0, r0, #16
  10c40c:	03a03010 	moveq	r3, #16
  10c410:	13a03000 	movne	r3, #0
  10c414:	e31004ff 	tst	r0, #-16777216	; 0xff000000
  10c418:	01a00400 	lsleq	r0, r0, #8
  10c41c:	02833008 	addeq	r3, r3, #8
  10c420:	e310020f 	tst	r0, #-268435456	; 0xf0000000
  10c424:	01a00200 	lsleq	r0, r0, #4
  10c428:	02833004 	addeq	r3, r3, #4
  10c42c:	e3100103 	tst	r0, #-1073741824	; 0xc0000000
  10c430:	01a00100 	lsleq	r0, r0, #2
  10c434:	02833002 	addeq	r3, r3, #2
  10c438:	e3500000 	cmp	r0, #0
  10c43c:	ba000005 	blt	10c458 <__hi0bits+0x5c>
  10c440:	e3100101 	tst	r0, #1073741824	; 0x40000000
  10c444:	1a000001 	bne	10c450 <__hi0bits+0x54>
  10c448:	e3a00020 	mov	r0, #32
  10c44c:	e12fff1e 	bx	lr
  10c450:	e2830001 	add	r0, r3, #1
  10c454:	e12fff1e 	bx	lr
  10c458:	e1a00003 	mov	r0, r3
  10c45c:	e12fff1e 	bx	lr

0010c460 <__lo0bits>:
  10c460:	e5903000 	ldr	r3, [r0]
  10c464:	e2132007 	ands	r2, r3, #7
  10c468:	0a00000a 	beq	10c498 <__lo0bits+0x38>
  10c46c:	e3130001 	tst	r3, #1
  10c470:	13a02000 	movne	r2, #0
  10c474:	1a000005 	bne	10c490 <__lo0bits+0x30>
  10c478:	e3130002 	tst	r3, #2
  10c47c:	11a030a3 	lsrne	r3, r3, #1
  10c480:	01a03123 	lsreq	r3, r3, #2
  10c484:	13a02001 	movne	r2, #1
  10c488:	03a02002 	moveq	r2, #2
  10c48c:	e5803000 	str	r3, [r0]
  10c490:	e1a00002 	mov	r0, r2
  10c494:	e12fff1e 	bx	lr
  10c498:	e6ff1073 	uxth	r1, r3
  10c49c:	e3510000 	cmp	r1, #0
  10c4a0:	01a03823 	lsreq	r3, r3, #16
  10c4a4:	03a02010 	moveq	r2, #16
  10c4a8:	e31300ff 	tst	r3, #255	; 0xff
  10c4ac:	01a03423 	lsreq	r3, r3, #8
  10c4b0:	02822008 	addeq	r2, r2, #8
  10c4b4:	e313000f 	tst	r3, #15
  10c4b8:	01a03223 	lsreq	r3, r3, #4
  10c4bc:	02822004 	addeq	r2, r2, #4
  10c4c0:	e3130003 	tst	r3, #3
  10c4c4:	01a03123 	lsreq	r3, r3, #2
  10c4c8:	02822002 	addeq	r2, r2, #2
  10c4cc:	e3130001 	tst	r3, #1
  10c4d0:	1a000003 	bne	10c4e4 <__lo0bits+0x84>
  10c4d4:	e1b030a3 	lsrs	r3, r3, #1
  10c4d8:	03a02020 	moveq	r2, #32
  10c4dc:	0affffeb 	beq	10c490 <__lo0bits+0x30>
  10c4e0:	e2822001 	add	r2, r2, #1
  10c4e4:	e5803000 	str	r3, [r0]
  10c4e8:	e1a00002 	mov	r0, r2
  10c4ec:	e12fff1e 	bx	lr

0010c4f0 <__i2b>:
  10c4f0:	e92d4010 	push	{r4, lr}
  10c4f4:	e1a04001 	mov	r4, r1
  10c4f8:	e3a01001 	mov	r1, #1
  10c4fc:	ebffff27 	bl	10c1a0 <_Balloc>
  10c500:	e3a02001 	mov	r2, #1
  10c504:	e5804014 	str	r4, [r0, #20]
  10c508:	e5802010 	str	r2, [r0, #16]
  10c50c:	e8bd8010 	pop	{r4, pc}

0010c510 <__multiply>:
  10c510:	e92d4ff0 	push	{r4, r5, r6, r7, r8, r9, sl, fp, lr}
  10c514:	e1a05001 	mov	r5, r1
  10c518:	e5916010 	ldr	r6, [r1, #16]
  10c51c:	e1a04002 	mov	r4, r2
  10c520:	e5928010 	ldr	r8, [r2, #16]
  10c524:	e24dd014 	sub	sp, sp, #20
  10c528:	e1560008 	cmp	r6, r8
  10c52c:	a1a03008 	movge	r3, r8
  10c530:	b1a03001 	movlt	r3, r1
  10c534:	b1a05002 	movlt	r5, r2
  10c538:	a1a08006 	movge	r8, r6
  10c53c:	b1a04003 	movlt	r4, r3
  10c540:	a1a06003 	movge	r6, r3
  10c544:	e5953008 	ldr	r3, [r5, #8]
  10c548:	e0889006 	add	r9, r8, r6
  10c54c:	e5951004 	ldr	r1, [r5, #4]
  10c550:	e1590003 	cmp	r9, r3
  10c554:	c2811001 	addgt	r1, r1, #1
  10c558:	ebffff10 	bl	10c1a0 <_Balloc>
  10c55c:	e280a014 	add	sl, r0, #20
  10c560:	e1a03000 	mov	r3, r0
  10c564:	e08ab109 	add	fp, sl, r9, lsl #2
  10c568:	e58d0004 	str	r0, [sp, #4]
  10c56c:	e15a000b 	cmp	sl, fp
  10c570:	31a0300a 	movcc	r3, sl
  10c574:	33a00000 	movcc	r0, #0
  10c578:	2a000002 	bcs	10c588 <__multiply+0x78>
  10c57c:	e4830004 	str	r0, [r3], #4
  10c580:	e15b0003 	cmp	fp, r3
  10c584:	8afffffc 	bhi	10c57c <__multiply+0x6c>
  10c588:	e2842014 	add	r2, r4, #20
  10c58c:	e2853014 	add	r3, r5, #20
  10c590:	e0821106 	add	r1, r2, r6, lsl #2
  10c594:	e0838108 	add	r8, r3, r8, lsl #2
  10c598:	e1520001 	cmp	r2, r1
  10c59c:	358db008 	strcc	fp, [sp, #8]
  10c5a0:	358d900c 	strcc	r9, [sp, #12]
  10c5a4:	31a0b001 	movcc	fp, r1
  10c5a8:	31a09003 	movcc	r9, r3
  10c5ac:	2a00003d 	bcs	10c6a8 <__multiply+0x198>
  10c5b0:	e4925004 	ldr	r5, [r2], #4
  10c5b4:	e6ff7075 	uxth	r7, r5
  10c5b8:	e3570000 	cmp	r7, #0
  10c5bc:	0a000018 	beq	10c624 <__multiply+0x114>
  10c5c0:	e3a01000 	mov	r1, #0
  10c5c4:	e1a06009 	mov	r6, r9
  10c5c8:	e1a0500a 	mov	r5, sl
  10c5cc:	e1a04001 	mov	r4, r1
  10c5d0:	ea000000 	b	10c5d8 <__multiply+0xc8>
  10c5d4:	e1a0500c 	mov	r5, ip
  10c5d8:	e496e004 	ldr	lr, [r6], #4
  10c5dc:	e1a0c005 	mov	ip, r5
  10c5e0:	e5951000 	ldr	r1, [r5]
  10c5e4:	e1580006 	cmp	r8, r6
  10c5e8:	e6ff007e 	uxth	r0, lr
  10c5ec:	e1a0e82e 	lsr	lr, lr, #16
  10c5f0:	e6ff3071 	uxth	r3, r1
  10c5f4:	e1a01821 	lsr	r1, r1, #16
  10c5f8:	e0203097 	mla	r0, r7, r0, r3
  10c5fc:	e02e1e97 	mla	lr, r7, lr, r1
  10c600:	e0803004 	add	r3, r0, r4
  10c604:	e08e1823 	add	r1, lr, r3, lsr #16
  10c608:	e6ff0073 	uxth	r0, r3
  10c60c:	e1800801 	orr	r0, r0, r1, lsl #16
  10c610:	e1a04821 	lsr	r4, r1, #16
  10c614:	e48c0004 	str	r0, [ip], #4
  10c618:	8affffed 	bhi	10c5d4 <__multiply+0xc4>
  10c61c:	e5854004 	str	r4, [r5, #4]
  10c620:	e5125004 	ldr	r5, [r2, #-4]
  10c624:	e1b05825 	lsrs	r5, r5, #16
  10c628:	0a000019 	beq	10c694 <__multiply+0x184>
  10c62c:	e59a3000 	ldr	r3, [sl]
  10c630:	e3a06000 	mov	r6, #0
  10c634:	e1a0400a 	mov	r4, sl
  10c638:	e1a0c009 	mov	ip, r9
  10c63c:	e1a07006 	mov	r7, r6
  10c640:	e1a01003 	mov	r1, r3
  10c644:	ea000000 	b	10c64c <__multiply+0x13c>
  10c648:	e1a0400e 	mov	r4, lr
  10c64c:	e1dc60b0 	ldrh	r6, [ip]
  10c650:	e1a01821 	lsr	r1, r1, #16
  10c654:	e6ff0073 	uxth	r0, r3
  10c658:	e1a0e004 	mov	lr, r4
  10c65c:	e0211695 	mla	r1, r5, r6, r1
  10c660:	e0816007 	add	r6, r1, r7
  10c664:	e1803806 	orr	r3, r0, r6, lsl #16
  10c668:	e48e3004 	str	r3, [lr], #4
  10c66c:	e49c0004 	ldr	r0, [ip], #4
  10c670:	e5941004 	ldr	r1, [r4, #4]
  10c674:	e158000c 	cmp	r8, ip
  10c678:	e1a00820 	lsr	r0, r0, #16
  10c67c:	e6ff3071 	uxth	r3, r1
  10c680:	e0203095 	mla	r0, r5, r0, r3
  10c684:	e0803826 	add	r3, r0, r6, lsr #16
  10c688:	e1a07823 	lsr	r7, r3, #16
  10c68c:	8affffed 	bhi	10c648 <__multiply+0x138>
  10c690:	e5843004 	str	r3, [r4, #4]
  10c694:	e15b0002 	cmp	fp, r2
  10c698:	e28aa004 	add	sl, sl, #4
  10c69c:	8affffc3 	bhi	10c5b0 <__multiply+0xa0>
  10c6a0:	e59db008 	ldr	fp, [sp, #8]
  10c6a4:	e59d900c 	ldr	r9, [sp, #12]
  10c6a8:	e3590000 	cmp	r9, #0
  10c6ac:	da000009 	ble	10c6d8 <__multiply+0x1c8>
  10c6b0:	e51b3004 	ldr	r3, [fp, #-4]
  10c6b4:	e24bb004 	sub	fp, fp, #4
  10c6b8:	e3530000 	cmp	r3, #0
  10c6bc:	0a000003 	beq	10c6d0 <__multiply+0x1c0>
  10c6c0:	ea000004 	b	10c6d8 <__multiply+0x1c8>
  10c6c4:	e53b3004 	ldr	r3, [fp, #-4]!
  10c6c8:	e3530000 	cmp	r3, #0
  10c6cc:	1a000001 	bne	10c6d8 <__multiply+0x1c8>
  10c6d0:	e2599001 	subs	r9, r9, #1
  10c6d4:	1afffffa 	bne	10c6c4 <__multiply+0x1b4>
  10c6d8:	e59d3004 	ldr	r3, [sp, #4]
  10c6dc:	e1a00003 	mov	r0, r3
  10c6e0:	e5839010 	str	r9, [r3, #16]
  10c6e4:	e28dd014 	add	sp, sp, #20
  10c6e8:	e8bd8ff0 	pop	{r4, r5, r6, r7, r8, r9, sl, fp, pc}

0010c6ec <__pow5mult>:
  10c6ec:	e2123003 	ands	r3, r2, #3
  10c6f0:	e92d41f0 	push	{r4, r5, r6, r7, r8, lr}
  10c6f4:	e1a04002 	mov	r4, r2
  10c6f8:	e1a07000 	mov	r7, r0
  10c6fc:	e1a06001 	mov	r6, r1
  10c700:	1a000024 	bne	10c798 <__pow5mult+0xac>
  10c704:	e1b04144 	asrs	r4, r4, #2
  10c708:	0a000019 	beq	10c774 <__pow5mult+0x88>
  10c70c:	e5975048 	ldr	r5, [r7, #72]	; 0x48
  10c710:	e3550000 	cmp	r5, #0
  10c714:	0a000027 	beq	10c7b8 <__pow5mult+0xcc>
  10c718:	e3a08000 	mov	r8, #0
  10c71c:	ea000005 	b	10c738 <__pow5mult+0x4c>
  10c720:	e1b040c4 	asrs	r4, r4, #1
  10c724:	0a000012 	beq	10c774 <__pow5mult+0x88>
  10c728:	e5950000 	ldr	r0, [r5]
  10c72c:	e3500000 	cmp	r0, #0
  10c730:	0a000011 	beq	10c77c <__pow5mult+0x90>
  10c734:	e1a05000 	mov	r5, r0
  10c738:	e3140001 	tst	r4, #1
  10c73c:	0afffff7 	beq	10c720 <__pow5mult+0x34>
  10c740:	e1a02005 	mov	r2, r5
  10c744:	e1a01006 	mov	r1, r6
  10c748:	e1a00007 	mov	r0, r7
  10c74c:	ebffff6f 	bl	10c510 <__multiply>
  10c750:	e3560000 	cmp	r6, #0
  10c754:	1596c004 	ldrne	ip, [r6, #4]
  10c758:	1597304c 	ldrne	r3, [r7, #76]	; 0x4c
  10c75c:	1793210c 	ldrne	r2, [r3, ip, lsl #2]
  10c760:	15862000 	strne	r2, [r6]
  10c764:	1783610c 	strne	r6, [r3, ip, lsl #2]
  10c768:	e1b040c4 	asrs	r4, r4, #1
  10c76c:	e1a06000 	mov	r6, r0
  10c770:	1affffec 	bne	10c728 <__pow5mult+0x3c>
  10c774:	e1a00006 	mov	r0, r6
  10c778:	e8bd81f0 	pop	{r4, r5, r6, r7, r8, pc}
  10c77c:	e1a02005 	mov	r2, r5
  10c780:	e1a01005 	mov	r1, r5
  10c784:	e1a00007 	mov	r0, r7
  10c788:	ebffff60 	bl	10c510 <__multiply>
  10c78c:	e5850000 	str	r0, [r5]
  10c790:	e5808000 	str	r8, [r0]
  10c794:	eaffffe6 	b	10c734 <__pow5mult+0x48>
  10c798:	e2432001 	sub	r2, r3, #1
  10c79c:	e306ca48 	movw	ip, #27208	; 0x6a48
  10c7a0:	e340c011 	movt	ip, #17
  10c7a4:	e3a03000 	mov	r3, #0
  10c7a8:	e79c2102 	ldr	r2, [ip, r2, lsl #2]
  10c7ac:	ebfffea5 	bl	10c248 <__multadd>
  10c7b0:	e1a06000 	mov	r6, r0
  10c7b4:	eaffffd2 	b	10c704 <__pow5mult+0x18>
  10c7b8:	e3a01001 	mov	r1, #1
  10c7bc:	e1a00007 	mov	r0, r7
  10c7c0:	ebfffe76 	bl	10c1a0 <_Balloc>
  10c7c4:	e3003271 	movw	r3, #625	; 0x271
  10c7c8:	e3a02001 	mov	r2, #1
  10c7cc:	e5803014 	str	r3, [r0, #20]
  10c7d0:	e1a05000 	mov	r5, r0
  10c7d4:	e3a03000 	mov	r3, #0
  10c7d8:	e5802010 	str	r2, [r0, #16]
  10c7dc:	e5870048 	str	r0, [r7, #72]	; 0x48
  10c7e0:	e5803000 	str	r3, [r0]
  10c7e4:	eaffffcb 	b	10c718 <__pow5mult+0x2c>

0010c7e8 <__lshift>:
  10c7e8:	e92d47f0 	push	{r4, r5, r6, r7, r8, r9, sl, lr}
  10c7ec:	e1a092c2 	asr	r9, r2, #5
  10c7f0:	e5916010 	ldr	r6, [r1, #16]
  10c7f4:	e1a05001 	mov	r5, r1
  10c7f8:	e5913008 	ldr	r3, [r1, #8]
  10c7fc:	e1a0a002 	mov	sl, r2
  10c800:	e0896006 	add	r6, r9, r6
  10c804:	e1a07000 	mov	r7, r0
  10c808:	e2864001 	add	r4, r6, #1
  10c80c:	e5911004 	ldr	r1, [r1, #4]
  10c810:	e1540003 	cmp	r4, r3
  10c814:	da000003 	ble	10c828 <__lshift+0x40>
  10c818:	e1a03083 	lsl	r3, r3, #1
  10c81c:	e2811001 	add	r1, r1, #1
  10c820:	e1540003 	cmp	r4, r3
  10c824:	cafffffb 	bgt	10c818 <__lshift+0x30>
  10c828:	e1a00007 	mov	r0, r7
  10c82c:	ebfffe5b 	bl	10c1a0 <_Balloc>
  10c830:	e3590000 	cmp	r9, #0
  10c834:	e1a08000 	mov	r8, r0
  10c838:	e280e014 	add	lr, r0, #20
  10c83c:	da000007 	ble	10c860 <__lshift+0x78>
  10c840:	e3a03000 	mov	r3, #0
  10c844:	e1a0100e 	mov	r1, lr
  10c848:	e1a02003 	mov	r2, r3
  10c84c:	e2833001 	add	r3, r3, #1
  10c850:	e4812004 	str	r2, [r1], #4
  10c854:	e1530009 	cmp	r3, r9
  10c858:	1afffffb 	bne	10c84c <__lshift+0x64>
  10c85c:	e08ee103 	add	lr, lr, r3, lsl #2
  10c860:	e5951010 	ldr	r1, [r5, #16]
  10c864:	e21aa01f 	ands	sl, sl, #31
  10c868:	e2853014 	add	r3, r5, #20
  10c86c:	e0831101 	add	r1, r3, r1, lsl #2
  10c870:	0a000015 	beq	10c8cc <__lshift+0xe4>
  10c874:	e26a2020 	rsb	r2, sl, #32
  10c878:	e3a0c000 	mov	ip, #0
  10c87c:	e5939000 	ldr	r9, [r3]
  10c880:	e1a0000e 	mov	r0, lr
  10c884:	e18cca19 	orr	ip, ip, r9, lsl sl
  10c888:	e48ec004 	str	ip, [lr], #4
  10c88c:	e493c004 	ldr	ip, [r3], #4
  10c890:	e1510003 	cmp	r1, r3
  10c894:	e1a0c23c 	lsr	ip, ip, r2
  10c898:	8afffff7 	bhi	10c87c <__lshift+0x94>
  10c89c:	e35c0000 	cmp	ip, #0
  10c8a0:	e580c004 	str	ip, [r0, #4]
  10c8a4:	12864002 	addne	r4, r6, #2
  10c8a8:	e597304c 	ldr	r3, [r7, #76]	; 0x4c
  10c8ac:	e2444001 	sub	r4, r4, #1
  10c8b0:	e5952004 	ldr	r2, [r5, #4]
  10c8b4:	e1a00008 	mov	r0, r8
  10c8b8:	e5884010 	str	r4, [r8, #16]
  10c8bc:	e7931102 	ldr	r1, [r3, r2, lsl #2]
  10c8c0:	e5851000 	str	r1, [r5]
  10c8c4:	e7835102 	str	r5, [r3, r2, lsl #2]
  10c8c8:	e8bd87f0 	pop	{r4, r5, r6, r7, r8, r9, sl, pc}
  10c8cc:	e24ee004 	sub	lr, lr, #4
  10c8d0:	e4932004 	ldr	r2, [r3], #4
  10c8d4:	e1510003 	cmp	r1, r3
  10c8d8:	e5ae2004 	str	r2, [lr, #4]!
  10c8dc:	8afffffb 	bhi	10c8d0 <__lshift+0xe8>
  10c8e0:	eafffff0 	b	10c8a8 <__lshift+0xc0>

0010c8e4 <__mcmp>:
  10c8e4:	e5903010 	ldr	r3, [r0, #16]
  10c8e8:	e5912010 	ldr	r2, [r1, #16]
  10c8ec:	e0533002 	subs	r3, r3, r2
  10c8f0:	1a00000e 	bne	10c930 <__mcmp+0x4c>
  10c8f4:	e1a02102 	lsl	r2, r2, #2
  10c8f8:	e2800014 	add	r0, r0, #20
  10c8fc:	e2811014 	add	r1, r1, #20
  10c900:	e0803002 	add	r3, r0, r2
  10c904:	e0811002 	add	r1, r1, r2
  10c908:	ea000001 	b	10c914 <__mcmp+0x30>
  10c90c:	e1500003 	cmp	r0, r3
  10c910:	2a000008 	bcs	10c938 <__mcmp+0x54>
  10c914:	e533c004 	ldr	ip, [r3, #-4]!
  10c918:	e5312004 	ldr	r2, [r1, #-4]!
  10c91c:	e15c0002 	cmp	ip, r2
  10c920:	0afffff9 	beq	10c90c <__mcmp+0x28>
  10c924:	3a000005 	bcc	10c940 <__mcmp+0x5c>
  10c928:	e3a00001 	mov	r0, #1
  10c92c:	e12fff1e 	bx	lr
  10c930:	e1a00003 	mov	r0, r3
  10c934:	e12fff1e 	bx	lr
  10c938:	e3a00000 	mov	r0, #0
  10c93c:	e12fff1e 	bx	lr
  10c940:	e3e00000 	mvn	r0, #0
  10c944:	e12fff1e 	bx	lr

0010c948 <__mdiff>:
  10c948:	e92d41f0 	push	{r4, r5, r6, r7, r8, lr}
  10c94c:	e1a05001 	mov	r5, r1
  10c950:	e1a04000 	mov	r4, r0
  10c954:	e1a01002 	mov	r1, r2
  10c958:	e1a00005 	mov	r0, r5
  10c95c:	e1a08002 	mov	r8, r2
  10c960:	ebffffdf 	bl	10c8e4 <__mcmp>
  10c964:	e2506000 	subs	r6, r0, #0
  10c968:	0a00003e 	beq	10ca68 <__mdiff+0x120>
  10c96c:	b1a03005 	movlt	r3, r5
  10c970:	b1a05008 	movlt	r5, r8
  10c974:	e5951004 	ldr	r1, [r5, #4]
  10c978:	e1a00004 	mov	r0, r4
  10c97c:	b1a08003 	movlt	r8, r3
  10c980:	b3a07001 	movlt	r7, #1
  10c984:	a3a07000 	movge	r7, #0
  10c988:	ebfffe04 	bl	10c1a0 <_Balloc>
  10c98c:	e5954010 	ldr	r4, [r5, #16]
  10c990:	e2855014 	add	r5, r5, #20
  10c994:	e5982010 	ldr	r2, [r8, #16]
  10c998:	e2888014 	add	r8, r8, #20
  10c99c:	e1a0e005 	mov	lr, r5
  10c9a0:	e3a03000 	mov	r3, #0
  10c9a4:	e0855104 	add	r5, r5, r4, lsl #2
  10c9a8:	e0882102 	add	r2, r8, r2, lsl #2
  10c9ac:	e1a06000 	mov	r6, r0
  10c9b0:	e280c014 	add	ip, r0, #20
  10c9b4:	e1a00008 	mov	r0, r8
  10c9b8:	e586700c 	str	r7, [r6, #12]
  10c9bc:	e49e8004 	ldr	r8, [lr], #4
  10c9c0:	e4901004 	ldr	r1, [r0], #4
  10c9c4:	e6f37078 	uxtah	r7, r3, r8
  10c9c8:	e1520000 	cmp	r2, r0
  10c9cc:	e6ff3071 	uxth	r3, r1
  10c9d0:	e1a01821 	lsr	r1, r1, #16
  10c9d4:	e0637007 	rsb	r7, r3, r7
  10c9d8:	e0613828 	rsb	r3, r1, r8, lsr #16
  10c9dc:	e1a0100e 	mov	r1, lr
  10c9e0:	e0833847 	add	r3, r3, r7, asr #16
  10c9e4:	e6ff7077 	uxth	r7, r7
  10c9e8:	e1877803 	orr	r7, r7, r3, lsl #16
  10c9ec:	e1a03843 	asr	r3, r3, #16
  10c9f0:	e48c7004 	str	r7, [ip], #4
  10c9f4:	8afffff0 	bhi	10c9bc <__mdiff+0x74>
  10c9f8:	e155000e 	cmp	r5, lr
  10c9fc:	e1a0000c 	mov	r0, ip
  10ca00:	9a00000e 	bls	10ca40 <__mdiff+0xf8>
  10ca04:	e4912004 	ldr	r2, [r1], #4
  10ca08:	e1550001 	cmp	r5, r1
  10ca0c:	e6f33072 	uxtah	r3, r3, r2
  10ca10:	e1a02822 	lsr	r2, r2, #16
  10ca14:	e0822843 	add	r2, r2, r3, asr #16
  10ca18:	e6ff3073 	uxth	r3, r3
  10ca1c:	e1837802 	orr	r7, r3, r2, lsl #16
  10ca20:	e1a03842 	asr	r3, r2, #16
  10ca24:	e48c7004 	str	r7, [ip], #4
  10ca28:	8afffff5 	bhi	10ca04 <__mdiff+0xbc>
  10ca2c:	e1e0c00e 	mvn	ip, lr
  10ca30:	e08cc005 	add	ip, ip, r5
  10ca34:	e3ccc003 	bic	ip, ip, #3
  10ca38:	e28cc004 	add	ip, ip, #4
  10ca3c:	e080c00c 	add	ip, r0, ip
  10ca40:	e3570000 	cmp	r7, #0
  10ca44:	e24cc004 	sub	ip, ip, #4
  10ca48:	1a000003 	bne	10ca5c <__mdiff+0x114>
  10ca4c:	e53c3004 	ldr	r3, [ip, #-4]!
  10ca50:	e2444001 	sub	r4, r4, #1
  10ca54:	e3530000 	cmp	r3, #0
  10ca58:	0afffffb 	beq	10ca4c <__mdiff+0x104>
  10ca5c:	e1a00006 	mov	r0, r6
  10ca60:	e5864010 	str	r4, [r6, #16]
  10ca64:	e8bd81f0 	pop	{r4, r5, r6, r7, r8, pc}
  10ca68:	e1a00004 	mov	r0, r4
  10ca6c:	e1a01006 	mov	r1, r6
  10ca70:	ebfffdca 	bl	10c1a0 <_Balloc>
  10ca74:	e3a02001 	mov	r2, #1
  10ca78:	e1a03000 	mov	r3, r0
  10ca7c:	e5806014 	str	r6, [r0, #20]
  10ca80:	e5832010 	str	r2, [r3, #16]
  10ca84:	e8bd81f0 	pop	{r4, r5, r6, r7, r8, pc}

0010ca88 <__ulp>:
  10ca88:	ee102a90 	vmov	r2, s1
  10ca8c:	e3a03000 	mov	r3, #0
  10ca90:	e3473ff0 	movt	r3, #32752	; 0x7ff0
  10ca94:	e0022003 	and	r2, r2, r3
  10ca98:	e242350d 	sub	r3, r2, #54525952	; 0x3400000
  10ca9c:	e3530000 	cmp	r3, #0
  10caa0:	da000003 	ble	10cab4 <__ulp+0x2c>
  10caa4:	e3a00000 	mov	r0, #0
  10caa8:	e1a01003 	mov	r1, r3
  10caac:	ec410b10 	vmov	d0, r0, r1
  10cab0:	e12fff1e 	bx	lr
  10cab4:	e2633000 	rsb	r3, r3, #0
  10cab8:	e1a03a43 	asr	r3, r3, #20
  10cabc:	e3530013 	cmp	r3, #19
  10cac0:	da000008 	ble	10cae8 <__ulp+0x60>
  10cac4:	e3530032 	cmp	r3, #50	; 0x32
  10cac8:	e3a01000 	mov	r1, #0
  10cacc:	d2633033 	rsble	r3, r3, #51	; 0x33
  10cad0:	d3a02001 	movle	r2, #1
  10cad4:	c3a03001 	movgt	r3, #1
  10cad8:	d1a03312 	lslle	r3, r2, r3
  10cadc:	e1a00003 	mov	r0, r3
  10cae0:	ec410b10 	vmov	d0, r0, r1
  10cae4:	e12fff1e 	bx	lr
  10cae8:	e3a02702 	mov	r2, #524288	; 0x80000
  10caec:	e3a00000 	mov	r0, #0
  10caf0:	e1a01352 	asr	r1, r2, r3
  10caf4:	ec410b10 	vmov	d0, r0, r1
  10caf8:	e12fff1e 	bx	lr

0010cafc <__b2d>:
  10cafc:	e92d41f0 	push	{r4, r5, r6, r7, r8, lr}
  10cb00:	e2808014 	add	r8, r0, #20
  10cb04:	e5904010 	ldr	r4, [r0, #16]
  10cb08:	e1a06001 	mov	r6, r1
  10cb0c:	e0884104 	add	r4, r8, r4, lsl #2
  10cb10:	e2445004 	sub	r5, r4, #4
  10cb14:	e5147004 	ldr	r7, [r4, #-4]
  10cb18:	e1a00007 	mov	r0, r7
  10cb1c:	ebfffe36 	bl	10c3fc <__hi0bits>
  10cb20:	e350000a 	cmp	r0, #10
  10cb24:	e2603020 	rsb	r3, r0, #32
  10cb28:	e5863000 	str	r3, [r6]
  10cb2c:	ca00000b 	bgt	10cb60 <__b2d+0x64>
  10cb30:	e260c00b 	rsb	ip, r0, #11
  10cb34:	e1580005 	cmp	r8, r5
  10cb38:	e1a01c37 	lsr	r1, r7, ip
  10cb3c:	e2800015 	add	r0, r0, #21
  10cb40:	e38135ff 	orr	r3, r1, #1069547520	; 0x3fc00000
  10cb44:	35141008 	ldrcc	r1, [r4, #-8]
  10cb48:	e3833603 	orr	r3, r3, #3145728	; 0x300000
  10cb4c:	23a01000 	movcs	r1, #0
  10cb50:	31a01c31 	lsrcc	r1, r1, ip
  10cb54:	e1812017 	orr	r2, r1, r7, lsl r0
  10cb58:	ec432b10 	vmov	d0, r2, r3
  10cb5c:	e8bd81f0 	pop	{r4, r5, r6, r7, r8, pc}
  10cb60:	e1580005 	cmp	r8, r5
  10cb64:	2a00000f 	bcs	10cba8 <__b2d+0xac>
  10cb68:	e250c00b 	subs	ip, r0, #11
  10cb6c:	e2443008 	sub	r3, r4, #8
  10cb70:	e5141008 	ldr	r1, [r4, #-8]
  10cb74:	0a00000e 	beq	10cbb4 <__b2d+0xb8>
  10cb78:	e1580003 	cmp	r8, r3
  10cb7c:	e260002b 	rsb	r0, r0, #43	; 0x2b
  10cb80:	e1a0e031 	lsr	lr, r1, r0
  10cb84:	e18e7c17 	orr	r7, lr, r7, lsl ip
  10cb88:	3514e00c 	ldrcc	lr, [r4, #-12]
  10cb8c:	e38735ff 	orr	r3, r7, #1069547520	; 0x3fc00000
  10cb90:	23a00000 	movcs	r0, #0
  10cb94:	e3833603 	orr	r3, r3, #3145728	; 0x300000
  10cb98:	31a0003e 	lsrcc	r0, lr, r0
  10cb9c:	e1802c11 	orr	r2, r0, r1, lsl ip
  10cba0:	ec432b10 	vmov	d0, r2, r3
  10cba4:	e8bd81f0 	pop	{r4, r5, r6, r7, r8, pc}
  10cba8:	e250c00b 	subs	ip, r0, #11
  10cbac:	01a0100c 	moveq	r1, ip
  10cbb0:	1a000004 	bne	10cbc8 <__b2d+0xcc>
  10cbb4:	e38735ff 	orr	r3, r7, #1069547520	; 0x3fc00000
  10cbb8:	e1a02001 	mov	r2, r1
  10cbbc:	e3833603 	orr	r3, r3, #3145728	; 0x300000
  10cbc0:	ec432b10 	vmov	d0, r2, r3
  10cbc4:	e8bd81f0 	pop	{r4, r5, r6, r7, r8, pc}
  10cbc8:	e1a07c17 	lsl	r7, r7, ip
  10cbcc:	e3a00000 	mov	r0, #0
  10cbd0:	e38735ff 	orr	r3, r7, #1069547520	; 0x3fc00000
  10cbd4:	e1a01000 	mov	r1, r0
  10cbd8:	e3833603 	orr	r3, r3, #3145728	; 0x300000
  10cbdc:	eaffffee 	b	10cb9c <__b2d+0xa0>

0010cbe0 <__d2b>:
  10cbe0:	e92d43f0 	push	{r4, r5, r6, r7, r8, r9, lr}
  10cbe4:	e1a07001 	mov	r7, r1
  10cbe8:	e24dd00c 	sub	sp, sp, #12
  10cbec:	e3a01001 	mov	r1, #1
  10cbf0:	ec598b10 	vmov	r8, r9, d0
  10cbf4:	e1a06002 	mov	r6, r2
  10cbf8:	ebfffd68 	bl	10c1a0 <_Balloc>
  10cbfc:	e7ea5a59 	ubfx	r5, r9, #20, #11
  10cc00:	e1a04009 	mov	r4, r9
  10cc04:	e3550000 	cmp	r5, #0
  10cc08:	e7f34054 	ubfx	r4, r4, #0, #20
  10cc0c:	13844601 	orrne	r4, r4, #1048576	; 0x100000
  10cc10:	e3580000 	cmp	r8, #0
  10cc14:	e58d4004 	str	r4, [sp, #4]
  10cc18:	e1a09000 	mov	r9, r0
  10cc1c:	0a00001d 	beq	10cc98 <__d2b+0xb8>
  10cc20:	e28d0008 	add	r0, sp, #8
  10cc24:	e5208008 	str	r8, [r0, #-8]!
  10cc28:	ebfffe0c 	bl	10c460 <__lo0bits>
  10cc2c:	e3500000 	cmp	r0, #0
  10cc30:	12602020 	rsbne	r2, r0, #32
  10cc34:	159dc004 	ldrne	ip, [sp, #4]
  10cc38:	089d000c 	ldmeq	sp, {r2, r3}
  10cc3c:	159d1000 	ldrne	r1, [sp]
  10cc40:	11a0303c 	lsrne	r3, ip, r0
  10cc44:	158d3004 	strne	r3, [sp, #4]
  10cc48:	1181221c 	orrne	r2, r1, ip, lsl r2
  10cc4c:	e3530000 	cmp	r3, #0
  10cc50:	e5892014 	str	r2, [r9, #20]
  10cc54:	13a04002 	movne	r4, #2
  10cc58:	03a04001 	moveq	r4, #1
  10cc5c:	e3550000 	cmp	r5, #0
  10cc60:	e5893018 	str	r3, [r9, #24]
  10cc64:	e5894010 	str	r4, [r9, #16]
  10cc68:	1a000013 	bne	10ccbc <__d2b+0xdc>
  10cc6c:	e0893104 	add	r3, r9, r4, lsl #2
  10cc70:	e2405e43 	sub	r5, r0, #1072	; 0x430
  10cc74:	e2455002 	sub	r5, r5, #2
  10cc78:	e5875000 	str	r5, [r7]
  10cc7c:	e5930010 	ldr	r0, [r3, #16]
  10cc80:	ebfffddd 	bl	10c3fc <__hi0bits>
  10cc84:	e0600284 	rsb	r0, r0, r4, lsl #5
  10cc88:	e5860000 	str	r0, [r6]
  10cc8c:	e1a00009 	mov	r0, r9
  10cc90:	e28dd00c 	add	sp, sp, #12
  10cc94:	e8bd83f0 	pop	{r4, r5, r6, r7, r8, r9, pc}
  10cc98:	e28d0004 	add	r0, sp, #4
  10cc9c:	e3a04001 	mov	r4, #1
  10cca0:	ebfffdee 	bl	10c460 <__lo0bits>
  10cca4:	e59d3004 	ldr	r3, [sp, #4]
  10cca8:	e3550000 	cmp	r5, #0
  10ccac:	e5894010 	str	r4, [r9, #16]
  10ccb0:	e5893014 	str	r3, [r9, #20]
  10ccb4:	e2800020 	add	r0, r0, #32
  10ccb8:	0affffeb 	beq	10cc6c <__d2b+0x8c>
  10ccbc:	e2455e43 	sub	r5, r5, #1072	; 0x430
  10ccc0:	e2603035 	rsb	r3, r0, #53	; 0x35
  10ccc4:	e2455003 	sub	r5, r5, #3
  10ccc8:	e0855000 	add	r5, r5, r0
  10cccc:	e1a00009 	mov	r0, r9
  10ccd0:	e5875000 	str	r5, [r7]
  10ccd4:	e5863000 	str	r3, [r6]
  10ccd8:	e28dd00c 	add	sp, sp, #12
  10ccdc:	e8bd83f0 	pop	{r4, r5, r6, r7, r8, r9, pc}

0010cce0 <__ratio>:
  10cce0:	e92d4030 	push	{r4, r5, lr}
  10cce4:	e1a04001 	mov	r4, r1
  10cce8:	ed2d8b02 	vpush	{d8}
  10ccec:	e1a05000 	mov	r5, r0
  10ccf0:	e24dd014 	sub	sp, sp, #20
  10ccf4:	e28d1008 	add	r1, sp, #8
  10ccf8:	ebffff7f 	bl	10cafc <__b2d>
  10ccfc:	e1a00004 	mov	r0, r4
  10cd00:	e28d100c 	add	r1, sp, #12
  10cd04:	eeb08b40 	vmov.f64	d8, d0
  10cd08:	ebffff7b 	bl	10cafc <__b2d>
  10cd0c:	e595c010 	ldr	ip, [r5, #16]
  10cd10:	e5941010 	ldr	r1, [r4, #16]
  10cd14:	e59d2008 	ldr	r2, [sp, #8]
  10cd18:	e59d300c 	ldr	r3, [sp, #12]
  10cd1c:	e061100c 	rsb	r1, r1, ip
  10cd20:	ed8d8b00 	vstr	d8, [sp]
  10cd24:	e0633002 	rsb	r3, r3, r2
  10cd28:	e0833281 	add	r3, r3, r1, lsl #5
  10cd2c:	e1cd00d0 	ldrd	r0, [sp]
  10cd30:	e3530000 	cmp	r3, #0
  10cd34:	c0811a03 	addgt	r1, r1, r3, lsl #20
  10cd38:	cc410b18 	vmovgt	d8, r0, r1
  10cd3c:	ed8d0b00 	vstr	d0, [sp]
  10cd40:	e1cd40d0 	ldrd	r4, [sp]
  10cd44:	d0455a03 	suble	r5, r5, r3, lsl #20
  10cd48:	dc454b10 	vmovle	d0, r4, r5
  10cd4c:	ee880b00 	vdiv.f64	d0, d8, d0
  10cd50:	e28dd014 	add	sp, sp, #20
  10cd54:	ecbd8b02 	vpop	{d8}
  10cd58:	e8bd8030 	pop	{r4, r5, pc}

0010cd5c <_mprec_log10>:
  10cd5c:	e3500017 	cmp	r0, #23
  10cd60:	da000005 	ble	10cd7c <_mprec_log10+0x20>
  10cd64:	eeb70b00 	vmov.f64	d0, #112	; 0x70
  10cd68:	eeb27b04 	vmov.f64	d7, #36	; 0x24
  10cd6c:	e2500001 	subs	r0, r0, #1
  10cd70:	ee200b07 	vmul.f64	d0, d0, d7
  10cd74:	1afffffc 	bne	10cd6c <_mprec_log10+0x10>
  10cd78:	e12fff1e 	bx	lr
  10cd7c:	e3063a48 	movw	r3, #27208	; 0x6a48
  10cd80:	e3403011 	movt	r3, #17
  10cd84:	e0830180 	add	r0, r3, r0, lsl #3
  10cd88:	ed900b04 	vldr	d0, [r0, #16]
  10cd8c:	e12fff1e 	bx	lr

0010cd90 <__copybits>:
  10cd90:	e592c010 	ldr	ip, [r2, #16]
  10cd94:	e2411001 	sub	r1, r1, #1
  10cd98:	e2823014 	add	r3, r2, #20
  10cd9c:	e1a012c1 	asr	r1, r1, #5
  10cda0:	e083c10c 	add	ip, r3, ip, lsl #2
  10cda4:	e2811001 	add	r1, r1, #1
  10cda8:	e153000c 	cmp	r3, ip
  10cdac:	e92d4010 	push	{r4, lr}
  10cdb0:	e0804101 	add	r4, r0, r1, lsl #2
  10cdb4:	2a000009 	bcs	10cde0 <__copybits+0x50>
  10cdb8:	e2401004 	sub	r1, r0, #4
  10cdbc:	e493e004 	ldr	lr, [r3], #4
  10cdc0:	e15c0003 	cmp	ip, r3
  10cdc4:	e5a1e004 	str	lr, [r1, #4]!
  10cdc8:	8afffffb 	bhi	10cdbc <__copybits+0x2c>
  10cdcc:	e062300c 	rsb	r3, r2, ip
  10cdd0:	e2433015 	sub	r3, r3, #21
  10cdd4:	e3c33003 	bic	r3, r3, #3
  10cdd8:	e2833004 	add	r3, r3, #4
  10cddc:	e0800003 	add	r0, r0, r3
  10cde0:	e1540000 	cmp	r4, r0
  10cde4:	98bd8010 	popls	{r4, pc}
  10cde8:	e3a03000 	mov	r3, #0
  10cdec:	e4803004 	str	r3, [r0], #4
  10cdf0:	e1540000 	cmp	r4, r0
  10cdf4:	8afffffc 	bhi	10cdec <__copybits+0x5c>
  10cdf8:	e8bd8010 	pop	{r4, pc}

0010cdfc <__any_on>:
  10cdfc:	e5903010 	ldr	r3, [r0, #16]
  10ce00:	e1a022c1 	asr	r2, r1, #5
  10ce04:	e280c014 	add	ip, r0, #20
  10ce08:	e1530002 	cmp	r3, r2
  10ce0c:	b08c3103 	addlt	r3, ip, r3, lsl #2
  10ce10:	ba00000a 	blt	10ce40 <__any_on+0x44>
  10ce14:	da000008 	ble	10ce3c <__any_on+0x40>
  10ce18:	e211101f 	ands	r1, r1, #31
  10ce1c:	0a000006 	beq	10ce3c <__any_on+0x40>
  10ce20:	e79c0102 	ldr	r0, [ip, r2, lsl #2]
  10ce24:	e08c3102 	add	r3, ip, r2, lsl #2
  10ce28:	e1a02130 	lsr	r2, r0, r1
  10ce2c:	e1500112 	cmp	r0, r2, lsl r1
  10ce30:	0a000002 	beq	10ce40 <__any_on+0x44>
  10ce34:	e3a00001 	mov	r0, #1
  10ce38:	e12fff1e 	bx	lr
  10ce3c:	e08c3102 	add	r3, ip, r2, lsl #2
  10ce40:	e15c0003 	cmp	ip, r3
  10ce44:	2a00000a 	bcs	10ce74 <__any_on+0x78>
  10ce48:	e5130004 	ldr	r0, [r3, #-4]
  10ce4c:	e2433004 	sub	r3, r3, #4
  10ce50:	e3500000 	cmp	r0, #0
  10ce54:	0a000003 	beq	10ce68 <__any_on+0x6c>
  10ce58:	eafffff5 	b	10ce34 <__any_on+0x38>
  10ce5c:	e5332004 	ldr	r2, [r3, #-4]!
  10ce60:	e3520000 	cmp	r2, #0
  10ce64:	1afffff2 	bne	10ce34 <__any_on+0x38>
  10ce68:	e15c0003 	cmp	ip, r3
  10ce6c:	3afffffa 	bcc	10ce5c <__any_on+0x60>
  10ce70:	e12fff1e 	bx	lr
  10ce74:	e3a00000 	mov	r0, #0
  10ce78:	e12fff1e 	bx	lr

0010ce7c <_realloc_r>:
  10ce7c:	e92d4ff0 	push	{r4, r5, r6, r7, r8, r9, sl, fp, lr}
  10ce80:	e2516000 	subs	r6, r1, #0
  10ce84:	e24dd00c 	sub	sp, sp, #12
  10ce88:	e1a07002 	mov	r7, r2
  10ce8c:	0a0000de 	beq	10d20c <_realloc_r+0x390>
  10ce90:	e1a08000 	mov	r8, r0
  10ce94:	ebffdeb8 	bl	10497c <__malloc_lock>
  10ce98:	e287400b 	add	r4, r7, #11
  10ce9c:	e5163004 	ldr	r3, [r6, #-4]
  10cea0:	e3540016 	cmp	r4, #22
  10cea4:	e2469008 	sub	r9, r6, #8
  10cea8:	83c44007 	bichi	r4, r4, #7
  10ceac:	e3c35003 	bic	r5, r3, #3
  10ceb0:	93a02010 	movls	r2, #16
  10ceb4:	93a00000 	movls	r0, #0
  10ceb8:	81a00fa4 	lsrhi	r0, r4, #31
  10cebc:	81a02004 	movhi	r2, r4
  10cec0:	91a04002 	movls	r4, r2
  10cec4:	e1540007 	cmp	r4, r7
  10cec8:	33800001 	orrcc	r0, r0, #1
  10cecc:	e3500000 	cmp	r0, #0
  10ced0:	13a0300c 	movne	r3, #12
  10ced4:	13a00000 	movne	r0, #0
  10ced8:	15883000 	strne	r3, [r8]
  10cedc:	1a00000f 	bne	10cf20 <_realloc_r+0xa4>
  10cee0:	e1550002 	cmp	r5, r2
  10cee4:	ba00000f 	blt	10cf28 <_realloc_r+0xac>
  10cee8:	e1a07006 	mov	r7, r6
  10ceec:	e0642005 	rsb	r2, r4, r5
  10cef0:	e352000f 	cmp	r2, #15
  10cef4:	8a000085 	bhi	10d110 <_realloc_r+0x294>
  10cef8:	e0892005 	add	r2, r9, r5
  10cefc:	e2033001 	and	r3, r3, #1
  10cf00:	e1835005 	orr	r5, r3, r5
  10cf04:	e5895004 	str	r5, [r9, #4]
  10cf08:	e5923004 	ldr	r3, [r2, #4]
  10cf0c:	e3833001 	orr	r3, r3, #1
  10cf10:	e5823004 	str	r3, [r2, #4]
  10cf14:	e1a00008 	mov	r0, r8
  10cf18:	ebffde98 	bl	104980 <__malloc_unlock>
  10cf1c:	e1a00007 	mov	r0, r7
  10cf20:	e28dd00c 	add	sp, sp, #12
  10cf24:	e8bd8ff0 	pop	{r4, r5, r6, r7, r8, r9, sl, fp, pc}
  10cf28:	e307bdb8 	movw	fp, #32184	; 0x7db8
  10cf2c:	e0891005 	add	r1, r9, r5
  10cf30:	e340b011 	movt	fp, #17
  10cf34:	e59b0008 	ldr	r0, [fp, #8]
  10cf38:	e1500001 	cmp	r0, r1
  10cf3c:	0a0000bd 	beq	10d238 <_realloc_r+0x3bc>
  10cf40:	e591c004 	ldr	ip, [r1, #4]
  10cf44:	e3cc0001 	bic	r0, ip, #1
  10cf48:	e0810000 	add	r0, r1, r0
  10cf4c:	e5900004 	ldr	r0, [r0, #4]
  10cf50:	e3100001 	tst	r0, #1
  10cf54:	1a00003a 	bne	10d044 <_realloc_r+0x1c8>
  10cf58:	e3ccc003 	bic	ip, ip, #3
  10cf5c:	e08cc005 	add	ip, ip, r5
  10cf60:	e15c0002 	cmp	ip, r2
  10cf64:	aa0000ac 	bge	10d21c <_realloc_r+0x3a0>
  10cf68:	e3130001 	tst	r3, #1
  10cf6c:	1a000075 	bne	10d148 <_realloc_r+0x2cc>
  10cf70:	e516a008 	ldr	sl, [r6, #-8]
  10cf74:	e06aa009 	rsb	sl, sl, r9
  10cf78:	e59a0004 	ldr	r0, [sl, #4]
  10cf7c:	e3c00003 	bic	r0, r0, #3
  10cf80:	e08cc000 	add	ip, ip, r0
  10cf84:	e15c0002 	cmp	ip, r2
  10cf88:	ba000033 	blt	10d05c <_realloc_r+0x1e0>
  10cf8c:	e591300c 	ldr	r3, [r1, #12]
  10cf90:	e1a0700a 	mov	r7, sl
  10cf94:	e5911008 	ldr	r1, [r1, #8]
  10cf98:	e2452004 	sub	r2, r5, #4
  10cf9c:	e3520024 	cmp	r2, #36	; 0x24
  10cfa0:	e581300c 	str	r3, [r1, #12]
  10cfa4:	e5831008 	str	r1, [r3, #8]
  10cfa8:	e59a300c 	ldr	r3, [sl, #12]
  10cfac:	e5b71008 	ldr	r1, [r7, #8]!
  10cfb0:	e581300c 	str	r3, [r1, #12]
  10cfb4:	e5831008 	str	r1, [r3, #8]
  10cfb8:	8a0000fc 	bhi	10d3b0 <_realloc_r+0x534>
  10cfbc:	e3520013 	cmp	r2, #19
  10cfc0:	91a02007 	movls	r2, r7
  10cfc4:	9a000014 	bls	10d01c <_realloc_r+0x1a0>
  10cfc8:	e5963000 	ldr	r3, [r6]
  10cfcc:	e352001b 	cmp	r2, #27
  10cfd0:	928a2010 	addls	r2, sl, #16
  10cfd4:	e58a3008 	str	r3, [sl, #8]
  10cfd8:	e5963004 	ldr	r3, [r6, #4]
  10cfdc:	92866008 	addls	r6, r6, #8
  10cfe0:	e58a300c 	str	r3, [sl, #12]
  10cfe4:	9a00000c 	bls	10d01c <_realloc_r+0x1a0>
  10cfe8:	e5963008 	ldr	r3, [r6, #8]
  10cfec:	e3520024 	cmp	r2, #36	; 0x24
  10cff0:	128a2018 	addne	r2, sl, #24
  10cff4:	028a2020 	addeq	r2, sl, #32
  10cff8:	e58a3010 	str	r3, [sl, #16]
  10cffc:	e596300c 	ldr	r3, [r6, #12]
  10d000:	12866010 	addne	r6, r6, #16
  10d004:	e58a3014 	str	r3, [sl, #20]
  10d008:	05963010 	ldreq	r3, [r6, #16]
  10d00c:	058a3018 	streq	r3, [sl, #24]
  10d010:	05963014 	ldreq	r3, [r6, #20]
  10d014:	02866018 	addeq	r6, r6, #24
  10d018:	058a301c 	streq	r3, [sl, #28]
  10d01c:	e5963000 	ldr	r3, [r6]
  10d020:	e1a0500c 	mov	r5, ip
  10d024:	e1a0900a 	mov	r9, sl
  10d028:	e5823000 	str	r3, [r2]
  10d02c:	e5963004 	ldr	r3, [r6, #4]
  10d030:	e5823004 	str	r3, [r2, #4]
  10d034:	e5963008 	ldr	r3, [r6, #8]
  10d038:	e5823008 	str	r3, [r2, #8]
  10d03c:	e59a3004 	ldr	r3, [sl, #4]
  10d040:	eaffffa9 	b	10ceec <_realloc_r+0x70>
  10d044:	e3130001 	tst	r3, #1
  10d048:	1a00003e 	bne	10d148 <_realloc_r+0x2cc>
  10d04c:	e516a008 	ldr	sl, [r6, #-8]
  10d050:	e06aa009 	rsb	sl, sl, r9
  10d054:	e59a0004 	ldr	r0, [sl, #4]
  10d058:	e3c00003 	bic	r0, r0, #3
  10d05c:	e0803005 	add	r3, r0, r5
  10d060:	e1530002 	cmp	r3, r2
  10d064:	ba000037 	blt	10d148 <_realloc_r+0x2cc>
  10d068:	e1a0700a 	mov	r7, sl
  10d06c:	e59a100c 	ldr	r1, [sl, #12]
  10d070:	e5b70008 	ldr	r0, [r7, #8]!
  10d074:	e2452004 	sub	r2, r5, #4
  10d078:	e3520024 	cmp	r2, #36	; 0x24
  10d07c:	e580100c 	str	r1, [r0, #12]
  10d080:	e5810008 	str	r0, [r1, #8]
  10d084:	8a0000ad 	bhi	10d340 <_realloc_r+0x4c4>
  10d088:	e3520013 	cmp	r2, #19
  10d08c:	91a01007 	movls	r1, r7
  10d090:	9a000014 	bls	10d0e8 <_realloc_r+0x26c>
  10d094:	e5961000 	ldr	r1, [r6]
  10d098:	e352001b 	cmp	r2, #27
  10d09c:	e58a1008 	str	r1, [sl, #8]
  10d0a0:	e5961004 	ldr	r1, [r6, #4]
  10d0a4:	92866008 	addls	r6, r6, #8
  10d0a8:	e58a100c 	str	r1, [sl, #12]
  10d0ac:	928a1010 	addls	r1, sl, #16
  10d0b0:	9a00000c 	bls	10d0e8 <_realloc_r+0x26c>
  10d0b4:	e5961008 	ldr	r1, [r6, #8]
  10d0b8:	e3520024 	cmp	r2, #36	; 0x24
  10d0bc:	e58a1010 	str	r1, [sl, #16]
  10d0c0:	128a1018 	addne	r1, sl, #24
  10d0c4:	e596200c 	ldr	r2, [r6, #12]
  10d0c8:	028a1020 	addeq	r1, sl, #32
  10d0cc:	12866010 	addne	r6, r6, #16
  10d0d0:	e58a2014 	str	r2, [sl, #20]
  10d0d4:	05962010 	ldreq	r2, [r6, #16]
  10d0d8:	058a2018 	streq	r2, [sl, #24]
  10d0dc:	05962014 	ldreq	r2, [r6, #20]
  10d0e0:	02866018 	addeq	r6, r6, #24
  10d0e4:	058a201c 	streq	r2, [sl, #28]
  10d0e8:	e5962000 	ldr	r2, [r6]
  10d0ec:	e1a05003 	mov	r5, r3
  10d0f0:	e1a0900a 	mov	r9, sl
  10d0f4:	e5812000 	str	r2, [r1]
  10d0f8:	e5963004 	ldr	r3, [r6, #4]
  10d0fc:	e5813004 	str	r3, [r1, #4]
  10d100:	e5963008 	ldr	r3, [r6, #8]
  10d104:	e5813008 	str	r3, [r1, #8]
  10d108:	e59a3004 	ldr	r3, [sl, #4]
  10d10c:	eaffff76 	b	10ceec <_realloc_r+0x70>
  10d110:	e0891004 	add	r1, r9, r4
  10d114:	e2033001 	and	r3, r3, #1
  10d118:	e081c002 	add	ip, r1, r2
  10d11c:	e1834004 	orr	r4, r3, r4
  10d120:	e3822001 	orr	r2, r2, #1
  10d124:	e5894004 	str	r4, [r9, #4]
  10d128:	e5812004 	str	r2, [r1, #4]
  10d12c:	e1a00008 	mov	r0, r8
  10d130:	e59c3004 	ldr	r3, [ip, #4]
  10d134:	e2811008 	add	r1, r1, #8
  10d138:	e3833001 	orr	r3, r3, #1
  10d13c:	e58c3004 	str	r3, [ip, #4]
  10d140:	ebfff244 	bl	109a58 <_free_r>
  10d144:	eaffff72 	b	10cf14 <_realloc_r+0x98>
  10d148:	e1a01007 	mov	r1, r7
  10d14c:	e1a00008 	mov	r0, r8
  10d150:	ebffdc2f 	bl	104214 <_malloc_r>
  10d154:	e2507000 	subs	r7, r0, #0
  10d158:	0affff6d 	beq	10cf14 <_realloc_r+0x98>
  10d15c:	e5163004 	ldr	r3, [r6, #-4]
  10d160:	e2471008 	sub	r1, r7, #8
  10d164:	e3c32001 	bic	r2, r3, #1
  10d168:	e0892002 	add	r2, r9, r2
  10d16c:	e1510002 	cmp	r1, r2
  10d170:	0a000089 	beq	10d39c <_realloc_r+0x520>
  10d174:	e2452004 	sub	r2, r5, #4
  10d178:	e3520024 	cmp	r2, #36	; 0x24
  10d17c:	8a000083 	bhi	10d390 <_realloc_r+0x514>
  10d180:	e3520013 	cmp	r2, #19
  10d184:	91a03007 	movls	r3, r7
  10d188:	91a02006 	movls	r2, r6
  10d18c:	9a000014 	bls	10d1e4 <_realloc_r+0x368>
  10d190:	e5963000 	ldr	r3, [r6]
  10d194:	e352001b 	cmp	r2, #27
  10d198:	92862008 	addls	r2, r6, #8
  10d19c:	e5873000 	str	r3, [r7]
  10d1a0:	e5963004 	ldr	r3, [r6, #4]
  10d1a4:	e5873004 	str	r3, [r7, #4]
  10d1a8:	92873008 	addls	r3, r7, #8
  10d1ac:	9a00000c 	bls	10d1e4 <_realloc_r+0x368>
  10d1b0:	e5963008 	ldr	r3, [r6, #8]
  10d1b4:	e3520024 	cmp	r2, #36	; 0x24
  10d1b8:	12862010 	addne	r2, r6, #16
  10d1bc:	02862018 	addeq	r2, r6, #24
  10d1c0:	e5873008 	str	r3, [r7, #8]
  10d1c4:	e596300c 	ldr	r3, [r6, #12]
  10d1c8:	e587300c 	str	r3, [r7, #12]
  10d1cc:	12873010 	addne	r3, r7, #16
  10d1d0:	05961010 	ldreq	r1, [r6, #16]
  10d1d4:	02873018 	addeq	r3, r7, #24
  10d1d8:	05871010 	streq	r1, [r7, #16]
  10d1dc:	05961014 	ldreq	r1, [r6, #20]
  10d1e0:	05871014 	streq	r1, [r7, #20]
  10d1e4:	e5921000 	ldr	r1, [r2]
  10d1e8:	e5831000 	str	r1, [r3]
  10d1ec:	e5921004 	ldr	r1, [r2, #4]
  10d1f0:	e5831004 	str	r1, [r3, #4]
  10d1f4:	e5922008 	ldr	r2, [r2, #8]
  10d1f8:	e5832008 	str	r2, [r3, #8]
  10d1fc:	e1a01006 	mov	r1, r6
  10d200:	e1a00008 	mov	r0, r8
  10d204:	ebfff213 	bl	109a58 <_free_r>
  10d208:	eaffff41 	b	10cf14 <_realloc_r+0x98>
  10d20c:	e1a01002 	mov	r1, r2
  10d210:	e28dd00c 	add	sp, sp, #12
  10d214:	e8bd4ff0 	pop	{r4, r5, r6, r7, r8, r9, sl, fp, lr}
  10d218:	eaffdbfd 	b	104214 <_malloc_r>
  10d21c:	e591200c 	ldr	r2, [r1, #12]
  10d220:	e1a07006 	mov	r7, r6
  10d224:	e5911008 	ldr	r1, [r1, #8]
  10d228:	e1a0500c 	mov	r5, ip
  10d22c:	e581200c 	str	r2, [r1, #12]
  10d230:	e5821008 	str	r1, [r2, #8]
  10d234:	eaffff2c 	b	10ceec <_realloc_r+0x70>
  10d238:	e5901004 	ldr	r1, [r0, #4]
  10d23c:	e284c010 	add	ip, r4, #16
  10d240:	e3c11003 	bic	r1, r1, #3
  10d244:	e0811005 	add	r1, r1, r5
  10d248:	e151000c 	cmp	r1, ip
  10d24c:	aa000042 	bge	10d35c <_realloc_r+0x4e0>
  10d250:	e3130001 	tst	r3, #1
  10d254:	1affffbb 	bne	10d148 <_realloc_r+0x2cc>
  10d258:	e516a008 	ldr	sl, [r6, #-8]
  10d25c:	e06aa009 	rsb	sl, sl, r9
  10d260:	e59a0004 	ldr	r0, [sl, #4]
  10d264:	e3c00003 	bic	r0, r0, #3
  10d268:	e0813000 	add	r3, r1, r0
  10d26c:	e15c0003 	cmp	ip, r3
  10d270:	caffff79 	bgt	10d05c <_realloc_r+0x1e0>
  10d274:	e1a0700a 	mov	r7, sl
  10d278:	e59a100c 	ldr	r1, [sl, #12]
  10d27c:	e5b70008 	ldr	r0, [r7, #8]!
  10d280:	e2452004 	sub	r2, r5, #4
  10d284:	e3520024 	cmp	r2, #36	; 0x24
  10d288:	e580100c 	str	r1, [r0, #12]
  10d28c:	e5810008 	str	r0, [r1, #8]
  10d290:	8a00004d 	bhi	10d3cc <_realloc_r+0x550>
  10d294:	e3520013 	cmp	r2, #19
  10d298:	91a02007 	movls	r2, r7
  10d29c:	9a000014 	bls	10d2f4 <_realloc_r+0x478>
  10d2a0:	e5961000 	ldr	r1, [r6]
  10d2a4:	e352001b 	cmp	r2, #27
  10d2a8:	928a2010 	addls	r2, sl, #16
  10d2ac:	e58a1008 	str	r1, [sl, #8]
  10d2b0:	e5961004 	ldr	r1, [r6, #4]
  10d2b4:	92866008 	addls	r6, r6, #8
  10d2b8:	e58a100c 	str	r1, [sl, #12]
  10d2bc:	9a00000c 	bls	10d2f4 <_realloc_r+0x478>
  10d2c0:	e5961008 	ldr	r1, [r6, #8]
  10d2c4:	e3520024 	cmp	r2, #36	; 0x24
  10d2c8:	e58a1010 	str	r1, [sl, #16]
  10d2cc:	e596200c 	ldr	r2, [r6, #12]
  10d2d0:	12866010 	addne	r6, r6, #16
  10d2d4:	e58a2014 	str	r2, [sl, #20]
  10d2d8:	128a2018 	addne	r2, sl, #24
  10d2dc:	05961010 	ldreq	r1, [r6, #16]
  10d2e0:	028a2020 	addeq	r2, sl, #32
  10d2e4:	058a1018 	streq	r1, [sl, #24]
  10d2e8:	05961014 	ldreq	r1, [r6, #20]
  10d2ec:	02866018 	addeq	r6, r6, #24
  10d2f0:	058a101c 	streq	r1, [sl, #28]
  10d2f4:	e5961000 	ldr	r1, [r6]
  10d2f8:	e5821000 	str	r1, [r2]
  10d2fc:	e5961004 	ldr	r1, [r6, #4]
  10d300:	e5821004 	str	r1, [r2, #4]
  10d304:	e5961008 	ldr	r1, [r6, #8]
  10d308:	e5821008 	str	r1, [r2, #8]
  10d30c:	e08a2004 	add	r2, sl, r4
  10d310:	e0643003 	rsb	r3, r4, r3
  10d314:	e58b2008 	str	r2, [fp, #8]
  10d318:	e3833001 	orr	r3, r3, #1
  10d31c:	e5823004 	str	r3, [r2, #4]
  10d320:	e1a00008 	mov	r0, r8
  10d324:	e59a3004 	ldr	r3, [sl, #4]
  10d328:	e2033001 	and	r3, r3, #1
  10d32c:	e1844003 	orr	r4, r4, r3
  10d330:	e58a4004 	str	r4, [sl, #4]
  10d334:	ebffdd91 	bl	104980 <__malloc_unlock>
  10d338:	e1a00007 	mov	r0, r7
  10d33c:	eafffef7 	b	10cf20 <_realloc_r+0xa4>
  10d340:	e1a01006 	mov	r1, r6
  10d344:	e1a00007 	mov	r0, r7
  10d348:	e1a05003 	mov	r5, r3
  10d34c:	e1a0900a 	mov	r9, sl
  10d350:	ebfffb0a 	bl	10bf80 <memmove>
  10d354:	e59a3004 	ldr	r3, [sl, #4]
  10d358:	eafffee3 	b	10ceec <_realloc_r+0x70>
  10d35c:	e0899004 	add	r9, r9, r4
  10d360:	e0643001 	rsb	r3, r4, r1
  10d364:	e58b9008 	str	r9, [fp, #8]
  10d368:	e3833001 	orr	r3, r3, #1
  10d36c:	e5893004 	str	r3, [r9, #4]
  10d370:	e1a00008 	mov	r0, r8
  10d374:	e5163004 	ldr	r3, [r6, #-4]
  10d378:	e2033001 	and	r3, r3, #1
  10d37c:	e1844003 	orr	r4, r4, r3
  10d380:	e5064004 	str	r4, [r6, #-4]
  10d384:	ebffdd7d 	bl	104980 <__malloc_unlock>
  10d388:	e1a00006 	mov	r0, r6
  10d38c:	eafffee3 	b	10cf20 <_realloc_r+0xa4>
  10d390:	e1a01006 	mov	r1, r6
  10d394:	ebfffaf9 	bl	10bf80 <memmove>
  10d398:	eaffff97 	b	10d1fc <_realloc_r+0x380>
  10d39c:	e5172004 	ldr	r2, [r7, #-4]
  10d3a0:	e1a07006 	mov	r7, r6
  10d3a4:	e3c22003 	bic	r2, r2, #3
  10d3a8:	e0855002 	add	r5, r5, r2
  10d3ac:	eafffece 	b	10ceec <_realloc_r+0x70>
  10d3b0:	e1a01006 	mov	r1, r6
  10d3b4:	e1a00007 	mov	r0, r7
  10d3b8:	e1a0500c 	mov	r5, ip
  10d3bc:	e1a0900a 	mov	r9, sl
  10d3c0:	ebfffaee 	bl	10bf80 <memmove>
  10d3c4:	e59a3004 	ldr	r3, [sl, #4]
  10d3c8:	eafffec7 	b	10ceec <_realloc_r+0x70>
  10d3cc:	e1a01006 	mov	r1, r6
  10d3d0:	e1a00007 	mov	r0, r7
  10d3d4:	e58d3004 	str	r3, [sp, #4]
  10d3d8:	ebfffae8 	bl	10bf80 <memmove>
  10d3dc:	e59d3004 	ldr	r3, [sp, #4]
  10d3e0:	eaffffc9 	b	10d30c <_realloc_r+0x490>

0010d3e4 <cleanup_glue>:
  10d3e4:	e92d4070 	push	{r4, r5, r6, lr}
  10d3e8:	e1a04001 	mov	r4, r1
  10d3ec:	e5911000 	ldr	r1, [r1]
  10d3f0:	e1a05000 	mov	r5, r0
  10d3f4:	e3510000 	cmp	r1, #0
  10d3f8:	0a000000 	beq	10d400 <cleanup_glue+0x1c>
  10d3fc:	ebfffff8 	bl	10d3e4 <cleanup_glue>
  10d400:	e1a01004 	mov	r1, r4
  10d404:	e1a00005 	mov	r0, r5
  10d408:	e8bd4070 	pop	{r4, r5, r6, lr}
  10d40c:	eafff191 	b	109a58 <_free_r>

0010d410 <_reclaim_reent>:
  10d410:	e3073988 	movw	r3, #31112	; 0x7988
  10d414:	e3403011 	movt	r3, #17
  10d418:	e5933000 	ldr	r3, [r3]
  10d41c:	e1500003 	cmp	r0, r3
  10d420:	012fff1e 	bxeq	lr
  10d424:	e590304c 	ldr	r3, [r0, #76]	; 0x4c
  10d428:	e92d4070 	push	{r4, r5, r6, lr}
  10d42c:	e3530000 	cmp	r3, #0
  10d430:	e1a05000 	mov	r5, r0
  10d434:	0a00000f 	beq	10d478 <_reclaim_reent+0x68>
  10d438:	e3a06000 	mov	r6, #0
  10d43c:	e7931006 	ldr	r1, [r3, r6]
  10d440:	e3510000 	cmp	r1, #0
  10d444:	0a000005 	beq	10d460 <_reclaim_reent+0x50>
  10d448:	e5914000 	ldr	r4, [r1]
  10d44c:	e1a00005 	mov	r0, r5
  10d450:	ebfff180 	bl	109a58 <_free_r>
  10d454:	e2541000 	subs	r1, r4, #0
  10d458:	1afffffa 	bne	10d448 <_reclaim_reent+0x38>
  10d45c:	e595304c 	ldr	r3, [r5, #76]	; 0x4c
  10d460:	e2866004 	add	r6, r6, #4
  10d464:	e3560080 	cmp	r6, #128	; 0x80
  10d468:	1afffff3 	bne	10d43c <_reclaim_reent+0x2c>
  10d46c:	e1a01003 	mov	r1, r3
  10d470:	e1a00005 	mov	r0, r5
  10d474:	ebfff177 	bl	109a58 <_free_r>
  10d478:	e5951040 	ldr	r1, [r5, #64]	; 0x40
  10d47c:	e3510000 	cmp	r1, #0
  10d480:	0a000001 	beq	10d48c <_reclaim_reent+0x7c>
  10d484:	e1a00005 	mov	r0, r5
  10d488:	ebfff172 	bl	109a58 <_free_r>
  10d48c:	e5951148 	ldr	r1, [r5, #328]	; 0x148
  10d490:	e3510000 	cmp	r1, #0
  10d494:	0a000008 	beq	10d4bc <_reclaim_reent+0xac>
  10d498:	e2856f53 	add	r6, r5, #332	; 0x14c
  10d49c:	e1510006 	cmp	r1, r6
  10d4a0:	0a000005 	beq	10d4bc <_reclaim_reent+0xac>
  10d4a4:	e5914000 	ldr	r4, [r1]
  10d4a8:	e1a00005 	mov	r0, r5
  10d4ac:	ebfff169 	bl	109a58 <_free_r>
  10d4b0:	e1560004 	cmp	r6, r4
  10d4b4:	e1a01004 	mov	r1, r4
  10d4b8:	1afffff9 	bne	10d4a4 <_reclaim_reent+0x94>
  10d4bc:	e5951054 	ldr	r1, [r5, #84]	; 0x54
  10d4c0:	e3510000 	cmp	r1, #0
  10d4c4:	0a000001 	beq	10d4d0 <_reclaim_reent+0xc0>
  10d4c8:	e1a00005 	mov	r0, r5
  10d4cc:	ebfff161 	bl	109a58 <_free_r>
  10d4d0:	e5953038 	ldr	r3, [r5, #56]	; 0x38
  10d4d4:	e3530000 	cmp	r3, #0
  10d4d8:	08bd8070 	popeq	{r4, r5, r6, pc}
  10d4dc:	e595303c 	ldr	r3, [r5, #60]	; 0x3c
  10d4e0:	e1a00005 	mov	r0, r5
  10d4e4:	e12fff33 	blx	r3
  10d4e8:	e59512e0 	ldr	r1, [r5, #736]	; 0x2e0
  10d4ec:	e3510000 	cmp	r1, #0
  10d4f0:	08bd8070 	popeq	{r4, r5, r6, pc}
  10d4f4:	e1a00005 	mov	r0, r5
  10d4f8:	e8bd4070 	pop	{r4, r5, r6, lr}
  10d4fc:	eaffffb8 	b	10d3e4 <cleanup_glue>

0010d500 <__fpclassifyd>:
  10d500:	ec510b10 	vmov	r0, r1, d0
  10d504:	ee103a10 	vmov	r3, s0
  10d508:	e1932001 	orrs	r2, r3, r1
  10d50c:	1a000001 	bne	10d518 <__fpclassifyd+0x18>
  10d510:	e3a00002 	mov	r0, #2
  10d514:	e12fff1e 	bx	lr
  10d518:	e3510102 	cmp	r1, #-2147483648	; 0x80000000
  10d51c:	03530000 	cmpeq	r3, #0
  10d520:	e16f3f13 	clz	r3, r3
  10d524:	e1a032a3 	lsr	r3, r3, #5
  10d528:	0afffff8 	beq	10d510 <__fpclassifyd+0x10>
  10d52c:	e3c10102 	bic	r0, r1, #-2147483648	; 0x80000000
  10d530:	e30f2fff 	movw	r2, #65535	; 0xffff
  10d534:	e2401601 	sub	r1, r0, #1048576	; 0x100000
  10d538:	e3472fdf 	movt	r2, #32735	; 0x7fdf
  10d53c:	e1510002 	cmp	r1, r2
  10d540:	8a000001 	bhi	10d54c <__fpclassifyd+0x4c>
  10d544:	e3a00004 	mov	r0, #4
  10d548:	e12fff1e 	bx	lr
  10d54c:	e3500601 	cmp	r0, #1048576	; 0x100000
  10d550:	2a000001 	bcs	10d55c <__fpclassifyd+0x5c>
  10d554:	e3a00003 	mov	r0, #3
  10d558:	e12fff1e 	bx	lr
  10d55c:	e3a02000 	mov	r2, #0
  10d560:	e3472ff0 	movt	r2, #32752	; 0x7ff0
  10d564:	e1500002 	cmp	r0, r2
  10d568:	13a00000 	movne	r0, #0
  10d56c:	02030001 	andeq	r0, r3, #1
  10d570:	e12fff1e 	bx	lr
  10d574:	00000000 	andeq	r0, r0, r0

0010d578 <frexp>:
  10d578:	ec532b10 	vmov	r2, r3, d0
  10d57c:	e92d4010 	push	{r4, lr}
  10d580:	e30fefff 	movw	lr, #65535	; 0xffff
  10d584:	e347efef 	movt	lr, #32751	; 0x7fef
  10d588:	e3a04000 	mov	r4, #0
  10d58c:	e5804000 	str	r4, [r0]
  10d590:	e3c31102 	bic	r1, r3, #-2147483648	; 0x80000000
  10d594:	e1a0c003 	mov	ip, r3
  10d598:	e151000e 	cmp	r1, lr
  10d59c:	ca000015 	bgt	10d5f8 <frexp+0x80>
  10d5a0:	ee10ea10 	vmov	lr, s0
  10d5a4:	e191e00e 	orrs	lr, r1, lr
  10d5a8:	0a000012 	beq	10d5f8 <frexp+0x80>
  10d5ac:	e3510601 	cmp	r1, #1048576	; 0x100000
  10d5b0:	aa000005 	bge	10d5cc <frexp+0x54>
  10d5b4:	ed9f7b11 	vldr	d7, [pc, #68]	; 10d600 <frexp+0x88>
  10d5b8:	e3e04035 	mvn	r4, #53	; 0x35
  10d5bc:	ee207b07 	vmul.f64	d7, d0, d7
  10d5c0:	ec532b17 	vmov	r2, r3, d7
  10d5c4:	e3c31102 	bic	r1, r3, #-2147483648	; 0x80000000
  10d5c8:	e1a0c003 	mov	ip, r3
  10d5cc:	e3cce47f 	bic	lr, ip, #2130706432	; 0x7f000000
  10d5d0:	e1a0ca41 	asr	ip, r1, #20
  10d5d4:	e3cee60f 	bic	lr, lr, #15728640	; 0xf00000
  10d5d8:	e24c1fff 	sub	r1, ip, #1020	; 0x3fc
  10d5dc:	e38e35ff 	orr	r3, lr, #1069547520	; 0x3fc00000
  10d5e0:	e2411002 	sub	r1, r1, #2
  10d5e4:	e3833602 	orr	r3, r3, #2097152	; 0x200000
  10d5e8:	e0811004 	add	r1, r1, r4
  10d5ec:	e5801000 	str	r1, [r0]
  10d5f0:	ec432b10 	vmov	d0, r2, r3
  10d5f4:	e8bd8010 	pop	{r4, pc}
  10d5f8:	ec432b10 	vmov	d0, r2, r3
  10d5fc:	e8bd8010 	pop	{r4, pc}
  10d600:	00000000 	.word	0x00000000
  10d604:	43500000 	.word	0x43500000

0010d608 <__sread>:
  10d608:	e92d4010 	push	{r4, lr}
  10d60c:	e1a04001 	mov	r4, r1
  10d610:	e1d110fe 	ldrsh	r1, [r1, #14]
  10d614:	eb000b62 	bl	1103a4 <_read_r>
  10d618:	e3500000 	cmp	r0, #0
  10d61c:	a5943050 	ldrge	r3, [r4, #80]	; 0x50
  10d620:	b1d430bc 	ldrhlt	r3, [r4, #12]
  10d624:	a0833000 	addge	r3, r3, r0
  10d628:	b3c33a01 	biclt	r3, r3, #4096	; 0x1000
  10d62c:	a5843050 	strge	r3, [r4, #80]	; 0x50
  10d630:	b1c430bc 	strhlt	r3, [r4, #12]
  10d634:	e8bd8010 	pop	{r4, pc}

0010d638 <__seofread>:
  10d638:	e3a00000 	mov	r0, #0
  10d63c:	e12fff1e 	bx	lr

0010d640 <__swrite>:
  10d640:	e1d1c0bc 	ldrh	ip, [r1, #12]
  10d644:	e92d41f0 	push	{r4, r5, r6, r7, r8, lr}
  10d648:	e31c0c01 	tst	ip, #256	; 0x100
  10d64c:	e1a04001 	mov	r4, r1
  10d650:	e1a06002 	mov	r6, r2
  10d654:	e1a07003 	mov	r7, r3
  10d658:	e1a05000 	mov	r5, r0
  10d65c:	0a000004 	beq	10d674 <__swrite+0x34>
  10d660:	e3a03002 	mov	r3, #2
  10d664:	e3a02000 	mov	r2, #0
  10d668:	e1d110fe 	ldrsh	r1, [r1, #14]
  10d66c:	eb000b3b 	bl	110360 <_lseek_r>
  10d670:	e1d4c0bc 	ldrh	ip, [r4, #12]
  10d674:	e3ccca01 	bic	ip, ip, #4096	; 0x1000
  10d678:	e1a03007 	mov	r3, r7
  10d67c:	e1c4c0bc 	strh	ip, [r4, #12]
  10d680:	e1a02006 	mov	r2, r6
  10d684:	e1d410fe 	ldrsh	r1, [r4, #14]
  10d688:	e1a00005 	mov	r0, r5
  10d68c:	e8bd41f0 	pop	{r4, r5, r6, r7, r8, lr}
  10d690:	ea0009bd 	b	10fd8c <_write_r>

0010d694 <__sseek>:
  10d694:	e92d4010 	push	{r4, lr}
  10d698:	e1a04001 	mov	r4, r1
  10d69c:	e1d110fe 	ldrsh	r1, [r1, #14]
  10d6a0:	eb000b2e 	bl	110360 <_lseek_r>
  10d6a4:	e1d430bc 	ldrh	r3, [r4, #12]
  10d6a8:	e3700001 	cmn	r0, #1
  10d6ac:	15840050 	strne	r0, [r4, #80]	; 0x50
  10d6b0:	03c33a01 	biceq	r3, r3, #4096	; 0x1000
  10d6b4:	13833a01 	orrne	r3, r3, #4096	; 0x1000
  10d6b8:	e1c430bc 	strh	r3, [r4, #12]
  10d6bc:	e8bd8010 	pop	{r4, pc}

0010d6c0 <__sclose>:
  10d6c0:	e1d110fe 	ldrsh	r1, [r1, #14]
  10d6c4:	ea000a1c 	b	10ff3c <_close_r>

0010d6c8 <strcasecmp>:
  10d6c8:	e3073980 	movw	r3, #31104	; 0x7980
  10d6cc:	e3403011 	movt	r3, #17
  10d6d0:	e52de004 	push	{lr}		; (str lr, [sp, #-4]!)
  10d6d4:	e593e000 	ldr	lr, [r3]
  10d6d8:	ea000003 	b	10d6ec <strcasecmp+0x24>
  10d6dc:	e0522003 	subs	r2, r2, r3
  10d6e0:	1a000011 	bne	10d72c <strcasecmp+0x64>
  10d6e4:	e3530000 	cmp	r3, #0
  10d6e8:	0a00000f 	beq	10d72c <strcasecmp+0x64>
  10d6ec:	e4d0c001 	ldrb	ip, [r0], #1
  10d6f0:	e08e300c 	add	r3, lr, ip
  10d6f4:	e1a0200c 	mov	r2, ip
  10d6f8:	e5d33001 	ldrb	r3, [r3, #1]
  10d6fc:	e2033003 	and	r3, r3, #3
  10d700:	e3530001 	cmp	r3, #1
  10d704:	e4d13001 	ldrb	r3, [r1], #1
  10d708:	028c2020 	addeq	r2, ip, #32
  10d70c:	e08ec003 	add	ip, lr, r3
  10d710:	e5dcc001 	ldrb	ip, [ip, #1]
  10d714:	e20cc003 	and	ip, ip, #3
  10d718:	e35c0001 	cmp	ip, #1
  10d71c:	1affffee 	bne	10d6dc <strcasecmp+0x14>
  10d720:	e2833020 	add	r3, r3, #32
  10d724:	e0522003 	subs	r2, r2, r3
  10d728:	0affffef 	beq	10d6ec <strcasecmp+0x24>
  10d72c:	e1a00002 	mov	r0, r2
  10d730:	e49df004 	pop	{pc}		; (ldr pc, [sp], #4)

0010d734 <strcat>:
  10d734:	e3100003 	tst	r0, #3
  10d738:	e92d4010 	push	{r4, lr}
  10d73c:	e1a04000 	mov	r4, r0
  10d740:	1a000012 	bne	10d790 <strcat+0x5c>
  10d744:	e5940000 	ldr	r0, [r4]
  10d748:	e30f3eff 	movw	r3, #65279	; 0xfeff
  10d74c:	e34f3efe 	movt	r3, #65278	; 0xfefe
  10d750:	e3082080 	movw	r2, #32896	; 0x8080
  10d754:	e0803003 	add	r3, r0, r3
  10d758:	e7df2812 	bfi	r2, r2, #16, #16
  10d75c:	e1c33000 	bic	r3, r3, r0
  10d760:	e1a00004 	mov	r0, r4
  10d764:	e1130002 	tst	r3, r2
  10d768:	1a000008 	bne	10d790 <strcat+0x5c>
  10d76c:	e5b0e004 	ldr	lr, [r0, #4]!
  10d770:	e30f3eff 	movw	r3, #65279	; 0xfeff
  10d774:	e34f3efe 	movt	r3, #65278	; 0xfefe
  10d778:	e308c080 	movw	ip, #32896	; 0x8080
  10d77c:	e08e3003 	add	r3, lr, r3
  10d780:	e7dfc81c 	bfi	ip, ip, #16, #16
  10d784:	e1c3300e 	bic	r3, r3, lr
  10d788:	e113000c 	tst	r3, ip
  10d78c:	0afffff6 	beq	10d76c <strcat+0x38>
  10d790:	e5d03000 	ldrb	r3, [r0]
  10d794:	e3530000 	cmp	r3, #0
  10d798:	0a000002 	beq	10d7a8 <strcat+0x74>
  10d79c:	e5f03001 	ldrb	r3, [r0, #1]!
  10d7a0:	e3530000 	cmp	r3, #0
  10d7a4:	1afffffc 	bne	10d79c <strcat+0x68>
  10d7a8:	eb00011c 	bl	10dc20 <strcpy>
  10d7ac:	e1a00004 	mov	r0, r4
  10d7b0:	e8bd8010 	pop	{r4, pc}

0010d7b4 <strchr>:
  10d7b4:	e6ef1071 	uxtb	r1, r1
  10d7b8:	e3510000 	cmp	r1, #0
  10d7bc:	e92d4010 	push	{r4, lr}
  10d7c0:	0a000032 	beq	10d890 <strchr+0xdc>
  10d7c4:	e3100003 	tst	r0, #3
  10d7c8:	0a00000e 	beq	10d808 <strchr+0x54>
  10d7cc:	e5d03000 	ldrb	r3, [r0]
  10d7d0:	e3530000 	cmp	r3, #0
  10d7d4:	0a00002b 	beq	10d888 <strchr+0xd4>
  10d7d8:	e1510003 	cmp	r1, r3
  10d7dc:	12803001 	addne	r3, r0, #1
  10d7e0:	1a000005 	bne	10d7fc <strchr+0x48>
  10d7e4:	ea00004f 	b	10d928 <strchr+0x174>
  10d7e8:	e4d32001 	ldrb	r2, [r3], #1
  10d7ec:	e3520000 	cmp	r2, #0
  10d7f0:	0a000047 	beq	10d914 <strchr+0x160>
  10d7f4:	e1510002 	cmp	r1, r2
  10d7f8:	0a000047 	beq	10d91c <strchr+0x168>
  10d7fc:	e3130003 	tst	r3, #3
  10d800:	e1a00003 	mov	r0, r3
  10d804:	1afffff7 	bne	10d7e8 <strchr+0x34>
  10d808:	e1814401 	orr	r4, r1, r1, lsl #8
  10d80c:	e30f2eff 	movw	r2, #65279	; 0xfeff
  10d810:	e590c000 	ldr	ip, [r0]
  10d814:	e1a03002 	mov	r3, r2
  10d818:	e1844804 	orr	r4, r4, r4, lsl #16
  10d81c:	ea000002 	b	10d82c <strchr+0x78>
  10d820:	e5b0c004 	ldr	ip, [r0, #4]!
  10d824:	e30f2eff 	movw	r2, #65279	; 0xfeff
  10d828:	e1a03002 	mov	r3, r2
  10d82c:	e02ce004 	eor	lr, ip, r4
  10d830:	e34f2efe 	movt	r2, #65278	; 0xfefe
  10d834:	e34f3efe 	movt	r3, #65278	; 0xfefe
  10d838:	e08e2002 	add	r2, lr, r2
  10d83c:	e08c3003 	add	r3, ip, r3
  10d840:	e1c2200e 	bic	r2, r2, lr
  10d844:	e1c3300c 	bic	r3, r3, ip
  10d848:	e1823003 	orr	r3, r2, r3
  10d84c:	e3082080 	movw	r2, #32896	; 0x8080
  10d850:	e7df2812 	bfi	r2, r2, #16, #16
  10d854:	e1130002 	tst	r3, r2
  10d858:	0afffff0 	beq	10d820 <strchr+0x6c>
  10d85c:	e5d03000 	ldrb	r3, [r0]
  10d860:	e3530000 	cmp	r3, #0
  10d864:	0a000007 	beq	10d888 <strchr+0xd4>
  10d868:	e1510003 	cmp	r1, r3
  10d86c:	1a000002 	bne	10d87c <strchr+0xc8>
  10d870:	e8bd8010 	pop	{r4, pc}
  10d874:	e1510003 	cmp	r1, r3
  10d878:	0a000028 	beq	10d920 <strchr+0x16c>
  10d87c:	e5f03001 	ldrb	r3, [r0, #1]!
  10d880:	e3530000 	cmp	r3, #0
  10d884:	1afffffa 	bne	10d874 <strchr+0xc0>
  10d888:	e1a00003 	mov	r0, r3
  10d88c:	e8bd8010 	pop	{r4, pc}
  10d890:	e3100003 	tst	r0, #3
  10d894:	0a00000b 	beq	10d8c8 <strchr+0x114>
  10d898:	e5d03000 	ldrb	r3, [r0]
  10d89c:	e3530000 	cmp	r3, #0
  10d8a0:	12803001 	addne	r3, r0, #1
  10d8a4:	1a000003 	bne	10d8b8 <strchr+0x104>
  10d8a8:	ea00001d 	b	10d924 <strchr+0x170>
  10d8ac:	e5d02000 	ldrb	r2, [r0]
  10d8b0:	e3520000 	cmp	r2, #0
  10d8b4:	0a000015 	beq	10d910 <strchr+0x15c>
  10d8b8:	e3130003 	tst	r3, #3
  10d8bc:	e1a00003 	mov	r0, r3
  10d8c0:	e2833001 	add	r3, r3, #1
  10d8c4:	1afffff8 	bne	10d8ac <strchr+0xf8>
  10d8c8:	e5901000 	ldr	r1, [r0]
  10d8cc:	ea000000 	b	10d8d4 <strchr+0x120>
  10d8d0:	e5b01004 	ldr	r1, [r0, #4]!
  10d8d4:	e30f3eff 	movw	r3, #65279	; 0xfeff
  10d8d8:	e3082080 	movw	r2, #32896	; 0x8080
  10d8dc:	e34f3efe 	movt	r3, #65278	; 0xfefe
  10d8e0:	e0813003 	add	r3, r1, r3
  10d8e4:	e7df2812 	bfi	r2, r2, #16, #16
  10d8e8:	e1c33001 	bic	r3, r3, r1
  10d8ec:	e1130002 	tst	r3, r2
  10d8f0:	0afffff6 	beq	10d8d0 <strchr+0x11c>
  10d8f4:	e5d03000 	ldrb	r3, [r0]
  10d8f8:	e3530000 	cmp	r3, #0
  10d8fc:	08bd8010 	popeq	{r4, pc}
  10d900:	e5f03001 	ldrb	r3, [r0, #1]!
  10d904:	e3530000 	cmp	r3, #0
  10d908:	1afffffc 	bne	10d900 <strchr+0x14c>
  10d90c:	e8bd8010 	pop	{r4, pc}
  10d910:	e8bd8010 	pop	{r4, pc}
  10d914:	e1a00002 	mov	r0, r2
  10d918:	e8bd8010 	pop	{r4, pc}
  10d91c:	e8bd8010 	pop	{r4, pc}
  10d920:	e8bd8010 	pop	{r4, pc}
  10d924:	e8bd8010 	pop	{r4, pc}
  10d928:	e8bd8010 	pop	{r4, pc}
	...
  10d940:	eba2 0003 	sub.w	r0, r2, r3
  10d944:	4770      	bx	lr
  10d946:	bf00      	nop

0010d948 <strcmp>:
  10d948:	7802      	ldrb	r2, [r0, #0]
  10d94a:	780b      	ldrb	r3, [r1, #0]
  10d94c:	2a01      	cmp	r2, #1
  10d94e:	bf28      	it	cs
  10d950:	429a      	cmpcs	r2, r3
  10d952:	d1f5      	bne.n	10d940 <strchr+0x18c>
  10d954:	e96d 4504 	strd	r4, r5, [sp, #-16]!
  10d958:	ea40 0401 	orr.w	r4, r0, r1
  10d95c:	e9cd 6702 	strd	r6, r7, [sp, #8]
  10d960:	f06f 0c00 	mvn.w	ip, #0
  10d964:	ea4f 7244 	mov.w	r2, r4, lsl #29
  10d968:	b312      	cbz	r2, 10d9b0 <strcmp+0x68>
  10d96a:	ea80 0401 	eor.w	r4, r0, r1
  10d96e:	f014 0f07 	tst.w	r4, #7
  10d972:	d16a      	bne.n	10da4a <strcmp+0x102>
  10d974:	f000 0407 	and.w	r4, r0, #7
  10d978:	f020 0007 	bic.w	r0, r0, #7
  10d97c:	f004 0503 	and.w	r5, r4, #3
  10d980:	f021 0107 	bic.w	r1, r1, #7
  10d984:	ea4f 05c5 	mov.w	r5, r5, lsl #3
  10d988:	e8f0 2304 	ldrd	r2, r3, [r0], #16
  10d98c:	f014 0f04 	tst.w	r4, #4
  10d990:	e8f1 6704 	ldrd	r6, r7, [r1], #16
  10d994:	fa0c f405 	lsl.w	r4, ip, r5
  10d998:	ea62 0204 	orn	r2, r2, r4
  10d99c:	ea66 0604 	orn	r6, r6, r4
  10d9a0:	d00a      	beq.n	10d9b8 <strcmp+0x70>
  10d9a2:	ea63 0304 	orn	r3, r3, r4
  10d9a6:	4662      	mov	r2, ip
  10d9a8:	ea67 0704 	orn	r7, r7, r4
  10d9ac:	4666      	mov	r6, ip
  10d9ae:	e003      	b.n	10d9b8 <strcmp+0x70>
  10d9b0:	e8f0 2304 	ldrd	r2, r3, [r0], #16
  10d9b4:	e8f1 6704 	ldrd	r6, r7, [r1], #16
  10d9b8:	fa82 f54c 	uadd8	r5, r2, ip
  10d9bc:	ea82 0406 	eor.w	r4, r2, r6
  10d9c0:	faa4 f48c 	sel	r4, r4, ip
  10d9c4:	bb6c      	cbnz	r4, 10da22 <strcmp+0xda>
  10d9c6:	fa83 f54c 	uadd8	r5, r3, ip
  10d9ca:	ea83 0507 	eor.w	r5, r3, r7
  10d9ce:	faa5 f58c 	sel	r5, r5, ip
  10d9d2:	b995      	cbnz	r5, 10d9fa <strcmp+0xb2>
  10d9d4:	e950 2302 	ldrd	r2, r3, [r0, #-8]
  10d9d8:	e951 6702 	ldrd	r6, r7, [r1, #-8]
  10d9dc:	fa82 f54c 	uadd8	r5, r2, ip
  10d9e0:	ea82 0406 	eor.w	r4, r2, r6
  10d9e4:	faa4 f48c 	sel	r4, r4, ip
  10d9e8:	fa83 f54c 	uadd8	r5, r3, ip
  10d9ec:	ea83 0507 	eor.w	r5, r3, r7
  10d9f0:	faa5 f58c 	sel	r5, r5, ip
  10d9f4:	4325      	orrs	r5, r4
  10d9f6:	d0db      	beq.n	10d9b0 <strcmp+0x68>
  10d9f8:	b99c      	cbnz	r4, 10da22 <strcmp+0xda>
  10d9fa:	ba2d      	rev	r5, r5
  10d9fc:	fab5 f485 	clz	r4, r5
  10da00:	f024 0407 	bic.w	r4, r4, #7
  10da04:	fa27 f104 	lsr.w	r1, r7, r4
  10da08:	e9dd 6702 	ldrd	r6, r7, [sp, #8]
  10da0c:	fa23 f304 	lsr.w	r3, r3, r4
  10da10:	f003 00ff 	and.w	r0, r3, #255	; 0xff
  10da14:	f001 01ff 	and.w	r1, r1, #255	; 0xff
  10da18:	e8fd 4504 	ldrd	r4, r5, [sp], #16
  10da1c:	eba0 0001 	sub.w	r0, r0, r1
  10da20:	4770      	bx	lr
  10da22:	ba24      	rev	r4, r4
  10da24:	fab4 f484 	clz	r4, r4
  10da28:	f024 0407 	bic.w	r4, r4, #7
  10da2c:	fa26 f104 	lsr.w	r1, r6, r4
  10da30:	e9dd 6702 	ldrd	r6, r7, [sp, #8]
  10da34:	fa22 f204 	lsr.w	r2, r2, r4
  10da38:	f002 00ff 	and.w	r0, r2, #255	; 0xff
  10da3c:	f001 01ff 	and.w	r1, r1, #255	; 0xff
  10da40:	e8fd 4504 	ldrd	r4, r5, [sp], #16
  10da44:	eba0 0001 	sub.w	r0, r0, r1
  10da48:	4770      	bx	lr
  10da4a:	f014 0f03 	tst.w	r4, #3
  10da4e:	d13c      	bne.n	10daca <strcmp+0x182>
  10da50:	f010 0403 	ands.w	r4, r0, #3
  10da54:	d128      	bne.n	10daa8 <strcmp+0x160>
  10da56:	f850 2b08 	ldr.w	r2, [r0], #8
  10da5a:	f851 3b08 	ldr.w	r3, [r1], #8
  10da5e:	fa82 f54c 	uadd8	r5, r2, ip
  10da62:	ea82 0503 	eor.w	r5, r2, r3
  10da66:	faa5 f58c 	sel	r5, r5, ip
  10da6a:	b95d      	cbnz	r5, 10da84 <strcmp+0x13c>
  10da6c:	f850 2c04 	ldr.w	r2, [r0, #-4]
  10da70:	f851 3c04 	ldr.w	r3, [r1, #-4]
  10da74:	fa82 f54c 	uadd8	r5, r2, ip
  10da78:	ea82 0503 	eor.w	r5, r2, r3
  10da7c:	faa5 f58c 	sel	r5, r5, ip
  10da80:	2d00      	cmp	r5, #0
  10da82:	d0e8      	beq.n	10da56 <strcmp+0x10e>
  10da84:	ba2d      	rev	r5, r5
  10da86:	fab5 f485 	clz	r4, r5
  10da8a:	f024 0407 	bic.w	r4, r4, #7
  10da8e:	fa23 f104 	lsr.w	r1, r3, r4
  10da92:	fa22 f204 	lsr.w	r2, r2, r4
  10da96:	f002 00ff 	and.w	r0, r2, #255	; 0xff
  10da9a:	f001 01ff 	and.w	r1, r1, #255	; 0xff
  10da9e:	e8fd 4504 	ldrd	r4, r5, [sp], #16
  10daa2:	eba0 0001 	sub.w	r0, r0, r1
  10daa6:	4770      	bx	lr
  10daa8:	ea4f 04c4 	mov.w	r4, r4, lsl #3
  10daac:	f020 0003 	bic.w	r0, r0, #3
  10dab0:	f850 2b08 	ldr.w	r2, [r0], #8
  10dab4:	f021 0103 	bic.w	r1, r1, #3
  10dab8:	f851 3b08 	ldr.w	r3, [r1], #8
  10dabc:	fa0c f404 	lsl.w	r4, ip, r4
  10dac0:	ea62 0204 	orn	r2, r2, r4
  10dac4:	ea63 0304 	orn	r3, r3, r4
  10dac8:	e7c9      	b.n	10da5e <strcmp+0x116>
  10daca:	f010 0403 	ands.w	r4, r0, #3
  10dace:	d01a      	beq.n	10db06 <strcmp+0x1be>
  10dad0:	eba1 0104 	sub.w	r1, r1, r4
  10dad4:	f020 0003 	bic.w	r0, r0, #3
  10dad8:	07e4      	lsls	r4, r4, #31
  10dada:	f850 2b04 	ldr.w	r2, [r0], #4
  10dade:	d006      	beq.n	10daee <strcmp+0x1a6>
  10dae0:	d20f      	bcs.n	10db02 <strcmp+0x1ba>
  10dae2:	788b      	ldrb	r3, [r1, #2]
  10dae4:	fa5f f4a2 	uxtb.w	r4, r2, ror #16
  10dae8:	1ae4      	subs	r4, r4, r3
  10daea:	d106      	bne.n	10dafa <strcmp+0x1b2>
  10daec:	b12b      	cbz	r3, 10dafa <strcmp+0x1b2>
  10daee:	78cb      	ldrb	r3, [r1, #3]
  10daf0:	fa5f f4b2 	uxtb.w	r4, r2, ror #24
  10daf4:	1ae4      	subs	r4, r4, r3
  10daf6:	d100      	bne.n	10dafa <strcmp+0x1b2>
  10daf8:	b91b      	cbnz	r3, 10db02 <strcmp+0x1ba>
  10dafa:	4620      	mov	r0, r4
  10dafc:	f85d 4b10 	ldr.w	r4, [sp], #16
  10db00:	4770      	bx	lr
  10db02:	f101 0104 	add.w	r1, r1, #4
  10db06:	f850 2b04 	ldr.w	r2, [r0], #4
  10db0a:	07cc      	lsls	r4, r1, #31
  10db0c:	f021 0103 	bic.w	r1, r1, #3
  10db10:	f851 3b04 	ldr.w	r3, [r1], #4
  10db14:	d848      	bhi.n	10dba8 <strcmp+0x260>
  10db16:	d224      	bcs.n	10db62 <strcmp+0x21a>
  10db18:	f022 447f 	bic.w	r4, r2, #4278190080	; 0xff000000
  10db1c:	fa82 f54c 	uadd8	r5, r2, ip
  10db20:	ea94 2513 	eors.w	r5, r4, r3, lsr #8
  10db24:	faa5 f58c 	sel	r5, r5, ip
  10db28:	d10a      	bne.n	10db40 <strcmp+0x1f8>
  10db2a:	b965      	cbnz	r5, 10db46 <strcmp+0x1fe>
  10db2c:	f851 3b04 	ldr.w	r3, [r1], #4
  10db30:	ea84 0402 	eor.w	r4, r4, r2
  10db34:	ebb4 6f03 	cmp.w	r4, r3, lsl #24
  10db38:	d10e      	bne.n	10db58 <strcmp+0x210>
  10db3a:	f850 2b04 	ldr.w	r2, [r0], #4
  10db3e:	e7eb      	b.n	10db18 <strcmp+0x1d0>
  10db40:	ea4f 2313 	mov.w	r3, r3, lsr #8
  10db44:	e055      	b.n	10dbf2 <strcmp+0x2aa>
  10db46:	f035 457f 	bics.w	r5, r5, #4278190080	; 0xff000000
  10db4a:	d14d      	bne.n	10dbe8 <strcmp+0x2a0>
  10db4c:	7808      	ldrb	r0, [r1, #0]
  10db4e:	e8fd 4504 	ldrd	r4, r5, [sp], #16
  10db52:	f1c0 0000 	rsb	r0, r0, #0
  10db56:	4770      	bx	lr
  10db58:	ea4f 6212 	mov.w	r2, r2, lsr #24
  10db5c:	f003 03ff 	and.w	r3, r3, #255	; 0xff
  10db60:	e047      	b.n	10dbf2 <strcmp+0x2aa>
  10db62:	ea02 441c 	and.w	r4, r2, ip, lsr #16
  10db66:	fa82 f54c 	uadd8	r5, r2, ip
  10db6a:	ea94 4513 	eors.w	r5, r4, r3, lsr #16
  10db6e:	faa5 f58c 	sel	r5, r5, ip
  10db72:	d10a      	bne.n	10db8a <strcmp+0x242>
  10db74:	b965      	cbnz	r5, 10db90 <strcmp+0x248>
  10db76:	f851 3b04 	ldr.w	r3, [r1], #4
  10db7a:	ea84 0402 	eor.w	r4, r4, r2
  10db7e:	ebb4 4f03 	cmp.w	r4, r3, lsl #16
  10db82:	d10c      	bne.n	10db9e <strcmp+0x256>
  10db84:	f850 2b04 	ldr.w	r2, [r0], #4
  10db88:	e7eb      	b.n	10db62 <strcmp+0x21a>
  10db8a:	ea4f 4313 	mov.w	r3, r3, lsr #16
  10db8e:	e030      	b.n	10dbf2 <strcmp+0x2aa>
  10db90:	ea15 451c 	ands.w	r5, r5, ip, lsr #16
  10db94:	d128      	bne.n	10dbe8 <strcmp+0x2a0>
  10db96:	880b      	ldrh	r3, [r1, #0]
  10db98:	ea4f 4212 	mov.w	r2, r2, lsr #16
  10db9c:	e029      	b.n	10dbf2 <strcmp+0x2aa>
  10db9e:	ea4f 4212 	mov.w	r2, r2, lsr #16
  10dba2:	ea03 431c 	and.w	r3, r3, ip, lsr #16
  10dba6:	e024      	b.n	10dbf2 <strcmp+0x2aa>
  10dba8:	f002 04ff 	and.w	r4, r2, #255	; 0xff
  10dbac:	fa82 f54c 	uadd8	r5, r2, ip
  10dbb0:	ea94 6513 	eors.w	r5, r4, r3, lsr #24
  10dbb4:	faa5 f58c 	sel	r5, r5, ip
  10dbb8:	d10a      	bne.n	10dbd0 <strcmp+0x288>
  10dbba:	b965      	cbnz	r5, 10dbd6 <strcmp+0x28e>
  10dbbc:	f851 3b04 	ldr.w	r3, [r1], #4
  10dbc0:	ea84 0402 	eor.w	r4, r4, r2
  10dbc4:	ebb4 2f03 	cmp.w	r4, r3, lsl #8
  10dbc8:	d109      	bne.n	10dbde <strcmp+0x296>
  10dbca:	f850 2b04 	ldr.w	r2, [r0], #4
  10dbce:	e7eb      	b.n	10dba8 <strcmp+0x260>
  10dbd0:	ea4f 6313 	mov.w	r3, r3, lsr #24
  10dbd4:	e00d      	b.n	10dbf2 <strcmp+0x2aa>
  10dbd6:	f015 0fff 	tst.w	r5, #255	; 0xff
  10dbda:	d105      	bne.n	10dbe8 <strcmp+0x2a0>
  10dbdc:	680b      	ldr	r3, [r1, #0]
  10dbde:	ea4f 2212 	mov.w	r2, r2, lsr #8
  10dbe2:	f023 437f 	bic.w	r3, r3, #4278190080	; 0xff000000
  10dbe6:	e004      	b.n	10dbf2 <strcmp+0x2aa>
  10dbe8:	f04f 0000 	mov.w	r0, #0
  10dbec:	e8fd 4504 	ldrd	r4, r5, [sp], #16
  10dbf0:	4770      	bx	lr
  10dbf2:	ba12      	rev	r2, r2
  10dbf4:	ba1b      	rev	r3, r3
  10dbf6:	fa82 f44c 	uadd8	r4, r2, ip
  10dbfa:	ea82 0403 	eor.w	r4, r2, r3
  10dbfe:	faa4 f58c 	sel	r5, r4, ip
  10dc02:	fab5 f485 	clz	r4, r5
  10dc06:	fa02 f204 	lsl.w	r2, r2, r4
  10dc0a:	fa03 f304 	lsl.w	r3, r3, r4
  10dc0e:	ea4f 6012 	mov.w	r0, r2, lsr #24
  10dc12:	e8fd 4504 	ldrd	r4, r5, [sp], #16
  10dc16:	eba0 6013 	sub.w	r0, r0, r3, lsr #24
  10dc1a:	4770      	bx	lr
  10dc1c:	f3af 8000 	nop.w

0010dc20 <strcpy>:
  10dc20:	f5d1f000 	pld	[r1]
  10dc24:	e0202001 	eor	r2, r0, r1
  10dc28:	e1a0c000 	mov	ip, r0
  10dc2c:	e3120003 	tst	r2, #3
  10dc30:	1a000033 	bne	10dd04 <strcpy+0xe4>
  10dc34:	e3110003 	tst	r1, #3
  10dc38:	1a000022 	bne	10dcc8 <strcpy+0xa8>
  10dc3c:	e52d5004 	push	{r5}		; (str r5, [sp, #-4]!)
  10dc40:	e3a05001 	mov	r5, #1
  10dc44:	e1855405 	orr	r5, r5, r5, lsl #8
  10dc48:	e1855805 	orr	r5, r5, r5, lsl #16
  10dc4c:	e52d4004 	push	{r4}		; (str r4, [sp, #-4]!)
  10dc50:	e3110004 	tst	r1, #4
  10dc54:	e4913004 	ldr	r3, [r1], #4
  10dc58:	0a000005 	beq	10dc74 <strcpy+0x54>
  10dc5c:	e0432005 	sub	r2, r3, r5
  10dc60:	e1d22003 	bics	r2, r2, r3
  10dc64:	e1120385 	tst	r2, r5, lsl #7
  10dc68:	048c3004 	streq	r3, [ip], #4
  10dc6c:	04913004 	ldreq	r3, [r1], #4
  10dc70:	1a00000d 	bne	10dcac <strcpy+0x8c>
  10dc74:	f5d1f008 	pld	[r1, #8]
  10dc78:	e4914004 	ldr	r4, [r1], #4
  10dc7c:	e0432005 	sub	r2, r3, r5
  10dc80:	e1d22003 	bics	r2, r2, r3
  10dc84:	e1120385 	tst	r2, r5, lsl #7
  10dc88:	e0442005 	sub	r2, r4, r5
  10dc8c:	1a000006 	bne	10dcac <strcpy+0x8c>
  10dc90:	e48c3004 	str	r3, [ip], #4
  10dc94:	e1d22004 	bics	r2, r2, r4
  10dc98:	e1120385 	tst	r2, r5, lsl #7
  10dc9c:	04913004 	ldreq	r3, [r1], #4
  10dca0:	048c4004 	streq	r4, [ip], #4
  10dca4:	0afffff2 	beq	10dc74 <strcpy+0x54>
  10dca8:	e1a03004 	mov	r3, r4
  10dcac:	e4cc3001 	strb	r3, [ip], #1
  10dcb0:	e31300ff 	tst	r3, #255	; 0xff
  10dcb4:	e1a03463 	ror	r3, r3, #8
  10dcb8:	1afffffb 	bne	10dcac <strcpy+0x8c>
  10dcbc:	e49d4004 	pop	{r4}		; (ldr r4, [sp], #4)
  10dcc0:	e49d5004 	pop	{r5}		; (ldr r5, [sp], #4)
  10dcc4:	e12fff1e 	bx	lr
  10dcc8:	e3110001 	tst	r1, #1
  10dccc:	0a000003 	beq	10dce0 <strcpy+0xc0>
  10dcd0:	e4d12001 	ldrb	r2, [r1], #1
  10dcd4:	e4cc2001 	strb	r2, [ip], #1
  10dcd8:	e3520000 	cmp	r2, #0
  10dcdc:	012fff1e 	bxeq	lr
  10dce0:	e3110002 	tst	r1, #2
  10dce4:	0affffd4 	beq	10dc3c <strcpy+0x1c>
  10dce8:	e0d120b2 	ldrh	r2, [r1], #2
  10dcec:	e31200ff 	tst	r2, #255	; 0xff
  10dcf0:	10cc20b2 	strhne	r2, [ip], #2
  10dcf4:	05cc2000 	strbeq	r2, [ip]
  10dcf8:	13120cff 	tstne	r2, #65280	; 0xff00
  10dcfc:	1affffce 	bne	10dc3c <strcpy+0x1c>
  10dd00:	e12fff1e 	bx	lr
  10dd04:	e4d12001 	ldrb	r2, [r1], #1
  10dd08:	e4cc2001 	strb	r2, [ip], #1
  10dd0c:	e3520000 	cmp	r2, #0
  10dd10:	1afffffb 	bne	10dd04 <strcpy+0xe4>
  10dd14:	e12fff1e 	bx	lr

0010dd18 <strlcpy>:
  10dd18:	e3520000 	cmp	r2, #0
  10dd1c:	e1a03001 	mov	r3, r1
  10dd20:	0a000008 	beq	10dd48 <strlcpy+0x30>
  10dd24:	ea000003 	b	10dd38 <strlcpy+0x20>
  10dd28:	e4d3c001 	ldrb	ip, [r3], #1
  10dd2c:	e35c0000 	cmp	ip, #0
  10dd30:	e4c0c001 	strb	ip, [r0], #1
  10dd34:	0a000006 	beq	10dd54 <strlcpy+0x3c>
  10dd38:	e2522001 	subs	r2, r2, #1
  10dd3c:	1afffff9 	bne	10dd28 <strlcpy+0x10>
  10dd40:	e3a02000 	mov	r2, #0
  10dd44:	e5c02000 	strb	r2, [r0]
  10dd48:	e4d32001 	ldrb	r2, [r3], #1
  10dd4c:	e3520000 	cmp	r2, #0
  10dd50:	1afffffc 	bne	10dd48 <strlcpy+0x30>
  10dd54:	e0610003 	rsb	r0, r1, r3
  10dd58:	e2400001 	sub	r0, r0, #1
  10dd5c:	e12fff1e 	bx	lr

0010dd60 <strncasecmp>:
  10dd60:	e3520000 	cmp	r2, #0
  10dd64:	0a00001f 	beq	10dde8 <strncasecmp+0x88>
  10dd68:	e3073980 	movw	r3, #31104	; 0x7980
  10dd6c:	e3403011 	movt	r3, #17
  10dd70:	e92d4010 	push	{r4, lr}
  10dd74:	e5934000 	ldr	r4, [r3]
  10dd78:	ea000005 	b	10dd94 <strncasecmp+0x34>
  10dd7c:	e05cc003 	subs	ip, ip, r3
  10dd80:	1a000013 	bne	10ddd4 <strncasecmp+0x74>
  10dd84:	e3530000 	cmp	r3, #0
  10dd88:	0a000011 	beq	10ddd4 <strncasecmp+0x74>
  10dd8c:	e2522001 	subs	r2, r2, #1
  10dd90:	0a000011 	beq	10dddc <strncasecmp+0x7c>
  10dd94:	e4d0e001 	ldrb	lr, [r0], #1
  10dd98:	e084300e 	add	r3, r4, lr
  10dd9c:	e1a0c00e 	mov	ip, lr
  10dda0:	e5d33001 	ldrb	r3, [r3, #1]
  10dda4:	e2033003 	and	r3, r3, #3
  10dda8:	e3530001 	cmp	r3, #1
  10ddac:	e4d13001 	ldrb	r3, [r1], #1
  10ddb0:	028ec020 	addeq	ip, lr, #32
  10ddb4:	e084e003 	add	lr, r4, r3
  10ddb8:	e5dee001 	ldrb	lr, [lr, #1]
  10ddbc:	e20ee003 	and	lr, lr, #3
  10ddc0:	e35e0001 	cmp	lr, #1
  10ddc4:	1affffec 	bne	10dd7c <strncasecmp+0x1c>
  10ddc8:	e2833020 	add	r3, r3, #32
  10ddcc:	e05cc003 	subs	ip, ip, r3
  10ddd0:	0affffed 	beq	10dd8c <strncasecmp+0x2c>
  10ddd4:	e1a0000c 	mov	r0, ip
  10ddd8:	e8bd8010 	pop	{r4, pc}
  10dddc:	e1a0c002 	mov	ip, r2
  10dde0:	e1a0000c 	mov	r0, ip
  10dde4:	e8bd8010 	pop	{r4, pc}
  10dde8:	e1a00002 	mov	r0, r2
  10ddec:	e12fff1e 	bx	lr

0010ddf0 <strncmp>:
  10ddf0:	e3520000 	cmp	r2, #0
  10ddf4:	0a000039 	beq	10dee0 <strncmp+0xf0>
  10ddf8:	e1803001 	orr	r3, r0, r1
  10ddfc:	e2133003 	ands	r3, r3, #3
  10de00:	e92d4070 	push	{r4, r5, r6, lr}
  10de04:	1a000025 	bne	10dea0 <strncmp+0xb0>
  10de08:	e3520003 	cmp	r2, #3
  10de0c:	9a000023 	bls	10dea0 <strncmp+0xb0>
  10de10:	e590e000 	ldr	lr, [r0]
  10de14:	e591c000 	ldr	ip, [r1]
  10de18:	e15e000c 	cmp	lr, ip
  10de1c:	1a00001f 	bne	10dea0 <strncmp+0xb0>
  10de20:	e2522004 	subs	r2, r2, #4
  10de24:	0a000031 	beq	10def0 <strncmp+0x100>
  10de28:	e30fceff 	movw	ip, #65279	; 0xfeff
  10de2c:	e3084080 	movw	r4, #32896	; 0x8080
  10de30:	e34fcefe 	movt	ip, #65278	; 0xfefe
  10de34:	e08ec00c 	add	ip, lr, ip
  10de38:	e1ccc00e 	bic	ip, ip, lr
  10de3c:	e7df4814 	bfi	r4, r4, #16, #16
  10de40:	e11c0004 	tst	ip, r4
  10de44:	1a00002b 	bne	10def8 <strncmp+0x108>
  10de48:	e2805004 	add	r5, r0, #4
  10de4c:	e2814004 	add	r4, r1, #4
  10de50:	ea000009 	b	10de7c <strncmp+0x8c>
  10de54:	e495e004 	ldr	lr, [r5], #4
  10de58:	e5916000 	ldr	r6, [r1]
  10de5c:	e08e3003 	add	r3, lr, r3
  10de60:	e15e0006 	cmp	lr, r6
  10de64:	e1c3300e 	bic	r3, r3, lr
  10de68:	1a00000c 	bne	10dea0 <strncmp+0xb0>
  10de6c:	e2522004 	subs	r2, r2, #4
  10de70:	0a00001e 	beq	10def0 <strncmp+0x100>
  10de74:	e113000c 	tst	r3, ip
  10de78:	1a000016 	bne	10ded8 <strncmp+0xe8>
  10de7c:	e3520003 	cmp	r2, #3
  10de80:	e30f3eff 	movw	r3, #65279	; 0xfeff
  10de84:	e308c080 	movw	ip, #32896	; 0x8080
  10de88:	e1a01004 	mov	r1, r4
  10de8c:	e34f3efe 	movt	r3, #65278	; 0xfefe
  10de90:	e7dfc81c 	bfi	ip, ip, #16, #16
  10de94:	e1a00005 	mov	r0, r5
  10de98:	e2844004 	add	r4, r4, #4
  10de9c:	8affffec 	bhi	10de54 <strncmp+0x64>
  10dea0:	e5d03000 	ldrb	r3, [r0]
  10dea4:	e2422001 	sub	r2, r2, #1
  10dea8:	e5d1c000 	ldrb	ip, [r1]
  10deac:	e153000c 	cmp	r3, ip
  10deb0:	0a000005 	beq	10decc <strncmp+0xdc>
  10deb4:	ea00000b 	b	10dee8 <strncmp+0xf8>
  10deb8:	e5f03001 	ldrb	r3, [r0, #1]!
  10debc:	e2422001 	sub	r2, r2, #1
  10dec0:	e5f1c001 	ldrb	ip, [r1, #1]!
  10dec4:	e153000c 	cmp	r3, ip
  10dec8:	1a000006 	bne	10dee8 <strncmp+0xf8>
  10decc:	e3520000 	cmp	r2, #0
  10ded0:	13530000 	cmpne	r3, #0
  10ded4:	1afffff7 	bne	10deb8 <strncmp+0xc8>
  10ded8:	e3a00000 	mov	r0, #0
  10dedc:	e8bd8070 	pop	{r4, r5, r6, pc}
  10dee0:	e1a00002 	mov	r0, r2
  10dee4:	e12fff1e 	bx	lr
  10dee8:	e06c0003 	rsb	r0, ip, r3
  10deec:	e8bd8070 	pop	{r4, r5, r6, pc}
  10def0:	e1a00002 	mov	r0, r2
  10def4:	e8bd8070 	pop	{r4, r5, r6, pc}
  10def8:	e1a00003 	mov	r0, r3
  10defc:	e8bd8070 	pop	{r4, r5, r6, pc}

0010df00 <strncpy>:
  10df00:	e1803001 	orr	r3, r0, r1
  10df04:	e3130003 	tst	r3, #3
  10df08:	e92d4030 	push	{r4, r5, lr}
  10df0c:	03a03001 	moveq	r3, #1
  10df10:	13a03000 	movne	r3, #0
  10df14:	e3520003 	cmp	r2, #3
  10df18:	93a03000 	movls	r3, #0
  10df1c:	82033001 	andhi	r3, r3, #1
  10df20:	e3530000 	cmp	r3, #0
  10df24:	01a05000 	moveq	r5, r0
  10df28:	0a000010 	beq	10df70 <strncpy+0x70>
  10df2c:	e1a0c001 	mov	ip, r1
  10df30:	e1a05000 	mov	r5, r0
  10df34:	e1a0100c 	mov	r1, ip
  10df38:	e49c4004 	ldr	r4, [ip], #4
  10df3c:	e30f3eff 	movw	r3, #65279	; 0xfeff
  10df40:	e308e080 	movw	lr, #32896	; 0x8080
  10df44:	e34f3efe 	movt	r3, #65278	; 0xfefe
  10df48:	e0843003 	add	r3, r4, r3
  10df4c:	e1c33004 	bic	r3, r3, r4
  10df50:	e7dfe81e 	bfi	lr, lr, #16, #16
  10df54:	e113000e 	tst	r3, lr
  10df58:	1a000004 	bne	10df70 <strncpy+0x70>
  10df5c:	e2422004 	sub	r2, r2, #4
  10df60:	e4854004 	str	r4, [r5], #4
  10df64:	e3520003 	cmp	r2, #3
  10df68:	e1a0100c 	mov	r1, ip
  10df6c:	8afffff0 	bhi	10df34 <strncpy+0x34>
  10df70:	e3520000 	cmp	r2, #0
  10df74:	08bd8030 	popeq	{r4, r5, pc}
  10df78:	e5d1c000 	ldrb	ip, [r1]
  10df7c:	e2422001 	sub	r2, r2, #1
  10df80:	e2853001 	add	r3, r5, #1
  10df84:	e2811001 	add	r1, r1, #1
  10df88:	e35c0000 	cmp	ip, #0
  10df8c:	e5c5c000 	strb	ip, [r5]
  10df90:	1a000004 	bne	10dfa8 <strncpy+0xa8>
  10df94:	ea000007 	b	10dfb8 <strncpy+0xb8>
  10df98:	e4d1c001 	ldrb	ip, [r1], #1
  10df9c:	e35c0000 	cmp	ip, #0
  10dfa0:	e4c3c001 	strb	ip, [r3], #1
  10dfa4:	0a000003 	beq	10dfb8 <strncpy+0xb8>
  10dfa8:	e3520000 	cmp	r2, #0
  10dfac:	e2422001 	sub	r2, r2, #1
  10dfb0:	1afffff8 	bne	10df98 <strncpy+0x98>
  10dfb4:	e8bd8030 	pop	{r4, r5, pc}
  10dfb8:	e3520000 	cmp	r2, #0
  10dfbc:	10832002 	addne	r2, r3, r2
  10dfc0:	13a01000 	movne	r1, #0
  10dfc4:	0a000003 	beq	10dfd8 <strncpy+0xd8>
  10dfc8:	e4c31001 	strb	r1, [r3], #1
  10dfcc:	e1530002 	cmp	r3, r2
  10dfd0:	1afffffc 	bne	10dfc8 <strncpy+0xc8>
  10dfd4:	e8bd8030 	pop	{r4, r5, pc}
  10dfd8:	e8bd8030 	pop	{r4, r5, pc}

0010dfdc <_strtol_r>:
  10dfdc:	e92d4ff0 	push	{r4, r5, r6, r7, r8, r9, sl, fp, lr}
  10dfe0:	e307c980 	movw	ip, #31104	; 0x7980
  10dfe4:	e24dd014 	sub	sp, sp, #20
  10dfe8:	e340c011 	movt	ip, #17
  10dfec:	e1a0b003 	mov	fp, r3
  10dff0:	e1a09001 	mov	r9, r1
  10dff4:	e58d000c 	str	r0, [sp, #12]
  10dff8:	e1a0a002 	mov	sl, r2
  10dffc:	e59c7000 	ldr	r7, [ip]
  10e000:	e1a03001 	mov	r3, r1
  10e004:	ea000000 	b	10e00c <_strtol_r+0x30>
  10e008:	e1a03004 	mov	r3, r4
  10e00c:	e1a04003 	mov	r4, r3
  10e010:	e4d46001 	ldrb	r6, [r4], #1
  10e014:	e0872006 	add	r2, r7, r6
  10e018:	e5d2c001 	ldrb	ip, [r2, #1]
  10e01c:	e20cc008 	and	ip, ip, #8
  10e020:	e21cc0ff 	ands	ip, ip, #255	; 0xff
  10e024:	1afffff7 	bne	10e008 <_strtol_r+0x2c>
  10e028:	e356002d 	cmp	r6, #45	; 0x2d
  10e02c:	0a000052 	beq	10e17c <_strtol_r+0x1a0>
  10e030:	e356002b 	cmp	r6, #43	; 0x2b
  10e034:	e1a0500c 	mov	r5, ip
  10e038:	02834002 	addeq	r4, r3, #2
  10e03c:	05d36001 	ldrbeq	r6, [r3, #1]
  10e040:	e3db3010 	bics	r3, fp, #16
  10e044:	1a000007 	bne	10e068 <_strtol_r+0x8c>
  10e048:	e16f3f1b 	clz	r3, fp
  10e04c:	e3560030 	cmp	r6, #48	; 0x30
  10e050:	e1a032a3 	lsr	r3, r3, #5
  10e054:	0a00004c 	beq	10e18c <_strtol_r+0x1b0>
  10e058:	e3530000 	cmp	r3, #0
  10e05c:	13a0b00a 	movne	fp, #10
  10e060:	11a0800b 	movne	r8, fp
  10e064:	1a000000 	bne	10e06c <_strtol_r+0x90>
  10e068:	e1a0800b 	mov	r8, fp
  10e06c:	e3550000 	cmp	r5, #0
  10e070:	e1a01008 	mov	r1, r8
  10e074:	13a03102 	movne	r3, #-2147483648	; 0x80000000
  10e078:	03e03102 	mvneq	r3, #-2147483648	; 0x80000000
  10e07c:	e1a00003 	mov	r0, r3
  10e080:	e58d3008 	str	r3, [sp, #8]
  10e084:	ebffd80e 	bl	1040c4 <__aeabi_uidivmod>
  10e088:	e59d3008 	ldr	r3, [sp, #8]
  10e08c:	e1a00003 	mov	r0, r3
  10e090:	e58d1004 	str	r1, [sp, #4]
  10e094:	e1a01008 	mov	r1, r8
  10e098:	ebffd78e 	bl	103ed8 <__aeabi_uidiv>
  10e09c:	e3a01000 	mov	r1, #0
  10e0a0:	e1a0e001 	mov	lr, r1
  10e0a4:	e59d2004 	ldr	r2, [sp, #4]
  10e0a8:	ea000009 	b	10e0d4 <_strtol_r+0xf8>
  10e0ac:	e1560002 	cmp	r6, r2
  10e0b0:	d3a03000 	movle	r3, #0
  10e0b4:	c3a03001 	movgt	r3, #1
  10e0b8:	e15e0000 	cmp	lr, r0
  10e0bc:	13a03000 	movne	r3, #0
  10e0c0:	e3530000 	cmp	r3, #0
  10e0c4:	1a000014 	bne	10e11c <_strtol_r+0x140>
  10e0c8:	e02e6e98 	mla	lr, r8, lr, r6
  10e0cc:	e3a01001 	mov	r1, #1
  10e0d0:	e4d46001 	ldrb	r6, [r4], #1
  10e0d4:	e0873006 	add	r3, r7, r6
  10e0d8:	e5d33001 	ldrb	r3, [r3, #1]
  10e0dc:	e3130004 	tst	r3, #4
  10e0e0:	12466030 	subne	r6, r6, #48	; 0x30
  10e0e4:	1a000005 	bne	10e100 <_strtol_r+0x124>
  10e0e8:	e2133003 	ands	r3, r3, #3
  10e0ec:	0a00000c 	beq	10e124 <_strtol_r+0x148>
  10e0f0:	e3530001 	cmp	r3, #1
  10e0f4:	03a03037 	moveq	r3, #55	; 0x37
  10e0f8:	13a03057 	movne	r3, #87	; 0x57
  10e0fc:	e0636006 	rsb	r6, r3, r6
  10e100:	e15b0006 	cmp	fp, r6
  10e104:	da000006 	ble	10e124 <_strtol_r+0x148>
  10e108:	e15e0000 	cmp	lr, r0
  10e10c:	93a03000 	movls	r3, #0
  10e110:	83a03001 	movhi	r3, #1
  10e114:	e1933fa1 	orrs	r3, r3, r1, lsr #31
  10e118:	0affffe3 	beq	10e0ac <_strtol_r+0xd0>
  10e11c:	e3e01000 	mvn	r1, #0
  10e120:	eaffffea 	b	10e0d0 <_strtol_r+0xf4>
  10e124:	e3710001 	cmn	r1, #1
  10e128:	0a000009 	beq	10e154 <_strtol_r+0x178>
  10e12c:	e2650000 	rsb	r0, r5, #0
  10e130:	e35a0000 	cmp	sl, #0
  10e134:	e020000e 	eor	r0, r0, lr
  10e138:	e0800005 	add	r0, r0, r5
  10e13c:	0a000002 	beq	10e14c <_strtol_r+0x170>
  10e140:	e3510000 	cmp	r1, #0
  10e144:	1a00000a 	bne	10e174 <_strtol_r+0x198>
  10e148:	e58a9000 	str	r9, [sl]
  10e14c:	e28dd014 	add	sp, sp, #20
  10e150:	e8bd8ff0 	pop	{r4, r5, r6, r7, r8, r9, sl, fp, pc}
  10e154:	e3550000 	cmp	r5, #0
  10e158:	e59d200c 	ldr	r2, [sp, #12]
  10e15c:	e3a03022 	mov	r3, #34	; 0x22
  10e160:	13a00102 	movne	r0, #-2147483648	; 0x80000000
  10e164:	03e00102 	mvneq	r0, #-2147483648	; 0x80000000
  10e168:	e35a0000 	cmp	sl, #0
  10e16c:	e5823000 	str	r3, [r2]
  10e170:	0afffff5 	beq	10e14c <_strtol_r+0x170>
  10e174:	e2449001 	sub	r9, r4, #1
  10e178:	eafffff2 	b	10e148 <_strtol_r+0x16c>
  10e17c:	e2834002 	add	r4, r3, #2
  10e180:	e5d36001 	ldrb	r6, [r3, #1]
  10e184:	e3a05001 	mov	r5, #1
  10e188:	eaffffac 	b	10e040 <_strtol_r+0x64>
  10e18c:	e5d42000 	ldrb	r2, [r4]
  10e190:	e20220df 	and	r2, r2, #223	; 0xdf
  10e194:	e3520058 	cmp	r2, #88	; 0x58
  10e198:	1a000004 	bne	10e1b0 <_strtol_r+0x1d4>
  10e19c:	e3a0b010 	mov	fp, #16
  10e1a0:	e5d46001 	ldrb	r6, [r4, #1]
  10e1a4:	e1a0800b 	mov	r8, fp
  10e1a8:	e2844002 	add	r4, r4, #2
  10e1ac:	eaffffae 	b	10e06c <_strtol_r+0x90>
  10e1b0:	e3530000 	cmp	r3, #0
  10e1b4:	13a0b008 	movne	fp, #8
  10e1b8:	eaffffaa 	b	10e068 <_strtol_r+0x8c>

0010e1bc <strtol>:
  10e1bc:	e307c988 	movw	ip, #31112	; 0x7988
  10e1c0:	e1a03002 	mov	r3, r2
  10e1c4:	e340c011 	movt	ip, #17
  10e1c8:	e1a02001 	mov	r2, r1
  10e1cc:	e1a01000 	mov	r1, r0
  10e1d0:	e59c0000 	ldr	r0, [ip]
  10e1d4:	eaffff80 	b	10dfdc <_strtol_r>

0010e1d8 <__sprint_r.part.0>:
  10e1d8:	e5913064 	ldr	r3, [r1, #100]	; 0x64
  10e1dc:	e92d47f0 	push	{r4, r5, r6, r7, r8, r9, sl, lr}
  10e1e0:	e3130a02 	tst	r3, #8192	; 0x2000
  10e1e4:	e1a07001 	mov	r7, r1
  10e1e8:	e1a0a002 	mov	sl, r2
  10e1ec:	0a000020 	beq	10e274 <__sprint_r.part.0+0x9c>
  10e1f0:	e5923008 	ldr	r3, [r2, #8]
  10e1f4:	e5929000 	ldr	r9, [r2]
  10e1f8:	e3530000 	cmp	r3, #0
  10e1fc:	12899008 	addne	r9, r9, #8
  10e200:	11a08000 	movne	r8, r0
  10e204:	0a000018 	beq	10e26c <__sprint_r.part.0+0x94>
  10e208:	e9190060 	ldmdb	r9, {r5, r6}
  10e20c:	e1b06126 	lsrs	r6, r6, #2
  10e210:	12455004 	subne	r5, r5, #4
  10e214:	13a04000 	movne	r4, #0
  10e218:	1a000002 	bne	10e228 <__sprint_r.part.0+0x50>
  10e21c:	ea00000c 	b	10e254 <__sprint_r.part.0+0x7c>
  10e220:	e1560004 	cmp	r6, r4
  10e224:	0a00000a 	beq	10e254 <__sprint_r.part.0+0x7c>
  10e228:	e1a02007 	mov	r2, r7
  10e22c:	e5b51004 	ldr	r1, [r5, #4]!
  10e230:	e1a00008 	mov	r0, r8
  10e234:	e2844001 	add	r4, r4, #1
  10e238:	eb00078f 	bl	11007c <_fputwc_r>
  10e23c:	e3700001 	cmn	r0, #1
  10e240:	1afffff6 	bne	10e220 <__sprint_r.part.0+0x48>
  10e244:	e3a03000 	mov	r3, #0
  10e248:	e58a3008 	str	r3, [sl, #8]
  10e24c:	e58a3004 	str	r3, [sl, #4]
  10e250:	e8bd87f0 	pop	{r4, r5, r6, r7, r8, r9, sl, pc}
  10e254:	e59a3008 	ldr	r3, [sl, #8]
  10e258:	e2899008 	add	r9, r9, #8
  10e25c:	e0436106 	sub	r6, r3, r6, lsl #2
  10e260:	e58a6008 	str	r6, [sl, #8]
  10e264:	e3560000 	cmp	r6, #0
  10e268:	1affffe6 	bne	10e208 <__sprint_r.part.0+0x30>
  10e26c:	e3a00000 	mov	r0, #0
  10e270:	eafffff3 	b	10e244 <__sprint_r.part.0+0x6c>
  10e274:	ebffeea3 	bl	109d08 <__sfvwrite_r>
  10e278:	eafffff1 	b	10e244 <__sprint_r.part.0+0x6c>

0010e27c <__sprint_r>:
  10e27c:	e5923008 	ldr	r3, [r2, #8]
  10e280:	e3530000 	cmp	r3, #0
  10e284:	0a000000 	beq	10e28c <__sprint_r+0x10>
  10e288:	eaffffd2 	b	10e1d8 <__sprint_r.part.0>
  10e28c:	e5823004 	str	r3, [r2, #4]
  10e290:	e1a00003 	mov	r0, r3
  10e294:	e12fff1e 	bx	lr

0010e298 <_vfiprintf_r>:
  10e298:	e92d4ff0 	push	{r4, r5, r6, r7, r8, r9, sl, fp, lr}
  10e29c:	e24ddf49 	sub	sp, sp, #292	; 0x124
  10e2a0:	e28d8060 	add	r8, sp, #96	; 0x60
  10e2a4:	e1a0a000 	mov	sl, r0
  10e2a8:	e58d100c 	str	r1, [sp, #12]
  10e2ac:	e1a05002 	mov	r5, r2
  10e2b0:	e1a00008 	mov	r0, r8
  10e2b4:	e3a02008 	mov	r2, #8
  10e2b8:	e3a01000 	mov	r1, #0
  10e2bc:	e1a04003 	mov	r4, r3
  10e2c0:	ebfff778 	bl	10c0a8 <memset>
  10e2c4:	e35a0000 	cmp	sl, #0
  10e2c8:	e58d4024 	str	r4, [sp, #36]	; 0x24
  10e2cc:	0a000002 	beq	10e2dc <_vfiprintf_r+0x44>
  10e2d0:	e59a3038 	ldr	r3, [sl, #56]	; 0x38
  10e2d4:	e3530000 	cmp	r3, #0
  10e2d8:	0a000135 	beq	10e7b4 <_vfiprintf_r+0x51c>
  10e2dc:	e59d300c 	ldr	r3, [sp, #12]
  10e2e0:	e1d330bc 	ldrh	r3, [r3, #12]
  10e2e4:	e6ff2073 	uxth	r2, r3
  10e2e8:	e3120a02 	tst	r2, #8192	; 0x2000
  10e2ec:	1a000006 	bne	10e30c <_vfiprintf_r+0x74>
  10e2f0:	e59d100c 	ldr	r1, [sp, #12]
  10e2f4:	e3832a02 	orr	r2, r3, #8192	; 0x2000
  10e2f8:	e5913064 	ldr	r3, [r1, #100]	; 0x64
  10e2fc:	e1c120bc 	strh	r2, [r1, #12]
  10e300:	e6ff2072 	uxth	r2, r2
  10e304:	e3c33a02 	bic	r3, r3, #8192	; 0x2000
  10e308:	e5813064 	str	r3, [r1, #100]	; 0x64
  10e30c:	e3120008 	tst	r2, #8
  10e310:	0a000112 	beq	10e760 <_vfiprintf_r+0x4c8>
  10e314:	e59d300c 	ldr	r3, [sp, #12]
  10e318:	e5933010 	ldr	r3, [r3, #16]
  10e31c:	e3530000 	cmp	r3, #0
  10e320:	0a00010e 	beq	10e760 <_vfiprintf_r+0x4c8>
  10e324:	e202201a 	and	r2, r2, #26
  10e328:	e352000a 	cmp	r2, #10
  10e32c:	0a000115 	beq	10e788 <_vfiprintf_r+0x4f0>
  10e330:	e3a03000 	mov	r3, #0
  10e334:	e3081348 	movw	r1, #33608	; 0x8348
  10e338:	e58d3034 	str	r3, [sp, #52]	; 0x34
  10e33c:	e3401011 	movt	r1, #17
  10e340:	e58d3078 	str	r3, [sp, #120]	; 0x78
  10e344:	e3060b70 	movw	r0, #27504	; 0x6b70
  10e348:	e58d3038 	str	r3, [sp, #56]	; 0x38
  10e34c:	e1a06005 	mov	r6, r5
  10e350:	e58d3074 	str	r3, [sp, #116]	; 0x74
  10e354:	e1a07001 	mov	r7, r1
  10e358:	e58d303c 	str	r3, [sp, #60]	; 0x3c
  10e35c:	e3400011 	movt	r0, #17
  10e360:	e58d3040 	str	r3, [sp, #64]	; 0x40
  10e364:	e58d301c 	str	r3, [sp, #28]
  10e368:	e28d307c 	add	r3, sp, #124	; 0x7c
  10e36c:	e58d0030 	str	r0, [sp, #48]	; 0x30
  10e370:	e1a0b003 	mov	fp, r3
  10e374:	e58d3070 	str	r3, [sp, #112]	; 0x70
  10e378:	e1a04006 	mov	r4, r6
  10e37c:	ea000003 	b	10e390 <_vfiprintf_r+0xf8>
  10e380:	e59d2058 	ldr	r2, [sp, #88]	; 0x58
  10e384:	e3520025 	cmp	r2, #37	; 0x25
  10e388:	0a000015 	beq	10e3e4 <_vfiprintf_r+0x14c>
  10e38c:	e0844003 	add	r4, r4, r3
  10e390:	e5975000 	ldr	r5, [r7]
  10e394:	ebfff30d 	bl	10afd0 <__locale_mb_cur_max>
  10e398:	e1a09000 	mov	r9, r0
  10e39c:	ebfff308 	bl	10afc4 <__locale_charset>
  10e3a0:	e1a03009 	mov	r3, r9
  10e3a4:	e58d8004 	str	r8, [sp, #4]
  10e3a8:	e1a02004 	mov	r2, r4
  10e3ac:	e28d1058 	add	r1, sp, #88	; 0x58
  10e3b0:	e58d0000 	str	r0, [sp]
  10e3b4:	e1a0000a 	mov	r0, sl
  10e3b8:	e12fff35 	blx	r5
  10e3bc:	e3500000 	cmp	r0, #0
  10e3c0:	e1a03000 	mov	r3, r0
  10e3c4:	0a000006 	beq	10e3e4 <_vfiprintf_r+0x14c>
  10e3c8:	aaffffec 	bge	10e380 <_vfiprintf_r+0xe8>
  10e3cc:	e3a02008 	mov	r2, #8
  10e3d0:	e3a01000 	mov	r1, #0
  10e3d4:	e1a00008 	mov	r0, r8
  10e3d8:	ebfff732 	bl	10c0a8 <memset>
  10e3dc:	e3a03001 	mov	r3, #1
  10e3e0:	eaffffe9 	b	10e38c <_vfiprintf_r+0xf4>
  10e3e4:	e0549006 	subs	r9, r4, r6
  10e3e8:	e1a05000 	mov	r5, r0
  10e3ec:	0a00000d 	beq	10e428 <_vfiprintf_r+0x190>
  10e3f0:	e59d3074 	ldr	r3, [sp, #116]	; 0x74
  10e3f4:	e59d2078 	ldr	r2, [sp, #120]	; 0x78
  10e3f8:	e2833001 	add	r3, r3, #1
  10e3fc:	e58b6000 	str	r6, [fp]
  10e400:	e3530007 	cmp	r3, #7
  10e404:	e58b9004 	str	r9, [fp, #4]
  10e408:	e58d3074 	str	r3, [sp, #116]	; 0x74
  10e40c:	d28bb008 	addle	fp, fp, #8
  10e410:	e0893002 	add	r3, r9, r2
  10e414:	e58d3078 	str	r3, [sp, #120]	; 0x78
  10e418:	ca00006c 	bgt	10e5d0 <_vfiprintf_r+0x338>
  10e41c:	e59d301c 	ldr	r3, [sp, #28]
  10e420:	e0833009 	add	r3, r3, r9
  10e424:	e58d301c 	str	r3, [sp, #28]
  10e428:	e3550000 	cmp	r5, #0
  10e42c:	0a000533 	beq	10f900 <_vfiprintf_r+0x1668>
  10e430:	e3a03000 	mov	r3, #0
  10e434:	e58d3020 	str	r3, [sp, #32]
  10e438:	e5cd3053 	strb	r3, [sp, #83]	; 0x53
  10e43c:	e2846001 	add	r6, r4, #1
  10e440:	e58d3008 	str	r3, [sp, #8]
  10e444:	e3e02000 	mvn	r2, #0
  10e448:	e5d43001 	ldrb	r3, [r4, #1]
  10e44c:	e58d2014 	str	r2, [sp, #20]
  10e450:	e2866001 	add	r6, r6, #1
  10e454:	e2432020 	sub	r2, r3, #32
  10e458:	e352005a 	cmp	r2, #90	; 0x5a
  10e45c:	979ff102 	ldrls	pc, [pc, r2, lsl #2]
  10e460:	ea000253 	b	10edb4 <_vfiprintf_r+0xb1c>
  10e464:	0010eb78 	.word	0x0010eb78
  10e468:	0010edb4 	.word	0x0010edb4
  10e46c:	0010edb4 	.word	0x0010edb4
  10e470:	0010eb94 	.word	0x0010eb94
  10e474:	0010edb4 	.word	0x0010edb4
  10e478:	0010edb4 	.word	0x0010edb4
  10e47c:	0010edb4 	.word	0x0010edb4
  10e480:	0010e5f8 	.word	0x0010e5f8
  10e484:	0010edb4 	.word	0x0010edb4
  10e488:	0010edb4 	.word	0x0010edb4
  10e48c:	0010eb54 	.word	0x0010eb54
  10e490:	0010ed14 	.word	0x0010ed14
  10e494:	0010edb4 	.word	0x0010edb4
  10e498:	0010e7d0 	.word	0x0010e7d0
  10e49c:	0010ea44 	.word	0x0010ea44
  10e4a0:	0010edb4 	.word	0x0010edb4
  10e4a4:	0010eabc 	.word	0x0010eabc
  10e4a8:	0010ead0 	.word	0x0010ead0
  10e4ac:	0010ead0 	.word	0x0010ead0
  10e4b0:	0010ead0 	.word	0x0010ead0
  10e4b4:	0010ead0 	.word	0x0010ead0
  10e4b8:	0010ead0 	.word	0x0010ead0
  10e4bc:	0010ead0 	.word	0x0010ead0
  10e4c0:	0010ead0 	.word	0x0010ead0
  10e4c4:	0010ead0 	.word	0x0010ead0
  10e4c8:	0010ead0 	.word	0x0010ead0
  10e4cc:	0010edb4 	.word	0x0010edb4
  10e4d0:	0010edb4 	.word	0x0010edb4
  10e4d4:	0010edb4 	.word	0x0010edb4
  10e4d8:	0010edb4 	.word	0x0010edb4
  10e4dc:	0010edb4 	.word	0x0010edb4
  10e4e0:	0010edb4 	.word	0x0010edb4
  10e4e4:	0010edb4 	.word	0x0010edb4
  10e4e8:	0010edb4 	.word	0x0010edb4
  10e4ec:	0010edb4 	.word	0x0010edb4
  10e4f0:	0010eb00 	.word	0x0010eb00
  10e4f4:	0010e6b0 	.word	0x0010e6b0
  10e4f8:	0010edb4 	.word	0x0010edb4
  10e4fc:	0010edb4 	.word	0x0010edb4
  10e500:	0010edb4 	.word	0x0010edb4
  10e504:	0010edb4 	.word	0x0010edb4
  10e508:	0010edb4 	.word	0x0010edb4
  10e50c:	0010edb4 	.word	0x0010edb4
  10e510:	0010edb4 	.word	0x0010edb4
  10e514:	0010edb4 	.word	0x0010edb4
  10e518:	0010edb4 	.word	0x0010edb4
  10e51c:	0010edb4 	.word	0x0010edb4
  10e520:	0010e708 	.word	0x0010e708
  10e524:	0010edb4 	.word	0x0010edb4
  10e528:	0010edb4 	.word	0x0010edb4
  10e52c:	0010edb4 	.word	0x0010edb4
  10e530:	0010eba8 	.word	0x0010eba8
  10e534:	0010edb4 	.word	0x0010edb4
  10e538:	0010e64c 	.word	0x0010e64c
  10e53c:	0010edb4 	.word	0x0010edb4
  10e540:	0010edb4 	.word	0x0010edb4
  10e544:	0010e7e4 	.word	0x0010e7e4
  10e548:	0010edb4 	.word	0x0010edb4
  10e54c:	0010edb4 	.word	0x0010edb4
  10e550:	0010edb4 	.word	0x0010edb4
  10e554:	0010edb4 	.word	0x0010edb4
  10e558:	0010edb4 	.word	0x0010edb4
  10e55c:	0010edb4 	.word	0x0010edb4
  10e560:	0010edb4 	.word	0x0010edb4
  10e564:	0010edb4 	.word	0x0010edb4
  10e568:	0010edb4 	.word	0x0010edb4
  10e56c:	0010edb4 	.word	0x0010edb4
  10e570:	0010eb00 	.word	0x0010eb00
  10e574:	0010e6bc 	.word	0x0010e6bc
  10e578:	0010edb4 	.word	0x0010edb4
  10e57c:	0010edb4 	.word	0x0010edb4
  10e580:	0010edb4 	.word	0x0010edb4
  10e584:	0010ea90 	.word	0x0010ea90
  10e588:	0010e6bc 	.word	0x0010e6bc
  10e58c:	0010e5e4 	.word	0x0010e5e4
  10e590:	0010edb4 	.word	0x0010edb4
  10e594:	0010ece8 	.word	0x0010ece8
  10e598:	0010edb4 	.word	0x0010edb4
  10e59c:	0010ec30 	.word	0x0010ec30
  10e5a0:	0010e714 	.word	0x0010e714
  10e5a4:	0010ec98 	.word	0x0010ec98
  10e5a8:	0010e5e4 	.word	0x0010e5e4
  10e5ac:	0010edb4 	.word	0x0010edb4
  10e5b0:	0010eba8 	.word	0x0010eba8
  10e5b4:	0010e644 	.word	0x0010e644
  10e5b8:	0010e658 	.word	0x0010e658
  10e5bc:	0010edb4 	.word	0x0010edb4
  10e5c0:	0010edb4 	.word	0x0010edb4
  10e5c4:	0010ec5c 	.word	0x0010ec5c
  10e5c8:	0010edb4 	.word	0x0010edb4
  10e5cc:	0010e644 	.word	0x0010e644
  10e5d0:	e3530000 	cmp	r3, #0
  10e5d4:	1a00036e 	bne	10f394 <_vfiprintf_r+0x10fc>
  10e5d8:	e58d3074 	str	r3, [sp, #116]	; 0x74
  10e5dc:	e28db07c 	add	fp, sp, #124	; 0x7c
  10e5e0:	eaffff8d 	b	10e41c <_vfiprintf_r+0x184>
  10e5e4:	e59d3008 	ldr	r3, [sp, #8]
  10e5e8:	e3833020 	orr	r3, r3, #32
  10e5ec:	e58d3008 	str	r3, [sp, #8]
  10e5f0:	e5d63000 	ldrb	r3, [r6]
  10e5f4:	eaffff95 	b	10e450 <_vfiprintf_r+0x1b8>
  10e5f8:	e1a0000a 	mov	r0, sl
  10e5fc:	ebfff27e 	bl	10affc <_localeconv_r>
  10e600:	e5903004 	ldr	r3, [r0, #4]
  10e604:	e1a00003 	mov	r0, r3
  10e608:	e58d3040 	str	r3, [sp, #64]	; 0x40
  10e60c:	faffd93b 	blx	104b00 <strlen>
  10e610:	e1a04000 	mov	r4, r0
  10e614:	e58d003c 	str	r0, [sp, #60]	; 0x3c
  10e618:	e1a0000a 	mov	r0, sl
  10e61c:	ebfff276 	bl	10affc <_localeconv_r>
  10e620:	e5903008 	ldr	r3, [r0, #8]
  10e624:	e3540000 	cmp	r4, #0
  10e628:	13530000 	cmpne	r3, #0
  10e62c:	e58d3038 	str	r3, [sp, #56]	; 0x38
  10e630:	0a000003 	beq	10e644 <_vfiprintf_r+0x3ac>
  10e634:	e59d3038 	ldr	r3, [sp, #56]	; 0x38
  10e638:	e5d33000 	ldrb	r3, [r3]
  10e63c:	e3530000 	cmp	r3, #0
  10e640:	1a000482 	bne	10f850 <_vfiprintf_r+0x15b8>
  10e644:	e5d63000 	ldrb	r3, [r6]
  10e648:	eaffff80 	b	10e450 <_vfiprintf_r+0x1b8>
  10e64c:	e59d3008 	ldr	r3, [sp, #8]
  10e650:	e3833010 	orr	r3, r3, #16
  10e654:	e58d3008 	str	r3, [sp, #8]
  10e658:	e59d3008 	ldr	r3, [sp, #8]
  10e65c:	e3130020 	tst	r3, #32
  10e660:	1a0001af 	bne	10ed24 <_vfiprintf_r+0xa8c>
  10e664:	e59d3008 	ldr	r3, [sp, #8]
  10e668:	e3130010 	tst	r3, #16
  10e66c:	1a000376 	bne	10f44c <_vfiprintf_r+0x11b4>
  10e670:	e59d3008 	ldr	r3, [sp, #8]
  10e674:	e3130040 	tst	r3, #64	; 0x40
  10e678:	1a000479 	bne	10f864 <_vfiprintf_r+0x15cc>
  10e67c:	e59d3008 	ldr	r3, [sp, #8]
  10e680:	e3130c02 	tst	r3, #512	; 0x200
  10e684:	0a000370 	beq	10f44c <_vfiprintf_r+0x11b4>
  10e688:	e59d3024 	ldr	r3, [sp, #36]	; 0x24
  10e68c:	e5d34000 	ldrb	r4, [r3]
  10e690:	e3a05000 	mov	r5, #0
  10e694:	e1942005 	orrs	r2, r4, r5
  10e698:	e3a01001 	mov	r1, #1
  10e69c:	e2833004 	add	r3, r3, #4
  10e6a0:	11a02001 	movne	r2, r1
  10e6a4:	e58d3024 	str	r3, [sp, #36]	; 0x24
  10e6a8:	03a02000 	moveq	r2, #0
  10e6ac:	ea000066 	b	10e84c <_vfiprintf_r+0x5b4>
  10e6b0:	e59d3008 	ldr	r3, [sp, #8]
  10e6b4:	e3833010 	orr	r3, r3, #16
  10e6b8:	e58d3008 	str	r3, [sp, #8]
  10e6bc:	e59d3008 	ldr	r3, [sp, #8]
  10e6c0:	e3130020 	tst	r3, #32
  10e6c4:	0a0001a8 	beq	10ed6c <_vfiprintf_r+0xad4>
  10e6c8:	e59d3024 	ldr	r3, [sp, #36]	; 0x24
  10e6cc:	e2833007 	add	r3, r3, #7
  10e6d0:	e3c33007 	bic	r3, r3, #7
  10e6d4:	e2832008 	add	r2, r3, #8
  10e6d8:	e58d2024 	str	r2, [sp, #36]	; 0x24
  10e6dc:	e1c320d0 	ldrd	r2, [r3]
  10e6e0:	e1a04002 	mov	r4, r2
  10e6e4:	e1a05003 	mov	r5, r3
  10e6e8:	e3520000 	cmp	r2, #0
  10e6ec:	e2d33000 	sbcs	r3, r3, #0
  10e6f0:	ba0003c9 	blt	10f61c <_vfiprintf_r+0x1384>
  10e6f4:	e1943005 	orrs	r3, r4, r5
  10e6f8:	e3a01001 	mov	r1, #1
  10e6fc:	11a02001 	movne	r2, r1
  10e700:	03a02000 	moveq	r2, #0
  10e704:	ea000052 	b	10e854 <_vfiprintf_r+0x5bc>
  10e708:	e59d3008 	ldr	r3, [sp, #8]
  10e70c:	e3833010 	orr	r3, r3, #16
  10e710:	e58d3008 	str	r3, [sp, #8]
  10e714:	e59d3008 	ldr	r3, [sp, #8]
  10e718:	e3130020 	tst	r3, #32
  10e71c:	1a00018b 	bne	10ed50 <_vfiprintf_r+0xab8>
  10e720:	e59d3008 	ldr	r3, [sp, #8]
  10e724:	e3130010 	tst	r3, #16
  10e728:	0a0003db 	beq	10f69c <_vfiprintf_r+0x1404>
  10e72c:	e59d3024 	ldr	r3, [sp, #36]	; 0x24
  10e730:	e3a05000 	mov	r5, #0
  10e734:	e2833004 	add	r3, r3, #4
  10e738:	e5134004 	ldr	r4, [r3, #-4]
  10e73c:	e58d3024 	str	r3, [sp, #36]	; 0x24
  10e740:	e1943005 	orrs	r3, r4, r5
  10e744:	e59d3008 	ldr	r3, [sp, #8]
  10e748:	e3a01000 	mov	r1, #0
  10e74c:	e3c33b01 	bic	r3, r3, #1024	; 0x400
  10e750:	13a02001 	movne	r2, #1
  10e754:	e58d3008 	str	r3, [sp, #8]
  10e758:	01a02001 	moveq	r2, r1
  10e75c:	ea00003a 	b	10e84c <_vfiprintf_r+0x5b4>
  10e760:	e59d100c 	ldr	r1, [sp, #12]
  10e764:	e1a0000a 	mov	r0, sl
  10e768:	ebffe533 	bl	107c3c <__swsetup_r>
  10e76c:	e3500000 	cmp	r0, #0
  10e770:	059d300c 	ldreq	r3, [sp, #12]
  10e774:	01d320bc 	ldrheq	r2, [r3, #12]
  10e778:	0afffee9 	beq	10e324 <_vfiprintf_r+0x8c>
  10e77c:	e3e00000 	mvn	r0, #0
  10e780:	e28ddf49 	add	sp, sp, #292	; 0x124
  10e784:	e8bd8ff0 	pop	{r4, r5, r6, r7, r8, r9, sl, fp, pc}
  10e788:	e59d300c 	ldr	r3, [sp, #12]
  10e78c:	e1d330fe 	ldrsh	r3, [r3, #14]
  10e790:	e3530000 	cmp	r3, #0
  10e794:	bafffee5 	blt	10e330 <_vfiprintf_r+0x98>
  10e798:	e1a03004 	mov	r3, r4
  10e79c:	e1a02005 	mov	r2, r5
  10e7a0:	e59d100c 	ldr	r1, [sp, #12]
  10e7a4:	e1a0000a 	mov	r0, sl
  10e7a8:	eb0004db 	bl	10fb1c <__sbprintf>
  10e7ac:	e28ddf49 	add	sp, sp, #292	; 0x124
  10e7b0:	e8bd8ff0 	pop	{r4, r5, r6, r7, r8, r9, sl, fp, pc}
  10e7b4:	e1a0000a 	mov	r0, sl
  10e7b8:	ebffec53 	bl	10990c <__sinit>
  10e7bc:	eafffec6 	b	10e2dc <_vfiprintf_r+0x44>
  10e7c0:	e59d2020 	ldr	r2, [sp, #32]
  10e7c4:	e58d3024 	str	r3, [sp, #36]	; 0x24
  10e7c8:	e2622000 	rsb	r2, r2, #0
  10e7cc:	e58d2020 	str	r2, [sp, #32]
  10e7d0:	e59d3008 	ldr	r3, [sp, #8]
  10e7d4:	e3833004 	orr	r3, r3, #4
  10e7d8:	e58d3008 	str	r3, [sp, #8]
  10e7dc:	e5d63000 	ldrb	r3, [r6]
  10e7e0:	eaffff1a 	b	10e450 <_vfiprintf_r+0x1b8>
  10e7e4:	e307213c 	movw	r2, #28988	; 0x713c
  10e7e8:	e3402011 	movt	r2, #17
  10e7ec:	e58d2034 	str	r2, [sp, #52]	; 0x34
  10e7f0:	e59d2008 	ldr	r2, [sp, #8]
  10e7f4:	e3120020 	tst	r2, #32
  10e7f8:	0a00011d 	beq	10ec74 <_vfiprintf_r+0x9dc>
  10e7fc:	e59d2024 	ldr	r2, [sp, #36]	; 0x24
  10e800:	e2822007 	add	r2, r2, #7
  10e804:	e3c22007 	bic	r2, r2, #7
  10e808:	e2821008 	add	r1, r2, #8
  10e80c:	e58d1024 	str	r1, [sp, #36]	; 0x24
  10e810:	e1c240d0 	ldrd	r4, [r2]
  10e814:	e59d1008 	ldr	r1, [sp, #8]
  10e818:	e1942005 	orrs	r2, r4, r5
  10e81c:	13a02001 	movne	r2, #1
  10e820:	03a02000 	moveq	r2, #0
  10e824:	e1110002 	tst	r1, r2
  10e828:	15cd3055 	strbne	r3, [sp, #85]	; 0x55
  10e82c:	13811002 	orrne	r1, r1, #2
  10e830:	158d1008 	strne	r1, [sp, #8]
  10e834:	13a03030 	movne	r3, #48	; 0x30
  10e838:	15cd3054 	strbne	r3, [sp, #84]	; 0x54
  10e83c:	e59d3008 	ldr	r3, [sp, #8]
  10e840:	e3a01002 	mov	r1, #2
  10e844:	e3c33b01 	bic	r3, r3, #1024	; 0x400
  10e848:	e58d3008 	str	r3, [sp, #8]
  10e84c:	e3a03000 	mov	r3, #0
  10e850:	e5cd3053 	strb	r3, [sp, #83]	; 0x53
  10e854:	e59d3014 	ldr	r3, [sp, #20]
  10e858:	e3530000 	cmp	r3, #0
  10e85c:	a59d3008 	ldrge	r3, [sp, #8]
  10e860:	a3c33080 	bicge	r3, r3, #128	; 0x80
  10e864:	a58d3008 	strge	r3, [sp, #8]
  10e868:	e59d3014 	ldr	r3, [sp, #20]
  10e86c:	e3530000 	cmp	r3, #0
  10e870:	01a03002 	moveq	r3, r2
  10e874:	13823001 	orrne	r3, r2, #1
  10e878:	e3530000 	cmp	r3, #0
  10e87c:	0a00023e 	beq	10f17c <_vfiprintf_r+0xee4>
  10e880:	e3510001 	cmp	r1, #1
  10e884:	0a0002b0 	beq	10f34c <_vfiprintf_r+0x10b4>
  10e888:	e3510002 	cmp	r1, #2
  10e88c:	1a000290 	bne	10f2d4 <_vfiprintf_r+0x103c>
  10e890:	e59dc034 	ldr	ip, [sp, #52]	; 0x34
  10e894:	e28d2e12 	add	r2, sp, #288	; 0x120
  10e898:	e204100f 	and	r1, r4, #15
  10e89c:	e1a03224 	lsr	r3, r4, #4
  10e8a0:	e1833e05 	orr	r3, r3, r5, lsl #28
  10e8a4:	e1a00225 	lsr	r0, r5, #4
  10e8a8:	e7dc1001 	ldrb	r1, [ip, r1]
  10e8ac:	e1a04003 	mov	r4, r3
  10e8b0:	e1a05000 	mov	r5, r0
  10e8b4:	e1943005 	orrs	r3, r4, r5
  10e8b8:	e5621001 	strb	r1, [r2, #-1]!
  10e8bc:	1afffff5 	bne	10e898 <_vfiprintf_r+0x600>
  10e8c0:	e1a03002 	mov	r3, r2
  10e8c4:	e58d202c 	str	r2, [sp, #44]	; 0x2c
  10e8c8:	e28d2e12 	add	r2, sp, #288	; 0x120
  10e8cc:	e0633002 	rsb	r3, r3, r2
  10e8d0:	e58d3018 	str	r3, [sp, #24]
  10e8d4:	e59d3018 	ldr	r3, [sp, #24]
  10e8d8:	e3a01000 	mov	r1, #0
  10e8dc:	e59d2014 	ldr	r2, [sp, #20]
  10e8e0:	e58d1028 	str	r1, [sp, #40]	; 0x28
  10e8e4:	e1530002 	cmp	r3, r2
  10e8e8:	b1a03002 	movlt	r3, r2
  10e8ec:	e58d3010 	str	r3, [sp, #16]
  10e8f0:	e5dd3053 	ldrb	r3, [sp, #83]	; 0x53
  10e8f4:	e3530000 	cmp	r3, #0
  10e8f8:	159d3010 	ldrne	r3, [sp, #16]
  10e8fc:	12833001 	addne	r3, r3, #1
  10e900:	158d3010 	strne	r3, [sp, #16]
  10e904:	e59d3008 	ldr	r3, [sp, #8]
  10e908:	e213c002 	ands	ip, r3, #2
  10e90c:	159d3010 	ldrne	r3, [sp, #16]
  10e910:	12833002 	addne	r3, r3, #2
  10e914:	158d3010 	strne	r3, [sp, #16]
  10e918:	e59d3008 	ldr	r3, [sp, #8]
  10e91c:	e2133084 	ands	r3, r3, #132	; 0x84
  10e920:	1a00012e 	bne	10ede0 <_vfiprintf_r+0xb48>
  10e924:	e59d2020 	ldr	r2, [sp, #32]
  10e928:	e59d1010 	ldr	r1, [sp, #16]
  10e92c:	e0614002 	rsb	r4, r1, r2
  10e930:	e3540000 	cmp	r4, #0
  10e934:	da000129 	ble	10ede0 <_vfiprintf_r+0xb48>
  10e938:	e3540010 	cmp	r4, #16
  10e93c:	da000406 	ble	10f95c <_vfiprintf_r+0x16c4>
  10e940:	e3065b70 	movw	r5, #27504	; 0x6b70
  10e944:	e59d2078 	ldr	r2, [sp, #120]	; 0x78
  10e948:	e3405011 	movt	r5, #17
  10e94c:	e59de074 	ldr	lr, [sp, #116]	; 0x74
  10e950:	e58d504c 	str	r5, [sp, #76]	; 0x4c
  10e954:	e3a09010 	mov	r9, #16
  10e958:	e58dc044 	str	ip, [sp, #68]	; 0x44
  10e95c:	e58d3048 	str	r3, [sp, #72]	; 0x48
  10e960:	e59d5030 	ldr	r5, [sp, #48]	; 0x30
  10e964:	ea000002 	b	10e974 <_vfiprintf_r+0x6dc>
  10e968:	e2444010 	sub	r4, r4, #16
  10e96c:	e3540010 	cmp	r4, #16
  10e970:	da00001b 	ble	10e9e4 <_vfiprintf_r+0x74c>
  10e974:	e28e0001 	add	r0, lr, #1
  10e978:	e2822010 	add	r2, r2, #16
  10e97c:	e3500007 	cmp	r0, #7
  10e980:	e58b5000 	str	r5, [fp]
  10e984:	e28e1002 	add	r1, lr, #2
  10e988:	e58b9004 	str	r9, [fp, #4]
  10e98c:	e58d2078 	str	r2, [sp, #120]	; 0x78
  10e990:	e1a0e000 	mov	lr, r0
  10e994:	e58d0074 	str	r0, [sp, #116]	; 0x74
  10e998:	d28bb008 	addle	fp, fp, #8
  10e99c:	dafffff1 	ble	10e968 <_vfiprintf_r+0x6d0>
  10e9a0:	e3520000 	cmp	r2, #0
  10e9a4:	e1a0e002 	mov	lr, r2
  10e9a8:	e3a01001 	mov	r1, #1
  10e9ac:	e28db07c 	add	fp, sp, #124	; 0x7c
  10e9b0:	0affffec 	beq	10e968 <_vfiprintf_r+0x6d0>
  10e9b4:	e28d2070 	add	r2, sp, #112	; 0x70
  10e9b8:	e59d100c 	ldr	r1, [sp, #12]
  10e9bc:	e1a0000a 	mov	r0, sl
  10e9c0:	ebfffe04 	bl	10e1d8 <__sprint_r.part.0>
  10e9c4:	e3500000 	cmp	r0, #0
  10e9c8:	1a0001b4 	bne	10f0a0 <_vfiprintf_r+0xe08>
  10e9cc:	e2444010 	sub	r4, r4, #16
  10e9d0:	e59de074 	ldr	lr, [sp, #116]	; 0x74
  10e9d4:	e3540010 	cmp	r4, #16
  10e9d8:	e59d2078 	ldr	r2, [sp, #120]	; 0x78
  10e9dc:	e28e1001 	add	r1, lr, #1
  10e9e0:	caffffe3 	bgt	10e974 <_vfiprintf_r+0x6dc>
  10e9e4:	e59dc044 	ldr	ip, [sp, #68]	; 0x44
  10e9e8:	e59d3048 	ldr	r3, [sp, #72]	; 0x48
  10e9ec:	e59d504c 	ldr	r5, [sp, #76]	; 0x4c
  10e9f0:	e3510007 	cmp	r1, #7
  10e9f4:	e0842002 	add	r2, r4, r2
  10e9f8:	e58b5000 	str	r5, [fp]
  10e9fc:	d2810001 	addle	r0, r1, #1
  10ea00:	e58b4004 	str	r4, [fp, #4]
  10ea04:	d28bb008 	addle	fp, fp, #8
  10ea08:	e58d2078 	str	r2, [sp, #120]	; 0x78
  10ea0c:	e58d1074 	str	r1, [sp, #116]	; 0x74
  10ea10:	da0000f5 	ble	10edec <_vfiprintf_r+0xb54>
  10ea14:	e3520000 	cmp	r2, #0
  10ea18:	1a000376 	bne	10f7f8 <_vfiprintf_r+0x1560>
  10ea1c:	e5dd1053 	ldrb	r1, [sp, #83]	; 0x53
  10ea20:	e3510000 	cmp	r1, #0
  10ea24:	0a000305 	beq	10f640 <_vfiprintf_r+0x13a8>
  10ea28:	e3a00001 	mov	r0, #1
  10ea2c:	e28d1053 	add	r1, sp, #83	; 0x53
  10ea30:	e1a02000 	mov	r2, r0
  10ea34:	e58d0080 	str	r0, [sp, #128]	; 0x80
  10ea38:	e58d107c 	str	r1, [sp, #124]	; 0x7c
  10ea3c:	e28db07c 	add	fp, sp, #124	; 0x7c
  10ea40:	ea0000f5 	b	10ee1c <_vfiprintf_r+0xb84>
  10ea44:	e5d63000 	ldrb	r3, [r6]
  10ea48:	e2862001 	add	r2, r6, #1
  10ea4c:	e353002a 	cmp	r3, #42	; 0x2a
  10ea50:	0a000411 	beq	10fa9c <_vfiprintf_r+0x1804>
  10ea54:	e2430030 	sub	r0, r3, #48	; 0x30
  10ea58:	e1a06002 	mov	r6, r2
  10ea5c:	e3500009 	cmp	r0, #9
  10ea60:	e3a02000 	mov	r2, #0
  10ea64:	8a000007 	bhi	10ea88 <_vfiprintf_r+0x7f0>
  10ea68:	e1a01182 	lsl	r1, r2, #3
  10ea6c:	e4d63001 	ldrb	r3, [r6], #1
  10ea70:	e0812082 	add	r2, r1, r2, lsl #1
  10ea74:	e0802002 	add	r2, r0, r2
  10ea78:	e2430030 	sub	r0, r3, #48	; 0x30
  10ea7c:	e3500009 	cmp	r0, #9
  10ea80:	9afffff8 	bls	10ea68 <_vfiprintf_r+0x7d0>
  10ea84:	e1822fc2 	orr	r2, r2, r2, asr #31
  10ea88:	e58d2014 	str	r2, [sp, #20]
  10ea8c:	eafffe70 	b	10e454 <_vfiprintf_r+0x1bc>
  10ea90:	e5d63000 	ldrb	r3, [r6]
  10ea94:	e3530068 	cmp	r3, #104	; 0x68
  10ea98:	059d3008 	ldreq	r3, [sp, #8]
  10ea9c:	159d2008 	ldrne	r2, [sp, #8]
  10eaa0:	03833c02 	orreq	r3, r3, #512	; 0x200
  10eaa4:	13822040 	orrne	r2, r2, #64	; 0x40
  10eaa8:	058d3008 	streq	r3, [sp, #8]
  10eaac:	158d2008 	strne	r2, [sp, #8]
  10eab0:	05d63001 	ldrbeq	r3, [r6, #1]
  10eab4:	02866001 	addeq	r6, r6, #1
  10eab8:	eafffe64 	b	10e450 <_vfiprintf_r+0x1b8>
  10eabc:	e59d3008 	ldr	r3, [sp, #8]
  10eac0:	e3833080 	orr	r3, r3, #128	; 0x80
  10eac4:	e58d3008 	str	r3, [sp, #8]
  10eac8:	e5d63000 	ldrb	r3, [r6]
  10eacc:	eafffe5f 	b	10e450 <_vfiprintf_r+0x1b8>
  10ead0:	e2430030 	sub	r0, r3, #48	; 0x30
  10ead4:	e3a03000 	mov	r3, #0
  10ead8:	e1a02003 	mov	r2, r3
  10eadc:	e1a01182 	lsl	r1, r2, #3
  10eae0:	e4d63001 	ldrb	r3, [r6], #1
  10eae4:	e0812082 	add	r2, r1, r2, lsl #1
  10eae8:	e0822000 	add	r2, r2, r0
  10eaec:	e2430030 	sub	r0, r3, #48	; 0x30
  10eaf0:	e3500009 	cmp	r0, #9
  10eaf4:	9afffff8 	bls	10eadc <_vfiprintf_r+0x844>
  10eaf8:	e58d2020 	str	r2, [sp, #32]
  10eafc:	eafffe54 	b	10e454 <_vfiprintf_r+0x1bc>
  10eb00:	e3530043 	cmp	r3, #67	; 0x43
  10eb04:	0a0002b1 	beq	10f5d0 <_vfiprintf_r+0x1338>
  10eb08:	e59d3008 	ldr	r3, [sp, #8]
  10eb0c:	e3130010 	tst	r3, #16
  10eb10:	1a0002ae 	bne	10f5d0 <_vfiprintf_r+0x1338>
  10eb14:	e59d1024 	ldr	r1, [sp, #36]	; 0x24
  10eb18:	e28d4e12 	add	r4, sp, #288	; 0x120
  10eb1c:	e3a03001 	mov	r3, #1
  10eb20:	e58d3018 	str	r3, [sp, #24]
  10eb24:	e2811004 	add	r1, r1, #4
  10eb28:	e5112004 	ldr	r2, [r1, #-4]
  10eb2c:	e58d1024 	str	r1, [sp, #36]	; 0x24
  10eb30:	e5642064 	strb	r2, [r4, #-100]!	; 0xffffff9c
  10eb34:	e58d3010 	str	r3, [sp, #16]
  10eb38:	e3a03000 	mov	r3, #0
  10eb3c:	e58d402c 	str	r4, [sp, #44]	; 0x2c
  10eb40:	e5cd3053 	strb	r3, [sp, #83]	; 0x53
  10eb44:	e3a03000 	mov	r3, #0
  10eb48:	e58d3028 	str	r3, [sp, #40]	; 0x28
  10eb4c:	e58d3014 	str	r3, [sp, #20]
  10eb50:	eaffff6b 	b	10e904 <_vfiprintf_r+0x66c>
  10eb54:	e59d3024 	ldr	r3, [sp, #36]	; 0x24
  10eb58:	e2833004 	add	r3, r3, #4
  10eb5c:	e5132004 	ldr	r2, [r3, #-4]
  10eb60:	e3520000 	cmp	r2, #0
  10eb64:	e58d2020 	str	r2, [sp, #32]
  10eb68:	baffff14 	blt	10e7c0 <_vfiprintf_r+0x528>
  10eb6c:	e58d3024 	str	r3, [sp, #36]	; 0x24
  10eb70:	e5d63000 	ldrb	r3, [r6]
  10eb74:	eafffe35 	b	10e450 <_vfiprintf_r+0x1b8>
  10eb78:	e5dd3053 	ldrb	r3, [sp, #83]	; 0x53
  10eb7c:	e3530000 	cmp	r3, #0
  10eb80:	1afffeaf 	bne	10e644 <_vfiprintf_r+0x3ac>
  10eb84:	e3a03020 	mov	r3, #32
  10eb88:	e5cd3053 	strb	r3, [sp, #83]	; 0x53
  10eb8c:	e5d63000 	ldrb	r3, [r6]
  10eb90:	eafffe2e 	b	10e450 <_vfiprintf_r+0x1b8>
  10eb94:	e59d3008 	ldr	r3, [sp, #8]
  10eb98:	e3833001 	orr	r3, r3, #1
  10eb9c:	e58d3008 	str	r3, [sp, #8]
  10eba0:	e5d63000 	ldrb	r3, [r6]
  10eba4:	eafffe29 	b	10e450 <_vfiprintf_r+0x1b8>
  10eba8:	e59d2024 	ldr	r2, [sp, #36]	; 0x24
  10ebac:	e2825004 	add	r5, r2, #4
  10ebb0:	e5921000 	ldr	r1, [r2]
  10ebb4:	e3a02000 	mov	r2, #0
  10ebb8:	e5cd2053 	strb	r2, [sp, #83]	; 0x53
  10ebbc:	e1510002 	cmp	r1, r2
  10ebc0:	e58d102c 	str	r1, [sp, #44]	; 0x2c
  10ebc4:	0a000375 	beq	10f9a0 <_vfiprintf_r+0x1708>
  10ebc8:	e3530053 	cmp	r3, #83	; 0x53
  10ebcc:	0a0002c4 	beq	10f6e4 <_vfiprintf_r+0x144c>
  10ebd0:	e59d3008 	ldr	r3, [sp, #8]
  10ebd4:	e2134010 	ands	r4, r3, #16
  10ebd8:	1a0002c1 	bne	10f6e4 <_vfiprintf_r+0x144c>
  10ebdc:	e59d9014 	ldr	r9, [sp, #20]
  10ebe0:	e3590000 	cmp	r9, #0
  10ebe4:	ba00033c 	blt	10f8dc <_vfiprintf_r+0x1644>
  10ebe8:	e1a02009 	mov	r2, r9
  10ebec:	e1a01004 	mov	r1, r4
  10ebf0:	e59d002c 	ldr	r0, [sp, #44]	; 0x2c
  10ebf4:	fafff339 	blx	10b8e0 <memchr>
  10ebf8:	e3500000 	cmp	r0, #0
  10ebfc:	0a00039e 	beq	10fa7c <_vfiprintf_r+0x17e4>
  10ec00:	e59d302c 	ldr	r3, [sp, #44]	; 0x2c
  10ec04:	e58d5024 	str	r5, [sp, #36]	; 0x24
  10ec08:	e0630000 	rsb	r0, r3, r0
  10ec0c:	e1a03009 	mov	r3, r9
  10ec10:	e1500009 	cmp	r0, r9
  10ec14:	e58d4014 	str	r4, [sp, #20]
  10ec18:	e58d4028 	str	r4, [sp, #40]	; 0x28
  10ec1c:	b1a03000 	movlt	r3, r0
  10ec20:	e58d3018 	str	r3, [sp, #24]
  10ec24:	e1c33fc3 	bic	r3, r3, r3, asr #31
  10ec28:	e58d3010 	str	r3, [sp, #16]
  10ec2c:	eaffff2f 	b	10e8f0 <_vfiprintf_r+0x658>
  10ec30:	e59d3008 	ldr	r3, [sp, #8]
  10ec34:	e3130020 	tst	r3, #32
  10ec38:	0a00028a 	beq	10f668 <_vfiprintf_r+0x13d0>
  10ec3c:	e59d2024 	ldr	r2, [sp, #36]	; 0x24
  10ec40:	e59d001c 	ldr	r0, [sp, #28]
  10ec44:	e2822004 	add	r2, r2, #4
  10ec48:	e5123004 	ldr	r3, [r2, #-4]
  10ec4c:	e1a01fc0 	asr	r1, r0, #31
  10ec50:	e58d2024 	str	r2, [sp, #36]	; 0x24
  10ec54:	e1c300f0 	strd	r0, [r3]
  10ec58:	eafffdc6 	b	10e378 <_vfiprintf_r+0xe0>
  10ec5c:	e3072168 	movw	r2, #29032	; 0x7168
  10ec60:	e3402011 	movt	r2, #17
  10ec64:	e58d2034 	str	r2, [sp, #52]	; 0x34
  10ec68:	e59d2008 	ldr	r2, [sp, #8]
  10ec6c:	e3120020 	tst	r2, #32
  10ec70:	1afffee1 	bne	10e7fc <_vfiprintf_r+0x564>
  10ec74:	e59d2008 	ldr	r2, [sp, #8]
  10ec78:	e3120010 	tst	r2, #16
  10ec7c:	0a00028f 	beq	10f6c0 <_vfiprintf_r+0x1428>
  10ec80:	e59d2024 	ldr	r2, [sp, #36]	; 0x24
  10ec84:	e3a05000 	mov	r5, #0
  10ec88:	e2822004 	add	r2, r2, #4
  10ec8c:	e5124004 	ldr	r4, [r2, #-4]
  10ec90:	e58d2024 	str	r2, [sp, #36]	; 0x24
  10ec94:	eafffede 	b	10e814 <_vfiprintf_r+0x57c>
  10ec98:	e59d1024 	ldr	r1, [sp, #36]	; 0x24
  10ec9c:	e3072168 	movw	r2, #29032	; 0x7168
  10eca0:	e59d0008 	ldr	r0, [sp, #8]
  10eca4:	e3402011 	movt	r2, #17
  10eca8:	e58d2034 	str	r2, [sp, #52]	; 0x34
  10ecac:	e2811004 	add	r1, r1, #4
  10ecb0:	e5113004 	ldr	r3, [r1, #-4]
  10ecb4:	e3800002 	orr	r0, r0, #2
  10ecb8:	e58d1024 	str	r1, [sp, #36]	; 0x24
  10ecbc:	e3a05000 	mov	r5, #0
  10ecc0:	e2932000 	adds	r2, r3, #0
  10ecc4:	e58d0008 	str	r0, [sp, #8]
  10ecc8:	e1a04003 	mov	r4, r3
  10eccc:	e3a01002 	mov	r1, #2
  10ecd0:	e3a03030 	mov	r3, #48	; 0x30
  10ecd4:	13a02001 	movne	r2, #1
  10ecd8:	e5cd3054 	strb	r3, [sp, #84]	; 0x54
  10ecdc:	e3a03078 	mov	r3, #120	; 0x78
  10ece0:	e5cd3055 	strb	r3, [sp, #85]	; 0x55
  10ece4:	eafffed8 	b	10e84c <_vfiprintf_r+0x5b4>
  10ece8:	e5d63000 	ldrb	r3, [r6]
  10ecec:	e353006c 	cmp	r3, #108	; 0x6c
  10ecf0:	059d3008 	ldreq	r3, [sp, #8]
  10ecf4:	159d2008 	ldrne	r2, [sp, #8]
  10ecf8:	03833020 	orreq	r3, r3, #32
  10ecfc:	13822010 	orrne	r2, r2, #16
  10ed00:	058d3008 	streq	r3, [sp, #8]
  10ed04:	158d2008 	strne	r2, [sp, #8]
  10ed08:	05d63001 	ldrbeq	r3, [r6, #1]
  10ed0c:	02866001 	addeq	r6, r6, #1
  10ed10:	eafffdce 	b	10e450 <_vfiprintf_r+0x1b8>
  10ed14:	e3a0302b 	mov	r3, #43	; 0x2b
  10ed18:	e5cd3053 	strb	r3, [sp, #83]	; 0x53
  10ed1c:	e5d63000 	ldrb	r3, [r6]
  10ed20:	eafffdca 	b	10e450 <_vfiprintf_r+0x1b8>
  10ed24:	e59d3024 	ldr	r3, [sp, #36]	; 0x24
  10ed28:	e3a01001 	mov	r1, #1
  10ed2c:	e2833007 	add	r3, r3, #7
  10ed30:	e3c33007 	bic	r3, r3, #7
  10ed34:	e2832008 	add	r2, r3, #8
  10ed38:	e58d2024 	str	r2, [sp, #36]	; 0x24
  10ed3c:	e1c340d0 	ldrd	r4, [r3]
  10ed40:	e1943005 	orrs	r3, r4, r5
  10ed44:	11a02001 	movne	r2, r1
  10ed48:	03a02000 	moveq	r2, #0
  10ed4c:	eafffebe 	b	10e84c <_vfiprintf_r+0x5b4>
  10ed50:	e59d3024 	ldr	r3, [sp, #36]	; 0x24
  10ed54:	e2833007 	add	r3, r3, #7
  10ed58:	e3c33007 	bic	r3, r3, #7
  10ed5c:	e2832008 	add	r2, r3, #8
  10ed60:	e58d2024 	str	r2, [sp, #36]	; 0x24
  10ed64:	e1c340d0 	ldrd	r4, [r3]
  10ed68:	eafffe74 	b	10e740 <_vfiprintf_r+0x4a8>
  10ed6c:	e59d3008 	ldr	r3, [sp, #8]
  10ed70:	e3130010 	tst	r3, #16
  10ed74:	159d3024 	ldrne	r3, [sp, #36]	; 0x24
  10ed78:	1a0001bd 	bne	10f474 <_vfiprintf_r+0x11dc>
  10ed7c:	e59d3008 	ldr	r3, [sp, #8]
  10ed80:	e3130040 	tst	r3, #64	; 0x40
  10ed84:	1a0002b9 	bne	10f870 <_vfiprintf_r+0x15d8>
  10ed88:	e59d3008 	ldr	r3, [sp, #8]
  10ed8c:	e3130c02 	tst	r3, #512	; 0x200
  10ed90:	e59d3024 	ldr	r3, [sp, #36]	; 0x24
  10ed94:	0a0001b6 	beq	10f474 <_vfiprintf_r+0x11dc>
  10ed98:	e1d340d0 	ldrsb	r4, [r3]
  10ed9c:	e1a05fc4 	asr	r5, r4, #31
  10eda0:	e2833004 	add	r3, r3, #4
  10eda4:	e1a02004 	mov	r2, r4
  10eda8:	e58d3024 	str	r3, [sp, #36]	; 0x24
  10edac:	e1a03005 	mov	r3, r5
  10edb0:	eafffe4c 	b	10e6e8 <_vfiprintf_r+0x450>
  10edb4:	e3530000 	cmp	r3, #0
  10edb8:	0a0002d0 	beq	10f900 <_vfiprintf_r+0x1668>
  10edbc:	e3a02001 	mov	r2, #1
  10edc0:	e5cd30bc 	strb	r3, [sp, #188]	; 0xbc
  10edc4:	e58d2010 	str	r2, [sp, #16]
  10edc8:	e3a03000 	mov	r3, #0
  10edcc:	e58d2018 	str	r2, [sp, #24]
  10edd0:	e5cd3053 	strb	r3, [sp, #83]	; 0x53
  10edd4:	e28d30bc 	add	r3, sp, #188	; 0xbc
  10edd8:	e58d302c 	str	r3, [sp, #44]	; 0x2c
  10eddc:	eaffff58 	b	10eb44 <_vfiprintf_r+0x8ac>
  10ede0:	e59d1074 	ldr	r1, [sp, #116]	; 0x74
  10ede4:	e59d2078 	ldr	r2, [sp, #120]	; 0x78
  10ede8:	e2810001 	add	r0, r1, #1
  10edec:	e5dde053 	ldrb	lr, [sp, #83]	; 0x53
  10edf0:	e35e0000 	cmp	lr, #0
  10edf4:	0a00000b 	beq	10ee28 <_vfiprintf_r+0xb90>
  10edf8:	e3500007 	cmp	r0, #7
  10edfc:	e3a01001 	mov	r1, #1
  10ee00:	e2822001 	add	r2, r2, #1
  10ee04:	e58b1004 	str	r1, [fp, #4]
  10ee08:	e58d2078 	str	r2, [sp, #120]	; 0x78
  10ee0c:	e28d1053 	add	r1, sp, #83	; 0x53
  10ee10:	e58d0074 	str	r0, [sp, #116]	; 0x74
  10ee14:	e58b1000 	str	r1, [fp]
  10ee18:	ca000118 	bgt	10f280 <_vfiprintf_r+0xfe8>
  10ee1c:	e1a01000 	mov	r1, r0
  10ee20:	e28bb008 	add	fp, fp, #8
  10ee24:	e2800001 	add	r0, r0, #1
  10ee28:	e35c0000 	cmp	ip, #0
  10ee2c:	0a00000b 	beq	10ee60 <_vfiprintf_r+0xbc8>
  10ee30:	e3500007 	cmp	r0, #7
  10ee34:	e2822002 	add	r2, r2, #2
  10ee38:	e28de054 	add	lr, sp, #84	; 0x54
  10ee3c:	e3a01002 	mov	r1, #2
  10ee40:	e58d0074 	str	r0, [sp, #116]	; 0x74
  10ee44:	e58d2078 	str	r2, [sp, #120]	; 0x78
  10ee48:	e58be000 	str	lr, [fp]
  10ee4c:	e58b1004 	str	r1, [fp, #4]
  10ee50:	ca000115 	bgt	10f2ac <_vfiprintf_r+0x1014>
  10ee54:	e1a01000 	mov	r1, r0
  10ee58:	e28bb008 	add	fp, fp, #8
  10ee5c:	e2800001 	add	r0, r0, #1
  10ee60:	e3530080 	cmp	r3, #128	; 0x80
  10ee64:	0a0000d1 	beq	10f1b0 <_vfiprintf_r+0xf18>
  10ee68:	e59d3014 	ldr	r3, [sp, #20]
  10ee6c:	e59dc018 	ldr	ip, [sp, #24]
  10ee70:	e06c4003 	rsb	r4, ip, r3
  10ee74:	e3540000 	cmp	r4, #0
  10ee78:	da00009f 	ble	10f0fc <_vfiprintf_r+0xe64>
  10ee7c:	e3540010 	cmp	r4, #16
  10ee80:	e59f5c74 	ldr	r5, [pc, #3188]	; 10fafc <_vfiprintf_r+0x1864>
  10ee84:	c3a09010 	movgt	r9, #16
  10ee88:	ca000003 	bgt	10ee9c <_vfiprintf_r+0xc04>
  10ee8c:	ea00001e 	b	10ef0c <_vfiprintf_r+0xc74>
  10ee90:	e2444010 	sub	r4, r4, #16
  10ee94:	e3540010 	cmp	r4, #16
  10ee98:	da00001b 	ble	10ef0c <_vfiprintf_r+0xc74>
  10ee9c:	e2813001 	add	r3, r1, #1
  10eea0:	e2822010 	add	r2, r2, #16
  10eea4:	e3530007 	cmp	r3, #7
  10eea8:	e58b5000 	str	r5, [fp]
  10eeac:	e2810002 	add	r0, r1, #2
  10eeb0:	e58b9004 	str	r9, [fp, #4]
  10eeb4:	e58d2078 	str	r2, [sp, #120]	; 0x78
  10eeb8:	e1a01003 	mov	r1, r3
  10eebc:	e58d3074 	str	r3, [sp, #116]	; 0x74
  10eec0:	d28bb008 	addle	fp, fp, #8
  10eec4:	dafffff1 	ble	10ee90 <_vfiprintf_r+0xbf8>
  10eec8:	e3520000 	cmp	r2, #0
  10eecc:	e3a00001 	mov	r0, #1
  10eed0:	e1a01002 	mov	r1, r2
  10eed4:	e28db07c 	add	fp, sp, #124	; 0x7c
  10eed8:	0affffec 	beq	10ee90 <_vfiprintf_r+0xbf8>
  10eedc:	e28d2070 	add	r2, sp, #112	; 0x70
  10eee0:	e59d100c 	ldr	r1, [sp, #12]
  10eee4:	e1a0000a 	mov	r0, sl
  10eee8:	ebfffcba 	bl	10e1d8 <__sprint_r.part.0>
  10eeec:	e3500000 	cmp	r0, #0
  10eef0:	1a00006a 	bne	10f0a0 <_vfiprintf_r+0xe08>
  10eef4:	e2444010 	sub	r4, r4, #16
  10eef8:	e59d1074 	ldr	r1, [sp, #116]	; 0x74
  10eefc:	e3540010 	cmp	r4, #16
  10ef00:	e59d2078 	ldr	r2, [sp, #120]	; 0x78
  10ef04:	e2810001 	add	r0, r1, #1
  10ef08:	caffffe3 	bgt	10ee9c <_vfiprintf_r+0xc04>
  10ef0c:	e3500007 	cmp	r0, #7
  10ef10:	e0822004 	add	r2, r2, r4
  10ef14:	e58b5000 	str	r5, [fp]
  10ef18:	e58b4004 	str	r4, [fp, #4]
  10ef1c:	d28bb008 	addle	fp, fp, #8
  10ef20:	e58d0074 	str	r0, [sp, #116]	; 0x74
  10ef24:	d2800001 	addle	r0, r0, #1
  10ef28:	e58d2078 	str	r2, [sp, #120]	; 0x78
  10ef2c:	da000072 	ble	10f0fc <_vfiprintf_r+0xe64>
  10ef30:	e3520000 	cmp	r2, #0
  10ef34:	1a000066 	bne	10f0d4 <_vfiprintf_r+0xe3c>
  10ef38:	e59d3018 	ldr	r3, [sp, #24]
  10ef3c:	e28db07c 	add	fp, sp, #124	; 0x7c
  10ef40:	e59d202c 	ldr	r2, [sp, #44]	; 0x2c
  10ef44:	e58d3080 	str	r3, [sp, #128]	; 0x80
  10ef48:	e58d207c 	str	r2, [sp, #124]	; 0x7c
  10ef4c:	e3a02001 	mov	r2, #1
  10ef50:	e58d3078 	str	r3, [sp, #120]	; 0x78
  10ef54:	e58d2074 	str	r2, [sp, #116]	; 0x74
  10ef58:	e28bc008 	add	ip, fp, #8
  10ef5c:	e59d2008 	ldr	r2, [sp, #8]
  10ef60:	e3120004 	tst	r2, #4
  10ef64:	0a00003e 	beq	10f064 <_vfiprintf_r+0xdcc>
  10ef68:	e59d2020 	ldr	r2, [sp, #32]
  10ef6c:	e59d1010 	ldr	r1, [sp, #16]
  10ef70:	e0614002 	rsb	r4, r1, r2
  10ef74:	e3540000 	cmp	r4, #0
  10ef78:	da000039 	ble	10f064 <_vfiprintf_r+0xdcc>
  10ef7c:	e3540010 	cmp	r4, #16
  10ef80:	da00029b 	ble	10f9f4 <_vfiprintf_r+0x175c>
  10ef84:	e3065b70 	movw	r5, #27504	; 0x6b70
  10ef88:	e59d1074 	ldr	r1, [sp, #116]	; 0x74
  10ef8c:	e3405011 	movt	r5, #17
  10ef90:	e3a09010 	mov	r9, #16
  10ef94:	e1a0e00c 	mov	lr, ip
  10ef98:	e59db030 	ldr	fp, [sp, #48]	; 0x30
  10ef9c:	ea000002 	b	10efac <_vfiprintf_r+0xd14>
  10efa0:	e2444010 	sub	r4, r4, #16
  10efa4:	e3540010 	cmp	r4, #16
  10efa8:	da00001c 	ble	10f020 <_vfiprintf_r+0xd88>
  10efac:	e2812001 	add	r2, r1, #1
  10efb0:	e2833010 	add	r3, r3, #16
  10efb4:	e3520007 	cmp	r2, #7
  10efb8:	e58eb000 	str	fp, [lr]
  10efbc:	e2810002 	add	r0, r1, #2
  10efc0:	e58e9004 	str	r9, [lr, #4]
  10efc4:	e58d3078 	str	r3, [sp, #120]	; 0x78
  10efc8:	e1a01002 	mov	r1, r2
  10efcc:	e58d2074 	str	r2, [sp, #116]	; 0x74
  10efd0:	d28ee008 	addle	lr, lr, #8
  10efd4:	dafffff1 	ble	10efa0 <_vfiprintf_r+0xd08>
  10efd8:	e3530000 	cmp	r3, #0
  10efdc:	e3a00001 	mov	r0, #1
  10efe0:	e1a01003 	mov	r1, r3
  10efe4:	e28de07c 	add	lr, sp, #124	; 0x7c
  10efe8:	0affffec 	beq	10efa0 <_vfiprintf_r+0xd08>
  10efec:	e28d2070 	add	r2, sp, #112	; 0x70
  10eff0:	e59d100c 	ldr	r1, [sp, #12]
  10eff4:	e1a0000a 	mov	r0, sl
  10eff8:	ebfffc76 	bl	10e1d8 <__sprint_r.part.0>
  10effc:	e28de07c 	add	lr, sp, #124	; 0x7c
  10f000:	e3500000 	cmp	r0, #0
  10f004:	1a000025 	bne	10f0a0 <_vfiprintf_r+0xe08>
  10f008:	e2444010 	sub	r4, r4, #16
  10f00c:	e59d1074 	ldr	r1, [sp, #116]	; 0x74
  10f010:	e3540010 	cmp	r4, #16
  10f014:	e59d3078 	ldr	r3, [sp, #120]	; 0x78
  10f018:	e2810001 	add	r0, r1, #1
  10f01c:	caffffe2 	bgt	10efac <_vfiprintf_r+0xd14>
  10f020:	e1a0c00e 	mov	ip, lr
  10f024:	e3500007 	cmp	r0, #7
  10f028:	e0833004 	add	r3, r3, r4
  10f02c:	e58c5000 	str	r5, [ip]
  10f030:	e58d3078 	str	r3, [sp, #120]	; 0x78
  10f034:	e58c4004 	str	r4, [ip, #4]
  10f038:	e58d0074 	str	r0, [sp, #116]	; 0x74
  10f03c:	da000008 	ble	10f064 <_vfiprintf_r+0xdcc>
  10f040:	e3530000 	cmp	r3, #0
  10f044:	0a00003b 	beq	10f138 <_vfiprintf_r+0xea0>
  10f048:	e28d2070 	add	r2, sp, #112	; 0x70
  10f04c:	e59d100c 	ldr	r1, [sp, #12]
  10f050:	e1a0000a 	mov	r0, sl
  10f054:	ebfffc5f 	bl	10e1d8 <__sprint_r.part.0>
  10f058:	e3500000 	cmp	r0, #0
  10f05c:	1a00000f 	bne	10f0a0 <_vfiprintf_r+0xe08>
  10f060:	e59d3078 	ldr	r3, [sp, #120]	; 0x78
  10f064:	e59d201c 	ldr	r2, [sp, #28]
  10f068:	e59d1010 	ldr	r1, [sp, #16]
  10f06c:	e59d0020 	ldr	r0, [sp, #32]
  10f070:	e1510000 	cmp	r1, r0
  10f074:	a0822001 	addge	r2, r2, r1
  10f078:	b0822000 	addlt	r2, r2, r0
  10f07c:	e3530000 	cmp	r3, #0
  10f080:	e58d201c 	str	r2, [sp, #28]
  10f084:	0a000032 	beq	10f154 <_vfiprintf_r+0xebc>
  10f088:	e28d2070 	add	r2, sp, #112	; 0x70
  10f08c:	e59d100c 	ldr	r1, [sp, #12]
  10f090:	e1a0000a 	mov	r0, sl
  10f094:	ebfffc4f 	bl	10e1d8 <__sprint_r.part.0>
  10f098:	e3500000 	cmp	r0, #0
  10f09c:	0a00002c 	beq	10f154 <_vfiprintf_r+0xebc>
  10f0a0:	e59d3028 	ldr	r3, [sp, #40]	; 0x28
  10f0a4:	e3530000 	cmp	r3, #0
  10f0a8:	0a000002 	beq	10f0b8 <_vfiprintf_r+0xe20>
  10f0ac:	e59d1028 	ldr	r1, [sp, #40]	; 0x28
  10f0b0:	e1a0000a 	mov	r0, sl
  10f0b4:	ebffea67 	bl	109a58 <_free_r>
  10f0b8:	e59d300c 	ldr	r3, [sp, #12]
  10f0bc:	e1d330bc 	ldrh	r3, [r3, #12]
  10f0c0:	e3130040 	tst	r3, #64	; 0x40
  10f0c4:	059d001c 	ldreq	r0, [sp, #28]
  10f0c8:	1afffdab 	bne	10e77c <_vfiprintf_r+0x4e4>
  10f0cc:	e28ddf49 	add	sp, sp, #292	; 0x124
  10f0d0:	e8bd8ff0 	pop	{r4, r5, r6, r7, r8, r9, sl, fp, pc}
  10f0d4:	e28d2070 	add	r2, sp, #112	; 0x70
  10f0d8:	e59d100c 	ldr	r1, [sp, #12]
  10f0dc:	e1a0000a 	mov	r0, sl
  10f0e0:	ebfffc3c 	bl	10e1d8 <__sprint_r.part.0>
  10f0e4:	e3500000 	cmp	r0, #0
  10f0e8:	1affffec 	bne	10f0a0 <_vfiprintf_r+0xe08>
  10f0ec:	e59d0074 	ldr	r0, [sp, #116]	; 0x74
  10f0f0:	e28db07c 	add	fp, sp, #124	; 0x7c
  10f0f4:	e59d2078 	ldr	r2, [sp, #120]	; 0x78
  10f0f8:	e2800001 	add	r0, r0, #1
  10f0fc:	e59d1018 	ldr	r1, [sp, #24]
  10f100:	e3500007 	cmp	r0, #7
  10f104:	e58d0074 	str	r0, [sp, #116]	; 0x74
  10f108:	e0823001 	add	r3, r2, r1
  10f10c:	e59d202c 	ldr	r2, [sp, #44]	; 0x2c
  10f110:	e58d3078 	str	r3, [sp, #120]	; 0x78
  10f114:	e58b1004 	str	r1, [fp, #4]
  10f118:	e58b2000 	str	r2, [fp]
  10f11c:	daffff8d 	ble	10ef58 <_vfiprintf_r+0xcc0>
  10f120:	e3530000 	cmp	r3, #0
  10f124:	1a000091 	bne	10f370 <_vfiprintf_r+0x10d8>
  10f128:	e59d2008 	ldr	r2, [sp, #8]
  10f12c:	e58d3074 	str	r3, [sp, #116]	; 0x74
  10f130:	e3120004 	tst	r2, #4
  10f134:	1a000079 	bne	10f320 <_vfiprintf_r+0x1088>
  10f138:	e59d301c 	ldr	r3, [sp, #28]
  10f13c:	e59d2010 	ldr	r2, [sp, #16]
  10f140:	e59d1020 	ldr	r1, [sp, #32]
  10f144:	e1520001 	cmp	r2, r1
  10f148:	a0833002 	addge	r3, r3, r2
  10f14c:	b0833001 	addlt	r3, r3, r1
  10f150:	e58d301c 	str	r3, [sp, #28]
  10f154:	e59d1028 	ldr	r1, [sp, #40]	; 0x28
  10f158:	e3a03000 	mov	r3, #0
  10f15c:	e58d3074 	str	r3, [sp, #116]	; 0x74
  10f160:	e3510000 	cmp	r1, #0
  10f164:	028db07c 	addeq	fp, sp, #124	; 0x7c
  10f168:	0afffc82 	beq	10e378 <_vfiprintf_r+0xe0>
  10f16c:	e1a0000a 	mov	r0, sl
  10f170:	e28db07c 	add	fp, sp, #124	; 0x7c
  10f174:	ebffea37 	bl	109a58 <_free_r>
  10f178:	eafffc7e 	b	10e378 <_vfiprintf_r+0xe0>
  10f17c:	e3510000 	cmp	r1, #0
  10f180:	1a00004f 	bne	10f2c4 <_vfiprintf_r+0x102c>
  10f184:	e59d3008 	ldr	r3, [sp, #8]
  10f188:	e3130001 	tst	r3, #1
  10f18c:	0a00006a 	beq	10f33c <_vfiprintf_r+0x10a4>
  10f190:	e28d3e12 	add	r3, sp, #288	; 0x120
  10f194:	e1a02003 	mov	r2, r3
  10f198:	e3a03030 	mov	r3, #48	; 0x30
  10f19c:	e5623001 	strb	r3, [r2, #-1]!
  10f1a0:	e3a03001 	mov	r3, #1
  10f1a4:	e58d202c 	str	r2, [sp, #44]	; 0x2c
  10f1a8:	e58d3018 	str	r3, [sp, #24]
  10f1ac:	eafffdc8 	b	10e8d4 <_vfiprintf_r+0x63c>
  10f1b0:	e59d3020 	ldr	r3, [sp, #32]
  10f1b4:	e59dc010 	ldr	ip, [sp, #16]
  10f1b8:	e06c4003 	rsb	r4, ip, r3
  10f1bc:	e3540000 	cmp	r4, #0
  10f1c0:	daffff28 	ble	10ee68 <_vfiprintf_r+0xbd0>
  10f1c4:	e3540010 	cmp	r4, #16
  10f1c8:	e59f592c 	ldr	r5, [pc, #2348]	; 10fafc <_vfiprintf_r+0x1864>
  10f1cc:	da000212 	ble	10fa1c <_vfiprintf_r+0x1784>
  10f1d0:	e3a09010 	mov	r9, #16
  10f1d4:	ea000002 	b	10f1e4 <_vfiprintf_r+0xf4c>
  10f1d8:	e2444010 	sub	r4, r4, #16
  10f1dc:	e3540010 	cmp	r4, #16
  10f1e0:	da00001b 	ble	10f254 <_vfiprintf_r+0xfbc>
  10f1e4:	e2810001 	add	r0, r1, #1
  10f1e8:	e2822010 	add	r2, r2, #16
  10f1ec:	e3500007 	cmp	r0, #7
  10f1f0:	e58b5000 	str	r5, [fp]
  10f1f4:	e2813002 	add	r3, r1, #2
  10f1f8:	e58b9004 	str	r9, [fp, #4]
  10f1fc:	e58d2078 	str	r2, [sp, #120]	; 0x78
  10f200:	e1a01000 	mov	r1, r0
  10f204:	e58d0074 	str	r0, [sp, #116]	; 0x74
  10f208:	d28bb008 	addle	fp, fp, #8
  10f20c:	dafffff1 	ble	10f1d8 <_vfiprintf_r+0xf40>
  10f210:	e3520000 	cmp	r2, #0
  10f214:	e3a03001 	mov	r3, #1
  10f218:	e1a01002 	mov	r1, r2
  10f21c:	e28db07c 	add	fp, sp, #124	; 0x7c
  10f220:	0affffec 	beq	10f1d8 <_vfiprintf_r+0xf40>
  10f224:	e28d2070 	add	r2, sp, #112	; 0x70
  10f228:	e59d100c 	ldr	r1, [sp, #12]
  10f22c:	e1a0000a 	mov	r0, sl
  10f230:	ebfffbe8 	bl	10e1d8 <__sprint_r.part.0>
  10f234:	e3500000 	cmp	r0, #0
  10f238:	1affff98 	bne	10f0a0 <_vfiprintf_r+0xe08>
  10f23c:	e2444010 	sub	r4, r4, #16
  10f240:	e59d1074 	ldr	r1, [sp, #116]	; 0x74
  10f244:	e3540010 	cmp	r4, #16
  10f248:	e59d2078 	ldr	r2, [sp, #120]	; 0x78
  10f24c:	e2813001 	add	r3, r1, #1
  10f250:	caffffe3 	bgt	10f1e4 <_vfiprintf_r+0xf4c>
  10f254:	e3530007 	cmp	r3, #7
  10f258:	e0822004 	add	r2, r2, r4
  10f25c:	e58b5000 	str	r5, [fp]
  10f260:	e58d2078 	str	r2, [sp, #120]	; 0x78
  10f264:	e58b4004 	str	r4, [fp, #4]
  10f268:	e58d3074 	str	r3, [sp, #116]	; 0x74
  10f26c:	ca000070 	bgt	10f434 <_vfiprintf_r+0x119c>
  10f270:	e28bb008 	add	fp, fp, #8
  10f274:	e2830001 	add	r0, r3, #1
  10f278:	e1a01003 	mov	r1, r3
  10f27c:	eafffef9 	b	10ee68 <_vfiprintf_r+0xbd0>
  10f280:	e3520000 	cmp	r2, #0
  10f284:	1a00004e 	bne	10f3c4 <_vfiprintf_r+0x112c>
  10f288:	e35c0000 	cmp	ip, #0
  10f28c:	0a000048 	beq	10f3b4 <_vfiprintf_r+0x111c>
  10f290:	e3a02002 	mov	r2, #2
  10f294:	e28d1054 	add	r1, sp, #84	; 0x54
  10f298:	e58d2080 	str	r2, [sp, #128]	; 0x80
  10f29c:	e28db07c 	add	fp, sp, #124	; 0x7c
  10f2a0:	e58d107c 	str	r1, [sp, #124]	; 0x7c
  10f2a4:	e3a00001 	mov	r0, #1
  10f2a8:	eafffee9 	b	10ee54 <_vfiprintf_r+0xbbc>
  10f2ac:	e3520000 	cmp	r2, #0
  10f2b0:	1a000052 	bne	10f400 <_vfiprintf_r+0x1168>
  10f2b4:	e3a00001 	mov	r0, #1
  10f2b8:	e1a01002 	mov	r1, r2
  10f2bc:	e28db07c 	add	fp, sp, #124	; 0x7c
  10f2c0:	eafffee6 	b	10ee60 <_vfiprintf_r+0xbc8>
  10f2c4:	e58d3018 	str	r3, [sp, #24]
  10f2c8:	e28d3e12 	add	r3, sp, #288	; 0x120
  10f2cc:	e58d302c 	str	r3, [sp, #44]	; 0x2c
  10f2d0:	eafffd7f 	b	10e8d4 <_vfiprintf_r+0x63c>
  10f2d4:	e28d1e12 	add	r1, sp, #288	; 0x120
  10f2d8:	e1a021a4 	lsr	r2, r4, #3
  10f2dc:	e1a001a5 	lsr	r0, r5, #3
  10f2e0:	e1822e85 	orr	r2, r2, r5, lsl #29
  10f2e4:	e2043007 	and	r3, r4, #7
  10f2e8:	e1a05000 	mov	r5, r0
  10f2ec:	e2833030 	add	r3, r3, #48	; 0x30
  10f2f0:	e1a04002 	mov	r4, r2
  10f2f4:	e1942005 	orrs	r2, r4, r5
  10f2f8:	e5613001 	strb	r3, [r1, #-1]!
  10f2fc:	1afffff5 	bne	10f2d8 <_vfiprintf_r+0x1040>
  10f300:	e59d2008 	ldr	r2, [sp, #8]
  10f304:	e58d102c 	str	r1, [sp, #44]	; 0x2c
  10f308:	e3120001 	tst	r2, #1
  10f30c:	1a00005f 	bne	10f490 <_vfiprintf_r+0x11f8>
  10f310:	e28d3e12 	add	r3, sp, #288	; 0x120
  10f314:	e0613003 	rsb	r3, r1, r3
  10f318:	e58d3018 	str	r3, [sp, #24]
  10f31c:	eafffd6c 	b	10e8d4 <_vfiprintf_r+0x63c>
  10f320:	e59d2020 	ldr	r2, [sp, #32]
  10f324:	e28dc07c 	add	ip, sp, #124	; 0x7c
  10f328:	e59d1010 	ldr	r1, [sp, #16]
  10f32c:	e0614002 	rsb	r4, r1, r2
  10f330:	e3540000 	cmp	r4, #0
  10f334:	caffff10 	bgt	10ef7c <_vfiprintf_r+0xce4>
  10f338:	eaffff7e 	b	10f138 <_vfiprintf_r+0xea0>
  10f33c:	e28d3e12 	add	r3, sp, #288	; 0x120
  10f340:	e58d1018 	str	r1, [sp, #24]
  10f344:	e58d302c 	str	r3, [sp, #44]	; 0x2c
  10f348:	eafffd61 	b	10e8d4 <_vfiprintf_r+0x63c>
  10f34c:	e3550000 	cmp	r5, #0
  10f350:	03540009 	cmpeq	r4, #9
  10f354:	8a000059 	bhi	10f4c0 <_vfiprintf_r+0x1228>
  10f358:	e28d3e12 	add	r3, sp, #288	; 0x120
  10f35c:	e2844030 	add	r4, r4, #48	; 0x30
  10f360:	e58d1018 	str	r1, [sp, #24]
  10f364:	e5634001 	strb	r4, [r3, #-1]!
  10f368:	e58d302c 	str	r3, [sp, #44]	; 0x2c
  10f36c:	eafffd58 	b	10e8d4 <_vfiprintf_r+0x63c>
  10f370:	e28d2070 	add	r2, sp, #112	; 0x70
  10f374:	e59d100c 	ldr	r1, [sp, #12]
  10f378:	e1a0000a 	mov	r0, sl
  10f37c:	ebfffb95 	bl	10e1d8 <__sprint_r.part.0>
  10f380:	e3500000 	cmp	r0, #0
  10f384:	1affff45 	bne	10f0a0 <_vfiprintf_r+0xe08>
  10f388:	e59d3078 	ldr	r3, [sp, #120]	; 0x78
  10f38c:	e28dc07c 	add	ip, sp, #124	; 0x7c
  10f390:	eafffef1 	b	10ef5c <_vfiprintf_r+0xcc4>
  10f394:	e28d2070 	add	r2, sp, #112	; 0x70
  10f398:	e59d100c 	ldr	r1, [sp, #12]
  10f39c:	e1a0000a 	mov	r0, sl
  10f3a0:	ebfffb8c 	bl	10e1d8 <__sprint_r.part.0>
  10f3a4:	e3500000 	cmp	r0, #0
  10f3a8:	1affff42 	bne	10f0b8 <_vfiprintf_r+0xe20>
  10f3ac:	e28db07c 	add	fp, sp, #124	; 0x7c
  10f3b0:	eafffc19 	b	10e41c <_vfiprintf_r+0x184>
  10f3b4:	e1a01002 	mov	r1, r2
  10f3b8:	e3a00001 	mov	r0, #1
  10f3bc:	e28db07c 	add	fp, sp, #124	; 0x7c
  10f3c0:	eafffea6 	b	10ee60 <_vfiprintf_r+0xbc8>
  10f3c4:	e28d2070 	add	r2, sp, #112	; 0x70
  10f3c8:	e59d100c 	ldr	r1, [sp, #12]
  10f3cc:	e1a0000a 	mov	r0, sl
  10f3d0:	e58d3048 	str	r3, [sp, #72]	; 0x48
  10f3d4:	e58dc044 	str	ip, [sp, #68]	; 0x44
  10f3d8:	ebfffb7e 	bl	10e1d8 <__sprint_r.part.0>
  10f3dc:	e3500000 	cmp	r0, #0
  10f3e0:	1affff2e 	bne	10f0a0 <_vfiprintf_r+0xe08>
  10f3e4:	e59d1074 	ldr	r1, [sp, #116]	; 0x74
  10f3e8:	e28db07c 	add	fp, sp, #124	; 0x7c
  10f3ec:	e59d2078 	ldr	r2, [sp, #120]	; 0x78
  10f3f0:	e2810001 	add	r0, r1, #1
  10f3f4:	e59d3048 	ldr	r3, [sp, #72]	; 0x48
  10f3f8:	e59dc044 	ldr	ip, [sp, #68]	; 0x44
  10f3fc:	eafffe89 	b	10ee28 <_vfiprintf_r+0xb90>
  10f400:	e28d2070 	add	r2, sp, #112	; 0x70
  10f404:	e59d100c 	ldr	r1, [sp, #12]
  10f408:	e1a0000a 	mov	r0, sl
  10f40c:	e58d3044 	str	r3, [sp, #68]	; 0x44
  10f410:	ebfffb70 	bl	10e1d8 <__sprint_r.part.0>
  10f414:	e3500000 	cmp	r0, #0
  10f418:	1affff20 	bne	10f0a0 <_vfiprintf_r+0xe08>
  10f41c:	e59d1074 	ldr	r1, [sp, #116]	; 0x74
  10f420:	e28db07c 	add	fp, sp, #124	; 0x7c
  10f424:	e59d2078 	ldr	r2, [sp, #120]	; 0x78
  10f428:	e2810001 	add	r0, r1, #1
  10f42c:	e59d3044 	ldr	r3, [sp, #68]	; 0x44
  10f430:	eafffe8a 	b	10ee60 <_vfiprintf_r+0xbc8>
  10f434:	e3520000 	cmp	r2, #0
  10f438:	1a00013c 	bne	10f930 <_vfiprintf_r+0x1698>
  10f43c:	e3a00001 	mov	r0, #1
  10f440:	e1a01002 	mov	r1, r2
  10f444:	e28db07c 	add	fp, sp, #124	; 0x7c
  10f448:	eafffe86 	b	10ee68 <_vfiprintf_r+0xbd0>
  10f44c:	e59d2024 	ldr	r2, [sp, #36]	; 0x24
  10f450:	e3a01001 	mov	r1, #1
  10f454:	e3a05000 	mov	r5, #0
  10f458:	e2822004 	add	r2, r2, #4
  10f45c:	e5123004 	ldr	r3, [r2, #-4]
  10f460:	e58d2024 	str	r2, [sp, #36]	; 0x24
  10f464:	e2932000 	adds	r2, r3, #0
  10f468:	e1a04003 	mov	r4, r3
  10f46c:	13a02001 	movne	r2, #1
  10f470:	eafffcf5 	b	10e84c <_vfiprintf_r+0x5b4>
  10f474:	e5934000 	ldr	r4, [r3]
  10f478:	e2833004 	add	r3, r3, #4
  10f47c:	e58d3024 	str	r3, [sp, #36]	; 0x24
  10f480:	e1a05fc4 	asr	r5, r4, #31
  10f484:	e1a02004 	mov	r2, r4
  10f488:	e1a03005 	mov	r3, r5
  10f48c:	eafffc95 	b	10e6e8 <_vfiprintf_r+0x450>
  10f490:	e3530030 	cmp	r3, #48	; 0x30
  10f494:	0a00013c 	beq	10f98c <_vfiprintf_r+0x16f4>
  10f498:	e59d302c 	ldr	r3, [sp, #44]	; 0x2c
  10f49c:	e28d0e12 	add	r0, sp, #288	; 0x120
  10f4a0:	e2433001 	sub	r3, r3, #1
  10f4a4:	e58d302c 	str	r3, [sp, #44]	; 0x2c
  10f4a8:	e1a02003 	mov	r2, r3
  10f4ac:	e3a03030 	mov	r3, #48	; 0x30
  10f4b0:	e0622000 	rsb	r2, r2, r0
  10f4b4:	e5413001 	strb	r3, [r1, #-1]
  10f4b8:	e58d2018 	str	r2, [sp, #24]
  10f4bc:	eafffd04 	b	10e8d4 <_vfiprintf_r+0x63c>
  10f4c0:	e59d3008 	ldr	r3, [sp, #8]
  10f4c4:	e28d2e12 	add	r2, sp, #288	; 0x120
  10f4c8:	e58db010 	str	fp, [sp, #16]
  10f4cc:	e3a09000 	mov	r9, #0
  10f4d0:	e2033b01 	and	r3, r3, #1024	; 0x400
  10f4d4:	e58da018 	str	sl, [sp, #24]
  10f4d8:	e58d6028 	str	r6, [sp, #40]	; 0x28
  10f4dc:	e1a0a002 	mov	sl, r2
  10f4e0:	e1a0b003 	mov	fp, r3
  10f4e4:	e59d6038 	ldr	r6, [sp, #56]	; 0x38
  10f4e8:	ea000008 	b	10f510 <_vfiprintf_r+0x1278>
  10f4ec:	e1a00004 	mov	r0, r4
  10f4f0:	e1a01005 	mov	r1, r5
  10f4f4:	e3a03000 	mov	r3, #0
  10f4f8:	e3a0200a 	mov	r2, #10
  10f4fc:	eb000527 	bl	1109a0 <__aeabi_uldivmod>
  10f500:	e1a04000 	mov	r4, r0
  10f504:	e1a05001 	mov	r5, r1
  10f508:	e1943005 	orrs	r3, r4, r5
  10f50c:	0a000025 	beq	10f5a8 <_vfiprintf_r+0x1310>
  10f510:	e3a0200a 	mov	r2, #10
  10f514:	e3a03000 	mov	r3, #0
  10f518:	e1a00004 	mov	r0, r4
  10f51c:	e1a01005 	mov	r1, r5
  10f520:	eb00051e 	bl	1109a0 <__aeabi_uldivmod>
  10f524:	e35b0000 	cmp	fp, #0
  10f528:	e24a1001 	sub	r1, sl, #1
  10f52c:	e2899001 	add	r9, r9, #1
  10f530:	e2822030 	add	r2, r2, #48	; 0x30
  10f534:	e54a2001 	strb	r2, [sl, #-1]
  10f538:	01a0a001 	moveq	sl, r1
  10f53c:	0affffea 	beq	10f4ec <_vfiprintf_r+0x1254>
  10f540:	e3550000 	cmp	r5, #0
  10f544:	e5d62000 	ldrb	r2, [r6]
  10f548:	03540009 	cmpeq	r4, #9
  10f54c:	e1a0a001 	mov	sl, r1
  10f550:	83a03001 	movhi	r3, #1
  10f554:	93a03000 	movls	r3, #0
  10f558:	e35200ff 	cmp	r2, #255	; 0xff
  10f55c:	03a03000 	moveq	r3, #0
  10f560:	12033001 	andne	r3, r3, #1
  10f564:	e1590002 	cmp	r9, r2
  10f568:	13a03000 	movne	r3, #0
  10f56c:	02033001 	andeq	r3, r3, #1
  10f570:	e3530000 	cmp	r3, #0
  10f574:	0affffdc 	beq	10f4ec <_vfiprintf_r+0x1254>
  10f578:	e59d303c 	ldr	r3, [sp, #60]	; 0x3c
  10f57c:	e3a09000 	mov	r9, #0
  10f580:	e063a001 	rsb	sl, r3, r1
  10f584:	e59d1040 	ldr	r1, [sp, #64]	; 0x40
  10f588:	e1a02003 	mov	r2, r3
  10f58c:	e1a0000a 	mov	r0, sl
  10f590:	ebfffa5a 	bl	10df00 <strncpy>
  10f594:	e5d63001 	ldrb	r3, [r6, #1]
  10f598:	e1530009 	cmp	r3, r9
  10f59c:	12866001 	addne	r6, r6, #1
  10f5a0:	01a09003 	moveq	r9, r3
  10f5a4:	eaffffd0 	b	10f4ec <_vfiprintf_r+0x1254>
  10f5a8:	e28d2e12 	add	r2, sp, #288	; 0x120
  10f5ac:	e1a0300a 	mov	r3, sl
  10f5b0:	e58da02c 	str	sl, [sp, #44]	; 0x2c
  10f5b4:	e0633002 	rsb	r3, r3, r2
  10f5b8:	e58d6038 	str	r6, [sp, #56]	; 0x38
  10f5bc:	e59da018 	ldr	sl, [sp, #24]
  10f5c0:	e59db010 	ldr	fp, [sp, #16]
  10f5c4:	e59d6028 	ldr	r6, [sp, #40]	; 0x28
  10f5c8:	e58d3018 	str	r3, [sp, #24]
  10f5cc:	eafffcc0 	b	10e8d4 <_vfiprintf_r+0x63c>
  10f5d0:	e59d9024 	ldr	r9, [sp, #36]	; 0x24
  10f5d4:	e28d40bc 	add	r4, sp, #188	; 0xbc
  10f5d8:	e3a02008 	mov	r2, #8
  10f5dc:	e3a01000 	mov	r1, #0
  10f5e0:	e28d0068 	add	r0, sp, #104	; 0x68
  10f5e4:	e2895004 	add	r5, r9, #4
  10f5e8:	ebfff2ae 	bl	10c0a8 <memset>
  10f5ec:	e28d3068 	add	r3, sp, #104	; 0x68
  10f5f0:	e1a01004 	mov	r1, r4
  10f5f4:	e5992000 	ldr	r2, [r9]
  10f5f8:	e1a0000a 	mov	r0, sl
  10f5fc:	ebffe043 	bl	107710 <_wcrtomb_r>
  10f600:	e3700001 	cmn	r0, #1
  10f604:	e58d0018 	str	r0, [sp, #24]
  10f608:	0a000131 	beq	10fad4 <_vfiprintf_r+0x183c>
  10f60c:	e59d3018 	ldr	r3, [sp, #24]
  10f610:	e58d5024 	str	r5, [sp, #36]	; 0x24
  10f614:	e1c33fc3 	bic	r3, r3, r3, asr #31
  10f618:	eafffd45 	b	10eb34 <_vfiprintf_r+0x89c>
  10f61c:	e2744000 	rsbs	r4, r4, #0
  10f620:	e3a01001 	mov	r1, #1
  10f624:	e2e55000 	rsc	r5, r5, #0
  10f628:	e3a0302d 	mov	r3, #45	; 0x2d
  10f62c:	e1942005 	orrs	r2, r4, r5
  10f630:	e5cd3053 	strb	r3, [sp, #83]	; 0x53
  10f634:	11a02001 	movne	r2, r1
  10f638:	03a02000 	moveq	r2, #0
  10f63c:	eafffc84 	b	10e854 <_vfiprintf_r+0x5bc>
  10f640:	e35c0000 	cmp	ip, #0
  10f644:	e1a01002 	mov	r1, r2
  10f648:	e3a00001 	mov	r0, #1
  10f64c:	e28db07c 	add	fp, sp, #124	; 0x7c
  10f650:	0afffe04 	beq	10ee68 <_vfiprintf_r+0xbd0>
  10f654:	e3a02002 	mov	r2, #2
  10f658:	e28d1054 	add	r1, sp, #84	; 0x54
  10f65c:	e58d2080 	str	r2, [sp, #128]	; 0x80
  10f660:	e58d107c 	str	r1, [sp, #124]	; 0x7c
  10f664:	eafffdfa 	b	10ee54 <_vfiprintf_r+0xbbc>
  10f668:	e59d3008 	ldr	r3, [sp, #8]
  10f66c:	e3130010 	tst	r3, #16
  10f670:	1a00006f 	bne	10f834 <_vfiprintf_r+0x159c>
  10f674:	e59d3008 	ldr	r3, [sp, #8]
  10f678:	e3130040 	tst	r3, #64	; 0x40
  10f67c:	0a0000d2 	beq	10f9cc <_vfiprintf_r+0x1734>
  10f680:	e59d2024 	ldr	r2, [sp, #36]	; 0x24
  10f684:	e2822004 	add	r2, r2, #4
  10f688:	e5123004 	ldr	r3, [r2, #-4]
  10f68c:	e58d2024 	str	r2, [sp, #36]	; 0x24
  10f690:	e1dd21bc 	ldrh	r2, [sp, #28]
  10f694:	e1c320b0 	strh	r2, [r3]
  10f698:	eafffb36 	b	10e378 <_vfiprintf_r+0xe0>
  10f69c:	e59d3008 	ldr	r3, [sp, #8]
  10f6a0:	e3130040 	tst	r3, #64	; 0x40
  10f6a4:	0a000080 	beq	10f8ac <_vfiprintf_r+0x1614>
  10f6a8:	e59d3024 	ldr	r3, [sp, #36]	; 0x24
  10f6ac:	e3a05000 	mov	r5, #0
  10f6b0:	e2833004 	add	r3, r3, #4
  10f6b4:	e15340b4 	ldrh	r4, [r3, #-4]
  10f6b8:	e58d3024 	str	r3, [sp, #36]	; 0x24
  10f6bc:	eafffc1f 	b	10e740 <_vfiprintf_r+0x4a8>
  10f6c0:	e59d2008 	ldr	r2, [sp, #8]
  10f6c4:	e3120040 	tst	r2, #64	; 0x40
  10f6c8:	0a00006b 	beq	10f87c <_vfiprintf_r+0x15e4>
  10f6cc:	e59d2024 	ldr	r2, [sp, #36]	; 0x24
  10f6d0:	e3a05000 	mov	r5, #0
  10f6d4:	e2822004 	add	r2, r2, #4
  10f6d8:	e15240b4 	ldrh	r4, [r2, #-4]
  10f6dc:	e58d2024 	str	r2, [sp, #36]	; 0x24
  10f6e0:	eafffc4b 	b	10e814 <_vfiprintf_r+0x57c>
  10f6e4:	e59d302c 	ldr	r3, [sp, #44]	; 0x2c
  10f6e8:	e3a02008 	mov	r2, #8
  10f6ec:	e3a01000 	mov	r1, #0
  10f6f0:	e28d0068 	add	r0, sp, #104	; 0x68
  10f6f4:	e58d305c 	str	r3, [sp, #92]	; 0x5c
  10f6f8:	ebfff26a 	bl	10c0a8 <memset>
  10f6fc:	e59d3014 	ldr	r3, [sp, #20]
  10f700:	e3530000 	cmp	r3, #0
  10f704:	ba0000cf 	blt	10fa48 <_vfiprintf_r+0x17b0>
  10f708:	e3a04000 	mov	r4, #0
  10f70c:	e58d5010 	str	r5, [sp, #16]
  10f710:	e1a09004 	mov	r9, r4
  10f714:	e1a05004 	mov	r5, r4
  10f718:	e1a04003 	mov	r4, r3
  10f71c:	ea000007 	b	10f740 <_vfiprintf_r+0x14a8>
  10f720:	ebffdffa 	bl	107710 <_wcrtomb_r>
  10f724:	e3700001 	cmn	r0, #1
  10f728:	e0803009 	add	r3, r0, r9
  10f72c:	0a0000b5 	beq	10fa08 <_vfiprintf_r+0x1770>
  10f730:	e1530004 	cmp	r3, r4
  10f734:	ca000009 	bgt	10f760 <_vfiprintf_r+0x14c8>
  10f738:	0a0000b9 	beq	10fa24 <_vfiprintf_r+0x178c>
  10f73c:	e1a09003 	mov	r9, r3
  10f740:	e59d205c 	ldr	r2, [sp, #92]	; 0x5c
  10f744:	e28d3068 	add	r3, sp, #104	; 0x68
  10f748:	e28d10bc 	add	r1, sp, #188	; 0xbc
  10f74c:	e1a0000a 	mov	r0, sl
  10f750:	e7922005 	ldr	r2, [r2, r5]
  10f754:	e2855004 	add	r5, r5, #4
  10f758:	e3520000 	cmp	r2, #0
  10f75c:	1affffef 	bne	10f720 <_vfiprintf_r+0x1488>
  10f760:	e59d5010 	ldr	r5, [sp, #16]
  10f764:	e58d9018 	str	r9, [sp, #24]
  10f768:	e59d3018 	ldr	r3, [sp, #24]
  10f76c:	e3530000 	cmp	r3, #0
  10f770:	0a00007f 	beq	10f974 <_vfiprintf_r+0x16dc>
  10f774:	e3530063 	cmp	r3, #99	; 0x63
  10f778:	da0000ad 	ble	10fa34 <_vfiprintf_r+0x179c>
  10f77c:	e2831001 	add	r1, r3, #1
  10f780:	e1a0000a 	mov	r0, sl
  10f784:	ebffd2a2 	bl	104214 <_malloc_r>
  10f788:	e2503000 	subs	r3, r0, #0
  10f78c:	e58d302c 	str	r3, [sp, #44]	; 0x2c
  10f790:	0a00009c 	beq	10fa08 <_vfiprintf_r+0x1770>
  10f794:	e59d302c 	ldr	r3, [sp, #44]	; 0x2c
  10f798:	e58d3028 	str	r3, [sp, #40]	; 0x28
  10f79c:	e3a02008 	mov	r2, #8
  10f7a0:	e3a01000 	mov	r1, #0
  10f7a4:	e28d0068 	add	r0, sp, #104	; 0x68
  10f7a8:	ebfff23e 	bl	10c0a8 <memset>
  10f7ac:	e59d4018 	ldr	r4, [sp, #24]
  10f7b0:	e28d3068 	add	r3, sp, #104	; 0x68
  10f7b4:	e28d205c 	add	r2, sp, #92	; 0x5c
  10f7b8:	e58d3000 	str	r3, [sp]
  10f7bc:	e1a0000a 	mov	r0, sl
  10f7c0:	e1a03004 	mov	r3, r4
  10f7c4:	e59d102c 	ldr	r1, [sp, #44]	; 0x2c
  10f7c8:	ebffe01a 	bl	107838 <_wcsrtombs_r>
  10f7cc:	e1540000 	cmp	r4, r0
  10f7d0:	1a0000c4 	bne	10fae8 <_vfiprintf_r+0x1850>
  10f7d4:	e59d3018 	ldr	r3, [sp, #24]
  10f7d8:	e3a04000 	mov	r4, #0
  10f7dc:	e59d202c 	ldr	r2, [sp, #44]	; 0x2c
  10f7e0:	e58d5024 	str	r5, [sp, #36]	; 0x24
  10f7e4:	e58d4014 	str	r4, [sp, #20]
  10f7e8:	e7c24003 	strb	r4, [r2, r3]
  10f7ec:	e1c33fc3 	bic	r3, r3, r3, asr #31
  10f7f0:	e58d3010 	str	r3, [sp, #16]
  10f7f4:	eafffc3d 	b	10e8f0 <_vfiprintf_r+0x658>
  10f7f8:	e28d2070 	add	r2, sp, #112	; 0x70
  10f7fc:	e59d100c 	ldr	r1, [sp, #12]
  10f800:	e1a0000a 	mov	r0, sl
  10f804:	e58d3048 	str	r3, [sp, #72]	; 0x48
  10f808:	e58dc044 	str	ip, [sp, #68]	; 0x44
  10f80c:	ebfffa71 	bl	10e1d8 <__sprint_r.part.0>
  10f810:	e3500000 	cmp	r0, #0
  10f814:	1afffe21 	bne	10f0a0 <_vfiprintf_r+0xe08>
  10f818:	e59d1074 	ldr	r1, [sp, #116]	; 0x74
  10f81c:	e28db07c 	add	fp, sp, #124	; 0x7c
  10f820:	e59d2078 	ldr	r2, [sp, #120]	; 0x78
  10f824:	e2810001 	add	r0, r1, #1
  10f828:	e59d3048 	ldr	r3, [sp, #72]	; 0x48
  10f82c:	e59dc044 	ldr	ip, [sp, #68]	; 0x44
  10f830:	eafffd6d 	b	10edec <_vfiprintf_r+0xb54>
  10f834:	e59d2024 	ldr	r2, [sp, #36]	; 0x24
  10f838:	e2822004 	add	r2, r2, #4
  10f83c:	e5123004 	ldr	r3, [r2, #-4]
  10f840:	e58d2024 	str	r2, [sp, #36]	; 0x24
  10f844:	e59d201c 	ldr	r2, [sp, #28]
  10f848:	e5832000 	str	r2, [r3]
  10f84c:	eafffac9 	b	10e378 <_vfiprintf_r+0xe0>
  10f850:	e59d3008 	ldr	r3, [sp, #8]
  10f854:	e3833b01 	orr	r3, r3, #1024	; 0x400
  10f858:	e58d3008 	str	r3, [sp, #8]
  10f85c:	e5d63000 	ldrb	r3, [r6]
  10f860:	eafffafa 	b	10e450 <_vfiprintf_r+0x1b8>
  10f864:	e59d3024 	ldr	r3, [sp, #36]	; 0x24
  10f868:	e1d340b0 	ldrh	r4, [r3]
  10f86c:	eafffb87 	b	10e690 <_vfiprintf_r+0x3f8>
  10f870:	e59d3024 	ldr	r3, [sp, #36]	; 0x24
  10f874:	e1d340f0 	ldrsh	r4, [r3]
  10f878:	eafffd47 	b	10ed9c <_vfiprintf_r+0xb04>
  10f87c:	e59d2008 	ldr	r2, [sp, #8]
  10f880:	e3120c02 	tst	r2, #512	; 0x200
  10f884:	e59d2024 	ldr	r2, [sp, #36]	; 0x24
  10f888:	13a05000 	movne	r5, #0
  10f88c:	03a05000 	moveq	r5, #0
  10f890:	05924000 	ldreq	r4, [r2]
  10f894:	02822004 	addeq	r2, r2, #4
  10f898:	15d24000 	ldrbne	r4, [r2]
  10f89c:	12822004 	addne	r2, r2, #4
  10f8a0:	058d2024 	streq	r2, [sp, #36]	; 0x24
  10f8a4:	158d2024 	strne	r2, [sp, #36]	; 0x24
  10f8a8:	eafffbd9 	b	10e814 <_vfiprintf_r+0x57c>
  10f8ac:	e59d3008 	ldr	r3, [sp, #8]
  10f8b0:	e3130c02 	tst	r3, #512	; 0x200
  10f8b4:	e59d3024 	ldr	r3, [sp, #36]	; 0x24
  10f8b8:	13a05000 	movne	r5, #0
  10f8bc:	03a05000 	moveq	r5, #0
  10f8c0:	05934000 	ldreq	r4, [r3]
  10f8c4:	02833004 	addeq	r3, r3, #4
  10f8c8:	15d34000 	ldrbne	r4, [r3]
  10f8cc:	12833004 	addne	r3, r3, #4
  10f8d0:	058d3024 	streq	r3, [sp, #36]	; 0x24
  10f8d4:	158d3024 	strne	r3, [sp, #36]	; 0x24
  10f8d8:	eafffb98 	b	10e740 <_vfiprintf_r+0x4a8>
  10f8dc:	e59d002c 	ldr	r0, [sp, #44]	; 0x2c
  10f8e0:	e58d4014 	str	r4, [sp, #20]
  10f8e4:	faffd485 	blx	104b00 <strlen>
  10f8e8:	e58d5024 	str	r5, [sp, #36]	; 0x24
  10f8ec:	e58d4028 	str	r4, [sp, #40]	; 0x28
  10f8f0:	e1c03fc0 	bic	r3, r0, r0, asr #31
  10f8f4:	e58d0018 	str	r0, [sp, #24]
  10f8f8:	e58d3010 	str	r3, [sp, #16]
  10f8fc:	eafffbfb 	b	10e8f0 <_vfiprintf_r+0x658>
  10f900:	e59d3078 	ldr	r3, [sp, #120]	; 0x78
  10f904:	e3530000 	cmp	r3, #0
  10f908:	0afffdea 	beq	10f0b8 <_vfiprintf_r+0xe20>
  10f90c:	e59d400c 	ldr	r4, [sp, #12]
  10f910:	e1a0000a 	mov	r0, sl
  10f914:	e28d2070 	add	r2, sp, #112	; 0x70
  10f918:	e1a01004 	mov	r1, r4
  10f91c:	ebfffa2d 	bl	10e1d8 <__sprint_r.part.0>
  10f920:	e3500000 	cmp	r0, #0
  10f924:	0afffde3 	beq	10f0b8 <_vfiprintf_r+0xe20>
  10f928:	e1d430bc 	ldrh	r3, [r4, #12]
  10f92c:	eafffde3 	b	10f0c0 <_vfiprintf_r+0xe28>
  10f930:	e28d2070 	add	r2, sp, #112	; 0x70
  10f934:	e59d100c 	ldr	r1, [sp, #12]
  10f938:	e1a0000a 	mov	r0, sl
  10f93c:	ebfffa25 	bl	10e1d8 <__sprint_r.part.0>
  10f940:	e3500000 	cmp	r0, #0
  10f944:	1afffdd5 	bne	10f0a0 <_vfiprintf_r+0xe08>
  10f948:	e59d1074 	ldr	r1, [sp, #116]	; 0x74
  10f94c:	e28db07c 	add	fp, sp, #124	; 0x7c
  10f950:	e59d2078 	ldr	r2, [sp, #120]	; 0x78
  10f954:	e2810001 	add	r0, r1, #1
  10f958:	eafffd42 	b	10ee68 <_vfiprintf_r+0xbd0>
  10f95c:	e59d1074 	ldr	r1, [sp, #116]	; 0x74
  10f960:	e3065b70 	movw	r5, #27504	; 0x6b70
  10f964:	e3405011 	movt	r5, #17
  10f968:	e59d2078 	ldr	r2, [sp, #120]	; 0x78
  10f96c:	e2811001 	add	r1, r1, #1
  10f970:	eafffc1e 	b	10e9f0 <_vfiprintf_r+0x758>
  10f974:	e59d3018 	ldr	r3, [sp, #24]
  10f978:	e58d5024 	str	r5, [sp, #36]	; 0x24
  10f97c:	e58d3014 	str	r3, [sp, #20]
  10f980:	e58d3010 	str	r3, [sp, #16]
  10f984:	e58d3028 	str	r3, [sp, #40]	; 0x28
  10f988:	eafffbd8 	b	10e8f0 <_vfiprintf_r+0x658>
  10f98c:	e59d202c 	ldr	r2, [sp, #44]	; 0x2c
  10f990:	e28d3e12 	add	r3, sp, #288	; 0x120
  10f994:	e0623003 	rsb	r3, r2, r3
  10f998:	e58d3018 	str	r3, [sp, #24]
  10f99c:	eafffbcc 	b	10e8d4 <_vfiprintf_r+0x63c>
  10f9a0:	e59d3014 	ldr	r3, [sp, #20]
  10f9a4:	e307217c 	movw	r2, #29052	; 0x717c
  10f9a8:	e3402011 	movt	r2, #17
  10f9ac:	e58d5024 	str	r5, [sp, #36]	; 0x24
  10f9b0:	e3530006 	cmp	r3, #6
  10f9b4:	e58d202c 	str	r2, [sp, #44]	; 0x2c
  10f9b8:	23a03006 	movcs	r3, #6
  10f9bc:	e58d3018 	str	r3, [sp, #24]
  10f9c0:	e1c33fc3 	bic	r3, r3, r3, asr #31
  10f9c4:	e58d3010 	str	r3, [sp, #16]
  10f9c8:	eafffc5d 	b	10eb44 <_vfiprintf_r+0x8ac>
  10f9cc:	e59d3008 	ldr	r3, [sp, #8]
  10f9d0:	e3130c02 	tst	r3, #512	; 0x200
  10f9d4:	0affff96 	beq	10f834 <_vfiprintf_r+0x159c>
  10f9d8:	e59d2024 	ldr	r2, [sp, #36]	; 0x24
  10f9dc:	e2822004 	add	r2, r2, #4
  10f9e0:	e5123004 	ldr	r3, [r2, #-4]
  10f9e4:	e58d2024 	str	r2, [sp, #36]	; 0x24
  10f9e8:	e5dd201c 	ldrb	r2, [sp, #28]
  10f9ec:	e5c32000 	strb	r2, [r3]
  10f9f0:	eafffa60 	b	10e378 <_vfiprintf_r+0xe0>
  10f9f4:	e59d0074 	ldr	r0, [sp, #116]	; 0x74
  10f9f8:	e3065b70 	movw	r5, #27504	; 0x6b70
  10f9fc:	e3405011 	movt	r5, #17
  10fa00:	e2800001 	add	r0, r0, #1
  10fa04:	eafffd86 	b	10f024 <_vfiprintf_r+0xd8c>
  10fa08:	e59d200c 	ldr	r2, [sp, #12]
  10fa0c:	e1d230bc 	ldrh	r3, [r2, #12]
  10fa10:	e3833040 	orr	r3, r3, #64	; 0x40
  10fa14:	e1c230bc 	strh	r3, [r2, #12]
  10fa18:	eafffda6 	b	10f0b8 <_vfiprintf_r+0xe20>
  10fa1c:	e1a03000 	mov	r3, r0
  10fa20:	eafffe0b 	b	10f254 <_vfiprintf_r+0xfbc>
  10fa24:	e59d3014 	ldr	r3, [sp, #20]
  10fa28:	e59d5010 	ldr	r5, [sp, #16]
  10fa2c:	e58d3018 	str	r3, [sp, #24]
  10fa30:	eaffff4c 	b	10f768 <_vfiprintf_r+0x14d0>
  10fa34:	e3a03000 	mov	r3, #0
  10fa38:	e58d3028 	str	r3, [sp, #40]	; 0x28
  10fa3c:	e28d30bc 	add	r3, sp, #188	; 0xbc
  10fa40:	e58d302c 	str	r3, [sp, #44]	; 0x2c
  10fa44:	eaffff54 	b	10f79c <_vfiprintf_r+0x1504>
  10fa48:	e3a03000 	mov	r3, #0
  10fa4c:	e28d2068 	add	r2, sp, #104	; 0x68
  10fa50:	e1a01003 	mov	r1, r3
  10fa54:	e58d2000 	str	r2, [sp]
  10fa58:	e1a0000a 	mov	r0, sl
  10fa5c:	e28d205c 	add	r2, sp, #92	; 0x5c
  10fa60:	ebffdf74 	bl	107838 <_wcsrtombs_r>
  10fa64:	e3700001 	cmn	r0, #1
  10fa68:	e58d0018 	str	r0, [sp, #24]
  10fa6c:	0affffe5 	beq	10fa08 <_vfiprintf_r+0x1770>
  10fa70:	e59d302c 	ldr	r3, [sp, #44]	; 0x2c
  10fa74:	e58d305c 	str	r3, [sp, #92]	; 0x5c
  10fa78:	eaffff3a 	b	10f768 <_vfiprintf_r+0x14d0>
  10fa7c:	e59d3014 	ldr	r3, [sp, #20]
  10fa80:	e58d5024 	str	r5, [sp, #36]	; 0x24
  10fa84:	e58d0014 	str	r0, [sp, #20]
  10fa88:	e1c32fc3 	bic	r2, r3, r3, asr #31
  10fa8c:	e58d3018 	str	r3, [sp, #24]
  10fa90:	e58d2010 	str	r2, [sp, #16]
  10fa94:	e58d0028 	str	r0, [sp, #40]	; 0x28
  10fa98:	eafffb94 	b	10e8f0 <_vfiprintf_r+0x658>
  10fa9c:	e59d1024 	ldr	r1, [sp, #36]	; 0x24
  10faa0:	e2811004 	add	r1, r1, #4
  10faa4:	e5113004 	ldr	r3, [r1, #-4]
  10faa8:	e58d1024 	str	r1, [sp, #36]	; 0x24
  10faac:	e1a00003 	mov	r0, r3
  10fab0:	e3500000 	cmp	r0, #0
  10fab4:	e58d3014 	str	r3, [sp, #20]
  10fab8:	e1a03006 	mov	r3, r6
  10fabc:	e5d33001 	ldrb	r3, [r3, #1]
  10fac0:	e1a06002 	mov	r6, r2
  10fac4:	e1a02000 	mov	r2, r0
  10fac8:	b3e02000 	mvnlt	r2, #0
  10facc:	b58d2014 	strlt	r2, [sp, #20]
  10fad0:	eafffa5e 	b	10e450 <_vfiprintf_r+0x1b8>
  10fad4:	e59d200c 	ldr	r2, [sp, #12]
  10fad8:	e1d230bc 	ldrh	r3, [r2, #12]
  10fadc:	e3833040 	orr	r3, r3, #64	; 0x40
  10fae0:	e1c230bc 	strh	r3, [r2, #12]
  10fae4:	eafffd75 	b	10f0c0 <_vfiprintf_r+0xe28>
  10fae8:	e59d200c 	ldr	r2, [sp, #12]
  10faec:	e1d230bc 	ldrh	r3, [r2, #12]
  10faf0:	e3833040 	orr	r3, r3, #64	; 0x40
  10faf4:	e1c230bc 	strh	r3, [r2, #12]
  10faf8:	eafffd68 	b	10f0a0 <_vfiprintf_r+0xe08>
  10fafc:	00116b80 	.word	0x00116b80

0010fb00 <vfiprintf>:
  10fb00:	e307c988 	movw	ip, #31112	; 0x7988
  10fb04:	e1a03002 	mov	r3, r2
  10fb08:	e340c011 	movt	ip, #17
  10fb0c:	e1a02001 	mov	r2, r1
  10fb10:	e1a01000 	mov	r1, r0
  10fb14:	e59c0000 	ldr	r0, [ip]
  10fb18:	eafff9de 	b	10e298 <_vfiprintf_r>

0010fb1c <__sbprintf>:
  10fb1c:	e92d47f0 	push	{r4, r5, r6, r7, r8, r9, sl, lr}
  10fb20:	e1a04001 	mov	r4, r1
  10fb24:	e24dde46 	sub	sp, sp, #1120	; 0x460
  10fb28:	e1d470be 	ldrh	r7, [r4, #14]
  10fb2c:	e24dd008 	sub	sp, sp, #8
  10fb30:	e5949064 	ldr	r9, [r4, #100]	; 0x64
  10fb34:	e594a01c 	ldr	sl, [r4, #28]
  10fb38:	e28d6068 	add	r6, sp, #104	; 0x68
  10fb3c:	e5948024 	ldr	r8, [r4, #36]	; 0x24
  10fb40:	e1a0100d 	mov	r1, sp
  10fb44:	e1d4c0bc 	ldrh	ip, [r4, #12]
  10fb48:	e3a0eb01 	mov	lr, #1024	; 0x400
  10fb4c:	e1cd70be 	strh	r7, [sp, #14]
  10fb50:	e3a07000 	mov	r7, #0
  10fb54:	e3ccc002 	bic	ip, ip, #2
  10fb58:	e58d9064 	str	r9, [sp, #100]	; 0x64
  10fb5c:	e58d6000 	str	r6, [sp]
  10fb60:	e1a09000 	mov	r9, r0
  10fb64:	e58d6010 	str	r6, [sp, #16]
  10fb68:	e1cdc0bc 	strh	ip, [sp, #12]
  10fb6c:	e58da01c 	str	sl, [sp, #28]
  10fb70:	e58d8024 	str	r8, [sp, #36]	; 0x24
  10fb74:	e58de008 	str	lr, [sp, #8]
  10fb78:	e58de014 	str	lr, [sp, #20]
  10fb7c:	e58d7018 	str	r7, [sp, #24]
  10fb80:	ebfff9c4 	bl	10e298 <_vfiprintf_r>
  10fb84:	e2506000 	subs	r6, r0, #0
  10fb88:	ba000004 	blt	10fba0 <__sbprintf+0x84>
  10fb8c:	e1a0100d 	mov	r1, sp
  10fb90:	e1a00009 	mov	r0, r9
  10fb94:	ebffe68c 	bl	1095cc <_fflush_r>
  10fb98:	e1500007 	cmp	r0, r7
  10fb9c:	13e06000 	mvnne	r6, #0
  10fba0:	e1dd30bc 	ldrh	r3, [sp, #12]
  10fba4:	e1a00006 	mov	r0, r6
  10fba8:	e3130040 	tst	r3, #64	; 0x40
  10fbac:	11d430bc 	ldrhne	r3, [r4, #12]
  10fbb0:	13833040 	orrne	r3, r3, #64	; 0x40
  10fbb4:	11c430bc 	strhne	r3, [r4, #12]
  10fbb8:	e28dde46 	add	sp, sp, #1120	; 0x460
  10fbbc:	e28dd008 	add	sp, sp, #8
  10fbc0:	e8bd87f0 	pop	{r4, r5, r6, r7, r8, r9, sl, pc}

0010fbc4 <_wcsnrtombs_r>:
  10fbc4:	e92d4ff0 	push	{r4, r5, r6, r7, r8, r9, sl, fp, lr}
  10fbc8:	e24dd034 	sub	sp, sp, #52	; 0x34
  10fbcc:	e59d505c 	ldr	r5, [sp, #92]	; 0x5c
  10fbd0:	e3550000 	cmp	r5, #0
  10fbd4:	02805f47 	addeq	r5, r0, #284	; 0x11c
  10fbd8:	e3510000 	cmp	r1, #0
  10fbdc:	0a00004a 	beq	10fd0c <_wcsnrtombs_r+0x148>
  10fbe0:	e59dc058 	ldr	ip, [sp, #88]	; 0x58
  10fbe4:	e5927000 	ldr	r7, [r2]
  10fbe8:	e35c0000 	cmp	ip, #0
  10fbec:	0a000053 	beq	10fd40 <_wcsnrtombs_r+0x17c>
  10fbf0:	e3530000 	cmp	r3, #0
  10fbf4:	0a000053 	beq	10fd48 <_wcsnrtombs_r+0x184>
  10fbf8:	e58d201c 	str	r2, [sp, #28]
  10fbfc:	e1a06003 	mov	r6, r3
  10fc00:	e30821c8 	movw	r2, #33224	; 0x81c8
  10fc04:	e1a09001 	mov	r9, r1
  10fc08:	e3a04000 	mov	r4, #0
  10fc0c:	e3402011 	movt	r2, #17
  10fc10:	e58d1018 	str	r1, [sp, #24]
  10fc14:	e58d0010 	str	r0, [sp, #16]
  10fc18:	e58d2014 	str	r2, [sp, #20]
  10fc1c:	e5953004 	ldr	r3, [r5, #4]
  10fc20:	e597a000 	ldr	sl, [r7]
  10fc24:	e595b000 	ldr	fp, [r5]
  10fc28:	e58d300c 	str	r3, [sp, #12]
  10fc2c:	e59d3014 	ldr	r3, [sp, #20]
  10fc30:	e5938000 	ldr	r8, [r3]
  10fc34:	ebffece2 	bl	10afc4 <__locale_charset>
  10fc38:	e58d5000 	str	r5, [sp]
  10fc3c:	e28d1024 	add	r1, sp, #36	; 0x24
  10fc40:	e1a0200a 	mov	r2, sl
  10fc44:	e1a03000 	mov	r3, r0
  10fc48:	e59d0010 	ldr	r0, [sp, #16]
  10fc4c:	e12fff38 	blx	r8
  10fc50:	e3700001 	cmn	r0, #1
  10fc54:	0a000025 	beq	10fcf0 <_wcsnrtombs_r+0x12c>
  10fc58:	e59d3058 	ldr	r3, [sp, #88]	; 0x58
  10fc5c:	e0802004 	add	r2, r0, r4
  10fc60:	e1520003 	cmp	r2, r3
  10fc64:	8a00001d 	bhi	10fce0 <_wcsnrtombs_r+0x11c>
  10fc68:	e59d3018 	ldr	r3, [sp, #24]
  10fc6c:	e3530000 	cmp	r3, #0
  10fc70:	0a00000e 	beq	10fcb0 <_wcsnrtombs_r+0xec>
  10fc74:	e3500000 	cmp	r0, #0
  10fc78:	da000008 	ble	10fca0 <_wcsnrtombs_r+0xdc>
  10fc7c:	e240e001 	sub	lr, r0, #1
  10fc80:	e2493001 	sub	r3, r9, #1
  10fc84:	e089e00e 	add	lr, r9, lr
  10fc88:	e28d1024 	add	r1, sp, #36	; 0x24
  10fc8c:	e4d1c001 	ldrb	ip, [r1], #1
  10fc90:	e5e3c001 	strb	ip, [r3, #1]!
  10fc94:	e153000e 	cmp	r3, lr
  10fc98:	1afffffb 	bne	10fc8c <_wcsnrtombs_r+0xc8>
  10fc9c:	e0899000 	add	r9, r9, r0
  10fca0:	e59d101c 	ldr	r1, [sp, #28]
  10fca4:	e5913000 	ldr	r3, [r1]
  10fca8:	e2833004 	add	r3, r3, #4
  10fcac:	e5813000 	str	r3, [r1]
  10fcb0:	e4973004 	ldr	r3, [r7], #4
  10fcb4:	e3530000 	cmp	r3, #0
  10fcb8:	0a000017 	beq	10fd1c <_wcsnrtombs_r+0x158>
  10fcbc:	e59d3058 	ldr	r3, [sp, #88]	; 0x58
  10fcc0:	e1a04002 	mov	r4, r2
  10fcc4:	e1520003 	cmp	r2, r3
  10fcc8:	2a000001 	bcs	10fcd4 <_wcsnrtombs_r+0x110>
  10fccc:	e2566001 	subs	r6, r6, #1
  10fcd0:	1affffd1 	bne	10fc1c <_wcsnrtombs_r+0x58>
  10fcd4:	e1a00004 	mov	r0, r4
  10fcd8:	e28dd034 	add	sp, sp, #52	; 0x34
  10fcdc:	e8bd8ff0 	pop	{r4, r5, r6, r7, r8, r9, sl, fp, pc}
  10fce0:	e59d300c 	ldr	r3, [sp, #12]
  10fce4:	e585b000 	str	fp, [r5]
  10fce8:	e5853004 	str	r3, [r5, #4]
  10fcec:	eafffff8 	b	10fcd4 <_wcsnrtombs_r+0x110>
  10fcf0:	e59d1010 	ldr	r1, [sp, #16]
  10fcf4:	e3a0208a 	mov	r2, #138	; 0x8a
  10fcf8:	e3a03000 	mov	r3, #0
  10fcfc:	e5812000 	str	r2, [r1]
  10fd00:	e5853000 	str	r3, [r5]
  10fd04:	e28dd034 	add	sp, sp, #52	; 0x34
  10fd08:	e8bd8ff0 	pop	{r4, r5, r6, r7, r8, r9, sl, fp, pc}
  10fd0c:	e3e0c000 	mvn	ip, #0
  10fd10:	e5927000 	ldr	r7, [r2]
  10fd14:	e58dc058 	str	ip, [sp, #88]	; 0x58
  10fd18:	eaffffb4 	b	10fbf0 <_wcsnrtombs_r+0x2c>
  10fd1c:	e59d1018 	ldr	r1, [sp, #24]
  10fd20:	e2420001 	sub	r0, r2, #1
  10fd24:	e3510000 	cmp	r1, #0
  10fd28:	159d101c 	ldrne	r1, [sp, #28]
  10fd2c:	15813000 	strne	r3, [r1]
  10fd30:	e3a03000 	mov	r3, #0
  10fd34:	e5853000 	str	r3, [r5]
  10fd38:	e28dd034 	add	sp, sp, #52	; 0x34
  10fd3c:	e8bd8ff0 	pop	{r4, r5, r6, r7, r8, r9, sl, fp, pc}
  10fd40:	e59d4058 	ldr	r4, [sp, #88]	; 0x58
  10fd44:	eaffffe2 	b	10fcd4 <_wcsnrtombs_r+0x110>
  10fd48:	e1a04003 	mov	r4, r3
  10fd4c:	eaffffe0 	b	10fcd4 <_wcsnrtombs_r+0x110>

0010fd50 <wcsnrtombs>:
  10fd50:	e52de004 	push	{lr}		; (str lr, [sp, #-4]!)
  10fd54:	e307c988 	movw	ip, #31112	; 0x7988
  10fd58:	e24dd00c 	sub	sp, sp, #12
  10fd5c:	e340c011 	movt	ip, #17
  10fd60:	e58d3000 	str	r3, [sp]
  10fd64:	e1a03002 	mov	r3, r2
  10fd68:	e59cc000 	ldr	ip, [ip]
  10fd6c:	e1a02001 	mov	r2, r1
  10fd70:	e59de010 	ldr	lr, [sp, #16]
  10fd74:	e1a01000 	mov	r1, r0
  10fd78:	e1a0000c 	mov	r0, ip
  10fd7c:	e58de004 	str	lr, [sp, #4]
  10fd80:	ebffff8f 	bl	10fbc4 <_wcsnrtombs_r>
  10fd84:	e28dd00c 	add	sp, sp, #12
  10fd88:	e49df004 	pop	{pc}		; (ldr pc, [sp], #4)

0010fd8c <_write_r>:
  10fd8c:	e92d4070 	push	{r4, r5, r6, lr}
  10fd90:	e1a0c001 	mov	ip, r1
  10fd94:	e3004afc 	movw	r4, #2812	; 0xafc
  10fd98:	e1a01002 	mov	r1, r2
  10fd9c:	e1a05000 	mov	r5, r0
  10fda0:	e1a02003 	mov	r2, r3
  10fda4:	e1a0000c 	mov	r0, ip
  10fda8:	e3404012 	movt	r4, #18
  10fdac:	e3a03000 	mov	r3, #0
  10fdb0:	e5843000 	str	r3, [r4]
  10fdb4:	eb00024a 	bl	1106e4 <_write>
  10fdb8:	e3700001 	cmn	r0, #1
  10fdbc:	18bd8070 	popne	{r4, r5, r6, pc}
  10fdc0:	e5943000 	ldr	r3, [r4]
  10fdc4:	e3530000 	cmp	r3, #0
  10fdc8:	15853000 	strne	r3, [r5]
  10fdcc:	e8bd8070 	pop	{r4, r5, r6, pc}

0010fdd0 <__register_exitproc>:
  10fdd0:	e306c974 	movw	ip, #26996	; 0x6974
  10fdd4:	e340c011 	movt	ip, #17
  10fdd8:	e92d41f0 	push	{r4, r5, r6, r7, r8, lr}
  10fddc:	e1a07003 	mov	r7, r3
  10fde0:	e59c4000 	ldr	r4, [ip]
  10fde4:	e1a05000 	mov	r5, r0
  10fde8:	e1a06001 	mov	r6, r1
  10fdec:	e1a08002 	mov	r8, r2
  10fdf0:	e594c148 	ldr	ip, [r4, #328]	; 0x148
  10fdf4:	e35c0000 	cmp	ip, #0
  10fdf8:	0284cf53 	addeq	ip, r4, #332	; 0x14c
  10fdfc:	0584c148 	streq	ip, [r4, #328]	; 0x148
  10fe00:	e59ce004 	ldr	lr, [ip, #4]
  10fe04:	e35e001f 	cmp	lr, #31
  10fe08:	d28e3001 	addle	r3, lr, #1
  10fe0c:	da000010 	ble	10fe54 <__register_exitproc+0x84>
  10fe10:	e30431ec 	movw	r3, #16876	; 0x41ec
  10fe14:	e3403010 	movt	r3, #16
  10fe18:	e3530000 	cmp	r3, #0
  10fe1c:	0a00001f 	beq	10fea0 <__register_exitproc+0xd0>
  10fe20:	e3a00e19 	mov	r0, #400	; 0x190
  10fe24:	ebffd0f0 	bl	1041ec <malloc>
  10fe28:	e250c000 	subs	ip, r0, #0
  10fe2c:	0a00001b 	beq	10fea0 <__register_exitproc+0xd0>
  10fe30:	e5942148 	ldr	r2, [r4, #328]	; 0x148
  10fe34:	e3a00000 	mov	r0, #0
  10fe38:	e1a0e000 	mov	lr, r0
  10fe3c:	e3a03001 	mov	r3, #1
  10fe40:	e58c0004 	str	r0, [ip, #4]
  10fe44:	e58c2000 	str	r2, [ip]
  10fe48:	e584c148 	str	ip, [r4, #328]	; 0x148
  10fe4c:	e58c0188 	str	r0, [ip, #392]	; 0x188
  10fe50:	e58c018c 	str	r0, [ip, #396]	; 0x18c
  10fe54:	e3550000 	cmp	r5, #0
  10fe58:	0a00000b 	beq	10fe8c <__register_exitproc+0xbc>
  10fe5c:	e08c010e 	add	r0, ip, lr, lsl #2
  10fe60:	e3a01001 	mov	r1, #1
  10fe64:	e1a02e11 	lsl	r2, r1, lr
  10fe68:	e3550002 	cmp	r5, #2
  10fe6c:	e5808088 	str	r8, [r0, #136]	; 0x88
  10fe70:	e59c1188 	ldr	r1, [ip, #392]	; 0x188
  10fe74:	e1811002 	orr	r1, r1, r2
  10fe78:	e58c1188 	str	r1, [ip, #392]	; 0x188
  10fe7c:	e5807108 	str	r7, [r0, #264]	; 0x108
  10fe80:	059c118c 	ldreq	r1, [ip, #396]	; 0x18c
  10fe84:	01812002 	orreq	r2, r1, r2
  10fe88:	058c218c 	streq	r2, [ip, #396]	; 0x18c
  10fe8c:	e28ee002 	add	lr, lr, #2
  10fe90:	e58c3004 	str	r3, [ip, #4]
  10fe94:	e3a00000 	mov	r0, #0
  10fe98:	e78c610e 	str	r6, [ip, lr, lsl #2]
  10fe9c:	e8bd81f0 	pop	{r4, r5, r6, r7, r8, pc}
  10fea0:	e3e00000 	mvn	r0, #0
  10fea4:	e8bd81f0 	pop	{r4, r5, r6, r7, r8, pc}

0010fea8 <_calloc_r>:
  10fea8:	e92d4010 	push	{r4, lr}
  10feac:	e0010192 	mul	r1, r2, r1
  10feb0:	ebffd0d7 	bl	104214 <_malloc_r>
  10feb4:	e2504000 	subs	r4, r0, #0
  10feb8:	0a00000b 	beq	10feec <_calloc_r+0x44>
  10febc:	e5142004 	ldr	r2, [r4, #-4]
  10fec0:	e3c22003 	bic	r2, r2, #3
  10fec4:	e2422004 	sub	r2, r2, #4
  10fec8:	e3520024 	cmp	r2, #36	; 0x24
  10fecc:	8a000016 	bhi	10ff2c <_calloc_r+0x84>
  10fed0:	e3520013 	cmp	r2, #19
  10fed4:	91a03004 	movls	r3, r4
  10fed8:	8a000005 	bhi	10fef4 <_calloc_r+0x4c>
  10fedc:	e3a02000 	mov	r2, #0
  10fee0:	e5832000 	str	r2, [r3]
  10fee4:	e5832004 	str	r2, [r3, #4]
  10fee8:	e5832008 	str	r2, [r3, #8]
  10feec:	e1a00004 	mov	r0, r4
  10fef0:	e8bd8010 	pop	{r4, pc}
  10fef4:	e352001b 	cmp	r2, #27
  10fef8:	e3a01000 	mov	r1, #0
  10fefc:	92843008 	addls	r3, r4, #8
  10ff00:	e5841000 	str	r1, [r4]
  10ff04:	e5841004 	str	r1, [r4, #4]
  10ff08:	9afffff3 	bls	10fedc <_calloc_r+0x34>
  10ff0c:	e3520024 	cmp	r2, #36	; 0x24
  10ff10:	e5841008 	str	r1, [r4, #8]
  10ff14:	e584100c 	str	r1, [r4, #12]
  10ff18:	12843010 	addne	r3, r4, #16
  10ff1c:	05841010 	streq	r1, [r4, #16]
  10ff20:	02843018 	addeq	r3, r4, #24
  10ff24:	05841014 	streq	r1, [r4, #20]
  10ff28:	eaffffeb 	b	10fedc <_calloc_r+0x34>
  10ff2c:	e3a01000 	mov	r1, #0
  10ff30:	ebfff05c 	bl	10c0a8 <memset>
  10ff34:	e1a00004 	mov	r0, r4
  10ff38:	e8bd8010 	pop	{r4, pc}

0010ff3c <_close_r>:
  10ff3c:	e92d4070 	push	{r4, r5, r6, lr}
  10ff40:	e3004afc 	movw	r4, #2812	; 0xafc
  10ff44:	e1a05000 	mov	r5, r0
  10ff48:	e3404012 	movt	r4, #18
  10ff4c:	e1a00001 	mov	r0, r1
  10ff50:	e3a03000 	mov	r3, #0
  10ff54:	e5843000 	str	r3, [r4]
  10ff58:	eb000183 	bl	11056c <_close>
  10ff5c:	e3700001 	cmn	r0, #1
  10ff60:	18bd8070 	popne	{r4, r5, r6, pc}
  10ff64:	e5943000 	ldr	r3, [r4]
  10ff68:	e3530000 	cmp	r3, #0
  10ff6c:	15853000 	strne	r3, [r5]
  10ff70:	e8bd8070 	pop	{r4, r5, r6, pc}

0010ff74 <_fclose_r>:
  10ff74:	e3510000 	cmp	r1, #0
  10ff78:	0a000038 	beq	110060 <_fclose_r+0xec>
  10ff7c:	e3500000 	cmp	r0, #0
  10ff80:	e92d4070 	push	{r4, r5, r6, lr}
  10ff84:	e1a05000 	mov	r5, r0
  10ff88:	e1a04001 	mov	r4, r1
  10ff8c:	0a000002 	beq	10ff9c <_fclose_r+0x28>
  10ff90:	e5903038 	ldr	r3, [r0, #56]	; 0x38
  10ff94:	e3530000 	cmp	r3, #0
  10ff98:	0a00002a 	beq	110048 <_fclose_r+0xd4>
  10ff9c:	e1d430fc 	ldrsh	r3, [r4, #12]
  10ffa0:	e3530000 	cmp	r3, #0
  10ffa4:	1a000001 	bne	10ffb0 <_fclose_r+0x3c>
  10ffa8:	e3a00000 	mov	r0, #0
  10ffac:	e8bd8070 	pop	{r4, r5, r6, pc}
  10ffb0:	e1a01004 	mov	r1, r4
  10ffb4:	e1a00005 	mov	r0, r5
  10ffb8:	ebffe4f4 	bl	109390 <__sflush_r>
  10ffbc:	e594302c 	ldr	r3, [r4, #44]	; 0x2c
  10ffc0:	e3530000 	cmp	r3, #0
  10ffc4:	e1a06000 	mov	r6, r0
  10ffc8:	0a000004 	beq	10ffe0 <_fclose_r+0x6c>
  10ffcc:	e594101c 	ldr	r1, [r4, #28]
  10ffd0:	e1a00005 	mov	r0, r5
  10ffd4:	e12fff33 	blx	r3
  10ffd8:	e3500000 	cmp	r0, #0
  10ffdc:	b3e06000 	mvnlt	r6, #0
  10ffe0:	e1d430bc 	ldrh	r3, [r4, #12]
  10ffe4:	e3130080 	tst	r3, #128	; 0x80
  10ffe8:	1a000018 	bne	110050 <_fclose_r+0xdc>
  10ffec:	e5941030 	ldr	r1, [r4, #48]	; 0x30
  10fff0:	e3510000 	cmp	r1, #0
  10fff4:	0a000006 	beq	110014 <_fclose_r+0xa0>
  10fff8:	e2843040 	add	r3, r4, #64	; 0x40
  10fffc:	e1510003 	cmp	r1, r3
  110000:	0a000001 	beq	11000c <_fclose_r+0x98>
  110004:	e1a00005 	mov	r0, r5
  110008:	ebffe692 	bl	109a58 <_free_r>
  11000c:	e3a03000 	mov	r3, #0
  110010:	e5843030 	str	r3, [r4, #48]	; 0x30
  110014:	e5941044 	ldr	r1, [r4, #68]	; 0x44
  110018:	e3510000 	cmp	r1, #0
  11001c:	0a000003 	beq	110030 <_fclose_r+0xbc>
  110020:	e1a00005 	mov	r0, r5
  110024:	ebffe68b 	bl	109a58 <_free_r>
  110028:	e3a03000 	mov	r3, #0
  11002c:	e5843044 	str	r3, [r4, #68]	; 0x44
  110030:	ebffe639 	bl	10991c <__sfp_lock_acquire>
  110034:	e3a03000 	mov	r3, #0
  110038:	e1c430bc 	strh	r3, [r4, #12]
  11003c:	ebffe637 	bl	109920 <__sfp_lock_release>
  110040:	e1a00006 	mov	r0, r6
  110044:	e8bd8070 	pop	{r4, r5, r6, pc}
  110048:	ebffe62f 	bl	10990c <__sinit>
  11004c:	eaffffd2 	b	10ff9c <_fclose_r+0x28>
  110050:	e5941010 	ldr	r1, [r4, #16]
  110054:	e1a00005 	mov	r0, r5
  110058:	ebffe67e 	bl	109a58 <_free_r>
  11005c:	eaffffe2 	b	10ffec <_fclose_r+0x78>
  110060:	e3a00000 	mov	r0, #0
  110064:	e12fff1e 	bx	lr

00110068 <fclose>:
  110068:	e3073988 	movw	r3, #31112	; 0x7988
  11006c:	e1a01000 	mov	r1, r0
  110070:	e3403011 	movt	r3, #17
  110074:	e5930000 	ldr	r0, [r3]
  110078:	eaffffbd 	b	10ff74 <_fclose_r>

0011007c <_fputwc_r>:
  11007c:	e1d230bc 	ldrh	r3, [r2, #12]
  110080:	e92d43f0 	push	{r4, r5, r6, r7, r8, r9, lr}
  110084:	e3130a02 	tst	r3, #8192	; 0x2000
  110088:	e1a04002 	mov	r4, r2
  11008c:	03833a02 	orreq	r3, r3, #8192	; 0x2000
  110090:	05922064 	ldreq	r2, [r2, #100]	; 0x64
  110094:	e24dd00c 	sub	sp, sp, #12
  110098:	01c430bc 	strheq	r3, [r4, #12]
  11009c:	e1a07000 	mov	r7, r0
  1100a0:	03823a02 	orreq	r3, r2, #8192	; 0x2000
  1100a4:	05843064 	streq	r3, [r4, #100]	; 0x64
  1100a8:	e1a06001 	mov	r6, r1
  1100ac:	ebffebc7 	bl	10afd0 <__locale_mb_cur_max>
  1100b0:	e3500001 	cmp	r0, #1
  1100b4:	0a000036 	beq	110194 <_fputwc_r+0x118>
  1100b8:	e284305c 	add	r3, r4, #92	; 0x5c
  1100bc:	e1a02006 	mov	r2, r6
  1100c0:	e1a00007 	mov	r0, r7
  1100c4:	e1a0100d 	mov	r1, sp
  1100c8:	ebffdd90 	bl	107710 <_wcrtomb_r>
  1100cc:	e1a0800d 	mov	r8, sp
  1100d0:	e3700001 	cmn	r0, #1
  1100d4:	e1a09000 	mov	r9, r0
  1100d8:	0a000028 	beq	110180 <_fputwc_r+0x104>
  1100dc:	e3500000 	cmp	r0, #0
  1100e0:	15dd1000 	ldrbne	r1, [sp]
  1100e4:	0a000032 	beq	1101b4 <_fputwc_r+0x138>
  1100e8:	e3a05000 	mov	r5, #0
  1100ec:	ea000008 	b	110114 <_fputwc_r+0x98>
  1100f0:	e5943000 	ldr	r3, [r4]
  1100f4:	e5c31000 	strb	r1, [r3]
  1100f8:	e5943000 	ldr	r3, [r4]
  1100fc:	e2833001 	add	r3, r3, #1
  110100:	e5843000 	str	r3, [r4]
  110104:	e2855001 	add	r5, r5, #1
  110108:	e1590005 	cmp	r9, r5
  11010c:	9a000028 	bls	1101b4 <_fputwc_r+0x138>
  110110:	e5f81001 	ldrb	r1, [r8, #1]!
  110114:	e5943008 	ldr	r3, [r4, #8]
  110118:	e2433001 	sub	r3, r3, #1
  11011c:	e5843008 	str	r3, [r4, #8]
  110120:	e3530000 	cmp	r3, #0
  110124:	aafffff1 	bge	1100f0 <_fputwc_r+0x74>
  110128:	e5942018 	ldr	r2, [r4, #24]
  11012c:	e1530002 	cmp	r3, r2
  110130:	ba000007 	blt	110154 <_fputwc_r+0xd8>
  110134:	e5943000 	ldr	r3, [r4]
  110138:	e5c31000 	strb	r1, [r3]
  11013c:	e5943000 	ldr	r3, [r4]
  110140:	e2832001 	add	r2, r3, #1
  110144:	e5d31000 	ldrb	r1, [r3]
  110148:	e351000a 	cmp	r1, #10
  11014c:	15842000 	strne	r2, [r4]
  110150:	1affffeb 	bne	110104 <_fputwc_r+0x88>
  110154:	e1a02004 	mov	r2, r4
  110158:	e1a00007 	mov	r0, r7
  11015c:	eb0000a1 	bl	1103e8 <__swbuf_r>
  110160:	e3700001 	cmn	r0, #1
  110164:	13a00000 	movne	r0, #0
  110168:	03a00001 	moveq	r0, #1
  11016c:	e3500000 	cmp	r0, #0
  110170:	0affffe3 	beq	110104 <_fputwc_r+0x88>
  110174:	e3e00000 	mvn	r0, #0
  110178:	e28dd00c 	add	sp, sp, #12
  11017c:	e8bd83f0 	pop	{r4, r5, r6, r7, r8, r9, pc}
  110180:	e1d430bc 	ldrh	r3, [r4, #12]
  110184:	e3833040 	orr	r3, r3, #64	; 0x40
  110188:	e1c430bc 	strh	r3, [r4, #12]
  11018c:	e28dd00c 	add	sp, sp, #12
  110190:	e8bd83f0 	pop	{r4, r5, r6, r7, r8, r9, pc}
  110194:	e2463001 	sub	r3, r6, #1
  110198:	e35300fe 	cmp	r3, #254	; 0xfe
  11019c:	8affffc5 	bhi	1100b8 <_fputwc_r+0x3c>
  1101a0:	e28d8008 	add	r8, sp, #8
  1101a4:	e6ef1076 	uxtb	r1, r6
  1101a8:	e1a09000 	mov	r9, r0
  1101ac:	e5681008 	strb	r1, [r8, #-8]!
  1101b0:	eaffffcc 	b	1100e8 <_fputwc_r+0x6c>
  1101b4:	e1a00006 	mov	r0, r6
  1101b8:	e28dd00c 	add	sp, sp, #12
  1101bc:	e8bd83f0 	pop	{r4, r5, r6, r7, r8, r9, pc}

001101c0 <fputwc>:
  1101c0:	e3073988 	movw	r3, #31112	; 0x7988
  1101c4:	e3403011 	movt	r3, #17
  1101c8:	e92d4070 	push	{r4, r5, r6, lr}
  1101cc:	e1a05000 	mov	r5, r0
  1101d0:	e5934000 	ldr	r4, [r3]
  1101d4:	e1a06001 	mov	r6, r1
  1101d8:	e3540000 	cmp	r4, #0
  1101dc:	0a000004 	beq	1101f4 <fputwc+0x34>
  1101e0:	e5943038 	ldr	r3, [r4, #56]	; 0x38
  1101e4:	e3530000 	cmp	r3, #0
  1101e8:	1a000001 	bne	1101f4 <fputwc+0x34>
  1101ec:	e1a00004 	mov	r0, r4
  1101f0:	ebffe5c5 	bl	10990c <__sinit>
  1101f4:	e1a02006 	mov	r2, r6
  1101f8:	e1a01005 	mov	r1, r5
  1101fc:	e1a00004 	mov	r0, r4
  110200:	e8bd4070 	pop	{r4, r5, r6, lr}
  110204:	eaffff9c 	b	11007c <_fputwc_r>

00110208 <_fstat_r>:
  110208:	e92d4070 	push	{r4, r5, r6, lr}
  11020c:	e1a03001 	mov	r3, r1
  110210:	e3004afc 	movw	r4, #2812	; 0xafc
  110214:	e1a05000 	mov	r5, r0
  110218:	e1a01002 	mov	r1, r2
  11021c:	e1a00003 	mov	r0, r3
  110220:	e3404012 	movt	r4, #18
  110224:	e3a03000 	mov	r3, #0
  110228:	e5843000 	str	r3, [r4]
  11022c:	eb0000d0 	bl	110574 <_fstat>
  110230:	e3700001 	cmn	r0, #1
  110234:	18bd8070 	popne	{r4, r5, r6, pc}
  110238:	e5943000 	ldr	r3, [r4]
  11023c:	e3530000 	cmp	r3, #0
  110240:	15853000 	strne	r3, [r5]
  110244:	e8bd8070 	pop	{r4, r5, r6, pc}

00110248 <_findenv_r>:
  110248:	e92d47f0 	push	{r4, r5, r6, r7, r8, r9, sl, lr}
  11024c:	e308834c 	movw	r8, #33612	; 0x834c
  110250:	e3408011 	movt	r8, #17
  110254:	e1a06001 	mov	r6, r1
  110258:	e1a07002 	mov	r7, r2
  11025c:	e1a09000 	mov	r9, r0
  110260:	eb0000af 	bl	110524 <__env_lock>
  110264:	e5985000 	ldr	r5, [r8]
  110268:	e3550000 	cmp	r5, #0
  11026c:	0a00001b 	beq	1102e0 <_findenv_r+0x98>
  110270:	e5d63000 	ldrb	r3, [r6]
  110274:	e1a04006 	mov	r4, r6
  110278:	e353003d 	cmp	r3, #61	; 0x3d
  11027c:	13530000 	cmpne	r3, #0
  110280:	0a000003 	beq	110294 <_findenv_r+0x4c>
  110284:	e5f43001 	ldrb	r3, [r4, #1]!
  110288:	e353003d 	cmp	r3, #61	; 0x3d
  11028c:	13530000 	cmpne	r3, #0
  110290:	1afffffb 	bne	110284 <_findenv_r+0x3c>
  110294:	e353003d 	cmp	r3, #61	; 0x3d
  110298:	0a000010 	beq	1102e0 <_findenv_r+0x98>
  11029c:	e5950000 	ldr	r0, [r5]
  1102a0:	e0664004 	rsb	r4, r6, r4
  1102a4:	e3500000 	cmp	r0, #0
  1102a8:	0a00000c 	beq	1102e0 <_findenv_r+0x98>
  1102ac:	e1a02004 	mov	r2, r4
  1102b0:	e1a01006 	mov	r1, r6
  1102b4:	ebfff6cd 	bl	10ddf0 <strncmp>
  1102b8:	e3500000 	cmp	r0, #0
  1102bc:	1a000004 	bne	1102d4 <_findenv_r+0x8c>
  1102c0:	e5953000 	ldr	r3, [r5]
  1102c4:	e083a004 	add	sl, r3, r4
  1102c8:	e7d33004 	ldrb	r3, [r3, r4]
  1102cc:	e353003d 	cmp	r3, #61	; 0x3d
  1102d0:	0a000006 	beq	1102f0 <_findenv_r+0xa8>
  1102d4:	e5b50004 	ldr	r0, [r5, #4]!
  1102d8:	e3500000 	cmp	r0, #0
  1102dc:	1afffff2 	bne	1102ac <_findenv_r+0x64>
  1102e0:	e1a00009 	mov	r0, r9
  1102e4:	eb00008f 	bl	110528 <__env_unlock>
  1102e8:	e3a00000 	mov	r0, #0
  1102ec:	e8bd87f0 	pop	{r4, r5, r6, r7, r8, r9, sl, pc}
  1102f0:	e5983000 	ldr	r3, [r8]
  1102f4:	e1a00009 	mov	r0, r9
  1102f8:	e0635005 	rsb	r5, r3, r5
  1102fc:	e1a05145 	asr	r5, r5, #2
  110300:	e5875000 	str	r5, [r7]
  110304:	eb000087 	bl	110528 <__env_unlock>
  110308:	e28a0001 	add	r0, sl, #1
  11030c:	e8bd87f0 	pop	{r4, r5, r6, r7, r8, r9, sl, pc}

00110310 <_getenv_r>:
  110310:	e52de004 	push	{lr}		; (str lr, [sp, #-4]!)
  110314:	e24dd00c 	sub	sp, sp, #12
  110318:	e28d2004 	add	r2, sp, #4
  11031c:	ebffffc9 	bl	110248 <_findenv_r>
  110320:	e28dd00c 	add	sp, sp, #12
  110324:	e49df004 	pop	{pc}		; (ldr pc, [sp], #4)

00110328 <_isatty_r>:
  110328:	e92d4070 	push	{r4, r5, r6, lr}
  11032c:	e3004afc 	movw	r4, #2812	; 0xafc
  110330:	e1a05000 	mov	r5, r0
  110334:	e3404012 	movt	r4, #18
  110338:	e1a00001 	mov	r0, r1
  11033c:	e3a03000 	mov	r3, #0
  110340:	e5843000 	str	r3, [r4]
  110344:	eb000090 	bl	11058c <_isatty>
  110348:	e3700001 	cmn	r0, #1
  11034c:	18bd8070 	popne	{r4, r5, r6, pc}
  110350:	e5943000 	ldr	r3, [r4]
  110354:	e3530000 	cmp	r3, #0
  110358:	15853000 	strne	r3, [r5]
  11035c:	e8bd8070 	pop	{r4, r5, r6, pc}

00110360 <_lseek_r>:
  110360:	e92d4070 	push	{r4, r5, r6, lr}
  110364:	e1a0c001 	mov	ip, r1
  110368:	e3004afc 	movw	r4, #2812	; 0xafc
  11036c:	e1a01002 	mov	r1, r2
  110370:	e1a05000 	mov	r5, r0
  110374:	e1a02003 	mov	r2, r3
  110378:	e1a0000c 	mov	r0, ip
  11037c:	e3404012 	movt	r4, #18
  110380:	e3a03000 	mov	r3, #0
  110384:	e5843000 	str	r3, [r4]
  110388:	eb000087 	bl	1105ac <_lseek>
  11038c:	e3700001 	cmn	r0, #1
  110390:	18bd8070 	popne	{r4, r5, r6, pc}
  110394:	e5943000 	ldr	r3, [r4]
  110398:	e3530000 	cmp	r3, #0
  11039c:	15853000 	strne	r3, [r5]
  1103a0:	e8bd8070 	pop	{r4, r5, r6, pc}

001103a4 <_read_r>:
  1103a4:	e92d4070 	push	{r4, r5, r6, lr}
  1103a8:	e1a0c001 	mov	ip, r1
  1103ac:	e3004afc 	movw	r4, #2812	; 0xafc
  1103b0:	e1a01002 	mov	r1, r2
  1103b4:	e1a05000 	mov	r5, r0
  1103b8:	e1a02003 	mov	r2, r3
  1103bc:	e1a0000c 	mov	r0, ip
  1103c0:	e3404012 	movt	r4, #18
  1103c4:	e3a03000 	mov	r3, #0
  1103c8:	e5843000 	str	r3, [r4]
  1103cc:	eb000094 	bl	110624 <_read>
  1103d0:	e3700001 	cmn	r0, #1
  1103d4:	18bd8070 	popne	{r4, r5, r6, pc}
  1103d8:	e5943000 	ldr	r3, [r4]
  1103dc:	e3530000 	cmp	r3, #0
  1103e0:	15853000 	strne	r3, [r5]
  1103e4:	e8bd8070 	pop	{r4, r5, r6, pc}

001103e8 <__swbuf_r>:
  1103e8:	e92d4070 	push	{r4, r5, r6, lr}
  1103ec:	e2506000 	subs	r6, r0, #0
  1103f0:	e1a05001 	mov	r5, r1
  1103f4:	e1a04002 	mov	r4, r2
  1103f8:	0a000002 	beq	110408 <__swbuf_r+0x20>
  1103fc:	e5963038 	ldr	r3, [r6, #56]	; 0x38
  110400:	e3530000 	cmp	r3, #0
  110404:	0a00003e 	beq	110504 <__swbuf_r+0x11c>
  110408:	e1d420bc 	ldrh	r2, [r4, #12]
  11040c:	e5943018 	ldr	r3, [r4, #24]
  110410:	e6ffc072 	uxth	ip, r2
  110414:	e31c0008 	tst	ip, #8
  110418:	e5843008 	str	r3, [r4, #8]
  11041c:	0a000020 	beq	1104a4 <__swbuf_r+0xbc>
  110420:	e5943010 	ldr	r3, [r4, #16]
  110424:	e3530000 	cmp	r3, #0
  110428:	0a00001d 	beq	1104a4 <__swbuf_r+0xbc>
  11042c:	e31c0a02 	tst	ip, #8192	; 0x2000
  110430:	e6ef5075 	uxtb	r5, r5
  110434:	03822a02 	orreq	r2, r2, #8192	; 0x2000
  110438:	01c420bc 	strheq	r2, [r4, #12]
  11043c:	05941064 	ldreq	r1, [r4, #100]	; 0x64
  110440:	03c12a02 	biceq	r2, r1, #8192	; 0x2000
  110444:	05842064 	streq	r2, [r4, #100]	; 0x64
  110448:	e5942000 	ldr	r2, [r4]
  11044c:	e5941014 	ldr	r1, [r4, #20]
  110450:	e0633002 	rsb	r3, r3, r2
  110454:	e1530001 	cmp	r3, r1
  110458:	b2833001 	addlt	r3, r3, #1
  11045c:	aa000019 	bge	1104c8 <__swbuf_r+0xe0>
  110460:	e5941008 	ldr	r1, [r4, #8]
  110464:	e2820001 	add	r0, r2, #1
  110468:	e5840000 	str	r0, [r4]
  11046c:	e2411001 	sub	r1, r1, #1
  110470:	e5841008 	str	r1, [r4, #8]
  110474:	e5c25000 	strb	r5, [r2]
  110478:	e5942014 	ldr	r2, [r4, #20]
  11047c:	e1520003 	cmp	r2, r3
  110480:	0a000018 	beq	1104e8 <__swbuf_r+0x100>
  110484:	e1d430bc 	ldrh	r3, [r4, #12]
  110488:	e355000a 	cmp	r5, #10
  11048c:	13a03000 	movne	r3, #0
  110490:	02033001 	andeq	r3, r3, #1
  110494:	e3530000 	cmp	r3, #0
  110498:	1a000012 	bne	1104e8 <__swbuf_r+0x100>
  11049c:	e1a00005 	mov	r0, r5
  1104a0:	e8bd8070 	pop	{r4, r5, r6, pc}
  1104a4:	e1a01004 	mov	r1, r4
  1104a8:	e1a00006 	mov	r0, r6
  1104ac:	ebffdde2 	bl	107c3c <__swsetup_r>
  1104b0:	e3500000 	cmp	r0, #0
  1104b4:	1a000010 	bne	1104fc <__swbuf_r+0x114>
  1104b8:	e1d420bc 	ldrh	r2, [r4, #12]
  1104bc:	e5943010 	ldr	r3, [r4, #16]
  1104c0:	e6ffc072 	uxth	ip, r2
  1104c4:	eaffffd8 	b	11042c <__swbuf_r+0x44>
  1104c8:	e1a01004 	mov	r1, r4
  1104cc:	e1a00006 	mov	r0, r6
  1104d0:	ebffe43d 	bl	1095cc <_fflush_r>
  1104d4:	e3500000 	cmp	r0, #0
  1104d8:	1a000007 	bne	1104fc <__swbuf_r+0x114>
  1104dc:	e5942000 	ldr	r2, [r4]
  1104e0:	e3a03001 	mov	r3, #1
  1104e4:	eaffffdd 	b	110460 <__swbuf_r+0x78>
  1104e8:	e1a01004 	mov	r1, r4
  1104ec:	e1a00006 	mov	r0, r6
  1104f0:	ebffe435 	bl	1095cc <_fflush_r>
  1104f4:	e3500000 	cmp	r0, #0
  1104f8:	0affffe7 	beq	11049c <__swbuf_r+0xb4>
  1104fc:	e3e00000 	mvn	r0, #0
  110500:	e8bd8070 	pop	{r4, r5, r6, pc}
  110504:	ebffe500 	bl	10990c <__sinit>
  110508:	eaffffbe 	b	110408 <__swbuf_r+0x20>

0011050c <__swbuf>:
  11050c:	e3073988 	movw	r3, #31112	; 0x7988
  110510:	e1a02001 	mov	r2, r1
  110514:	e3403011 	movt	r3, #17
  110518:	e1a01000 	mov	r1, r0
  11051c:	e5930000 	ldr	r0, [r3]
  110520:	eaffffb0 	b	1103e8 <__swbuf_r>

00110524 <__env_lock>:
  110524:	e12fff1e 	bx	lr

00110528 <__env_unlock>:
  110528:	e12fff1e 	bx	lr

0011052c <_exit>:
  11052c:	eafffffe 	b	11052c <_exit>

00110530 <_sbrk>:
  110530:	e3002344 	movw	r2, #836	; 0x344
  110534:	e300cb00 	movw	ip, #2816	; 0xb00
  110538:	e3402012 	movt	r2, #18
  11053c:	e340c012 	movt	ip, #18
  110540:	e5923000 	ldr	r3, [r2]
  110544:	e3081b00 	movw	r1, #35584	; 0x8b00
  110548:	e340162c 	movt	r1, #1580	; 0x62c
  11054c:	e3530000 	cmp	r3, #0
  110550:	01a0300c 	moveq	r3, ip
  110554:	e0830000 	add	r0, r3, r0
  110558:	e1500001 	cmp	r0, r1
  11055c:	e5820000 	str	r0, [r2]
  110560:	91a00003 	movls	r0, r3
  110564:	83e00000 	mvnhi	r0, #0
  110568:	e12fff1e 	bx	lr

0011056c <_close>:
  11056c:	e3a00000 	mov	r0, #0
  110570:	e12fff1e 	bx	lr

00110574 <_fstat>:
  110574:	e3a03a02 	mov	r3, #8192	; 0x2000
  110578:	e3a00000 	mov	r0, #0
  11057c:	e5813004 	str	r3, [r1, #4]
  110580:	e12fff1e 	bx	lr

00110584 <isatty>:
  110584:	e3a00001 	mov	r0, #1
  110588:	e12fff1e 	bx	lr

0011058c <_isatty>:
  11058c:	e3a00001 	mov	r0, #1
  110590:	e12fff1e 	bx	lr

00110594 <lseek>:
  110594:	e92d4010 	push	{r4, lr}
  110598:	eb000069 	bl	110744 <__errno>
  11059c:	e3a0301d 	mov	r3, #29
  1105a0:	e5803000 	str	r3, [r0]
  1105a4:	e3e00000 	mvn	r0, #0
  1105a8:	e8bd8010 	pop	{r4, pc}

001105ac <_lseek>:
  1105ac:	e92d4010 	push	{r4, lr}
  1105b0:	eb000063 	bl	110744 <__errno>
  1105b4:	e3a0301d 	mov	r3, #29
  1105b8:	e5803000 	str	r3, [r0]
  1105bc:	e3e00000 	mvn	r0, #0
  1105c0:	e8bd8010 	pop	{r4, pc}

001105c4 <read>:
  1105c4:	e3510000 	cmp	r1, #0
  1105c8:	e92d4070 	push	{r4, r5, r6, lr}
  1105cc:	0a00000f 	beq	110610 <read+0x4c>
  1105d0:	e3520000 	cmp	r2, #0
  1105d4:	da000010 	ble	11061c <read+0x58>
  1105d8:	e1a06002 	mov	r6, r2
  1105dc:	e2415001 	sub	r5, r1, #1
  1105e0:	e3a04000 	mov	r4, #0
  1105e4:	ea000001 	b	1105f0 <read+0x2c>
  1105e8:	e1540006 	cmp	r4, r6
  1105ec:	0a000005 	beq	110608 <read+0x44>
  1105f0:	eb000057 	bl	110754 <inbyte>
  1105f4:	e350000a 	cmp	r0, #10
  1105f8:	1350000d 	cmpne	r0, #13
  1105fc:	e2844001 	add	r4, r4, #1
  110600:	e5e50001 	strb	r0, [r5, #1]!
  110604:	1afffff7 	bne	1105e8 <read+0x24>
  110608:	e1a00004 	mov	r0, r4
  11060c:	e8bd8070 	pop	{r4, r5, r6, pc}
  110610:	e1a04001 	mov	r4, r1
  110614:	e1a00004 	mov	r0, r4
  110618:	e8bd8070 	pop	{r4, r5, r6, pc}
  11061c:	e3a04000 	mov	r4, #0
  110620:	eafffff8 	b	110608 <read+0x44>

00110624 <_read>:
  110624:	e3510000 	cmp	r1, #0
  110628:	e92d4070 	push	{r4, r5, r6, lr}
  11062c:	0a00000f 	beq	110670 <_read+0x4c>
  110630:	e3520000 	cmp	r2, #0
  110634:	da000010 	ble	11067c <_read+0x58>
  110638:	e1a06002 	mov	r6, r2
  11063c:	e2415001 	sub	r5, r1, #1
  110640:	e3a04000 	mov	r4, #0
  110644:	ea000001 	b	110650 <_read+0x2c>
  110648:	e1540006 	cmp	r4, r6
  11064c:	0a000005 	beq	110668 <_read+0x44>
  110650:	eb00003f 	bl	110754 <inbyte>
  110654:	e350000a 	cmp	r0, #10
  110658:	1350000d 	cmpne	r0, #13
  11065c:	e2844001 	add	r4, r4, #1
  110660:	e5e50001 	strb	r0, [r5, #1]!
  110664:	1afffff7 	bne	110648 <_read+0x24>
  110668:	e1a00004 	mov	r0, r4
  11066c:	e8bd8070 	pop	{r4, r5, r6, pc}
  110670:	e1a04001 	mov	r4, r1
  110674:	e1a00004 	mov	r0, r4
  110678:	e8bd8070 	pop	{r4, r5, r6, pc}
  11067c:	e3a04000 	mov	r4, #0
  110680:	eafffff8 	b	110668 <_read+0x44>

00110684 <write>:
  110684:	e92d4070 	push	{r4, r5, r6, lr}
  110688:	e2526000 	subs	r6, r2, #0
  11068c:	da000012 	ble	1106dc <write+0x58>
  110690:	e1a04001 	mov	r4, r1
  110694:	e3a05000 	mov	r5, #0
  110698:	ea000004 	b	1106b0 <write+0x2c>
  11069c:	e0654004 	rsb	r4, r5, r4
  1106a0:	ebffcdcd 	bl	103ddc <outbyte>
  1106a4:	e2855001 	add	r5, r5, #1
  1106a8:	e1550006 	cmp	r5, r6
  1106ac:	0a00000a 	beq	1106dc <write+0x58>
  1106b0:	e3540000 	cmp	r4, #0
  1106b4:	0afffffa 	beq	1106a4 <write+0x20>
  1106b8:	e0944005 	adds	r4, r4, r5
  1106bc:	0afffff8 	beq	1106a4 <write+0x20>
  1106c0:	e5d40000 	ldrb	r0, [r4]
  1106c4:	e350000a 	cmp	r0, #10
  1106c8:	1afffff3 	bne	11069c <write+0x18>
  1106cc:	e3a0000d 	mov	r0, #13
  1106d0:	ebffcdc1 	bl	103ddc <outbyte>
  1106d4:	e5d40000 	ldrb	r0, [r4]
  1106d8:	eaffffef 	b	11069c <write+0x18>
  1106dc:	e1a00006 	mov	r0, r6
  1106e0:	e8bd8070 	pop	{r4, r5, r6, pc}

001106e4 <_write>:
  1106e4:	e92d4070 	push	{r4, r5, r6, lr}
  1106e8:	e2526000 	subs	r6, r2, #0
  1106ec:	da000012 	ble	11073c <_write+0x58>
  1106f0:	e1a04001 	mov	r4, r1
  1106f4:	e3a05000 	mov	r5, #0
  1106f8:	ea000004 	b	110710 <_write+0x2c>
  1106fc:	e0654004 	rsb	r4, r5, r4
  110700:	ebffcdb5 	bl	103ddc <outbyte>
  110704:	e2855001 	add	r5, r5, #1
  110708:	e1550006 	cmp	r5, r6
  11070c:	0a00000a 	beq	11073c <_write+0x58>
  110710:	e3540000 	cmp	r4, #0
  110714:	0afffffa 	beq	110704 <_write+0x20>
  110718:	e0944005 	adds	r4, r4, r5
  11071c:	0afffff8 	beq	110704 <_write+0x20>
  110720:	e5d40000 	ldrb	r0, [r4]
  110724:	e350000a 	cmp	r0, #10
  110728:	1afffff3 	bne	1106fc <_write+0x18>
  11072c:	e3a0000d 	mov	r0, #13
  110730:	ebffcda9 	bl	103ddc <outbyte>
  110734:	e5d40000 	ldrb	r0, [r4]
  110738:	eaffffef 	b	1106fc <_write+0x18>
  11073c:	e1a00006 	mov	r0, r6
  110740:	e8bd8070 	pop	{r4, r5, r6, pc}

00110744 <__errno>:
  110744:	e3073988 	movw	r3, #31112	; 0x7988
  110748:	e3403011 	movt	r3, #17
  11074c:	e5930000 	ldr	r0, [r3]
  110750:	e12fff1e 	bx	lr

00110754 <inbyte>:
  110754:	e3a00a01 	mov	r0, #4096	; 0x1000
  110758:	e34e0000 	movt	r0, #57344	; 0xe000
  11075c:	eaffcdae 	b	103e1c <XUartPs_RecvByte>

00110760 <__aeabi_idiv>:
  110760:	e3510000 	cmp	r1, #0
  110764:	0a000081 	beq	110970 <.divsi3_skip_div0_test+0x208>

00110768 <.divsi3_skip_div0_test>:
  110768:	e020c001 	eor	ip, r0, r1
  11076c:	42611000 	rsbmi	r1, r1, #0
  110770:	e2512001 	subs	r2, r1, #1
  110774:	0a000070 	beq	11093c <.divsi3_skip_div0_test+0x1d4>
  110778:	e1b03000 	movs	r3, r0
  11077c:	42603000 	rsbmi	r3, r0, #0
  110780:	e1530001 	cmp	r3, r1
  110784:	9a00006f 	bls	110948 <.divsi3_skip_div0_test+0x1e0>
  110788:	e1110002 	tst	r1, r2
  11078c:	0a000071 	beq	110958 <.divsi3_skip_div0_test+0x1f0>
  110790:	e16f2f13 	clz	r2, r3
  110794:	e16f0f11 	clz	r0, r1
  110798:	e0402002 	sub	r2, r0, r2
  11079c:	e272201f 	rsbs	r2, r2, #31
  1107a0:	10822082 	addne	r2, r2, r2, lsl #1
  1107a4:	e3a00000 	mov	r0, #0
  1107a8:	108ff102 	addne	pc, pc, r2, lsl #2
  1107ac:	e320f000 	nop	{0}
  1107b0:	e1530f81 	cmp	r3, r1, lsl #31
  1107b4:	e0a00000 	adc	r0, r0, r0
  1107b8:	20433f81 	subcs	r3, r3, r1, lsl #31
  1107bc:	e1530f01 	cmp	r3, r1, lsl #30
  1107c0:	e0a00000 	adc	r0, r0, r0
  1107c4:	20433f01 	subcs	r3, r3, r1, lsl #30
  1107c8:	e1530e81 	cmp	r3, r1, lsl #29
  1107cc:	e0a00000 	adc	r0, r0, r0
  1107d0:	20433e81 	subcs	r3, r3, r1, lsl #29
  1107d4:	e1530e01 	cmp	r3, r1, lsl #28
  1107d8:	e0a00000 	adc	r0, r0, r0
  1107dc:	20433e01 	subcs	r3, r3, r1, lsl #28
  1107e0:	e1530d81 	cmp	r3, r1, lsl #27
  1107e4:	e0a00000 	adc	r0, r0, r0
  1107e8:	20433d81 	subcs	r3, r3, r1, lsl #27
  1107ec:	e1530d01 	cmp	r3, r1, lsl #26
  1107f0:	e0a00000 	adc	r0, r0, r0
  1107f4:	20433d01 	subcs	r3, r3, r1, lsl #26
  1107f8:	e1530c81 	cmp	r3, r1, lsl #25
  1107fc:	e0a00000 	adc	r0, r0, r0
  110800:	20433c81 	subcs	r3, r3, r1, lsl #25
  110804:	e1530c01 	cmp	r3, r1, lsl #24
  110808:	e0a00000 	adc	r0, r0, r0
  11080c:	20433c01 	subcs	r3, r3, r1, lsl #24
  110810:	e1530b81 	cmp	r3, r1, lsl #23
  110814:	e0a00000 	adc	r0, r0, r0
  110818:	20433b81 	subcs	r3, r3, r1, lsl #23
  11081c:	e1530b01 	cmp	r3, r1, lsl #22
  110820:	e0a00000 	adc	r0, r0, r0
  110824:	20433b01 	subcs	r3, r3, r1, lsl #22
  110828:	e1530a81 	cmp	r3, r1, lsl #21
  11082c:	e0a00000 	adc	r0, r0, r0
  110830:	20433a81 	subcs	r3, r3, r1, lsl #21
  110834:	e1530a01 	cmp	r3, r1, lsl #20
  110838:	e0a00000 	adc	r0, r0, r0
  11083c:	20433a01 	subcs	r3, r3, r1, lsl #20
  110840:	e1530981 	cmp	r3, r1, lsl #19
  110844:	e0a00000 	adc	r0, r0, r0
  110848:	20433981 	subcs	r3, r3, r1, lsl #19
  11084c:	e1530901 	cmp	r3, r1, lsl #18
  110850:	e0a00000 	adc	r0, r0, r0
  110854:	20433901 	subcs	r3, r3, r1, lsl #18
  110858:	e1530881 	cmp	r3, r1, lsl #17
  11085c:	e0a00000 	adc	r0, r0, r0
  110860:	20433881 	subcs	r3, r3, r1, lsl #17
  110864:	e1530801 	cmp	r3, r1, lsl #16
  110868:	e0a00000 	adc	r0, r0, r0
  11086c:	20433801 	subcs	r3, r3, r1, lsl #16
  110870:	e1530781 	cmp	r3, r1, lsl #15
  110874:	e0a00000 	adc	r0, r0, r0
  110878:	20433781 	subcs	r3, r3, r1, lsl #15
  11087c:	e1530701 	cmp	r3, r1, lsl #14
  110880:	e0a00000 	adc	r0, r0, r0
  110884:	20433701 	subcs	r3, r3, r1, lsl #14
  110888:	e1530681 	cmp	r3, r1, lsl #13
  11088c:	e0a00000 	adc	r0, r0, r0
  110890:	20433681 	subcs	r3, r3, r1, lsl #13
  110894:	e1530601 	cmp	r3, r1, lsl #12
  110898:	e0a00000 	adc	r0, r0, r0
  11089c:	20433601 	subcs	r3, r3, r1, lsl #12
  1108a0:	e1530581 	cmp	r3, r1, lsl #11
  1108a4:	e0a00000 	adc	r0, r0, r0
  1108a8:	20433581 	subcs	r3, r3, r1, lsl #11
  1108ac:	e1530501 	cmp	r3, r1, lsl #10
  1108b0:	e0a00000 	adc	r0, r0, r0
  1108b4:	20433501 	subcs	r3, r3, r1, lsl #10
  1108b8:	e1530481 	cmp	r3, r1, lsl #9
  1108bc:	e0a00000 	adc	r0, r0, r0
  1108c0:	20433481 	subcs	r3, r3, r1, lsl #9
  1108c4:	e1530401 	cmp	r3, r1, lsl #8
  1108c8:	e0a00000 	adc	r0, r0, r0
  1108cc:	20433401 	subcs	r3, r3, r1, lsl #8
  1108d0:	e1530381 	cmp	r3, r1, lsl #7
  1108d4:	e0a00000 	adc	r0, r0, r0
  1108d8:	20433381 	subcs	r3, r3, r1, lsl #7
  1108dc:	e1530301 	cmp	r3, r1, lsl #6
  1108e0:	e0a00000 	adc	r0, r0, r0
  1108e4:	20433301 	subcs	r3, r3, r1, lsl #6
  1108e8:	e1530281 	cmp	r3, r1, lsl #5
  1108ec:	e0a00000 	adc	r0, r0, r0
  1108f0:	20433281 	subcs	r3, r3, r1, lsl #5
  1108f4:	e1530201 	cmp	r3, r1, lsl #4
  1108f8:	e0a00000 	adc	r0, r0, r0
  1108fc:	20433201 	subcs	r3, r3, r1, lsl #4
  110900:	e1530181 	cmp	r3, r1, lsl #3
  110904:	e0a00000 	adc	r0, r0, r0
  110908:	20433181 	subcs	r3, r3, r1, lsl #3
  11090c:	e1530101 	cmp	r3, r1, lsl #2
  110910:	e0a00000 	adc	r0, r0, r0
  110914:	20433101 	subcs	r3, r3, r1, lsl #2
  110918:	e1530081 	cmp	r3, r1, lsl #1
  11091c:	e0a00000 	adc	r0, r0, r0
  110920:	20433081 	subcs	r3, r3, r1, lsl #1
  110924:	e1530001 	cmp	r3, r1
  110928:	e0a00000 	adc	r0, r0, r0
  11092c:	20433001 	subcs	r3, r3, r1
  110930:	e35c0000 	cmp	ip, #0
  110934:	42600000 	rsbmi	r0, r0, #0
  110938:	e12fff1e 	bx	lr
  11093c:	e13c0000 	teq	ip, r0
  110940:	42600000 	rsbmi	r0, r0, #0
  110944:	e12fff1e 	bx	lr
  110948:	33a00000 	movcc	r0, #0
  11094c:	01a00fcc 	asreq	r0, ip, #31
  110950:	03800001 	orreq	r0, r0, #1
  110954:	e12fff1e 	bx	lr
  110958:	e16f2f11 	clz	r2, r1
  11095c:	e262201f 	rsb	r2, r2, #31
  110960:	e35c0000 	cmp	ip, #0
  110964:	e1a00233 	lsr	r0, r3, r2
  110968:	42600000 	rsbmi	r0, r0, #0
  11096c:	e12fff1e 	bx	lr
  110970:	e3500000 	cmp	r0, #0
  110974:	c3e00102 	mvngt	r0, #-2147483648	; 0x80000000
  110978:	b3a00102 	movlt	r0, #-2147483648	; 0x80000000
  11097c:	eaffcdd8 	b	1040e4 <__aeabi_idiv0>

00110980 <__aeabi_idivmod>:
  110980:	e3510000 	cmp	r1, #0
  110984:	0afffff9 	beq	110970 <.divsi3_skip_div0_test+0x208>
  110988:	e92d4003 	push	{r0, r1, lr}
  11098c:	ebffff75 	bl	110768 <.divsi3_skip_div0_test>
  110990:	e8bd4006 	pop	{r1, r2, lr}
  110994:	e0030092 	mul	r3, r2, r0
  110998:	e0411003 	sub	r1, r1, r3
  11099c:	e12fff1e 	bx	lr

001109a0 <__aeabi_uldivmod>:
  1109a0:	e3530000 	cmp	r3, #0
  1109a4:	03520000 	cmpeq	r2, #0
  1109a8:	1a000004 	bne	1109c0 <__aeabi_uldivmod+0x20>
  1109ac:	e3510000 	cmp	r1, #0
  1109b0:	03500000 	cmpeq	r0, #0
  1109b4:	13e01000 	mvnne	r1, #0
  1109b8:	13e00000 	mvnne	r0, #0
  1109bc:	eaffcdc8 	b	1040e4 <__aeabi_idiv0>
  1109c0:	e24dd008 	sub	sp, sp, #8
  1109c4:	e92d6000 	push	{sp, lr}
  1109c8:	eb000012 	bl	110a18 <__gnu_uldivmod_helper>
  1109cc:	e59de004 	ldr	lr, [sp, #4]
  1109d0:	e28dd008 	add	sp, sp, #8
  1109d4:	e8bd000c 	pop	{r2, r3}
  1109d8:	e12fff1e 	bx	lr

001109dc <__gnu_ldivmod_helper>:
  1109dc:	e92d41f0 	push	{r4, r5, r6, r7, r8, lr}
  1109e0:	e1a08003 	mov	r8, r3
  1109e4:	e1a04002 	mov	r4, r2
  1109e8:	e59d5018 	ldr	r5, [sp, #24]
  1109ec:	e1a06000 	mov	r6, r0
  1109f0:	e1a07001 	mov	r7, r1
  1109f4:	eb000016 	bl	110a54 <__divdi3>
  1109f8:	e0832094 	umull	r2, r3, r4, r0
  1109fc:	e0040194 	mul	r4, r4, r1
  110a00:	e0566002 	subs	r6, r6, r2
  110a04:	e0244890 	mla	r4, r0, r8, r4
  110a08:	e0843003 	add	r3, r4, r3
  110a0c:	e0c77003 	sbc	r7, r7, r3
  110a10:	e1c560f0 	strd	r6, [r5]
  110a14:	e8bd81f0 	pop	{r4, r5, r6, r7, r8, pc}

00110a18 <__gnu_uldivmod_helper>:
  110a18:	e92d47f0 	push	{r4, r5, r6, r7, r8, r9, sl, lr}
  110a1c:	e1a06002 	mov	r6, r2
  110a20:	e1a08000 	mov	r8, r0
  110a24:	e1a09001 	mov	r9, r1
  110a28:	e1a05003 	mov	r5, r3
  110a2c:	e59d7020 	ldr	r7, [sp, #32]
  110a30:	eb000067 	bl	110bd4 <__udivdi3>
  110a34:	e0030590 	mul	r3, r0, r5
  110a38:	e0854690 	umull	r4, r5, r0, r6
  110a3c:	e0263196 	mla	r6, r6, r1, r3
  110a40:	e0584004 	subs	r4, r8, r4
  110a44:	e0865005 	add	r5, r6, r5
  110a48:	e0c95005 	sbc	r5, r9, r5
  110a4c:	e1c740f0 	strd	r4, [r7]
  110a50:	e8bd87f0 	pop	{r4, r5, r6, r7, r8, r9, sl, pc}

00110a54 <__divdi3>:
  110a54:	e3510000 	cmp	r1, #0
  110a58:	e92d4ff0 	push	{r4, r5, r6, r7, r8, r9, sl, fp, lr}
  110a5c:	a3a0c000 	movge	ip, #0
  110a60:	ba000057 	blt	110bc4 <__divdi3+0x170>
  110a64:	e3530000 	cmp	r3, #0
  110a68:	a1a08002 	movge	r8, r2
  110a6c:	a1a09003 	movge	r9, r3
  110a70:	ba00004f 	blt	110bb4 <__divdi3+0x160>
  110a74:	e1510009 	cmp	r1, r9
  110a78:	e1a04000 	mov	r4, r0
  110a7c:	01500008 	cmpeq	r0, r8
  110a80:	e1a05001 	mov	r5, r1
  110a84:	33a08000 	movcc	r8, #0
  110a88:	33a09000 	movcc	r9, #0
  110a8c:	3a00003e 	bcc	110b8c <__divdi3+0x138>
  110a90:	e3590000 	cmp	r9, #0
  110a94:	016f3f18 	clzeq	r3, r8
  110a98:	116f2f19 	clzne	r2, r9
  110a9c:	02832020 	addeq	r2, r3, #32
  110aa0:	e3510000 	cmp	r1, #0
  110aa4:	016f3f10 	clzeq	r3, r0
  110aa8:	116f3f11 	clzne	r3, r1
  110aac:	02833020 	addeq	r3, r3, #32
  110ab0:	e0633002 	rsb	r3, r3, r2
  110ab4:	e1a07319 	lsl	r7, r9, r3
  110ab8:	e243e020 	sub	lr, r3, #32
  110abc:	e1877e18 	orr	r7, r7, r8, lsl lr
  110ac0:	e263a020 	rsb	sl, r3, #32
  110ac4:	e1877a38 	orr	r7, r7, r8, lsr sl
  110ac8:	e1a06318 	lsl	r6, r8, r3
  110acc:	e1510007 	cmp	r1, r7
  110ad0:	e1a02003 	mov	r2, r3
  110ad4:	01500006 	cmpeq	r0, r6
  110ad8:	33a08000 	movcc	r8, #0
  110adc:	33a09000 	movcc	r9, #0
  110ae0:	3a000007 	bcc	110b04 <__divdi3+0xb0>
  110ae4:	e3a0b001 	mov	fp, #1
  110ae8:	e0500006 	subs	r0, r0, r6
  110aec:	e1a09e1b 	lsl	r9, fp, lr
  110af0:	e0c11007 	sbc	r1, r1, r7
  110af4:	e1899a3b 	orr	r9, r9, fp, lsr sl
  110af8:	e1a0831b 	lsl	r8, fp, r3
  110afc:	e1a04000 	mov	r4, r0
  110b00:	e1a05001 	mov	r5, r1
  110b04:	e3530000 	cmp	r3, #0
  110b08:	0a00001f 	beq	110b8c <__divdi3+0x138>
  110b0c:	e1b070a7 	lsrs	r7, r7, #1
  110b10:	e1a06066 	rrx	r6, r6
  110b14:	ea000007 	b	110b38 <__divdi3+0xe4>
  110b18:	e0544006 	subs	r4, r4, r6
  110b1c:	e0c55007 	sbc	r5, r5, r7
  110b20:	e0944004 	adds	r4, r4, r4
  110b24:	e0a55005 	adc	r5, r5, r5
  110b28:	e2944001 	adds	r4, r4, #1
  110b2c:	e2a55000 	adc	r5, r5, #0
  110b30:	e2533001 	subs	r3, r3, #1
  110b34:	0a000006 	beq	110b54 <__divdi3+0x100>
  110b38:	e1570005 	cmp	r7, r5
  110b3c:	01560004 	cmpeq	r6, r4
  110b40:	9afffff4 	bls	110b18 <__divdi3+0xc4>
  110b44:	e0944004 	adds	r4, r4, r4
  110b48:	e0a55005 	adc	r5, r5, r5
  110b4c:	e2533001 	subs	r3, r3, #1
  110b50:	1afffff8 	bne	110b38 <__divdi3+0xe4>
  110b54:	e2621020 	rsb	r1, r2, #32
  110b58:	e1a03234 	lsr	r3, r4, r2
  110b5c:	e2420020 	sub	r0, r2, #32
  110b60:	e1833115 	orr	r3, r3, r5, lsl r1
  110b64:	e1a0e235 	lsr	lr, r5, r2
  110b68:	e1833035 	orr	r3, r3, r5, lsr r0
  110b6c:	e0988004 	adds	r8, r8, r4
  110b70:	e1a0721e 	lsl	r7, lr, r2
  110b74:	e1a06213 	lsl	r6, r3, r2
  110b78:	e1877013 	orr	r7, r7, r3, lsl r0
  110b7c:	e0a99005 	adc	r9, r9, r5
  110b80:	e1877133 	orr	r7, r7, r3, lsr r1
  110b84:	e0588006 	subs	r8, r8, r6
  110b88:	e0c99007 	sbc	r9, r9, r7
  110b8c:	e29c0000 	adds	r0, ip, #0
  110b90:	e3a01000 	mov	r1, #0
  110b94:	13a00001 	movne	r0, #1
  110b98:	e2702000 	rsbs	r2, r0, #0
  110b9c:	e2e13000 	rsc	r3, r1, #0
  110ba0:	e0288002 	eor	r8, r8, r2
  110ba4:	e0299003 	eor	r9, r9, r3
  110ba8:	e0900008 	adds	r0, r0, r8
  110bac:	e0a11009 	adc	r1, r1, r9
  110bb0:	e8bd8ff0 	pop	{r4, r5, r6, r7, r8, r9, sl, fp, pc}
  110bb4:	e2728000 	rsbs	r8, r2, #0
  110bb8:	e1e0c00c 	mvn	ip, ip
  110bbc:	e2e39000 	rsc	r9, r3, #0
  110bc0:	eaffffab 	b	110a74 <__divdi3+0x20>
  110bc4:	e2700000 	rsbs	r0, r0, #0
  110bc8:	e3e0c000 	mvn	ip, #0
  110bcc:	e2e11000 	rsc	r1, r1, #0
  110bd0:	eaffffa3 	b	110a64 <__divdi3+0x10>

00110bd4 <__udivdi3>:
  110bd4:	e92d41f0 	push	{r4, r5, r6, r7, r8, lr}
  110bd8:	e1a05001 	mov	r5, r1
  110bdc:	e1550003 	cmp	r5, r3
  110be0:	e1a04000 	mov	r4, r0
  110be4:	01540002 	cmpeq	r4, r2
  110be8:	e1a00002 	mov	r0, r2
  110bec:	e1a01003 	mov	r1, r3
  110bf0:	3a00003d 	bcc	110cec <__udivdi3+0x118>
  110bf4:	e3530000 	cmp	r3, #0
  110bf8:	016f3f10 	clzeq	r3, r0
  110bfc:	116f2f13 	clzne	r2, r3
  110c00:	02832020 	addeq	r2, r3, #32
  110c04:	e3550000 	cmp	r5, #0
  110c08:	016f3f14 	clzeq	r3, r4
  110c0c:	116f3f15 	clzne	r3, r5
  110c10:	02833020 	addeq	r3, r3, #32
  110c14:	e0633002 	rsb	r3, r3, r2
  110c18:	e1a07311 	lsl	r7, r1, r3
  110c1c:	e243e020 	sub	lr, r3, #32
  110c20:	e1877e10 	orr	r7, r7, r0, lsl lr
  110c24:	e2632020 	rsb	r2, r3, #32
  110c28:	e1877230 	orr	r7, r7, r0, lsr r2
  110c2c:	e1a06310 	lsl	r6, r0, r3
  110c30:	e1550007 	cmp	r5, r7
  110c34:	e1a0c003 	mov	ip, r3
  110c38:	01540006 	cmpeq	r4, r6
  110c3c:	33a00000 	movcc	r0, #0
  110c40:	33a01000 	movcc	r1, #0
  110c44:	3a000005 	bcc	110c60 <__udivdi3+0x8c>
  110c48:	e3a08001 	mov	r8, #1
  110c4c:	e0544006 	subs	r4, r4, r6
  110c50:	e1a01e18 	lsl	r1, r8, lr
  110c54:	e0c55007 	sbc	r5, r5, r7
  110c58:	e1811238 	orr	r1, r1, r8, lsr r2
  110c5c:	e1a00318 	lsl	r0, r8, r3
  110c60:	e3530000 	cmp	r3, #0
  110c64:	08bd81f0 	popeq	{r4, r5, r6, r7, r8, pc}
  110c68:	e1b070a7 	lsrs	r7, r7, #1
  110c6c:	e1a06066 	rrx	r6, r6
  110c70:	ea000007 	b	110c94 <__udivdi3+0xc0>
  110c74:	e0544006 	subs	r4, r4, r6
  110c78:	e0c55007 	sbc	r5, r5, r7
  110c7c:	e0944004 	adds	r4, r4, r4
  110c80:	e0a55005 	adc	r5, r5, r5
  110c84:	e2944001 	adds	r4, r4, #1
  110c88:	e2a55000 	adc	r5, r5, #0
  110c8c:	e2533001 	subs	r3, r3, #1
  110c90:	0a000006 	beq	110cb0 <__udivdi3+0xdc>
  110c94:	e1570005 	cmp	r7, r5
  110c98:	01560004 	cmpeq	r6, r4
  110c9c:	9afffff4 	bls	110c74 <__udivdi3+0xa0>
  110ca0:	e0944004 	adds	r4, r4, r4
  110ca4:	e0a55005 	adc	r5, r5, r5
  110ca8:	e2533001 	subs	r3, r3, #1
  110cac:	1afffff8 	bne	110c94 <__udivdi3+0xc0>
  110cb0:	e26c6020 	rsb	r6, ip, #32
  110cb4:	e1a0ec34 	lsr	lr, r4, ip
  110cb8:	e24c7020 	sub	r7, ip, #32
  110cbc:	e18ee615 	orr	lr, lr, r5, lsl r6
  110cc0:	e1a08c35 	lsr	r8, r5, ip
  110cc4:	e18ee735 	orr	lr, lr, r5, lsr r7
  110cc8:	e0900004 	adds	r0, r0, r4
  110ccc:	e1a03c18 	lsl	r3, r8, ip
  110cd0:	e1a02c1e 	lsl	r2, lr, ip
  110cd4:	e183371e 	orr	r3, r3, lr, lsl r7
  110cd8:	e0a11005 	adc	r1, r1, r5
  110cdc:	e183363e 	orr	r3, r3, lr, lsr r6
  110ce0:	e0500002 	subs	r0, r0, r2
  110ce4:	e0c11003 	sbc	r1, r1, r3
  110ce8:	e8bd81f0 	pop	{r4, r5, r6, r7, r8, pc}
  110cec:	e3a00000 	mov	r0, #0
  110cf0:	e3a01000 	mov	r1, #0
  110cf4:	e8bd81f0 	pop	{r4, r5, r6, r7, r8, pc}

00110cf8 <get_ldnumber>:
  110cf8:	e590c000 	ldr	ip, [r0]
  110cfc:	e35c0000 	cmp	ip, #0
  110d00:	0a000019 	beq	110d6c <get_ldnumber+0x74>
  110d04:	e5dc1000 	ldrb	r1, [ip]
  110d08:	e351003a 	cmp	r1, #58	; 0x3a
  110d0c:	13510020 	cmpne	r1, #32
  110d10:	9a000012 	bls	110d60 <get_ldnumber+0x68>
  110d14:	e1a0200c 	mov	r2, ip
  110d18:	e5f23001 	ldrb	r3, [r2, #1]!
  110d1c:	e353003a 	cmp	r3, #58	; 0x3a
  110d20:	13530020 	cmpne	r3, #32
  110d24:	8afffffb 	bhi	110d18 <get_ldnumber+0x20>
  110d28:	e353003a 	cmp	r3, #58	; 0x3a
  110d2c:	13a01000 	movne	r1, #0
  110d30:	0a000001 	beq	110d3c <get_ldnumber+0x44>
  110d34:	e1a00001 	mov	r0, r1
  110d38:	e12fff1e 	bx	lr
  110d3c:	e2411030 	sub	r1, r1, #48	; 0x30
  110d40:	e28cc001 	add	ip, ip, #1
  110d44:	e3510001 	cmp	r1, #1
  110d48:	9152000c 	cmpls	r2, ip
  110d4c:	1a000006 	bne	110d6c <get_ldnumber+0x74>
  110d50:	e2822001 	add	r2, r2, #1
  110d54:	e5802000 	str	r2, [r0]
  110d58:	e1a00001 	mov	r0, r1
  110d5c:	e12fff1e 	bx	lr
  110d60:	e1a03001 	mov	r3, r1
  110d64:	e1a0200c 	mov	r2, ip
  110d68:	eaffffee 	b	110d28 <get_ldnumber+0x30>
  110d6c:	e3e01000 	mvn	r1, #0
  110d70:	eaffffef 	b	110d34 <get_ldnumber+0x3c>

00110d74 <validate>:
  110d74:	e3500000 	cmp	r0, #0
  110d78:	0a000005 	beq	110d94 <validate+0x20>
  110d7c:	e5903000 	ldr	r3, [r0]
  110d80:	e3530000 	cmp	r3, #0
  110d84:	0a000002 	beq	110d94 <validate+0x20>
  110d88:	e5d32000 	ldrb	r2, [r3]
  110d8c:	e3520000 	cmp	r2, #0
  110d90:	1a000001 	bne	110d9c <validate+0x28>
  110d94:	e3a00009 	mov	r0, #9
  110d98:	e12fff1e 	bx	lr
  110d9c:	e1d020b4 	ldrh	r2, [r0, #4]
  110da0:	e1d310b6 	ldrh	r1, [r3, #6]
  110da4:	e1510002 	cmp	r1, r2
  110da8:	1afffff9 	bne	110d94 <validate+0x20>
  110dac:	e92d4010 	push	{r4, lr}
  110db0:	e5d30001 	ldrb	r0, [r3, #1]
  110db4:	eb000bf7 	bl	113d98 <disk_status>
  110db8:	e3100001 	tst	r0, #1
  110dbc:	13a00003 	movne	r0, #3
  110dc0:	03a00000 	moveq	r0, #0
  110dc4:	e8bd8010 	pop	{r4, pc}

00110dc8 <get_fileinfo.isra.1>:
  110dc8:	e3500000 	cmp	r0, #0
  110dcc:	e282c009 	add	ip, r2, #9
  110dd0:	03a03000 	moveq	r3, #0
  110dd4:	05cc3000 	strbeq	r3, [ip]
  110dd8:	012fff1e 	bxeq	lr
  110ddc:	e92d4010 	push	{r4, lr}
  110de0:	e3a0402e 	mov	r4, #46	; 0x2e
  110de4:	e591e000 	ldr	lr, [r1]
  110de8:	e3a01000 	mov	r1, #0
  110dec:	e24e0001 	sub	r0, lr, #1
  110df0:	e5f03001 	ldrb	r3, [r0, #1]!
  110df4:	e2811001 	add	r1, r1, #1
  110df8:	e3530020 	cmp	r3, #32
  110dfc:	0a000004 	beq	110e14 <get_fileinfo.isra.1+0x4c>
  110e00:	e3530005 	cmp	r3, #5
  110e04:	03a030e5 	moveq	r3, #229	; 0xe5
  110e08:	e3510009 	cmp	r1, #9
  110e0c:	04cc4001 	strbeq	r4, [ip], #1
  110e10:	e4cc3001 	strb	r3, [ip], #1
  110e14:	e351000b 	cmp	r1, #11
  110e18:	1afffff4 	bne	110df0 <get_fileinfo.isra.1+0x28>
  110e1c:	e5de300b 	ldrb	r3, [lr, #11]
  110e20:	e5c23008 	strb	r3, [r2, #8]
  110e24:	e5de001e 	ldrb	r0, [lr, #30]
  110e28:	e5de301f 	ldrb	r3, [lr, #31]
  110e2c:	e5de101c 	ldrb	r1, [lr, #28]
  110e30:	e5de401d 	ldrb	r4, [lr, #29]
  110e34:	e1a00800 	lsl	r0, r0, #16
  110e38:	e1803c03 	orr	r3, r0, r3, lsl #24
  110e3c:	e1833001 	orr	r3, r3, r1
  110e40:	e1833404 	orr	r3, r3, r4, lsl #8
  110e44:	e5823000 	str	r3, [r2]
  110e48:	e5de1019 	ldrb	r1, [lr, #25]
  110e4c:	e5de3018 	ldrb	r3, [lr, #24]
  110e50:	e1833401 	orr	r3, r3, r1, lsl #8
  110e54:	e1c230b4 	strh	r3, [r2, #4]
  110e58:	e5de1017 	ldrb	r1, [lr, #23]
  110e5c:	e5de3016 	ldrb	r3, [lr, #22]
  110e60:	e1833401 	orr	r3, r3, r1, lsl #8
  110e64:	e1c230b6 	strh	r3, [r2, #6]
  110e68:	e3a03000 	mov	r3, #0
  110e6c:	e5cc3000 	strb	r3, [ip]
  110e70:	e8bd8010 	pop	{r4, pc}

00110e74 <sync_window.part.3>:
  110e74:	e92d41f0 	push	{r4, r5, r6, r7, r8, lr}
  110e78:	e2807040 	add	r7, r0, #64	; 0x40
  110e7c:	e590402c 	ldr	r4, [r0, #44]	; 0x2c
  110e80:	e1a05000 	mov	r5, r0
  110e84:	e3a03001 	mov	r3, #1
  110e88:	e1a01007 	mov	r1, r7
  110e8c:	e5d00001 	ldrb	r0, [r0, #1]
  110e90:	e1a02004 	mov	r2, r4
  110e94:	eb000c71 	bl	114060 <disk_write>
  110e98:	e3500000 	cmp	r0, #0
  110e9c:	1a000015 	bne	110ef8 <sync_window.part.3+0x84>
  110ea0:	e5952020 	ldr	r2, [r5, #32]
  110ea4:	e5953018 	ldr	r3, [r5, #24]
  110ea8:	e5c50004 	strb	r0, [r5, #4]
  110eac:	e0622004 	rsb	r2, r2, r4
  110eb0:	e1520003 	cmp	r2, r3
  110eb4:	2a00000d 	bcs	110ef0 <sync_window.part.3+0x7c>
  110eb8:	e5d56003 	ldrb	r6, [r5, #3]
  110ebc:	e3560001 	cmp	r6, #1
  110ec0:	8a000001 	bhi	110ecc <sync_window.part.3+0x58>
  110ec4:	ea000009 	b	110ef0 <sync_window.part.3+0x7c>
  110ec8:	e5953018 	ldr	r3, [r5, #24]
  110ecc:	e0844003 	add	r4, r4, r3
  110ed0:	e2466001 	sub	r6, r6, #1
  110ed4:	e1a02004 	mov	r2, r4
  110ed8:	e3a03001 	mov	r3, #1
  110edc:	e1a01007 	mov	r1, r7
  110ee0:	e5d50001 	ldrb	r0, [r5, #1]
  110ee4:	eb000c5d 	bl	114060 <disk_write>
  110ee8:	e3560001 	cmp	r6, #1
  110eec:	1afffff5 	bne	110ec8 <sync_window.part.3+0x54>
  110ef0:	e3a00000 	mov	r0, #0
  110ef4:	e8bd81f0 	pop	{r4, r5, r6, r7, r8, pc}
  110ef8:	e3a00001 	mov	r0, #1
  110efc:	e8bd81f0 	pop	{r4, r5, r6, r7, r8, pc}

00110f00 <sync_fs>:
  110f00:	e92d4ff8 	push	{r3, r4, r5, r6, r7, r8, r9, sl, fp, lr}
  110f04:	e1a05000 	mov	r5, r0
  110f08:	e5d03004 	ldrb	r3, [r0, #4]
  110f0c:	e3530000 	cmp	r3, #0
  110f10:	1a000009 	bne	110f3c <sync_fs+0x3c>
  110f14:	e5d53000 	ldrb	r3, [r5]
  110f18:	e3530003 	cmp	r3, #3
  110f1c:	0a00000a 	beq	110f4c <sync_fs+0x4c>
  110f20:	e3a02000 	mov	r2, #0
  110f24:	e5d50001 	ldrb	r0, [r5, #1]
  110f28:	e1a01002 	mov	r1, r2
  110f2c:	eb000c34 	bl	114004 <disk_ioctl>
  110f30:	e2900000 	adds	r0, r0, #0
  110f34:	13a00001 	movne	r0, #1
  110f38:	e8bd8ff8 	pop	{r3, r4, r5, r6, r7, r8, r9, sl, fp, pc}
  110f3c:	ebffffcc 	bl	110e74 <sync_window.part.3>
  110f40:	e3500000 	cmp	r0, #0
  110f44:	18bd8ff8 	popne	{r3, r4, r5, r6, r7, r8, r9, sl, fp, pc}
  110f48:	eafffff1 	b	110f14 <sync_fs+0x14>
  110f4c:	e5d53005 	ldrb	r3, [r5, #5]
  110f50:	e3530001 	cmp	r3, #1
  110f54:	1afffff1 	bne	110f20 <sync_fs+0x20>
  110f58:	e2851040 	add	r1, r5, #64	; 0x40
  110f5c:	e2850d09 	add	r0, r5, #576	; 0x240
  110f60:	e1a03001 	mov	r3, r1
  110f64:	e3a02000 	mov	r2, #0
  110f68:	e4c32001 	strb	r2, [r3], #1
  110f6c:	e1530000 	cmp	r3, r0
  110f70:	e3a04000 	mov	r4, #0
  110f74:	1afffffb 	bne	110f68 <sync_fs+0x68>
  110f78:	e5952010 	ldr	r2, [r5, #16]
  110f7c:	e3a0e041 	mov	lr, #65	; 0x41
  110f80:	e595300c 	ldr	r3, [r5, #12]
  110f84:	e3a07052 	mov	r7, #82	; 0x52
  110f88:	e595001c 	ldr	r0, [r5, #28]
  110f8c:	e3a06061 	mov	r6, #97	; 0x61
  110f90:	e5c52228 	strb	r2, [r5, #552]	; 0x228
  110f94:	e3a09055 	mov	r9, #85	; 0x55
  110f98:	e1a0b422 	lsr	fp, r2, #8
  110f9c:	e1a0a822 	lsr	sl, r2, #16
  110fa0:	e1a0cc22 	lsr	ip, r2, #24
  110fa4:	e1a02423 	lsr	r2, r3, #8
  110fa8:	e5c5b229 	strb	fp, [r5, #553]	; 0x229
  110fac:	e1a0b823 	lsr	fp, r3, #16
  110fb0:	e5c5a22a 	strb	sl, [r5, #554]	; 0x22a
  110fb4:	e1a0ac23 	lsr	sl, r3, #24
  110fb8:	e2800001 	add	r0, r0, #1
  110fbc:	e5c5c22b 	strb	ip, [r5, #555]	; 0x22b
  110fc0:	e3e08055 	mvn	r8, #85	; 0x55
  110fc4:	e3a0c072 	mov	ip, #114	; 0x72
  110fc8:	e5c5322c 	strb	r3, [r5, #556]	; 0x22c
  110fcc:	e3a03001 	mov	r3, #1
  110fd0:	e5c5222d 	strb	r2, [r5, #557]	; 0x22d
  110fd4:	e1a02000 	mov	r2, r0
  110fd8:	e585002c 	str	r0, [r5, #44]	; 0x2c
  110fdc:	e5c5b22e 	strb	fp, [r5, #558]	; 0x22e
  110fe0:	e5c5a22f 	strb	sl, [r5, #559]	; 0x22f
  110fe4:	e5c5923e 	strb	r9, [r5, #574]	; 0x23e
  110fe8:	e5c5823f 	strb	r8, [r5, #575]	; 0x23f
  110fec:	e5c57040 	strb	r7, [r5, #64]	; 0x40
  110ff0:	e5c57041 	strb	r7, [r5, #65]	; 0x41
  110ff4:	e5c56042 	strb	r6, [r5, #66]	; 0x42
  110ff8:	e5c56227 	strb	r6, [r5, #551]	; 0x227
  110ffc:	e5c5e043 	strb	lr, [r5, #67]	; 0x43
  111000:	e5c5e226 	strb	lr, [r5, #550]	; 0x226
  111004:	e5c5c224 	strb	ip, [r5, #548]	; 0x224
  111008:	e5c5c225 	strb	ip, [r5, #549]	; 0x225
  11100c:	e5d50001 	ldrb	r0, [r5, #1]
  111010:	eb000c12 	bl	114060 <disk_write>
  111014:	e5c54005 	strb	r4, [r5, #5]
  111018:	eaffffc0 	b	110f20 <sync_fs+0x20>

0011101c <move_window>:
  11101c:	e590302c 	ldr	r3, [r0, #44]	; 0x2c
  111020:	e92d4070 	push	{r4, r5, r6, lr}
  111024:	e1a04000 	mov	r4, r0
  111028:	e1530001 	cmp	r3, r1
  11102c:	0a000011 	beq	111078 <move_window+0x5c>
  111030:	e5d03004 	ldrb	r3, [r0, #4]
  111034:	e1a05001 	mov	r5, r1
  111038:	e3530000 	cmp	r3, #0
  11103c:	1a000008 	bne	111064 <move_window+0x48>
  111040:	e3a03001 	mov	r3, #1
  111044:	e1a02005 	mov	r2, r5
  111048:	e2841040 	add	r1, r4, #64	; 0x40
  11104c:	e5d40001 	ldrb	r0, [r4, #1]
  111050:	eb000bc7 	bl	113f74 <disk_read>
  111054:	e3500000 	cmp	r0, #0
  111058:	1a000004 	bne	111070 <move_window+0x54>
  11105c:	e584502c 	str	r5, [r4, #44]	; 0x2c
  111060:	e8bd8070 	pop	{r4, r5, r6, pc}
  111064:	ebffff82 	bl	110e74 <sync_window.part.3>
  111068:	e3500000 	cmp	r0, #0
  11106c:	0afffff3 	beq	111040 <move_window+0x24>
  111070:	e3a00001 	mov	r0, #1
  111074:	e8bd8070 	pop	{r4, r5, r6, pc}
  111078:	e3a00000 	mov	r0, #0
  11107c:	e8bd8070 	pop	{r4, r5, r6, pc}

00111080 <check_fs>:
  111080:	e3a02000 	mov	r2, #0
  111084:	e3e03000 	mvn	r3, #0
  111088:	e92d4010 	push	{r4, lr}
  11108c:	e1a04000 	mov	r4, r0
  111090:	e5c02004 	strb	r2, [r0, #4]
  111094:	e580302c 	str	r3, [r0, #44]	; 0x2c
  111098:	ebffffdf 	bl	11101c <move_window>
  11109c:	e3500000 	cmp	r0, #0
  1110a0:	0a000001 	beq	1110ac <check_fs+0x2c>
  1110a4:	e3a00003 	mov	r0, #3
  1110a8:	e8bd8010 	pop	{r4, pc}
  1110ac:	e5d4123f 	ldrb	r1, [r4, #575]	; 0x23f
  1110b0:	e30a2a55 	movw	r2, #43605	; 0xaa55
  1110b4:	e5d4323e 	ldrb	r3, [r4, #574]	; 0x23e
  1110b8:	e1833401 	orr	r3, r3, r1, lsl #8
  1110bc:	e1530002 	cmp	r3, r2
  1110c0:	0a000001 	beq	1110cc <check_fs+0x4c>
  1110c4:	e3a00002 	mov	r0, #2
  1110c8:	e8bd8010 	pop	{r4, pc}
  1110cc:	e5d41078 	ldrb	r1, [r4, #120]	; 0x78
  1110d0:	e304c146 	movw	ip, #16710	; 0x4146
  1110d4:	e5d43079 	ldrb	r3, [r4, #121]	; 0x79
  1110d8:	e340c054 	movt	ip, #84	; 0x54
  1110dc:	e5d42076 	ldrb	r2, [r4, #118]	; 0x76
  1110e0:	e5d4e077 	ldrb	lr, [r4, #119]	; 0x77
  1110e4:	e1a01801 	lsl	r1, r1, #16
  1110e8:	e1813c03 	orr	r3, r1, r3, lsl #24
  1110ec:	e1833002 	orr	r3, r3, r2
  1110f0:	e183340e 	orr	r3, r3, lr, lsl #8
  1110f4:	e3c334ff 	bic	r3, r3, #-16777216	; 0xff000000
  1110f8:	e153000c 	cmp	r3, ip
  1110fc:	08bd8010 	popeq	{r4, pc}
  111100:	e5d41094 	ldrb	r1, [r4, #148]	; 0x94
  111104:	e5d43095 	ldrb	r3, [r4, #149]	; 0x95
  111108:	e5d40093 	ldrb	r0, [r4, #147]	; 0x93
  11110c:	e5d42092 	ldrb	r2, [r4, #146]	; 0x92
  111110:	e1a01801 	lsl	r1, r1, #16
  111114:	e1813c03 	orr	r3, r1, r3, lsl #24
  111118:	e1833002 	orr	r3, r3, r2
  11111c:	e1833400 	orr	r3, r3, r0, lsl #8
  111120:	e3c334ff 	bic	r3, r3, #-16777216	; 0xff000000
  111124:	e053000c 	subs	r0, r3, ip
  111128:	13a00001 	movne	r0, #1
  11112c:	e8bd8010 	pop	{r4, pc}

00111130 <find_volume>:
  111130:	e92d4ff0 	push	{r4, r5, r6, r7, r8, r9, sl, fp, lr}
  111134:	e3a03000 	mov	r3, #0
  111138:	e1a07000 	mov	r7, r0
  11113c:	e24dd014 	sub	sp, sp, #20
  111140:	e1a00001 	mov	r0, r1
  111144:	e1a04002 	mov	r4, r2
  111148:	e5873000 	str	r3, [r7]
  11114c:	ebfffee9 	bl	110cf8 <get_ldnumber>
  111150:	e2506000 	subs	r6, r0, #0
  111154:	b3a0000b 	movlt	r0, #11
  111158:	ba000012 	blt	1111a8 <find_volume+0x78>
  11115c:	e3008348 	movw	r8, #840	; 0x348
  111160:	e3408012 	movt	r8, #18
  111164:	e7985106 	ldr	r5, [r8, r6, lsl #2]
  111168:	e3550000 	cmp	r5, #0
  11116c:	0a00001d 	beq	1111e8 <find_volume+0xb8>
  111170:	e5875000 	str	r5, [r7]
  111174:	e5d53000 	ldrb	r3, [r5]
  111178:	e3530000 	cmp	r3, #0
  11117c:	0a00000b 	beq	1111b0 <find_volume+0x80>
  111180:	e5d50001 	ldrb	r0, [r5, #1]
  111184:	eb000b03 	bl	113d98 <disk_status>
  111188:	e3100001 	tst	r0, #1
  11118c:	1a000007 	bne	1111b0 <find_volume+0x80>
  111190:	e3540000 	cmp	r4, #0
  111194:	01a00004 	moveq	r0, r4
  111198:	0a000002 	beq	1111a8 <find_volume+0x78>
  11119c:	e2000004 	and	r0, r0, #4
  1111a0:	e21000ff 	ands	r0, r0, #255	; 0xff
  1111a4:	1a00000d 	bne	1111e0 <find_volume+0xb0>
  1111a8:	e28dd014 	add	sp, sp, #20
  1111ac:	e8bd8ff0 	pop	{r4, r5, r6, r7, r8, r9, sl, fp, pc}
  1111b0:	e6ef0076 	uxtb	r0, r6
  1111b4:	e3a03000 	mov	r3, #0
  1111b8:	e5c53000 	strb	r3, [r5]
  1111bc:	e5c50001 	strb	r0, [r5, #1]
  1111c0:	eb000b3c 	bl	113eb8 <disk_initialize>
  1111c4:	e3100001 	tst	r0, #1
  1111c8:	13a00003 	movne	r0, #3
  1111cc:	1afffff5 	bne	1111a8 <find_volume+0x78>
  1111d0:	e3540000 	cmp	r4, #0
  1111d4:	0a000005 	beq	1111f0 <find_volume+0xc0>
  1111d8:	e3100004 	tst	r0, #4
  1111dc:	0a000003 	beq	1111f0 <find_volume+0xc0>
  1111e0:	e3a0000a 	mov	r0, #10
  1111e4:	eaffffef 	b	1111a8 <find_volume+0x78>
  1111e8:	e3a0000c 	mov	r0, #12
  1111ec:	eaffffed 	b	1111a8 <find_volume+0x78>
  1111f0:	e3a01000 	mov	r1, #0
  1111f4:	e1a00005 	mov	r0, r5
  1111f8:	ebffffa0 	bl	111080 <check_fs>
  1111fc:	e3500001 	cmp	r0, #1
  111200:	13a06000 	movne	r6, #0
  111204:	0a000006 	beq	111224 <find_volume+0xf4>
  111208:	e3500003 	cmp	r0, #3
  11120c:	03a00001 	moveq	r0, #1
  111210:	0affffe4 	beq	1111a8 <find_volume+0x78>
  111214:	e3500000 	cmp	r0, #0
  111218:	0a000026 	beq	1112b8 <find_volume+0x188>
  11121c:	e3a0000d 	mov	r0, #13
  111220:	eaffffe0 	b	1111a8 <find_volume+0x78>
  111224:	e1a01005 	mov	r1, r5
  111228:	e1a0c00d 	mov	ip, sp
  11122c:	e285e040 	add	lr, r5, #64	; 0x40
  111230:	e5d13202 	ldrb	r3, [r1, #514]	; 0x202
  111234:	e3530000 	cmp	r3, #0
  111238:	0a000007 	beq	11125c <find_volume+0x12c>
  11123c:	e5d10208 	ldrb	r0, [r1, #520]	; 0x208
  111240:	e5d13209 	ldrb	r3, [r1, #521]	; 0x209
  111244:	e5d12206 	ldrb	r2, [r1, #518]	; 0x206
  111248:	e5d14207 	ldrb	r4, [r1, #519]	; 0x207
  11124c:	e1a00800 	lsl	r0, r0, #16
  111250:	e1803c03 	orr	r3, r0, r3, lsl #24
  111254:	e1833002 	orr	r3, r3, r2
  111258:	e1833404 	orr	r3, r3, r4, lsl #8
  11125c:	e2811010 	add	r1, r1, #16
  111260:	e48c3004 	str	r3, [ip], #4
  111264:	e151000e 	cmp	r1, lr
  111268:	1afffff0 	bne	111230 <find_volume+0x100>
  11126c:	e3a04000 	mov	r4, #0
  111270:	e79d6104 	ldr	r6, [sp, r4, lsl #2]
  111274:	e3a03001 	mov	r3, #1
  111278:	e3a00002 	mov	r0, #2
  11127c:	e3560000 	cmp	r6, #0
  111280:	1a000006 	bne	1112a0 <find_volume+0x170>
  111284:	e2844001 	add	r4, r4, #1
  111288:	e3540003 	cmp	r4, #3
  11128c:	83a03000 	movhi	r3, #0
  111290:	92033001 	andls	r3, r3, #1
  111294:	e3530000 	cmp	r3, #0
  111298:	1afffff4 	bne	111270 <find_volume+0x140>
  11129c:	eaffffd9 	b	111208 <find_volume+0xd8>
  1112a0:	e1a01006 	mov	r1, r6
  1112a4:	e1a00005 	mov	r0, r5
  1112a8:	ebffff74 	bl	111080 <check_fs>
  1112ac:	e2903000 	adds	r3, r0, #0
  1112b0:	13a03001 	movne	r3, #1
  1112b4:	eafffff2 	b	111284 <find_volume+0x154>
  1112b8:	e5d5204c 	ldrb	r2, [r5, #76]	; 0x4c
  1112bc:	e5d5304b 	ldrb	r3, [r5, #75]	; 0x4b
  1112c0:	e1833402 	orr	r3, r3, r2, lsl #8
  1112c4:	e3530c02 	cmp	r3, #512	; 0x200
  1112c8:	1affffd3 	bne	11121c <find_volume+0xec>
  1112cc:	e5d54057 	ldrb	r4, [r5, #87]	; 0x57
  1112d0:	e5d53056 	ldrb	r3, [r5, #86]	; 0x56
  1112d4:	e1933404 	orrs	r3, r3, r4, lsl #8
  1112d8:	0a00005c 	beq	111450 <find_volume+0x320>
  1112dc:	e1a04003 	mov	r4, r3
  1112e0:	e5d59050 	ldrb	r9, [r5, #80]	; 0x50
  1112e4:	e5854018 	str	r4, [r5, #24]
  1112e8:	e2493001 	sub	r3, r9, #1
  1112ec:	e5c59003 	strb	r9, [r5, #3]
  1112f0:	e3530001 	cmp	r3, #1
  1112f4:	8affffc8 	bhi	11121c <find_volume+0xec>
  1112f8:	e5d5104d 	ldrb	r1, [r5, #77]	; 0x4d
  1112fc:	e3510000 	cmp	r1, #0
  111300:	e5c51002 	strb	r1, [r5, #2]
  111304:	0affffc4 	beq	11121c <find_volume+0xec>
  111308:	e2413001 	sub	r3, r1, #1
  11130c:	e1130001 	tst	r3, r1
  111310:	1affffc1 	bne	11121c <find_volume+0xec>
  111314:	e5d5b052 	ldrb	fp, [r5, #82]	; 0x52
  111318:	e5d53051 	ldrb	r3, [r5, #81]	; 0x51
  11131c:	e183b40b 	orr	fp, r3, fp, lsl #8
  111320:	e31b000f 	tst	fp, #15
  111324:	e1c5b0b8 	strh	fp, [r5, #8]
  111328:	1affffbb 	bne	11121c <find_volume+0xec>
  11132c:	e5d50054 	ldrb	r0, [r5, #84]	; 0x54
  111330:	e5d53053 	ldrb	r3, [r5, #83]	; 0x53
  111334:	e1930400 	orrs	r0, r3, r0, lsl #8
  111338:	1a000007 	bne	11135c <find_volume+0x22c>
  11133c:	e5d53062 	ldrb	r3, [r5, #98]	; 0x62
  111340:	e5d5c063 	ldrb	ip, [r5, #99]	; 0x63
  111344:	e5d52060 	ldrb	r2, [r5, #96]	; 0x60
  111348:	e5d50061 	ldrb	r0, [r5, #97]	; 0x61
  11134c:	e1a03803 	lsl	r3, r3, #16
  111350:	e1833c0c 	orr	r3, r3, ip, lsl #24
  111354:	e1833002 	orr	r3, r3, r2
  111358:	e1830400 	orr	r0, r3, r0, lsl #8
  11135c:	e5d5704f 	ldrb	r7, [r5, #79]	; 0x4f
  111360:	e5d5304e 	ldrb	r3, [r5, #78]	; 0x4e
  111364:	e1937407 	orrs	r7, r3, r7, lsl #8
  111368:	0affffab 	beq	11121c <find_volume+0xec>
  11136c:	e0090499 	mul	r9, r9, r4
  111370:	e087a22b 	add	sl, r7, fp, lsr #4
  111374:	e08aa009 	add	sl, sl, r9
  111378:	e150000a 	cmp	r0, sl
  11137c:	3affffa6 	bcc	11121c <find_volume+0xec>
  111380:	e06a0000 	rsb	r0, sl, r0
  111384:	ebffcad3 	bl	103ed8 <__aeabi_uidiv>
  111388:	e3500000 	cmp	r0, #0
  11138c:	0affffa2 	beq	11121c <find_volume+0xec>
  111390:	e3003ff5 	movw	r3, #4085	; 0xff5
  111394:	e1500003 	cmp	r0, r3
  111398:	9a000084 	bls	1115b0 <find_volume+0x480>
  11139c:	e30f3ff5 	movw	r3, #65525	; 0xfff5
  1113a0:	e1500003 	cmp	r0, r3
  1113a4:	9a00006a 	bls	111554 <find_volume+0x424>
  1113a8:	e35b0000 	cmp	fp, #0
  1113ac:	e2800002 	add	r0, r0, #2
  1113b0:	e0867007 	add	r7, r6, r7
  1113b4:	e08aa006 	add	sl, sl, r6
  1113b8:	e5850014 	str	r0, [r5, #20]
  1113bc:	e5857020 	str	r7, [r5, #32]
  1113c0:	e585a028 	str	sl, [r5, #40]	; 0x28
  1113c4:	e585601c 	str	r6, [r5, #28]
  1113c8:	1affff93 	bne	11121c <find_volume+0xec>
  1113cc:	e5d5106e 	ldrb	r1, [r5, #110]	; 0x6e
  1113d0:	e1a00100 	lsl	r0, r0, #2
  1113d4:	e5d5c06f 	ldrb	ip, [r5, #111]	; 0x6f
  1113d8:	e2803f7f 	add	r3, r0, #508	; 0x1fc
  1113dc:	e5d5206c 	ldrb	r2, [r5, #108]	; 0x6c
  1113e0:	e2833003 	add	r3, r3, #3
  1113e4:	e5d5006d 	ldrb	r0, [r5, #109]	; 0x6d
  1113e8:	e1a01801 	lsl	r1, r1, #16
  1113ec:	e15404a3 	cmp	r4, r3, lsr #9
  1113f0:	e1813c0c 	orr	r3, r1, ip, lsl #24
  1113f4:	e1833002 	orr	r3, r3, r2
  1113f8:	e1833400 	orr	r3, r3, r0, lsl #8
  1113fc:	e5853024 	str	r3, [r5, #36]	; 0x24
  111400:	3affff85 	bcc	11121c <find_volume+0xec>
  111404:	e5d51071 	ldrb	r1, [r5, #113]	; 0x71
  111408:	e3e02000 	mvn	r2, #0
  11140c:	e5d53070 	ldrb	r3, [r5, #112]	; 0x70
  111410:	e3e0007f 	mvn	r0, #127	; 0x7f
  111414:	e585200c 	str	r2, [r5, #12]
  111418:	e5852010 	str	r2, [r5, #16]
  11141c:	e5c50005 	strb	r0, [r5, #5]
  111420:	e1833401 	orr	r3, r3, r1, lsl #8
  111424:	e3530001 	cmp	r3, #1
  111428:	0a000011 	beq	111474 <find_volume+0x344>
  11142c:	e3a0c003 	mov	ip, #3
  111430:	e1d830b8 	ldrh	r3, [r8, #8]
  111434:	e3a00000 	mov	r0, #0
  111438:	e5c5c000 	strb	ip, [r5]
  11143c:	e2833001 	add	r3, r3, #1
  111440:	e6ff3073 	uxth	r3, r3
  111444:	e1c830b8 	strh	r3, [r8, #8]
  111448:	e1c530b6 	strh	r3, [r5, #6]
  11144c:	eaffff55 	b	1111a8 <find_volume+0x78>
  111450:	e5d53066 	ldrb	r3, [r5, #102]	; 0x66
  111454:	e5d51067 	ldrb	r1, [r5, #103]	; 0x67
  111458:	e5d52064 	ldrb	r2, [r5, #100]	; 0x64
  11145c:	e5d54065 	ldrb	r4, [r5, #101]	; 0x65
  111460:	e1a03803 	lsl	r3, r3, #16
  111464:	e1833c01 	orr	r3, r3, r1, lsl #24
  111468:	e1833002 	orr	r3, r3, r2
  11146c:	e1834404 	orr	r4, r3, r4, lsl #8
  111470:	eaffff9a 	b	1112e0 <find_volume+0x1b0>
  111474:	e2861001 	add	r1, r6, #1
  111478:	e1a00005 	mov	r0, r5
  11147c:	ebfffee6 	bl	11101c <move_window>
  111480:	e3500000 	cmp	r0, #0
  111484:	1affffe8 	bne	11142c <find_volume+0x2fc>
  111488:	e5d5123f 	ldrb	r1, [r5, #575]	; 0x23f
  11148c:	e30a2a55 	movw	r2, #43605	; 0xaa55
  111490:	e5d5323e 	ldrb	r3, [r5, #574]	; 0x23e
  111494:	e5c5b005 	strb	fp, [r5, #5]
  111498:	e1833401 	orr	r3, r3, r1, lsl #8
  11149c:	e1530002 	cmp	r3, r2
  1114a0:	1affffe1 	bne	11142c <find_volume+0x2fc>
  1114a4:	e5d51042 	ldrb	r1, [r5, #66]	; 0x42
  1114a8:	e3050252 	movw	r0, #21074	; 0x5252
  1114ac:	e5d53043 	ldrb	r3, [r5, #67]	; 0x43
  1114b0:	e3440161 	movt	r0, #16737	; 0x4161
  1114b4:	e5d52040 	ldrb	r2, [r5, #64]	; 0x40
  1114b8:	e5d5c041 	ldrb	ip, [r5, #65]	; 0x41
  1114bc:	e1a01801 	lsl	r1, r1, #16
  1114c0:	e1813c03 	orr	r3, r1, r3, lsl #24
  1114c4:	e1833002 	orr	r3, r3, r2
  1114c8:	e183340c 	orr	r3, r3, ip, lsl #8
  1114cc:	e1530000 	cmp	r3, r0
  1114d0:	1affffd5 	bne	11142c <find_volume+0x2fc>
  1114d4:	e5d51226 	ldrb	r1, [r5, #550]	; 0x226
  1114d8:	e3070272 	movw	r0, #29298	; 0x7272
  1114dc:	e5d53227 	ldrb	r3, [r5, #551]	; 0x227
  1114e0:	e3460141 	movt	r0, #24897	; 0x6141
  1114e4:	e5d52224 	ldrb	r2, [r5, #548]	; 0x224
  1114e8:	e5d5c225 	ldrb	ip, [r5, #549]	; 0x225
  1114ec:	e1a01801 	lsl	r1, r1, #16
  1114f0:	e1813c03 	orr	r3, r1, r3, lsl #24
  1114f4:	e1833002 	orr	r3, r3, r2
  1114f8:	e183340c 	orr	r3, r3, ip, lsl #8
  1114fc:	e1530000 	cmp	r3, r0
  111500:	1affffc9 	bne	11142c <find_volume+0x2fc>
  111504:	e5d5e22a 	ldrb	lr, [r5, #554]	; 0x22a
  111508:	e3a0c003 	mov	ip, #3
  11150c:	e5d5022e 	ldrb	r0, [r5, #558]	; 0x22e
  111510:	e5d5422b 	ldrb	r4, [r5, #555]	; 0x22b
  111514:	e5d5322f 	ldrb	r3, [r5, #559]	; 0x22f
  111518:	e1a0e80e 	lsl	lr, lr, #16
  11151c:	e5d5222c 	ldrb	r2, [r5, #556]	; 0x22c
  111520:	e1a00800 	lsl	r0, r0, #16
  111524:	e5d51228 	ldrb	r1, [r5, #552]	; 0x228
  111528:	e18eec04 	orr	lr, lr, r4, lsl #24
  11152c:	e5d56229 	ldrb	r6, [r5, #553]	; 0x229
  111530:	e5d5422d 	ldrb	r4, [r5, #557]	; 0x22d
  111534:	e1803c03 	orr	r3, r0, r3, lsl #24
  111538:	e18e1001 	orr	r1, lr, r1
  11153c:	e1833002 	orr	r3, r3, r2
  111540:	e1812406 	orr	r2, r1, r6, lsl #8
  111544:	e1833404 	orr	r3, r3, r4, lsl #8
  111548:	e5852010 	str	r2, [r5, #16]
  11154c:	e585300c 	str	r3, [r5, #12]
  111550:	eaffffb6 	b	111430 <find_volume+0x300>
  111554:	e35b0000 	cmp	fp, #0
  111558:	e2800002 	add	r0, r0, #2
  11155c:	e0867007 	add	r7, r6, r7
  111560:	e08aa006 	add	sl, sl, r6
  111564:	e5850014 	str	r0, [r5, #20]
  111568:	e5857020 	str	r7, [r5, #32]
  11156c:	e585a028 	str	sl, [r5, #40]	; 0x28
  111570:	e585601c 	str	r6, [r5, #28]
  111574:	0affff28 	beq	11121c <find_volume+0xec>
  111578:	e1a00080 	lsl	r0, r0, #1
  11157c:	e0897007 	add	r7, r9, r7
  111580:	e5857024 	str	r7, [r5, #36]	; 0x24
  111584:	e2803f7f 	add	r3, r0, #508	; 0x1fc
  111588:	e2833003 	add	r3, r3, #3
  11158c:	e15404a3 	cmp	r4, r3, lsr #9
  111590:	3affff21 	bcc	11121c <find_volume+0xec>
  111594:	e3e03000 	mvn	r3, #0
  111598:	e3e0207f 	mvn	r2, #127	; 0x7f
  11159c:	e585300c 	str	r3, [r5, #12]
  1115a0:	e3a0c002 	mov	ip, #2
  1115a4:	e5853010 	str	r3, [r5, #16]
  1115a8:	e5c52005 	strb	r2, [r5, #5]
  1115ac:	eaffff9f 	b	111430 <find_volume+0x300>
  1115b0:	e35b0000 	cmp	fp, #0
  1115b4:	e2800002 	add	r0, r0, #2
  1115b8:	e0867007 	add	r7, r6, r7
  1115bc:	e08aa006 	add	sl, sl, r6
  1115c0:	e5850014 	str	r0, [r5, #20]
  1115c4:	e5857020 	str	r7, [r5, #32]
  1115c8:	e585a028 	str	sl, [r5, #40]	; 0x28
  1115cc:	e585601c 	str	r6, [r5, #28]
  1115d0:	0affff11 	beq	11121c <find_volume+0xec>
  1115d4:	e2003001 	and	r3, r0, #1
  1115d8:	e0800080 	add	r0, r0, r0, lsl #1
  1115dc:	e2833f7f 	add	r3, r3, #508	; 0x1fc
  1115e0:	e2833003 	add	r3, r3, #3
  1115e4:	e0897007 	add	r7, r9, r7
  1115e8:	e08300a0 	add	r0, r3, r0, lsr #1
  1115ec:	e5857024 	str	r7, [r5, #36]	; 0x24
  1115f0:	e15404a0 	cmp	r4, r0, lsr #9
  1115f4:	3affff08 	bcc	11121c <find_volume+0xec>
  1115f8:	e3e03000 	mvn	r3, #0
  1115fc:	e3e0207f 	mvn	r2, #127	; 0x7f
  111600:	e585300c 	str	r3, [r5, #12]
  111604:	e3a0c001 	mov	ip, #1
  111608:	e5853010 	str	r3, [r5, #16]
  11160c:	e5c52005 	strb	r2, [r5, #5]
  111610:	eaffff86 	b	111430 <find_volume+0x300>

00111614 <get_fat.part.6>:
  111614:	e92d4070 	push	{r4, r5, r6, lr}
  111618:	e1a04000 	mov	r4, r0
  11161c:	e5d03000 	ldrb	r3, [r0]
  111620:	e1a05001 	mov	r5, r1
  111624:	e3530002 	cmp	r3, #2
  111628:	0a00002d 	beq	1116e4 <get_fat.part.6+0xd0>
  11162c:	e3530003 	cmp	r3, #3
  111630:	0a000017 	beq	111694 <get_fat.part.6+0x80>
  111634:	e3530001 	cmp	r3, #1
  111638:	0a000001 	beq	111644 <get_fat.part.6+0x30>
  11163c:	e3e00000 	mvn	r0, #0
  111640:	e8bd8070 	pop	{r4, r5, r6, pc}
  111644:	e5901020 	ldr	r1, [r0, #32]
  111648:	e08560a5 	add	r6, r5, r5, lsr #1
  11164c:	e08114a6 	add	r1, r1, r6, lsr #9
  111650:	ebfffe71 	bl	11101c <move_window>
  111654:	e3500000 	cmp	r0, #0
  111658:	1afffff7 	bne	11163c <get_fat.part.6+0x28>
  11165c:	e5941020 	ldr	r1, [r4, #32]
  111660:	e7e83056 	ubfx	r3, r6, #0, #9
  111664:	e2866001 	add	r6, r6, #1
  111668:	e0843003 	add	r3, r4, r3
  11166c:	e1a00004 	mov	r0, r4
  111670:	e5d34040 	ldrb	r4, [r3, #64]	; 0x40
  111674:	e08114a6 	add	r1, r1, r6, lsr #9
  111678:	ebfffe67 	bl	11101c <move_window>
  11167c:	e3500000 	cmp	r0, #0
  111680:	1affffed 	bne	11163c <get_fat.part.6+0x28>
  111684:	e3150001 	tst	r5, #1
  111688:	e1a00004 	mov	r0, r4
  11168c:	11a00224 	lsrne	r0, r4, #4
  111690:	e8bd8070 	pop	{r4, r5, r6, pc}
  111694:	e5901020 	ldr	r1, [r0, #32]
  111698:	e08113a5 	add	r1, r1, r5, lsr #7
  11169c:	ebfffe5e 	bl	11101c <move_window>
  1116a0:	e3500000 	cmp	r0, #0
  1116a4:	1affffe4 	bne	11163c <get_fat.part.6+0x28>
  1116a8:	e1a05105 	lsl	r5, r5, #2
  1116ac:	e2055f7f 	and	r5, r5, #508	; 0x1fc
  1116b0:	e2853040 	add	r3, r5, #64	; 0x40
  1116b4:	e0845005 	add	r5, r4, r5
  1116b8:	e0844003 	add	r4, r4, r3
  1116bc:	e5d53040 	ldrb	r3, [r5, #64]	; 0x40
  1116c0:	e5d42003 	ldrb	r2, [r4, #3]
  1116c4:	e5d41002 	ldrb	r1, [r4, #2]
  1116c8:	e5d40001 	ldrb	r0, [r4, #1]
  1116cc:	e1a02c02 	lsl	r2, r2, #24
  1116d0:	e1822801 	orr	r2, r2, r1, lsl #16
  1116d4:	e1820400 	orr	r0, r2, r0, lsl #8
  1116d8:	e1800003 	orr	r0, r0, r3
  1116dc:	e3c0020f 	bic	r0, r0, #-268435456	; 0xf0000000
  1116e0:	e8bd8070 	pop	{r4, r5, r6, pc}
  1116e4:	e5901020 	ldr	r1, [r0, #32]
  1116e8:	e0811425 	add	r1, r1, r5, lsr #8
  1116ec:	ebfffe4a 	bl	11101c <move_window>
  1116f0:	e3500000 	cmp	r0, #0
  1116f4:	1affffd0 	bne	11163c <get_fat.part.6+0x28>
  1116f8:	e1a05085 	lsl	r5, r5, #1
  1116fc:	e30031fe 	movw	r3, #510	; 0x1fe
  111700:	e0033005 	and	r3, r3, r5
  111704:	e0842003 	add	r2, r4, r3
  111708:	e5d23040 	ldrb	r3, [r2, #64]	; 0x40
  11170c:	e1a04002 	mov	r4, r2
  111710:	e5d20041 	ldrb	r0, [r2, #65]	; 0x41
  111714:	e1830400 	orr	r0, r3, r0, lsl #8
  111718:	e8bd8070 	pop	{r4, r5, r6, pc}

0011171c <dir_sdi>:
  11171c:	e5903008 	ldr	r3, [r0, #8]
  111720:	e6ff2071 	uxth	r2, r1
  111724:	e92d41f0 	push	{r4, r5, r6, r7, r8, lr}
  111728:	e1a04000 	mov	r4, r0
  11172c:	e1a06001 	mov	r6, r1
  111730:	e3530001 	cmp	r3, #1
  111734:	e1c020b6 	strh	r2, [r0, #6]
  111738:	0a000003 	beq	11174c <dir_sdi+0x30>
  11173c:	e5900000 	ldr	r0, [r0]
  111740:	e590c014 	ldr	ip, [r0, #20]
  111744:	e153000c 	cmp	r3, ip
  111748:	3a000001 	bcc	111754 <dir_sdi+0x38>
  11174c:	e3a00002 	mov	r0, #2
  111750:	e8bd81f0 	pop	{r4, r5, r6, r7, r8, pc}
  111754:	e3530000 	cmp	r3, #0
  111758:	e1a05002 	mov	r5, r2
  11175c:	1a000017 	bne	1117c0 <dir_sdi+0xa4>
  111760:	e5d01000 	ldrb	r1, [r0]
  111764:	e3510003 	cmp	r1, #3
  111768:	0a000010 	beq	1117b0 <dir_sdi+0x94>
  11176c:	e1d010b8 	ldrh	r1, [r0, #8]
  111770:	e1510002 	cmp	r1, r2
  111774:	85902024 	ldrhi	r2, [r0, #36]	; 0x24
  111778:	9afffff3 	bls	11174c <dir_sdi+0x30>
  11177c:	e3520000 	cmp	r2, #0
  111780:	e584300c 	str	r3, [r4, #12]
  111784:	0afffff0 	beq	11174c <dir_sdi+0x30>
  111788:	e206300f 	and	r3, r6, #15
  11178c:	e5941000 	ldr	r1, [r4]
  111790:	e1a03283 	lsl	r3, r3, #5
  111794:	e0826226 	add	r6, r2, r6, lsr #4
  111798:	e2833040 	add	r3, r3, #64	; 0x40
  11179c:	e5846010 	str	r6, [r4, #16]
  1117a0:	e0813003 	add	r3, r1, r3
  1117a4:	e3a00000 	mov	r0, #0
  1117a8:	e5843014 	str	r3, [r4, #20]
  1117ac:	e8bd81f0 	pop	{r4, r5, r6, r7, r8, pc}
  1117b0:	e5901024 	ldr	r1, [r0, #36]	; 0x24
  1117b4:	e3510000 	cmp	r1, #0
  1117b8:	11a03001 	movne	r3, r1
  1117bc:	0affffea 	beq	11176c <dir_sdi+0x50>
  1117c0:	e5d07002 	ldrb	r7, [r0, #2]
  1117c4:	e1a07207 	lsl	r7, r7, #4
  1117c8:	e1570002 	cmp	r7, r2
  1117cc:	9a00000f 	bls	111810 <dir_sdi+0xf4>
  1117d0:	ea000015 	b	11182c <dir_sdi+0x110>
  1117d4:	e1a01003 	mov	r1, r3
  1117d8:	e0675005 	rsb	r5, r7, r5
  1117dc:	ebffff8c 	bl	111614 <get_fat.part.6>
  1117e0:	e3700001 	cmn	r0, #1
  1117e4:	e1a03000 	mov	r3, r0
  1117e8:	e6ff5075 	uxth	r5, r5
  1117ec:	0a000016 	beq	11184c <dir_sdi+0x130>
  1117f0:	e3500001 	cmp	r0, #1
  1117f4:	9affffd4 	bls	11174c <dir_sdi+0x30>
  1117f8:	e5940000 	ldr	r0, [r4]
  1117fc:	e590c014 	ldr	ip, [r0, #20]
  111800:	e15c0003 	cmp	ip, r3
  111804:	9affffd0 	bls	11174c <dir_sdi+0x30>
  111808:	e1570005 	cmp	r7, r5
  11180c:	8a000006 	bhi	11182c <dir_sdi+0x110>
  111810:	e3530001 	cmp	r3, #1
  111814:	9affffcc 	bls	11174c <dir_sdi+0x30>
  111818:	e5902014 	ldr	r2, [r0, #20]
  11181c:	e1520003 	cmp	r2, r3
  111820:	8affffeb 	bhi	1117d4 <dir_sdi+0xb8>
  111824:	e3a00002 	mov	r0, #2
  111828:	e8bd81f0 	pop	{r4, r5, r6, r7, r8, pc}
  11182c:	e24cc002 	sub	ip, ip, #2
  111830:	e2431002 	sub	r1, r3, #2
  111834:	e151000c 	cmp	r1, ip
  111838:	2a000005 	bcs	111854 <dir_sdi+0x138>
  11183c:	e5d0c002 	ldrb	ip, [r0, #2]
  111840:	e5902028 	ldr	r2, [r0, #40]	; 0x28
  111844:	e022219c 	mla	r2, ip, r1, r2
  111848:	eaffffcb 	b	11177c <dir_sdi+0x60>
  11184c:	e3a00001 	mov	r0, #1
  111850:	e8bd81f0 	pop	{r4, r5, r6, r7, r8, pc}
  111854:	e3a00002 	mov	r0, #2
  111858:	e584300c 	str	r3, [r4, #12]
  11185c:	e8bd81f0 	pop	{r4, r5, r6, r7, r8, pc}

00111860 <dir_remove>:
  111860:	e92d4010 	push	{r4, lr}
  111864:	e1a04000 	mov	r4, r0
  111868:	e1d010b6 	ldrh	r1, [r0, #6]
  11186c:	ebffffaa 	bl	11171c <dir_sdi>
  111870:	e3500000 	cmp	r0, #0
  111874:	18bd8010 	popne	{r4, pc}
  111878:	e5941010 	ldr	r1, [r4, #16]
  11187c:	e5940000 	ldr	r0, [r4]
  111880:	ebfffde5 	bl	11101c <move_window>
  111884:	e3500000 	cmp	r0, #0
  111888:	18bd8010 	popne	{r4, pc}
  11188c:	e5943014 	ldr	r3, [r4, #20]
  111890:	e1a01000 	mov	r1, r0
  111894:	e2832020 	add	r2, r3, #32
  111898:	e4c31001 	strb	r1, [r3], #1
  11189c:	e1530002 	cmp	r3, r2
  1118a0:	1afffffc 	bne	111898 <dir_remove+0x38>
  1118a4:	e5943014 	ldr	r3, [r4, #20]
  1118a8:	e3e0101a 	mvn	r1, #26
  1118ac:	e3a02001 	mov	r2, #1
  1118b0:	e5c31000 	strb	r1, [r3]
  1118b4:	e5943000 	ldr	r3, [r4]
  1118b8:	e5c32004 	strb	r2, [r3, #4]
  1118bc:	e8bd8010 	pop	{r4, pc}

001118c0 <put_fat.part.8>:
  1118c0:	e92d47f0 	push	{r4, r5, r6, r7, r8, r9, sl, lr}
  1118c4:	e1a04000 	mov	r4, r0
  1118c8:	e5d06000 	ldrb	r6, [r0]
  1118cc:	e1a05001 	mov	r5, r1
  1118d0:	e1a08002 	mov	r8, r2
  1118d4:	e3560002 	cmp	r6, #2
  1118d8:	0a000036 	beq	1119b8 <put_fat.part.8+0xf8>
  1118dc:	e3560003 	cmp	r6, #3
  1118e0:	0a00001e 	beq	111960 <put_fat.part.8+0xa0>
  1118e4:	e3560001 	cmp	r6, #1
  1118e8:	13a07002 	movne	r7, #2
  1118ec:	0a000003 	beq	111900 <put_fat.part.8+0x40>
  1118f0:	e3a03001 	mov	r3, #1
  1118f4:	e1a00007 	mov	r0, r7
  1118f8:	e5c43004 	strb	r3, [r4, #4]
  1118fc:	e8bd87f0 	pop	{r4, r5, r6, r7, r8, r9, sl, pc}
  111900:	e5901020 	ldr	r1, [r0, #32]
  111904:	e08590a5 	add	r9, r5, r5, lsr #1
  111908:	e08114a9 	add	r1, r1, r9, lsr #9
  11190c:	ebfffdc2 	bl	11101c <move_window>
  111910:	e2507000 	subs	r7, r0, #0
  111914:	1afffff5 	bne	1118f0 <put_fat.part.8+0x30>
  111918:	e3150001 	tst	r5, #1
  11191c:	e7e83059 	ubfx	r3, r9, #0, #9
  111920:	0a000031 	beq	1119ec <put_fat.part.8+0x12c>
  111924:	e0843003 	add	r3, r4, r3
  111928:	e5941020 	ldr	r1, [r4, #32]
  11192c:	e5d32040 	ldrb	r2, [r3, #64]	; 0x40
  111930:	e2899001 	add	r9, r9, #1
  111934:	e1a00004 	mov	r0, r4
  111938:	e202200f 	and	r2, r2, #15
  11193c:	e08114a9 	add	r1, r1, r9, lsr #9
  111940:	e1822208 	orr	r2, r2, r8, lsl #4
  111944:	e5c32040 	strb	r2, [r3, #64]	; 0x40
  111948:	e5c46004 	strb	r6, [r4, #4]
  11194c:	ebfffdb2 	bl	11101c <move_window>
  111950:	e3500000 	cmp	r0, #0
  111954:	0a000036 	beq	111a34 <put_fat.part.8+0x174>
  111958:	e1a07000 	mov	r7, r0
  11195c:	eaffffe3 	b	1118f0 <put_fat.part.8+0x30>
  111960:	e5901020 	ldr	r1, [r0, #32]
  111964:	e08113a5 	add	r1, r1, r5, lsr #7
  111968:	ebfffdab 	bl	11101c <move_window>
  11196c:	e2507000 	subs	r7, r0, #0
  111970:	1affffde 	bne	1118f0 <put_fat.part.8+0x30>
  111974:	e1a05105 	lsl	r5, r5, #2
  111978:	e2055f7f 	and	r5, r5, #508	; 0x1fc
  11197c:	e2853040 	add	r3, r5, #64	; 0x40
  111980:	e0845005 	add	r5, r4, r5
  111984:	e0843003 	add	r3, r4, r3
  111988:	e5d32003 	ldrb	r2, [r3, #3]
  11198c:	e1a02c02 	lsl	r2, r2, #24
  111990:	e202220f 	and	r2, r2, #-268435456	; 0xf0000000
  111994:	e1828008 	orr	r8, r2, r8
  111998:	e1a00428 	lsr	r0, r8, #8
  11199c:	e1a01828 	lsr	r1, r8, #16
  1119a0:	e1a02c28 	lsr	r2, r8, #24
  1119a4:	e5c58040 	strb	r8, [r5, #64]	; 0x40
  1119a8:	e5c30001 	strb	r0, [r3, #1]
  1119ac:	e5c31002 	strb	r1, [r3, #2]
  1119b0:	e5c32003 	strb	r2, [r3, #3]
  1119b4:	eaffffcd 	b	1118f0 <put_fat.part.8+0x30>
  1119b8:	e5901020 	ldr	r1, [r0, #32]
  1119bc:	e0811425 	add	r1, r1, r5, lsr #8
  1119c0:	ebfffd95 	bl	11101c <move_window>
  1119c4:	e2507000 	subs	r7, r0, #0
  1119c8:	1affffc8 	bne	1118f0 <put_fat.part.8+0x30>
  1119cc:	e1a05085 	lsl	r5, r5, #1
  1119d0:	e30031fe 	movw	r3, #510	; 0x1fe
  1119d4:	e7e72458 	ubfx	r2, r8, #8, #8
  1119d8:	e0033005 	and	r3, r3, r5
  1119dc:	e0841003 	add	r1, r4, r3
  1119e0:	e5c18040 	strb	r8, [r1, #64]	; 0x40
  1119e4:	e5c12041 	strb	r2, [r1, #65]	; 0x41
  1119e8:	eaffffc0 	b	1118f0 <put_fat.part.8+0x30>
  1119ec:	e5941020 	ldr	r1, [r4, #32]
  1119f0:	e0843003 	add	r3, r4, r3
  1119f4:	e2899001 	add	r9, r9, #1
  1119f8:	e5c38040 	strb	r8, [r3, #64]	; 0x40
  1119fc:	e1a00004 	mov	r0, r4
  111a00:	e5c46004 	strb	r6, [r4, #4]
  111a04:	e08114a9 	add	r1, r1, r9, lsr #9
  111a08:	ebfffd83 	bl	11101c <move_window>
  111a0c:	e3500000 	cmp	r0, #0
  111a10:	1affffd0 	bne	111958 <put_fat.part.8+0x98>
  111a14:	e7e89059 	ubfx	r9, r9, #0, #9
  111a18:	e7e38458 	ubfx	r8, r8, #8, #4
  111a1c:	e0849009 	add	r9, r4, r9
  111a20:	e5d93040 	ldrb	r3, [r9, #64]	; 0x40
  111a24:	e3c3300f 	bic	r3, r3, #15
  111a28:	e1838008 	orr	r8, r3, r8
  111a2c:	e5c98040 	strb	r8, [r9, #64]	; 0x40
  111a30:	eaffffae 	b	1118f0 <put_fat.part.8+0x30>
  111a34:	e7e89059 	ubfx	r9, r9, #0, #9
  111a38:	e7e78258 	ubfx	r8, r8, #4, #8
  111a3c:	e0849009 	add	r9, r4, r9
  111a40:	eafffff9 	b	111a2c <put_fat.part.8+0x16c>

00111a44 <create_chain>:
  111a44:	e92d41f0 	push	{r4, r5, r6, r7, r8, lr}
  111a48:	e2517000 	subs	r7, r1, #0
  111a4c:	e1a06000 	mov	r6, r0
  111a50:	1a00001c 	bne	111ac8 <create_chain+0x84>
  111a54:	e590500c 	ldr	r5, [r0, #12]
  111a58:	e5903014 	ldr	r3, [r0, #20]
  111a5c:	e3550000 	cmp	r5, #0
  111a60:	03a05001 	moveq	r5, #1
  111a64:	1a000026 	bne	111b04 <create_chain+0xc0>
  111a68:	e1a04005 	mov	r4, r5
  111a6c:	e2844001 	add	r4, r4, #1
  111a70:	e1540003 	cmp	r4, r3
  111a74:	3a000005 	bcc	111a90 <create_chain+0x4c>
  111a78:	e3550001 	cmp	r5, #1
  111a7c:	9a000023 	bls	111b10 <create_chain+0xcc>
  111a80:	e3530002 	cmp	r3, #2
  111a84:	8a00004d 	bhi	111bc0 <create_chain+0x17c>
  111a88:	e3a00001 	mov	r0, #1
  111a8c:	e8bd81f0 	pop	{r4, r5, r6, r7, r8, pc}
  111a90:	e3540001 	cmp	r4, #1
  111a94:	9afffffb 	bls	111a88 <create_chain+0x44>
  111a98:	e1a01004 	mov	r1, r4
  111a9c:	e1a00006 	mov	r0, r6
  111aa0:	ebfffedb 	bl	111614 <get_fat.part.6>
  111aa4:	e3500000 	cmp	r0, #0
  111aa8:	0a00001a 	beq	111b18 <create_chain+0xd4>
  111aac:	e3700001 	cmn	r0, #1
  111ab0:	13500001 	cmpne	r0, #1
  111ab4:	0a000040 	beq	111bbc <create_chain+0x178>
  111ab8:	e1550004 	cmp	r5, r4
  111abc:	0a000013 	beq	111b10 <create_chain+0xcc>
  111ac0:	e5963014 	ldr	r3, [r6, #20]
  111ac4:	eaffffe8 	b	111a6c <create_chain+0x28>
  111ac8:	e3570001 	cmp	r7, #1
  111acc:	9affffed 	bls	111a88 <create_chain+0x44>
  111ad0:	e5903014 	ldr	r3, [r0, #20]
  111ad4:	e1570003 	cmp	r7, r3
  111ad8:	2affffea 	bcs	111a88 <create_chain+0x44>
  111adc:	ebfffecc 	bl	111614 <get_fat.part.6>
  111ae0:	e3500001 	cmp	r0, #1
  111ae4:	9affffe7 	bls	111a88 <create_chain+0x44>
  111ae8:	e3700001 	cmn	r0, #1
  111aec:	0a00002e 	beq	111bac <create_chain+0x168>
  111af0:	e5963014 	ldr	r3, [r6, #20]
  111af4:	e1530000 	cmp	r3, r0
  111af8:	88bd81f0 	pophi	{r4, r5, r6, r7, r8, pc}
  111afc:	e1a05007 	mov	r5, r7
  111b00:	eaffffd8 	b	111a68 <create_chain+0x24>
  111b04:	e1550003 	cmp	r5, r3
  111b08:	23a05001 	movcs	r5, #1
  111b0c:	eaffffd5 	b	111a68 <create_chain+0x24>
  111b10:	e3a00000 	mov	r0, #0
  111b14:	e8bd81f0 	pop	{r4, r5, r6, r7, r8, pc}
  111b18:	e5963014 	ldr	r3, [r6, #20]
  111b1c:	e1540003 	cmp	r4, r3
  111b20:	2affffd8 	bcs	111a88 <create_chain+0x44>
  111b24:	e3e0220f 	mvn	r2, #-268435456	; 0xf0000000
  111b28:	e1a01004 	mov	r1, r4
  111b2c:	e1a00006 	mov	r0, r6
  111b30:	ebffff62 	bl	1118c0 <put_fat.part.8>
  111b34:	e16f3f10 	clz	r3, r0
  111b38:	e3570000 	cmp	r7, #0
  111b3c:	e1a032a3 	lsr	r3, r3, #5
  111b40:	03a03000 	moveq	r3, #0
  111b44:	e3530000 	cmp	r3, #0
  111b48:	0a000008 	beq	111b70 <create_chain+0x12c>
  111b4c:	e3570001 	cmp	r7, #1
  111b50:	9affffcc 	bls	111a88 <create_chain+0x44>
  111b54:	e5963014 	ldr	r3, [r6, #20]
  111b58:	e1570003 	cmp	r7, r3
  111b5c:	2affffc9 	bcs	111a88 <create_chain+0x44>
  111b60:	e1a01007 	mov	r1, r7
  111b64:	e1a02004 	mov	r2, r4
  111b68:	e1a00006 	mov	r0, r6
  111b6c:	ebffff53 	bl	1118c0 <put_fat.part.8>
  111b70:	e3500000 	cmp	r0, #0
  111b74:	1a00000a 	bne	111ba4 <create_chain+0x160>
  111b78:	e5963010 	ldr	r3, [r6, #16]
  111b7c:	e586400c 	str	r4, [r6, #12]
  111b80:	e3730001 	cmn	r3, #1
  111b84:	0a00000a 	beq	111bb4 <create_chain+0x170>
  111b88:	e5d62005 	ldrb	r2, [r6, #5]
  111b8c:	e2433001 	sub	r3, r3, #1
  111b90:	e5863010 	str	r3, [r6, #16]
  111b94:	e1a00004 	mov	r0, r4
  111b98:	e3822001 	orr	r2, r2, #1
  111b9c:	e5c62005 	strb	r2, [r6, #5]
  111ba0:	e8bd81f0 	pop	{r4, r5, r6, r7, r8, pc}
  111ba4:	e3500001 	cmp	r0, #1
  111ba8:	1affffb6 	bne	111a88 <create_chain+0x44>
  111bac:	e3e00000 	mvn	r0, #0
  111bb0:	e8bd81f0 	pop	{r4, r5, r6, r7, r8, pc}
  111bb4:	e1a00004 	mov	r0, r4
  111bb8:	e8bd81f0 	pop	{r4, r5, r6, r7, r8, pc}
  111bbc:	e8bd81f0 	pop	{r4, r5, r6, r7, r8, pc}
  111bc0:	e3a04002 	mov	r4, #2
  111bc4:	eaffffb3 	b	111a98 <create_chain+0x54>

00111bc8 <dir_next>:
  111bc8:	e92d47f0 	push	{r4, r5, r6, r7, r8, r9, sl, lr}
  111bcc:	e1d040b6 	ldrh	r4, [r0, #6]
  111bd0:	e2844001 	add	r4, r4, #1
  111bd4:	e6ff3074 	uxth	r3, r4
  111bd8:	e3530000 	cmp	r3, #0
  111bdc:	1a000001 	bne	111be8 <dir_next+0x20>
  111be0:	e3a00004 	mov	r0, #4
  111be4:	e8bd87f0 	pop	{r4, r5, r6, r7, r8, r9, sl, pc}
  111be8:	e5903010 	ldr	r3, [r0, #16]
  111bec:	e3530000 	cmp	r3, #0
  111bf0:	0afffffa 	beq	111be0 <dir_next+0x18>
  111bf4:	e214700f 	ands	r7, r4, #15
  111bf8:	e1a06001 	mov	r6, r1
  111bfc:	e1a05000 	mov	r5, r0
  111c00:	0a000006 	beq	111c20 <dir_next+0x58>
  111c04:	e5900000 	ldr	r0, [r0]
  111c08:	e0803287 	add	r3, r0, r7, lsl #5
  111c0c:	e1c540b6 	strh	r4, [r5, #6]
  111c10:	e3a00000 	mov	r0, #0
  111c14:	e2833040 	add	r3, r3, #64	; 0x40
  111c18:	e5853014 	str	r3, [r5, #20]
  111c1c:	e8bd87f0 	pop	{r4, r5, r6, r7, r8, r9, sl, pc}
  111c20:	e590100c 	ldr	r1, [r0, #12]
  111c24:	e2833001 	add	r3, r3, #1
  111c28:	e5803010 	str	r3, [r0, #16]
  111c2c:	e5900000 	ldr	r0, [r0]
  111c30:	e3510000 	cmp	r1, #0
  111c34:	0a00000a 	beq	111c64 <dir_next+0x9c>
  111c38:	e5d03002 	ldrb	r3, [r0, #2]
  111c3c:	e2433001 	sub	r3, r3, #1
  111c40:	e0133224 	ands	r3, r3, r4, lsr #4
  111c44:	1affffef 	bne	111c08 <dir_next+0x40>
  111c48:	e3510001 	cmp	r1, #1
  111c4c:	9a000002 	bls	111c5c <dir_next+0x94>
  111c50:	e5903014 	ldr	r3, [r0, #20]
  111c54:	e1510003 	cmp	r1, r3
  111c58:	3a000005 	bcc	111c74 <dir_next+0xac>
  111c5c:	e3a00002 	mov	r0, #2
  111c60:	e8bd87f0 	pop	{r4, r5, r6, r7, r8, r9, sl, pc}
  111c64:	e1d030b8 	ldrh	r3, [r0, #8]
  111c68:	e1540003 	cmp	r4, r3
  111c6c:	2affffdb 	bcs	111be0 <dir_next+0x18>
  111c70:	eaffffe4 	b	111c08 <dir_next+0x40>
  111c74:	ebfffe66 	bl	111614 <get_fat.part.6>
  111c78:	e3500001 	cmp	r0, #1
  111c7c:	e1a08000 	mov	r8, r0
  111c80:	9afffff5 	bls	111c5c <dir_next+0x94>
  111c84:	e3700001 	cmn	r0, #1
  111c88:	0a00001c 	beq	111d00 <dir_next+0x138>
  111c8c:	e5950000 	ldr	r0, [r5]
  111c90:	e5903014 	ldr	r3, [r0, #20]
  111c94:	e1530008 	cmp	r3, r8
  111c98:	82486002 	subhi	r6, r8, #2
  111c9c:	8a00000b 	bhi	111cd0 <dir_next+0x108>
  111ca0:	e3560000 	cmp	r6, #0
  111ca4:	0affffcd 	beq	111be0 <dir_next+0x18>
  111ca8:	e595100c 	ldr	r1, [r5, #12]
  111cac:	ebffff64 	bl	111a44 <create_chain>
  111cb0:	e2508000 	subs	r8, r0, #0
  111cb4:	1a000013 	bne	111d08 <dir_next+0x140>
  111cb8:	e3a00007 	mov	r0, #7
  111cbc:	e8bd87f0 	pop	{r4, r5, r6, r7, r8, r9, sl, pc}
  111cc0:	e590202c 	ldr	r2, [r0, #44]	; 0x2c
  111cc4:	e5903014 	ldr	r3, [r0, #20]
  111cc8:	e0699002 	rsb	r9, r9, r2
  111ccc:	e580902c 	str	r9, [r0, #44]	; 0x2c
  111cd0:	e2433002 	sub	r3, r3, #2
  111cd4:	e585800c 	str	r8, [r5, #12]
  111cd8:	e1560003 	cmp	r6, r3
  111cdc:	35d02002 	ldrbcc	r2, [r0, #2]
  111ce0:	23a06000 	movcs	r6, #0
  111ce4:	35903028 	ldrcc	r3, [r0, #40]	; 0x28
  111ce8:	30263692 	mlacc	r6, r2, r6, r3
  111cec:	e5856010 	str	r6, [r5, #16]
  111cf0:	eaffffc4 	b	111c08 <dir_next+0x40>
  111cf4:	ebfffc5e 	bl	110e74 <sync_window.part.3>
  111cf8:	e3500000 	cmp	r0, #0
  111cfc:	0a000009 	beq	111d28 <dir_next+0x160>
  111d00:	e3a00001 	mov	r0, #1
  111d04:	e8bd87f0 	pop	{r4, r5, r6, r7, r8, r9, sl, pc}
  111d08:	e3580001 	cmp	r8, #1
  111d0c:	0affffd2 	beq	111c5c <dir_next+0x94>
  111d10:	e3780001 	cmn	r8, #1
  111d14:	0afffff9 	beq	111d00 <dir_next+0x138>
  111d18:	e5950000 	ldr	r0, [r5]
  111d1c:	e5d03004 	ldrb	r3, [r0, #4]
  111d20:	e3530000 	cmp	r3, #0
  111d24:	1afffff2 	bne	111cf4 <dir_next+0x12c>
  111d28:	e5952000 	ldr	r2, [r5]
  111d2c:	e3a01000 	mov	r1, #0
  111d30:	e2823040 	add	r3, r2, #64	; 0x40
  111d34:	e2822d09 	add	r2, r2, #576	; 0x240
  111d38:	e4c31001 	strb	r1, [r3], #1
  111d3c:	e1530002 	cmp	r3, r2
  111d40:	1afffffc 	bne	111d38 <dir_next+0x170>
  111d44:	e5953000 	ldr	r3, [r5]
  111d48:	e2486002 	sub	r6, r8, #2
  111d4c:	e3a09000 	mov	r9, #0
  111d50:	e3a0a001 	mov	sl, #1
  111d54:	e5932014 	ldr	r2, [r3, #20]
  111d58:	e2422002 	sub	r2, r2, #2
  111d5c:	e1560002 	cmp	r6, r2
  111d60:	35d32002 	ldrbcc	r2, [r3, #2]
  111d64:	23a02000 	movcs	r2, #0
  111d68:	35931028 	ldrcc	r1, [r3, #40]	; 0x28
  111d6c:	30221692 	mlacc	r2, r2, r6, r1
  111d70:	e583202c 	str	r2, [r3, #44]	; 0x2c
  111d74:	ea000003 	b	111d88 <dir_next+0x1c0>
  111d78:	e5952000 	ldr	r2, [r5]
  111d7c:	e592302c 	ldr	r3, [r2, #44]	; 0x2c
  111d80:	e2833001 	add	r3, r3, #1
  111d84:	e582302c 	str	r3, [r2, #44]	; 0x2c
  111d88:	e5950000 	ldr	r0, [r5]
  111d8c:	e5d03002 	ldrb	r3, [r0, #2]
  111d90:	e1590003 	cmp	r9, r3
  111d94:	2affffc9 	bcs	111cc0 <dir_next+0xf8>
  111d98:	e5c0a004 	strb	sl, [r0, #4]
  111d9c:	e2899001 	add	r9, r9, #1
  111da0:	e5950000 	ldr	r0, [r5]
  111da4:	e5d03004 	ldrb	r3, [r0, #4]
  111da8:	e3530000 	cmp	r3, #0
  111dac:	0afffff1 	beq	111d78 <dir_next+0x1b0>
  111db0:	ebfffc2f 	bl	110e74 <sync_window.part.3>
  111db4:	e3500000 	cmp	r0, #0
  111db8:	0affffee 	beq	111d78 <dir_next+0x1b0>
  111dbc:	eaffffcf 	b	111d00 <dir_next+0x138>

00111dc0 <follow_path>:
  111dc0:	e92d47f0 	push	{r4, r5, r6, r7, r8, r9, sl, lr}
  111dc4:	e1a06001 	mov	r6, r1
  111dc8:	e5d13000 	ldrb	r3, [r1]
  111dcc:	e3a04000 	mov	r4, #0
  111dd0:	e1a05000 	mov	r5, r0
  111dd4:	e5804008 	str	r4, [r0, #8]
  111dd8:	e353002f 	cmp	r3, #47	; 0x2f
  111ddc:	1353005c 	cmpne	r3, #92	; 0x5c
  111de0:	02816001 	addeq	r6, r1, #1
  111de4:	e5d63000 	ldrb	r3, [r6]
  111de8:	e353001f 	cmp	r3, #31
  111dec:	9a0000ae 	bls	1120ac <follow_path+0x2ec>
  111df0:	e5908018 	ldr	r8, [r0, #24]
  111df4:	e3a07020 	mov	r7, #32
  111df8:	e353002f 	cmp	r3, #47	; 0x2f
  111dfc:	1353005c 	cmpne	r3, #92	; 0x5c
  111e00:	05f63001 	ldrbeq	r3, [r6, #1]!
  111e04:	0afffffb 	beq	111df8 <follow_path+0x38>
  111e08:	e288200b 	add	r2, r8, #11
  111e0c:	e1a03008 	mov	r3, r8
  111e10:	e4c37001 	strb	r7, [r3], #1
  111e14:	e1530002 	cmp	r3, r2
  111e18:	1afffffc 	bne	111e10 <follow_path+0x50>
  111e1c:	e3a00000 	mov	r0, #0
  111e20:	e3a0c008 	mov	ip, #8
  111e24:	e1a02000 	mov	r2, r0
  111e28:	e1a0e000 	mov	lr, r0
  111e2c:	e7d63002 	ldrb	r3, [r6, r2]
  111e30:	e2824001 	add	r4, r2, #1
  111e34:	e353002f 	cmp	r3, #47	; 0x2f
  111e38:	13530020 	cmpne	r3, #32
  111e3c:	93a01001 	movls	r1, #1
  111e40:	83a01000 	movhi	r1, #0
  111e44:	9a00007a 	bls	112034 <follow_path+0x274>
  111e48:	e353005c 	cmp	r3, #92	; 0x5c
  111e4c:	0a00003c 	beq	111f44 <follow_path+0x184>
  111e50:	e353002e 	cmp	r3, #46	; 0x2e
  111e54:	1150000c 	cmpne	r0, ip
  111e58:	3a000004 	bcc	111e70 <follow_path+0xb0>
  111e5c:	e35c0008 	cmp	ip, #8
  111e60:	0353002e 	cmpeq	r3, #46	; 0x2e
  111e64:	0a000030 	beq	111f2c <follow_path+0x16c>
  111e68:	e3a00006 	mov	r0, #6
  111e6c:	e8bd87f0 	pop	{r4, r5, r6, r7, r8, r9, sl, pc}
  111e70:	e2839020 	add	r9, r3, #32
  111e74:	e283107f 	add	r1, r3, #127	; 0x7f
  111e78:	e6ef9079 	uxtb	r9, r9
  111e7c:	e6ef1071 	uxtb	r1, r1
  111e80:	e3130080 	tst	r3, #128	; 0x80
  111e84:	138ee003 	orrne	lr, lr, #3
  111e88:	e351001e 	cmp	r1, #30
  111e8c:	8359001c 	cmphi	r9, #28
  111e90:	8a00000e 	bhi	111ed0 <follow_path+0x110>
  111e94:	e7d61004 	ldrb	r1, [r6, r4]
  111e98:	e2822002 	add	r2, r2, #2
  111e9c:	e2219080 	eor	r9, r1, #128	; 0x80
  111ea0:	e2414040 	sub	r4, r1, #64	; 0x40
  111ea4:	e359007c 	cmp	r9, #124	; 0x7c
  111ea8:	8354003e 	cmphi	r4, #62	; 0x3e
  111eac:	8affffed 	bhi	111e68 <follow_path+0xa8>
  111eb0:	e24c4001 	sub	r4, ip, #1
  111eb4:	e1500004 	cmp	r0, r4
  111eb8:	2affffea 	bcs	111e68 <follow_path+0xa8>
  111ebc:	e1a04008 	mov	r4, r8
  111ec0:	e7e43000 	strb	r3, [r4, r0]!
  111ec4:	e2800002 	add	r0, r0, #2
  111ec8:	e5c41001 	strb	r1, [r4, #1]
  111ecc:	eaffffd6 	b	111e2c <follow_path+0x6c>
  111ed0:	e3530022 	cmp	r3, #34	; 0x22
  111ed4:	0affffe3 	beq	111e68 <follow_path+0xa8>
  111ed8:	e30712c0 	movw	r1, #29376	; 0x72c0
  111edc:	e3401011 	movt	r1, #17
  111ee0:	ea000001 	b	111eec <follow_path+0x12c>
  111ee4:	e1530002 	cmp	r3, r2
  111ee8:	0affffde 	beq	111e68 <follow_path+0xa8>
  111eec:	e5f12001 	ldrb	r2, [r1, #1]!
  111ef0:	e3520000 	cmp	r2, #0
  111ef4:	1afffffa 	bne	111ee4 <follow_path+0x124>
  111ef8:	e2432041 	sub	r2, r3, #65	; 0x41
  111efc:	e3520019 	cmp	r2, #25
  111f00:	938ee002 	orrls	lr, lr, #2
  111f04:	9a000004 	bls	111f1c <follow_path+0x15c>
  111f08:	e2432061 	sub	r2, r3, #97	; 0x61
  111f0c:	e3520019 	cmp	r2, #25
  111f10:	92433020 	subls	r3, r3, #32
  111f14:	938ee001 	orrls	lr, lr, #1
  111f18:	96ef3073 	uxtbls	r3, r3
  111f1c:	e7c83000 	strb	r3, [r8, r0]
  111f20:	e1a02004 	mov	r2, r4
  111f24:	e2800001 	add	r0, r0, #1
  111f28:	eaffffbf 	b	111e2c <follow_path+0x6c>
  111f2c:	e1a0e10e 	lsl	lr, lr, #2
  111f30:	e1a02004 	mov	r2, r4
  111f34:	e3a00008 	mov	r0, #8
  111f38:	e6efe07e 	uxtb	lr, lr
  111f3c:	e3a0c00b 	mov	ip, #11
  111f40:	eaffffb9 	b	111e2c <follow_path+0x6c>
  111f44:	e0866004 	add	r6, r6, r4
  111f48:	e3500000 	cmp	r0, #0
  111f4c:	0affffc5 	beq	111e68 <follow_path+0xa8>
  111f50:	e5d83000 	ldrb	r3, [r8]
  111f54:	e1a00005 	mov	r0, r5
  111f58:	e35300e5 	cmp	r3, #229	; 0xe5
  111f5c:	03a03005 	moveq	r3, #5
  111f60:	05c83000 	strbeq	r3, [r8]
  111f64:	e35c0008 	cmp	ip, #8
  111f68:	01a0e10e 	lsleq	lr, lr, #2
  111f6c:	06efe07e 	uxtbeq	lr, lr
  111f70:	e20e3003 	and	r3, lr, #3
  111f74:	e20ee00c 	and	lr, lr, #12
  111f78:	e3530001 	cmp	r3, #1
  111f7c:	03811010 	orreq	r1, r1, #16
  111f80:	e35e0004 	cmp	lr, #4
  111f84:	03811008 	orreq	r1, r1, #8
  111f88:	e5c8100b 	strb	r1, [r8, #11]
  111f8c:	e3a01000 	mov	r1, #0
  111f90:	ebfffde1 	bl	11171c <dir_sdi>
  111f94:	e3500000 	cmp	r0, #0
  111f98:	1a00001d 	bne	112014 <follow_path+0x254>
  111f9c:	e5951010 	ldr	r1, [r5, #16]
  111fa0:	e5950000 	ldr	r0, [r5]
  111fa4:	ebfffc1c 	bl	11101c <move_window>
  111fa8:	e3500000 	cmp	r0, #0
  111fac:	1a000018 	bne	112014 <follow_path+0x254>
  111fb0:	e5951014 	ldr	r1, [r5, #20]
  111fb4:	e5d13000 	ldrb	r3, [r1]
  111fb8:	e3530000 	cmp	r3, #0
  111fbc:	0a000021 	beq	112048 <follow_path+0x288>
  111fc0:	e5958018 	ldr	r8, [r5, #24]
  111fc4:	e5d82000 	ldrb	r2, [r8]
  111fc8:	e1530002 	cmp	r3, r2
  111fcc:	01a03001 	moveq	r3, r1
  111fd0:	01a02008 	moveq	r2, r8
  111fd4:	0281400a 	addeq	r4, r1, #10
  111fd8:	1a000008 	bne	112000 <follow_path+0x240>
  111fdc:	e5f3e001 	ldrb	lr, [r3, #1]!
  111fe0:	e5f2c001 	ldrb	ip, [r2, #1]!
  111fe4:	e15e000c 	cmp	lr, ip
  111fe8:	1a000004 	bne	112000 <follow_path+0x240>
  111fec:	e1530004 	cmp	r3, r4
  111ff0:	1afffff9 	bne	111fdc <follow_path+0x21c>
  111ff4:	e5d1300b 	ldrb	r3, [r1, #11]
  111ff8:	e3130008 	tst	r3, #8
  111ffc:	0a000014 	beq	112054 <follow_path+0x294>
  112000:	e3a01000 	mov	r1, #0
  112004:	e1a00005 	mov	r0, r5
  112008:	ebfffeee 	bl	111bc8 <dir_next>
  11200c:	e3500000 	cmp	r0, #0
  112010:	0affffe1 	beq	111f9c <follow_path+0x1dc>
  112014:	e5953018 	ldr	r3, [r5, #24]
  112018:	e3500004 	cmp	r0, #4
  11201c:	e5d3300b 	ldrb	r3, [r3, #11]
  112020:	18bd87f0 	popne	{r4, r5, r6, r7, r8, r9, sl, pc}
  112024:	e3130004 	tst	r3, #4
  112028:	13a00004 	movne	r0, #4
  11202c:	03a00005 	moveq	r0, #5
  112030:	e8bd87f0 	pop	{r4, r5, r6, r7, r8, r9, sl, pc}
  112034:	e3530021 	cmp	r3, #33	; 0x21
  112038:	e0866004 	add	r6, r6, r4
  11203c:	33a01004 	movcc	r1, #4
  112040:	23a01000 	movcs	r1, #0
  112044:	eaffffbf 	b	111f48 <follow_path+0x188>
  112048:	e5953018 	ldr	r3, [r5, #24]
  11204c:	e5d3300b 	ldrb	r3, [r3, #11]
  112050:	eafffff3 	b	112024 <follow_path+0x264>
  112054:	e5d8200b 	ldrb	r2, [r8, #11]
  112058:	e3120004 	tst	r2, #4
  11205c:	1a000016 	bne	1120bc <follow_path+0x2fc>
  112060:	e3130010 	tst	r3, #16
  112064:	0a00000e 	beq	1120a4 <follow_path+0x2e4>
  112068:	e5950000 	ldr	r0, [r5]
  11206c:	e5d1201b 	ldrb	r2, [r1, #27]
  112070:	e5d1301a 	ldrb	r3, [r1, #26]
  112074:	e5d00000 	ldrb	r0, [r0]
  112078:	e3500003 	cmp	r0, #3
  11207c:	e1833402 	orr	r3, r3, r2, lsl #8
  112080:	0a000002 	beq	112090 <follow_path+0x2d0>
  112084:	e5853008 	str	r3, [r5, #8]
  112088:	e5d63000 	ldrb	r3, [r6]
  11208c:	eaffff59 	b	111df8 <follow_path+0x38>
  112090:	e5d10015 	ldrb	r0, [r1, #21]
  112094:	e5d12014 	ldrb	r2, [r1, #20]
  112098:	e1822400 	orr	r2, r2, r0, lsl #8
  11209c:	e1833802 	orr	r3, r3, r2, lsl #16
  1120a0:	eafffff7 	b	112084 <follow_path+0x2c4>
  1120a4:	e3a00005 	mov	r0, #5
  1120a8:	e8bd87f0 	pop	{r4, r5, r6, r7, r8, r9, sl, pc}
  1120ac:	e1a01004 	mov	r1, r4
  1120b0:	ebfffd99 	bl	11171c <dir_sdi>
  1120b4:	e5854014 	str	r4, [r5, #20]
  1120b8:	e8bd87f0 	pop	{r4, r5, r6, r7, r8, r9, sl, pc}
  1120bc:	e8bd87f0 	pop	{r4, r5, r6, r7, r8, r9, sl, pc}

001120c0 <remove_chain.part.10>:
  1120c0:	e92d4070 	push	{r4, r5, r6, lr}
  1120c4:	e1a04000 	mov	r4, r0
  1120c8:	e1a05001 	mov	r5, r1
  1120cc:	e1a01005 	mov	r1, r5
  1120d0:	e1a00004 	mov	r0, r4
  1120d4:	e5943014 	ldr	r3, [r4, #20]
  1120d8:	e1550003 	cmp	r5, r3
  1120dc:	2a00001c 	bcs	112154 <remove_chain.part.10+0x94>
  1120e0:	e3550001 	cmp	r5, #1
  1120e4:	9a000009 	bls	112110 <remove_chain.part.10+0x50>
  1120e8:	ebfffd49 	bl	111614 <get_fat.part.6>
  1120ec:	e2503000 	subs	r3, r0, #0
  1120f0:	0a000017 	beq	112154 <remove_chain.part.10+0x94>
  1120f4:	e3530001 	cmp	r3, #1
  1120f8:	0a000004 	beq	112110 <remove_chain.part.10+0x50>
  1120fc:	e3730001 	cmn	r3, #1
  112100:	0a000015 	beq	11215c <remove_chain.part.10+0x9c>
  112104:	e5942014 	ldr	r2, [r4, #20]
  112108:	e1550002 	cmp	r5, r2
  11210c:	3a000001 	bcc	112118 <remove_chain.part.10+0x58>
  112110:	e3a00002 	mov	r0, #2
  112114:	e8bd8070 	pop	{r4, r5, r6, pc}
  112118:	e1a01005 	mov	r1, r5
  11211c:	e3a02000 	mov	r2, #0
  112120:	e1a00004 	mov	r0, r4
  112124:	e1a05003 	mov	r5, r3
  112128:	ebfffde4 	bl	1118c0 <put_fat.part.8>
  11212c:	e3500000 	cmp	r0, #0
  112130:	18bd8070 	popne	{r4, r5, r6, pc}
  112134:	e5943010 	ldr	r3, [r4, #16]
  112138:	e3730001 	cmn	r3, #1
  11213c:	e2833001 	add	r3, r3, #1
  112140:	15d42005 	ldrbne	r2, [r4, #5]
  112144:	15843010 	strne	r3, [r4, #16]
  112148:	13823001 	orrne	r3, r2, #1
  11214c:	15c43005 	strbne	r3, [r4, #5]
  112150:	eaffffdd 	b	1120cc <remove_chain.part.10+0xc>
  112154:	e3a00000 	mov	r0, #0
  112158:	e8bd8070 	pop	{r4, r5, r6, pc}
  11215c:	e3a00001 	mov	r0, #1
  112160:	e8bd8070 	pop	{r4, r5, r6, pc}

00112164 <dir_read.constprop.11>:
  112164:	e92d4010 	push	{r4, lr}
  112168:	e3a02004 	mov	r2, #4
  11216c:	e1a04000 	mov	r4, r0
  112170:	ea000002 	b	112180 <dir_read.constprop.11+0x1c>
  112174:	ebfffe93 	bl	111bc8 <dir_next>
  112178:	e2502000 	subs	r2, r0, #0
  11217c:	1a00001e 	bne	1121fc <dir_read.constprop.11+0x98>
  112180:	e5943010 	ldr	r3, [r4, #16]
  112184:	e2531000 	subs	r1, r3, #0
  112188:	0a000019 	beq	1121f4 <dir_read.constprop.11+0x90>
  11218c:	e5940000 	ldr	r0, [r4]
  112190:	ebfffba1 	bl	11101c <move_window>
  112194:	e2502000 	subs	r2, r0, #0
  112198:	e3a01000 	mov	r1, #0
  11219c:	e1a00004 	mov	r0, r4
  1121a0:	1a000015 	bne	1121fc <dir_read.constprop.11+0x98>
  1121a4:	e5942014 	ldr	r2, [r4, #20]
  1121a8:	e5d23000 	ldrb	r3, [r2]
  1121ac:	e1530001 	cmp	r3, r1
  1121b0:	0a000015 	beq	11220c <dir_read.constprop.11+0xa8>
  1121b4:	e35300e5 	cmp	r3, #229	; 0xe5
  1121b8:	e5d2200b 	ldrb	r2, [r2, #11]
  1121bc:	0affffec 	beq	112174 <dir_read.constprop.11+0x10>
  1121c0:	e202203f 	and	r2, r2, #63	; 0x3f
  1121c4:	e353002e 	cmp	r3, #46	; 0x2e
  1121c8:	1352000f 	cmpne	r2, #15
  1121cc:	13a03001 	movne	r3, #1
  1121d0:	03a03000 	moveq	r3, #0
  1121d4:	e3520008 	cmp	r2, #8
  1121d8:	03a03000 	moveq	r3, #0
  1121dc:	12033001 	andne	r3, r3, #1
  1121e0:	e3530000 	cmp	r3, #0
  1121e4:	0affffe2 	beq	112174 <dir_read.constprop.11+0x10>
  1121e8:	e3a02000 	mov	r2, #0
  1121ec:	e1a00002 	mov	r0, r2
  1121f0:	e8bd8010 	pop	{r4, pc}
  1121f4:	e3520000 	cmp	r2, #0
  1121f8:	0afffffa 	beq	1121e8 <dir_read.constprop.11+0x84>
  1121fc:	e3a03000 	mov	r3, #0
  112200:	e5843010 	str	r3, [r4, #16]
  112204:	e1a00002 	mov	r0, r2
  112208:	e8bd8010 	pop	{r4, pc}
  11220c:	e3a03000 	mov	r3, #0
  112210:	e3a02004 	mov	r2, #4
  112214:	e5843010 	str	r3, [r4, #16]
  112218:	eafffff9 	b	112204 <dir_read.constprop.11+0xa0>

0011221c <dir_register>:
  11221c:	e92d4010 	push	{r4, lr}
  112220:	e3a01000 	mov	r1, #0
  112224:	e1a04000 	mov	r4, r0
  112228:	ebfffd3b 	bl	11171c <dir_sdi>
  11222c:	e3500000 	cmp	r0, #0
  112230:	0a000007 	beq	112254 <dir_register+0x38>
  112234:	e3500004 	cmp	r0, #4
  112238:	03a00007 	moveq	r0, #7
  11223c:	e8bd8010 	pop	{r4, pc}
  112240:	e3a01001 	mov	r1, #1
  112244:	e1a00004 	mov	r0, r4
  112248:	ebfffe5e 	bl	111bc8 <dir_next>
  11224c:	e3500000 	cmp	r0, #0
  112250:	1afffff7 	bne	112234 <dir_register+0x18>
  112254:	e5941010 	ldr	r1, [r4, #16]
  112258:	e5940000 	ldr	r0, [r4]
  11225c:	ebfffb6e 	bl	11101c <move_window>
  112260:	e3500000 	cmp	r0, #0
  112264:	1afffff2 	bne	112234 <dir_register+0x18>
  112268:	e5943014 	ldr	r3, [r4, #20]
  11226c:	e5d33000 	ldrb	r3, [r3]
  112270:	e35300e5 	cmp	r3, #229	; 0xe5
  112274:	13530000 	cmpne	r3, #0
  112278:	1afffff0 	bne	112240 <dir_register+0x24>
  11227c:	e5941010 	ldr	r1, [r4, #16]
  112280:	e5940000 	ldr	r0, [r4]
  112284:	ebfffb64 	bl	11101c <move_window>
  112288:	e3500000 	cmp	r0, #0
  11228c:	1a000011 	bne	1122d8 <dir_register+0xbc>
  112290:	e5943014 	ldr	r3, [r4, #20]
  112294:	e1a01000 	mov	r1, r0
  112298:	e2832020 	add	r2, r3, #32
  11229c:	e4c31001 	strb	r1, [r3], #1
  1122a0:	e1530002 	cmp	r3, r2
  1122a4:	1afffffc 	bne	11229c <dir_register+0x80>
  1122a8:	e5943014 	ldr	r3, [r4, #20]
  1122ac:	e5942018 	ldr	r2, [r4, #24]
  1122b0:	e283c00b 	add	ip, r3, #11
  1122b4:	e2422001 	sub	r2, r2, #1
  1122b8:	e5f21001 	ldrb	r1, [r2, #1]!
  1122bc:	e4c31001 	strb	r1, [r3], #1
  1122c0:	e153000c 	cmp	r3, ip
  1122c4:	1afffffb 	bne	1122b8 <dir_register+0x9c>
  1122c8:	e5943000 	ldr	r3, [r4]
  1122cc:	e3a02001 	mov	r2, #1
  1122d0:	e5c32004 	strb	r2, [r3, #4]
  1122d4:	e8bd8010 	pop	{r4, pc}
  1122d8:	e8bd8010 	pop	{r4, pc}

001122dc <clust2sect>:
  1122dc:	e5903014 	ldr	r3, [r0, #20]
  1122e0:	e2411002 	sub	r1, r1, #2
  1122e4:	e2433002 	sub	r3, r3, #2
  1122e8:	e1510003 	cmp	r1, r3
  1122ec:	35d02002 	ldrbcc	r2, [r0, #2]
  1122f0:	35903028 	ldrcc	r3, [r0, #40]	; 0x28
  1122f4:	30203192 	mlacc	r0, r2, r1, r3
  1122f8:	23a00000 	movcs	r0, #0
  1122fc:	e12fff1e 	bx	lr

00112300 <get_fat>:
  112300:	e3510001 	cmp	r1, #1
  112304:	9a000003 	bls	112318 <get_fat+0x18>
  112308:	e5902014 	ldr	r2, [r0, #20]
  11230c:	e1510002 	cmp	r1, r2
  112310:	2a000000 	bcs	112318 <get_fat+0x18>
  112314:	eafffcbe 	b	111614 <get_fat.part.6>
  112318:	e3a00001 	mov	r0, #1
  11231c:	e12fff1e 	bx	lr

00112320 <put_fat>:
  112320:	e3510001 	cmp	r1, #1
  112324:	9a000002 	bls	112334 <put_fat+0x14>
  112328:	e590c014 	ldr	ip, [r0, #20]
  11232c:	e151000c 	cmp	r1, ip
  112330:	3a000001 	bcc	11233c <put_fat+0x1c>
  112334:	e3a00002 	mov	r0, #2
  112338:	e12fff1e 	bx	lr
  11233c:	eafffd5f 	b	1118c0 <put_fat.part.8>

00112340 <f_mount>:
  112340:	e92d4010 	push	{r4, lr}
  112344:	e24dd010 	sub	sp, sp, #16
  112348:	e28d3010 	add	r3, sp, #16
  11234c:	e58d0004 	str	r0, [sp, #4]
  112350:	e1a04002 	mov	r4, r2
  112354:	e5231004 	str	r1, [r3, #-4]!
  112358:	e1a00003 	mov	r0, r3
  11235c:	e58d1000 	str	r1, [sp]
  112360:	ebfffa64 	bl	110cf8 <get_ldnumber>
  112364:	e250c000 	subs	ip, r0, #0
  112368:	b3a0000b 	movlt	r0, #11
  11236c:	ba00000e 	blt	1123ac <f_mount+0x6c>
  112370:	e3003348 	movw	r3, #840	; 0x348
  112374:	e3403012 	movt	r3, #18
  112378:	e793110c 	ldr	r1, [r3, ip, lsl #2]
  11237c:	e3510000 	cmp	r1, #0
  112380:	13a02000 	movne	r2, #0
  112384:	15c12000 	strbne	r2, [r1]
  112388:	e59d1004 	ldr	r1, [sp, #4]
  11238c:	e3510000 	cmp	r1, #0
  112390:	0a00000c 	beq	1123c8 <f_mount+0x88>
  112394:	e3540001 	cmp	r4, #1
  112398:	e3a02000 	mov	r2, #0
  11239c:	e783110c 	str	r1, [r3, ip, lsl #2]
  1123a0:	11a00002 	movne	r0, r2
  1123a4:	e5c12000 	strb	r2, [r1]
  1123a8:	0a000001 	beq	1123b4 <f_mount+0x74>
  1123ac:	e28dd010 	add	sp, sp, #16
  1123b0:	e8bd8010 	pop	{r4, pc}
  1123b4:	e1a0100d 	mov	r1, sp
  1123b8:	e28d0004 	add	r0, sp, #4
  1123bc:	ebfffb5b 	bl	111130 <find_volume>
  1123c0:	e28dd010 	add	sp, sp, #16
  1123c4:	e8bd8010 	pop	{r4, pc}
  1123c8:	e1a00001 	mov	r0, r1
  1123cc:	e783110c 	str	r1, [r3, ip, lsl #2]
  1123d0:	eafffff5 	b	1123ac <f_mount+0x6c>

001123d4 <f_open>:
  1123d4:	e3500000 	cmp	r0, #0
  1123d8:	e92d41f0 	push	{r4, r5, r6, r7, r8, lr}
  1123dc:	e3a03000 	mov	r3, #0
  1123e0:	e24dd030 	sub	sp, sp, #48	; 0x30
  1123e4:	e58d1004 	str	r1, [sp, #4]
  1123e8:	e58d3014 	str	r3, [sp, #20]
  1123ec:	e58d3018 	str	r3, [sp, #24]
  1123f0:	e58d301c 	str	r3, [sp, #28]
  1123f4:	e58d3020 	str	r3, [sp, #32]
  1123f8:	e58d3024 	str	r3, [sp, #36]	; 0x24
  1123fc:	e58d3028 	str	r3, [sp, #40]	; 0x28
  112400:	e58d302c 	str	r3, [sp, #44]	; 0x2c
  112404:	0a00000a 	beq	112434 <f_open+0x60>
  112408:	e5803000 	str	r3, [r0]
  11240c:	e1a05002 	mov	r5, r2
  112410:	e1a04000 	mov	r4, r0
  112414:	e202201e 	and	r2, r2, #30
  112418:	e28d0014 	add	r0, sp, #20
  11241c:	e28d1004 	add	r1, sp, #4
  112420:	ebfffb42 	bl	111130 <find_volume>
  112424:	e3500000 	cmp	r0, #0
  112428:	0a000004 	beq	112440 <f_open+0x6c>
  11242c:	e28dd030 	add	sp, sp, #48	; 0x30
  112430:	e8bd81f0 	pop	{r4, r5, r6, r7, r8, pc}
  112434:	e3a00009 	mov	r0, #9
  112438:	e28dd030 	add	sp, sp, #48	; 0x30
  11243c:	e8bd81f0 	pop	{r4, r5, r6, r7, r8, pc}
  112440:	e28d3008 	add	r3, sp, #8
  112444:	e59d1004 	ldr	r1, [sp, #4]
  112448:	e28d0014 	add	r0, sp, #20
  11244c:	e58d302c 	str	r3, [sp, #44]	; 0x2c
  112450:	ebfffe5a 	bl	111dc0 <follow_path>
  112454:	e3500000 	cmp	r0, #0
  112458:	e205701f 	and	r7, r5, #31
  11245c:	e59d6028 	ldr	r6, [sp, #40]	; 0x28
  112460:	1a00002d 	bne	11251c <f_open+0x148>
  112464:	e3560000 	cmp	r6, #0
  112468:	0a000047 	beq	11258c <f_open+0x1b8>
  11246c:	e315001c 	tst	r5, #28
  112470:	0a000034 	beq	112548 <f_open+0x174>
  112474:	e5d6300b 	ldrb	r3, [r6, #11]
  112478:	e3130011 	tst	r3, #17
  11247c:	1a000040 	bne	112584 <f_open+0x1b0>
  112480:	e3150004 	tst	r5, #4
  112484:	13a00008 	movne	r0, #8
  112488:	1affffe7 	bne	11242c <f_open+0x58>
  11248c:	e3170008 	tst	r7, #8
  112490:	059dc014 	ldreq	ip, [sp, #20]
  112494:	1a00003e 	bne	112594 <f_open+0x1c0>
  112498:	e59c202c 	ldr	r2, [ip, #44]	; 0x2c
  11249c:	e3a03000 	mov	r3, #0
  1124a0:	e5846020 	str	r6, [r4, #32]
  1124a4:	e3a0e000 	mov	lr, #0
  1124a8:	e5c47006 	strb	r7, [r4, #6]
  1124ac:	e1a0000e 	mov	r0, lr
  1124b0:	e5c43007 	strb	r3, [r4, #7]
  1124b4:	e584201c 	str	r2, [r4, #28]
  1124b8:	e5d6201b 	ldrb	r2, [r6, #27]
  1124bc:	e5dc1000 	ldrb	r1, [ip]
  1124c0:	e5d6301a 	ldrb	r3, [r6, #26]
  1124c4:	e3510003 	cmp	r1, #3
  1124c8:	05d61015 	ldrbeq	r1, [r6, #21]
  1124cc:	e1833402 	orr	r3, r3, r2, lsl #8
  1124d0:	05d62014 	ldrbeq	r2, [r6, #20]
  1124d4:	01822401 	orreq	r2, r2, r1, lsl #8
  1124d8:	01833802 	orreq	r3, r3, r2, lsl #16
  1124dc:	e5843010 	str	r3, [r4, #16]
  1124e0:	e5d6101e 	ldrb	r1, [r6, #30]
  1124e4:	e5d6301f 	ldrb	r3, [r6, #31]
  1124e8:	e5d6201c 	ldrb	r2, [r6, #28]
  1124ec:	e5d6501d 	ldrb	r5, [r6, #29]
  1124f0:	e1a01801 	lsl	r1, r1, #16
  1124f4:	e1dc60b6 	ldrh	r6, [ip, #6]
  1124f8:	e584c000 	str	ip, [r4]
  1124fc:	e1813c03 	orr	r3, r1, r3, lsl #24
  112500:	e584e008 	str	lr, [r4, #8]
  112504:	e1c460b4 	strh	r6, [r4, #4]
  112508:	e1833002 	orr	r3, r3, r2
  11250c:	e584e018 	str	lr, [r4, #24]
  112510:	e1833405 	orr	r3, r3, r5, lsl #8
  112514:	e584300c 	str	r3, [r4, #12]
  112518:	eaffffc3 	b	11242c <f_open+0x58>
  11251c:	e315001c 	tst	r5, #28
  112520:	0affffc1 	beq	11242c <f_open+0x58>
  112524:	e3500004 	cmp	r0, #4
  112528:	1affffbf 	bne	11242c <f_open+0x58>
  11252c:	e28d0014 	add	r0, sp, #20
  112530:	e3877008 	orr	r7, r7, #8
  112534:	ebffff38 	bl	11221c <dir_register>
  112538:	e3500000 	cmp	r0, #0
  11253c:	e59d6028 	ldr	r6, [sp, #40]	; 0x28
  112540:	0affffd1 	beq	11248c <f_open+0xb8>
  112544:	eaffffb8 	b	11242c <f_open+0x58>
  112548:	e5d6300b 	ldrb	r3, [r6, #11]
  11254c:	e3130010 	tst	r3, #16
  112550:	13a00004 	movne	r0, #4
  112554:	1affffb4 	bne	11242c <f_open+0x58>
  112558:	e3150002 	tst	r5, #2
  11255c:	0a000001 	beq	112568 <f_open+0x194>
  112560:	e3130001 	tst	r3, #1
  112564:	1a000006 	bne	112584 <f_open+0x1b0>
  112568:	e2053008 	and	r3, r5, #8
  11256c:	e59dc014 	ldr	ip, [sp, #20]
  112570:	e6ef3073 	uxtb	r3, r3
  112574:	e3530000 	cmp	r3, #0
  112578:	0affffc6 	beq	112498 <f_open+0xc4>
  11257c:	e3877020 	orr	r7, r7, #32
  112580:	eaffffc4 	b	112498 <f_open+0xc4>
  112584:	e3a00007 	mov	r0, #7
  112588:	eaffffa7 	b	11242c <f_open+0x58>
  11258c:	e3a00006 	mov	r0, #6
  112590:	eaffffa5 	b	11242c <f_open+0x58>
  112594:	eb0006ae 	bl	114054 <get_fattime>
  112598:	e59dc014 	ldr	ip, [sp, #20]
  11259c:	e1a02c20 	lsr	r2, r0, #24
  1125a0:	e1a0e420 	lsr	lr, r0, #8
  1125a4:	e1a01820 	lsr	r1, r0, #16
  1125a8:	e5d6501b 	ldrb	r5, [r6, #27]
  1125ac:	e3a03000 	mov	r3, #0
  1125b0:	e5c6000e 	strb	r0, [r6, #14]
  1125b4:	e5c6300b 	strb	r3, [r6, #11]
  1125b8:	e5c6301c 	strb	r3, [r6, #28]
  1125bc:	e5c6301d 	strb	r3, [r6, #29]
  1125c0:	e5c6301e 	strb	r3, [r6, #30]
  1125c4:	e5c6301f 	strb	r3, [r6, #31]
  1125c8:	e5c6e00f 	strb	lr, [r6, #15]
  1125cc:	e5d6301a 	ldrb	r3, [r6, #26]
  1125d0:	e5c61010 	strb	r1, [r6, #16]
  1125d4:	e5c62011 	strb	r2, [r6, #17]
  1125d8:	e5dc2000 	ldrb	r2, [ip]
  1125dc:	e1835405 	orr	r5, r3, r5, lsl #8
  1125e0:	e3520003 	cmp	r2, #3
  1125e4:	05d63014 	ldrbeq	r3, [r6, #20]
  1125e8:	05d62015 	ldrbeq	r2, [r6, #21]
  1125ec:	01833402 	orreq	r3, r3, r2, lsl #8
  1125f0:	e3a02001 	mov	r2, #1
  1125f4:	01855803 	orreq	r5, r5, r3, lsl #16
  1125f8:	e3a03000 	mov	r3, #0
  1125fc:	e5c6301a 	strb	r3, [r6, #26]
  112600:	e3550000 	cmp	r5, #0
  112604:	e5c6301b 	strb	r3, [r6, #27]
  112608:	e5c63014 	strb	r3, [r6, #20]
  11260c:	e5c63015 	strb	r3, [r6, #21]
  112610:	e5cc2004 	strb	r2, [ip, #4]
  112614:	0affffd8 	beq	11257c <f_open+0x1a8>
  112618:	e1550002 	cmp	r5, r2
  11261c:	e59c802c 	ldr	r8, [ip, #44]	; 0x2c
  112620:	9a000002 	bls	112630 <f_open+0x25c>
  112624:	e59c3014 	ldr	r3, [ip, #20]
  112628:	e1530005 	cmp	r3, r5
  11262c:	8a000001 	bhi	112638 <f_open+0x264>
  112630:	e3a00002 	mov	r0, #2
  112634:	eaffff7c 	b	11242c <f_open+0x58>
  112638:	e1a0000c 	mov	r0, ip
  11263c:	e1a01005 	mov	r1, r5
  112640:	ebfffe9e 	bl	1120c0 <remove_chain.part.10>
  112644:	e3500000 	cmp	r0, #0
  112648:	1affff77 	bne	11242c <f_open+0x58>
  11264c:	e59d0014 	ldr	r0, [sp, #20]
  112650:	e2455001 	sub	r5, r5, #1
  112654:	e1a01008 	mov	r1, r8
  112658:	e580500c 	str	r5, [r0, #12]
  11265c:	ebfffa6e 	bl	11101c <move_window>
  112660:	e3500000 	cmp	r0, #0
  112664:	059dc014 	ldreq	ip, [sp, #20]
  112668:	0affffc3 	beq	11257c <f_open+0x1a8>
  11266c:	eaffff6e 	b	11242c <f_open+0x58>

00112670 <f_read>:
  112670:	e92d4ff8 	push	{r3, r4, r5, r6, r7, r8, r9, sl, fp, lr}
  112674:	e1a08003 	mov	r8, r3
  112678:	e3a03000 	mov	r3, #0
  11267c:	e1a04001 	mov	r4, r1
  112680:	e1a06002 	mov	r6, r2
  112684:	e1a05000 	mov	r5, r0
  112688:	e5883000 	str	r3, [r8]
  11268c:	ebfff9b8 	bl	110d74 <validate>
  112690:	e3500000 	cmp	r0, #0
  112694:	18bd8ff8 	popne	{r3, r4, r5, r6, r7, r8, r9, sl, fp, pc}
  112698:	e5d50007 	ldrb	r0, [r5, #7]
  11269c:	e3500000 	cmp	r0, #0
  1126a0:	18bd8ff8 	popne	{r3, r4, r5, r6, r7, r8, r9, sl, fp, pc}
  1126a4:	e5d53006 	ldrb	r3, [r5, #6]
  1126a8:	e3130001 	tst	r3, #1
  1126ac:	0a00004f 	beq	1127f0 <f_read+0x180>
  1126b0:	e5951008 	ldr	r1, [r5, #8]
  1126b4:	e595300c 	ldr	r3, [r5, #12]
  1126b8:	e0613003 	rsb	r3, r1, r3
  1126bc:	e1560003 	cmp	r6, r3
  1126c0:	21a06003 	movcs	r6, r3
  1126c4:	e3560000 	cmp	r6, #0
  1126c8:	0a000087 	beq	1128ec <f_read+0x27c>
  1126cc:	e7e8c051 	ubfx	ip, r1, #0, #9
  1126d0:	e2857040 	add	r7, r5, #64	; 0x40
  1126d4:	e35c0000 	cmp	ip, #0
  1126d8:	1a000032 	bne	1127a8 <f_read+0x138>
  1126dc:	e5950000 	ldr	r0, [r5]
  1126e0:	e5d03002 	ldrb	r3, [r0, #2]
  1126e4:	e2433001 	sub	r3, r3, #1
  1126e8:	e00334a1 	and	r3, r3, r1, lsr #9
  1126ec:	e213b0ff 	ands	fp, r3, #255	; 0xff
  1126f0:	0a000049 	beq	11281c <f_read+0x1ac>
  1126f4:	e5953014 	ldr	r3, [r5, #20]
  1126f8:	e5902014 	ldr	r2, [r0, #20]
  1126fc:	e2433002 	sub	r3, r3, #2
  112700:	e2422002 	sub	r2, r2, #2
  112704:	e1530002 	cmp	r3, r2
  112708:	2a000040 	bcs	112810 <f_read+0x1a0>
  11270c:	e5d02002 	ldrb	r2, [r0, #2]
  112710:	e590a028 	ldr	sl, [r0, #40]	; 0x28
  112714:	e033a392 	mlas	r3, r2, r3, sl
  112718:	0a00003c 	beq	112810 <f_read+0x1a0>
  11271c:	e1b094a6 	lsrs	r9, r6, #9
  112720:	e083a00b 	add	sl, r3, fp
  112724:	0a000047 	beq	112848 <f_read+0x1d8>
  112728:	e08b3009 	add	r3, fp, r9
  11272c:	e5d00001 	ldrb	r0, [r0, #1]
  112730:	e1530002 	cmp	r3, r2
  112734:	e1a01004 	mov	r1, r4
  112738:	806b9002 	rsbhi	r9, fp, r2
  11273c:	e1a0200a 	mov	r2, sl
  112740:	e6ef3079 	uxtb	r3, r9
  112744:	eb00060a 	bl	113f74 <disk_read>
  112748:	e3500000 	cmp	r0, #0
  11274c:	1a000058 	bne	1128b4 <f_read+0x244>
  112750:	e5d53006 	ldrb	r3, [r5, #6]
  112754:	e3130040 	tst	r3, #64	; 0x40
  112758:	0a000003 	beq	11276c <f_read+0xfc>
  11275c:	e5953018 	ldr	r3, [r5, #24]
  112760:	e06a3003 	rsb	r3, sl, r3
  112764:	e1590003 	cmp	r9, r3
  112768:	8a000054 	bhi	1128c0 <f_read+0x250>
  11276c:	e5953008 	ldr	r3, [r5, #8]
  112770:	e1a09489 	lsl	r9, r9, #9
  112774:	e0844009 	add	r4, r4, r9
  112778:	e0696006 	rsb	r6, r9, r6
  11277c:	e0833009 	add	r3, r3, r9
  112780:	e5853008 	str	r3, [r5, #8]
  112784:	e5983000 	ldr	r3, [r8]
  112788:	e0839009 	add	r9, r3, r9
  11278c:	e5889000 	str	r9, [r8]
  112790:	e3560000 	cmp	r6, #0
  112794:	0a000054 	beq	1128ec <f_read+0x27c>
  112798:	e5951008 	ldr	r1, [r5, #8]
  11279c:	e7e8c051 	ubfx	ip, r1, #0, #9
  1127a0:	e35c0000 	cmp	ip, #0
  1127a4:	0affffcc 	beq	1126dc <f_read+0x6c>
  1127a8:	e26c1c02 	rsb	r1, ip, #512	; 0x200
  1127ac:	e085c00c 	add	ip, r5, ip
  1127b0:	e1510006 	cmp	r1, r6
  1127b4:	e28cc03f 	add	ip, ip, #63	; 0x3f
  1127b8:	21a01006 	movcs	r1, r6
  1127bc:	e0842001 	add	r2, r4, r1
  1127c0:	e5fc3001 	ldrb	r3, [ip, #1]!
  1127c4:	e4c43001 	strb	r3, [r4], #1
  1127c8:	e1540002 	cmp	r4, r2
  1127cc:	1afffffb 	bne	1127c0 <f_read+0x150>
  1127d0:	e5953008 	ldr	r3, [r5, #8]
  1127d4:	e0616006 	rsb	r6, r1, r6
  1127d8:	e0833001 	add	r3, r3, r1
  1127dc:	e5853008 	str	r3, [r5, #8]
  1127e0:	e5983000 	ldr	r3, [r8]
  1127e4:	e0831001 	add	r1, r3, r1
  1127e8:	e5881000 	str	r1, [r8]
  1127ec:	eaffffe7 	b	112790 <f_read+0x120>
  1127f0:	e3a00007 	mov	r0, #7
  1127f4:	e8bd8ff8 	pop	{r3, r4, r5, r6, r7, r8, r9, sl, fp, pc}
  1127f8:	e5951014 	ldr	r1, [r5, #20]
  1127fc:	e3510001 	cmp	r1, #1
  112800:	9a000002 	bls	112810 <f_read+0x1a0>
  112804:	e5903014 	ldr	r3, [r0, #20]
  112808:	e1510003 	cmp	r1, r3
  11280c:	3a000033 	bcc	1128e0 <f_read+0x270>
  112810:	e3a00002 	mov	r0, #2
  112814:	e5c50007 	strb	r0, [r5, #7]
  112818:	e8bd8ff8 	pop	{r3, r4, r5, r6, r7, r8, r9, sl, fp, pc}
  11281c:	e3510000 	cmp	r1, #0
  112820:	1afffff4 	bne	1127f8 <f_read+0x188>
  112824:	e5952010 	ldr	r2, [r5, #16]
  112828:	e3520001 	cmp	r2, #1
  11282c:	9afffff7 	bls	112810 <f_read+0x1a0>
  112830:	e3720001 	cmn	r2, #1
  112834:	0a00001e 	beq	1128b4 <f_read+0x244>
  112838:	e5950000 	ldr	r0, [r5]
  11283c:	e1a03002 	mov	r3, r2
  112840:	e5852014 	str	r2, [r5, #20]
  112844:	eaffffab 	b	1126f8 <f_read+0x88>
  112848:	e5952018 	ldr	r2, [r5, #24]
  11284c:	e152000a 	cmp	r2, sl
  112850:	0a000013 	beq	1128a4 <f_read+0x234>
  112854:	e5d53006 	ldrb	r3, [r5, #6]
  112858:	e3130040 	tst	r3, #64	; 0x40
  11285c:	0a000009 	beq	112888 <f_read+0x218>
  112860:	e5d00001 	ldrb	r0, [r0, #1]
  112864:	e3a03001 	mov	r3, #1
  112868:	e1a01007 	mov	r1, r7
  11286c:	eb0005fb 	bl	114060 <disk_write>
  112870:	e3500000 	cmp	r0, #0
  112874:	1a00000e 	bne	1128b4 <f_read+0x244>
  112878:	e5d53006 	ldrb	r3, [r5, #6]
  11287c:	e5950000 	ldr	r0, [r5]
  112880:	e3c33040 	bic	r3, r3, #64	; 0x40
  112884:	e5c53006 	strb	r3, [r5, #6]
  112888:	e5d00001 	ldrb	r0, [r0, #1]
  11288c:	e3a03001 	mov	r3, #1
  112890:	e1a0200a 	mov	r2, sl
  112894:	e1a01007 	mov	r1, r7
  112898:	eb0005b5 	bl	113f74 <disk_read>
  11289c:	e3500000 	cmp	r0, #0
  1128a0:	1a000003 	bne	1128b4 <f_read+0x244>
  1128a4:	e595c008 	ldr	ip, [r5, #8]
  1128a8:	e585a018 	str	sl, [r5, #24]
  1128ac:	e7e8c05c 	ubfx	ip, ip, #0, #9
  1128b0:	eaffffbc 	b	1127a8 <f_read+0x138>
  1128b4:	e3a00001 	mov	r0, #1
  1128b8:	e5c50007 	strb	r0, [r5, #7]
  1128bc:	e8bd8ff8 	pop	{r3, r4, r5, r6, r7, r8, r9, sl, fp, pc}
  1128c0:	e0843483 	add	r3, r4, r3, lsl #9
  1128c4:	e285203f 	add	r2, r5, #63	; 0x3f
  1128c8:	e2830c02 	add	r0, r3, #512	; 0x200
  1128cc:	e5f21001 	ldrb	r1, [r2, #1]!
  1128d0:	e4c31001 	strb	r1, [r3], #1
  1128d4:	e1530000 	cmp	r3, r0
  1128d8:	1afffffb 	bne	1128cc <f_read+0x25c>
  1128dc:	eaffffa2 	b	11276c <f_read+0xfc>
  1128e0:	ebfffb4b 	bl	111614 <get_fat.part.6>
  1128e4:	e1a02000 	mov	r2, r0
  1128e8:	eaffffce 	b	112828 <f_read+0x1b8>
  1128ec:	e3a00000 	mov	r0, #0
  1128f0:	e8bd8ff8 	pop	{r3, r4, r5, r6, r7, r8, r9, sl, fp, pc}

001128f4 <f_write>:
  1128f4:	e92d4ff8 	push	{r3, r4, r5, r6, r7, r8, r9, sl, fp, lr}
  1128f8:	e1a06003 	mov	r6, r3
  1128fc:	e3a03000 	mov	r3, #0
  112900:	e1a08001 	mov	r8, r1
  112904:	e1a05002 	mov	r5, r2
  112908:	e1a04000 	mov	r4, r0
  11290c:	e5863000 	str	r3, [r6]
  112910:	ebfff917 	bl	110d74 <validate>
  112914:	e3500000 	cmp	r0, #0
  112918:	18bd8ff8 	popne	{r3, r4, r5, r6, r7, r8, r9, sl, fp, pc}
  11291c:	e5d40007 	ldrb	r0, [r4, #7]
  112920:	e3500000 	cmp	r0, #0
  112924:	18bd8ff8 	popne	{r3, r4, r5, r6, r7, r8, r9, sl, fp, pc}
  112928:	e5d43006 	ldrb	r3, [r4, #6]
  11292c:	e3130002 	tst	r3, #2
  112930:	0a000009 	beq	11295c <f_write+0x68>
  112934:	e5942008 	ldr	r2, [r4, #8]
  112938:	e1750002 	cmn	r5, r2
  11293c:	3a000008 	bcc	112964 <f_write+0x70>
  112940:	e594100c 	ldr	r1, [r4, #12]
  112944:	e3833020 	orr	r3, r3, #32
  112948:	e3a00000 	mov	r0, #0
  11294c:	e5c43006 	strb	r3, [r4, #6]
  112950:	e1510002 	cmp	r1, r2
  112954:	3584200c 	strcc	r2, [r4, #12]
  112958:	e8bd8ff8 	pop	{r3, r4, r5, r6, r7, r8, r9, sl, fp, pc}
  11295c:	e3a00007 	mov	r0, #7
  112960:	e8bd8ff8 	pop	{r3, r4, r5, r6, r7, r8, r9, sl, fp, pc}
  112964:	e3550000 	cmp	r5, #0
  112968:	0afffff4 	beq	112940 <f_write+0x4c>
  11296c:	e2847040 	add	r7, r4, #64	; 0x40
  112970:	e7e8c052 	ubfx	ip, r2, #0, #9
  112974:	e35c0000 	cmp	ip, #0
  112978:	1a000030 	bne	112a40 <f_write+0x14c>
  11297c:	e5941000 	ldr	r1, [r4]
  112980:	e5d13002 	ldrb	r3, [r1, #2]
  112984:	e2433001 	sub	r3, r3, #1
  112988:	e00334a2 	and	r3, r3, r2, lsr #9
  11298c:	e213b0ff 	ands	fp, r3, #255	; 0xff
  112990:	1a00000d 	bne	1129cc <f_write+0xd8>
  112994:	e3520000 	cmp	r2, #0
  112998:	1a00007c 	bne	112b90 <f_write+0x29c>
  11299c:	e5940010 	ldr	r0, [r4, #16]
  1129a0:	e3500000 	cmp	r0, #0
  1129a4:	0a000081 	beq	112bb0 <f_write+0x2bc>
  1129a8:	e3500001 	cmp	r0, #1
  1129ac:	0a00000f 	beq	1129f0 <f_write+0xfc>
  1129b0:	e3700001 	cmn	r0, #1
  1129b4:	0a000072 	beq	112b84 <f_write+0x290>
  1129b8:	e5943010 	ldr	r3, [r4, #16]
  1129bc:	e5941000 	ldr	r1, [r4]
  1129c0:	e5840014 	str	r0, [r4, #20]
  1129c4:	e3530000 	cmp	r3, #0
  1129c8:	05840010 	streq	r0, [r4, #16]
  1129cc:	e5d43006 	ldrb	r3, [r4, #6]
  1129d0:	e3130040 	tst	r3, #64	; 0x40
  1129d4:	1a00005e 	bne	112b54 <f_write+0x260>
  1129d8:	e5943014 	ldr	r3, [r4, #20]
  1129dc:	e5912014 	ldr	r2, [r1, #20]
  1129e0:	e2433002 	sub	r3, r3, #2
  1129e4:	e2422002 	sub	r2, r2, #2
  1129e8:	e1530002 	cmp	r3, r2
  1129ec:	3a00002e 	bcc	112aac <f_write+0x1b8>
  1129f0:	e3a00002 	mov	r0, #2
  1129f4:	e5c40007 	strb	r0, [r4, #7]
  1129f8:	e8bd8ff8 	pop	{r3, r4, r5, r6, r7, r8, r9, sl, fp, pc}
  1129fc:	e5943018 	ldr	r3, [r4, #24]
  112a00:	e594c008 	ldr	ip, [r4, #8]
  112a04:	e153000a 	cmp	r3, sl
  112a08:	0a00000a 	beq	112a38 <f_write+0x144>
  112a0c:	e594300c 	ldr	r3, [r4, #12]
  112a10:	e15c0003 	cmp	ip, r3
  112a14:	2a000007 	bcs	112a38 <f_write+0x144>
  112a18:	e5d10001 	ldrb	r0, [r1, #1]
  112a1c:	e3a03001 	mov	r3, #1
  112a20:	e1a0200a 	mov	r2, sl
  112a24:	e1a01007 	mov	r1, r7
  112a28:	eb000551 	bl	113f74 <disk_read>
  112a2c:	e3500000 	cmp	r0, #0
  112a30:	1a000053 	bne	112b84 <f_write+0x290>
  112a34:	e594c008 	ldr	ip, [r4, #8]
  112a38:	e7e8c05c 	ubfx	ip, ip, #0, #9
  112a3c:	e584a018 	str	sl, [r4, #24]
  112a40:	e26c0c02 	rsb	r0, ip, #512	; 0x200
  112a44:	e28cc040 	add	ip, ip, #64	; 0x40
  112a48:	e1500005 	cmp	r0, r5
  112a4c:	e084c00c 	add	ip, r4, ip
  112a50:	21a00005 	movcs	r0, r5
  112a54:	e2483001 	sub	r3, r8, #1
  112a58:	e08c1000 	add	r1, ip, r0
  112a5c:	e5f32001 	ldrb	r2, [r3, #1]!
  112a60:	e4cc2001 	strb	r2, [ip], #1
  112a64:	e15c0001 	cmp	ip, r1
  112a68:	1afffffb 	bne	112a5c <f_write+0x168>
  112a6c:	e5d42006 	ldrb	r2, [r4, #6]
  112a70:	e0888000 	add	r8, r8, r0
  112a74:	e5943008 	ldr	r3, [r4, #8]
  112a78:	e0605005 	rsb	r5, r0, r5
  112a7c:	e3822040 	orr	r2, r2, #64	; 0x40
  112a80:	e0833000 	add	r3, r3, r0
  112a84:	e5c42006 	strb	r2, [r4, #6]
  112a88:	e5843008 	str	r3, [r4, #8]
  112a8c:	e5963000 	ldr	r3, [r6]
  112a90:	e0830000 	add	r0, r3, r0
  112a94:	e5860000 	str	r0, [r6]
  112a98:	e3550000 	cmp	r5, #0
  112a9c:	e5942008 	ldr	r2, [r4, #8]
  112aa0:	1affffb2 	bne	112970 <f_write+0x7c>
  112aa4:	e5d43006 	ldrb	r3, [r4, #6]
  112aa8:	eaffffa4 	b	112940 <f_write+0x4c>
  112aac:	e5d12002 	ldrb	r2, [r1, #2]
  112ab0:	e591a028 	ldr	sl, [r1, #40]	; 0x28
  112ab4:	e033a392 	mlas	r3, r2, r3, sl
  112ab8:	0affffcc 	beq	1129f0 <f_write+0xfc>
  112abc:	e1b094a5 	lsrs	r9, r5, #9
  112ac0:	e08ba003 	add	sl, fp, r3
  112ac4:	0affffcc 	beq	1129fc <f_write+0x108>
  112ac8:	e08b3009 	add	r3, fp, r9
  112acc:	e5d10001 	ldrb	r0, [r1, #1]
  112ad0:	e1530002 	cmp	r3, r2
  112ad4:	e1a01008 	mov	r1, r8
  112ad8:	806b9002 	rsbhi	r9, fp, r2
  112adc:	e1a0200a 	mov	r2, sl
  112ae0:	e6ef3079 	uxtb	r3, r9
  112ae4:	eb00055d 	bl	114060 <disk_write>
  112ae8:	e3500000 	cmp	r0, #0
  112aec:	1a000024 	bne	112b84 <f_write+0x290>
  112af0:	e5943018 	ldr	r3, [r4, #24]
  112af4:	e06a3003 	rsb	r3, sl, r3
  112af8:	e1590003 	cmp	r9, r3
  112afc:	9a00000a 	bls	112b2c <f_write+0x238>
  112b00:	e0882483 	add	r2, r8, r3, lsl #9
  112b04:	e2840d09 	add	r0, r4, #576	; 0x240
  112b08:	e1a03007 	mov	r3, r7
  112b0c:	e2422001 	sub	r2, r2, #1
  112b10:	e5f21001 	ldrb	r1, [r2, #1]!
  112b14:	e4c31001 	strb	r1, [r3], #1
  112b18:	e1530000 	cmp	r3, r0
  112b1c:	1afffffb 	bne	112b10 <f_write+0x21c>
  112b20:	e5d43006 	ldrb	r3, [r4, #6]
  112b24:	e3c33040 	bic	r3, r3, #64	; 0x40
  112b28:	e5c43006 	strb	r3, [r4, #6]
  112b2c:	e5943008 	ldr	r3, [r4, #8]
  112b30:	e1a09489 	lsl	r9, r9, #9
  112b34:	e0888009 	add	r8, r8, r9
  112b38:	e0695005 	rsb	r5, r9, r5
  112b3c:	e0833009 	add	r3, r3, r9
  112b40:	e5843008 	str	r3, [r4, #8]
  112b44:	e5963000 	ldr	r3, [r6]
  112b48:	e0839009 	add	r9, r3, r9
  112b4c:	e5869000 	str	r9, [r6]
  112b50:	eaffffd0 	b	112a98 <f_write+0x1a4>
  112b54:	e5d10001 	ldrb	r0, [r1, #1]
  112b58:	e3a03001 	mov	r3, #1
  112b5c:	e5942018 	ldr	r2, [r4, #24]
  112b60:	e1a01007 	mov	r1, r7
  112b64:	eb00053d 	bl	114060 <disk_write>
  112b68:	e3500000 	cmp	r0, #0
  112b6c:	1a000004 	bne	112b84 <f_write+0x290>
  112b70:	e5d43006 	ldrb	r3, [r4, #6]
  112b74:	e5941000 	ldr	r1, [r4]
  112b78:	e3c33040 	bic	r3, r3, #64	; 0x40
  112b7c:	e5c43006 	strb	r3, [r4, #6]
  112b80:	eaffff94 	b	1129d8 <f_write+0xe4>
  112b84:	e3a00001 	mov	r0, #1
  112b88:	e5c40007 	strb	r0, [r4, #7]
  112b8c:	e8bd8ff8 	pop	{r3, r4, r5, r6, r7, r8, r9, sl, fp, pc}
  112b90:	e1a00001 	mov	r0, r1
  112b94:	e5941014 	ldr	r1, [r4, #20]
  112b98:	ebfffba9 	bl	111a44 <create_chain>
  112b9c:	e3500000 	cmp	r0, #0
  112ba0:	1affff80 	bne	1129a8 <f_write+0xb4>
  112ba4:	e5942008 	ldr	r2, [r4, #8]
  112ba8:	e5d43006 	ldrb	r3, [r4, #6]
  112bac:	eaffff63 	b	112940 <f_write+0x4c>
  112bb0:	e1a00001 	mov	r0, r1
  112bb4:	e1a0100b 	mov	r1, fp
  112bb8:	ebfffba1 	bl	111a44 <create_chain>
  112bbc:	eafffff6 	b	112b9c <f_write+0x2a8>

00112bc0 <f_sync>:
  112bc0:	e92d4070 	push	{r4, r5, r6, lr}
  112bc4:	e1a05000 	mov	r5, r0
  112bc8:	ebfff869 	bl	110d74 <validate>
  112bcc:	e3500000 	cmp	r0, #0
  112bd0:	18bd8070 	popne	{r4, r5, r6, pc}
  112bd4:	e5d52006 	ldrb	r2, [r5, #6]
  112bd8:	e2023020 	and	r3, r2, #32
  112bdc:	e21330ff 	ands	r3, r3, #255	; 0xff
  112be0:	0a000013 	beq	112c34 <f_sync+0x74>
  112be4:	e3120040 	tst	r2, #64	; 0x40
  112be8:	0a00000a 	beq	112c18 <f_sync+0x58>
  112bec:	e5950000 	ldr	r0, [r5]
  112bf0:	e3a03001 	mov	r3, #1
  112bf4:	e5952018 	ldr	r2, [r5, #24]
  112bf8:	e2851040 	add	r1, r5, #64	; 0x40
  112bfc:	e5d00001 	ldrb	r0, [r0, #1]
  112c00:	eb000516 	bl	114060 <disk_write>
  112c04:	e3500000 	cmp	r0, #0
  112c08:	1a000033 	bne	112cdc <f_sync+0x11c>
  112c0c:	e5d53006 	ldrb	r3, [r5, #6]
  112c10:	e3c33040 	bic	r3, r3, #64	; 0x40
  112c14:	e5c53006 	strb	r3, [r5, #6]
  112c18:	e595101c 	ldr	r1, [r5, #28]
  112c1c:	e5950000 	ldr	r0, [r5]
  112c20:	ebfff8fd 	bl	11101c <move_window>
  112c24:	e2504000 	subs	r4, r0, #0
  112c28:	0a000003 	beq	112c3c <f_sync+0x7c>
  112c2c:	e1a00004 	mov	r0, r4
  112c30:	e8bd8070 	pop	{r4, r5, r6, pc}
  112c34:	e1a00003 	mov	r0, r3
  112c38:	e8bd8070 	pop	{r4, r5, r6, pc}
  112c3c:	e5956020 	ldr	r6, [r5, #32]
  112c40:	e5d6300b 	ldrb	r3, [r6, #11]
  112c44:	e3833020 	orr	r3, r3, #32
  112c48:	e5c6300b 	strb	r3, [r6, #11]
  112c4c:	e595300c 	ldr	r3, [r5, #12]
  112c50:	e5c6301c 	strb	r3, [r6, #28]
  112c54:	e595300c 	ldr	r3, [r5, #12]
  112c58:	e1a03423 	lsr	r3, r3, #8
  112c5c:	e5c6301d 	strb	r3, [r6, #29]
  112c60:	e1d530be 	ldrh	r3, [r5, #14]
  112c64:	e5c6301e 	strb	r3, [r6, #30]
  112c68:	e5d5300f 	ldrb	r3, [r5, #15]
  112c6c:	e5c6301f 	strb	r3, [r6, #31]
  112c70:	e5953010 	ldr	r3, [r5, #16]
  112c74:	e5c6301a 	strb	r3, [r6, #26]
  112c78:	e1a01423 	lsr	r1, r3, #8
  112c7c:	e1a02823 	lsr	r2, r3, #16
  112c80:	e1a03c23 	lsr	r3, r3, #24
  112c84:	e5c6101b 	strb	r1, [r6, #27]
  112c88:	e5c62014 	strb	r2, [r6, #20]
  112c8c:	e5c63015 	strb	r3, [r6, #21]
  112c90:	eb0004ef 	bl	114054 <get_fattime>
  112c94:	e1a02820 	lsr	r2, r0, #16
  112c98:	e1a03c20 	lsr	r3, r0, #24
  112c9c:	e1a0c420 	lsr	ip, r0, #8
  112ca0:	e5c60016 	strb	r0, [r6, #22]
  112ca4:	e5c64012 	strb	r4, [r6, #18]
  112ca8:	e3a01001 	mov	r1, #1
  112cac:	e5c64013 	strb	r4, [r6, #19]
  112cb0:	e5c6c017 	strb	ip, [r6, #23]
  112cb4:	e5c62018 	strb	r2, [r6, #24]
  112cb8:	e5c63019 	strb	r3, [r6, #25]
  112cbc:	e5d53006 	ldrb	r3, [r5, #6]
  112cc0:	e5952000 	ldr	r2, [r5]
  112cc4:	e3c33020 	bic	r3, r3, #32
  112cc8:	e5c53006 	strb	r3, [r5, #6]
  112ccc:	e5c21004 	strb	r1, [r2, #4]
  112cd0:	e5950000 	ldr	r0, [r5]
  112cd4:	e8bd4070 	pop	{r4, r5, r6, lr}
  112cd8:	eafff888 	b	110f00 <sync_fs>
  112cdc:	e3a00001 	mov	r0, #1
  112ce0:	e8bd8070 	pop	{r4, r5, r6, pc}

00112ce4 <f_close>:
  112ce4:	e92d4010 	push	{r4, lr}
  112ce8:	e1a04000 	mov	r4, r0
  112cec:	ebffffb3 	bl	112bc0 <f_sync>
  112cf0:	e3500000 	cmp	r0, #0
  112cf4:	18bd8010 	popne	{r4, pc}
  112cf8:	e1a00004 	mov	r0, r4
  112cfc:	ebfff81c 	bl	110d74 <validate>
  112d00:	e3500000 	cmp	r0, #0
  112d04:	05840000 	streq	r0, [r4]
  112d08:	e8bd8010 	pop	{r4, pc}

00112d0c <f_lseek>:
  112d0c:	e92d47f0 	push	{r4, r5, r6, r7, r8, r9, sl, lr}
  112d10:	e1a05001 	mov	r5, r1
  112d14:	e1a04000 	mov	r4, r0
  112d18:	ebfff815 	bl	110d74 <validate>
  112d1c:	e3500000 	cmp	r0, #0
  112d20:	18bd87f0 	popne	{r4, r5, r6, r7, r8, r9, sl, pc}
  112d24:	e5d40007 	ldrb	r0, [r4, #7]
  112d28:	e3500000 	cmp	r0, #0
  112d2c:	18bd87f0 	popne	{r4, r5, r6, r7, r8, r9, sl, pc}
  112d30:	e594300c 	ldr	r3, [r4, #12]
  112d34:	e1550003 	cmp	r5, r3
  112d38:	9a000002 	bls	112d48 <f_lseek+0x3c>
  112d3c:	e5d42006 	ldrb	r2, [r4, #6]
  112d40:	e3120002 	tst	r2, #2
  112d44:	01a05003 	moveq	r5, r3
  112d48:	e3550000 	cmp	r5, #0
  112d4c:	e3a03000 	mov	r3, #0
  112d50:	e5942008 	ldr	r2, [r4, #8]
  112d54:	e5843008 	str	r3, [r4, #8]
  112d58:	0a000023 	beq	112dec <f_lseek+0xe0>
  112d5c:	e5948000 	ldr	r8, [r4]
  112d60:	e1520003 	cmp	r2, r3
  112d64:	e5d86002 	ldrb	r6, [r8, #2]
  112d68:	e1a06486 	lsl	r6, r6, #9
  112d6c:	0a000009 	beq	112d98 <f_lseek+0x8c>
  112d70:	e2427001 	sub	r7, r2, #1
  112d74:	e1a01006 	mov	r1, r6
  112d78:	e2450001 	sub	r0, r5, #1
  112d7c:	ebffc455 	bl	103ed8 <__aeabi_uidiv>
  112d80:	e1a01006 	mov	r1, r6
  112d84:	e1a09000 	mov	r9, r0
  112d88:	e1a00007 	mov	r0, r7
  112d8c:	ebffc451 	bl	103ed8 <__aeabi_uidiv>
  112d90:	e1590000 	cmp	r9, r0
  112d94:	2a000070 	bcs	112f5c <f_lseek+0x250>
  112d98:	e5941010 	ldr	r1, [r4, #16]
  112d9c:	e3510000 	cmp	r1, #0
  112da0:	0a000062 	beq	112f30 <f_lseek+0x224>
  112da4:	e5841014 	str	r1, [r4, #20]
  112da8:	e3510000 	cmp	r1, #0
  112dac:	0a000035 	beq	112e88 <f_lseek+0x17c>
  112db0:	e1550006 	cmp	r5, r6
  112db4:	85940000 	ldrhi	r0, [r4]
  112db8:	9a000072 	bls	112f88 <f_lseek+0x27c>
  112dbc:	e5d43006 	ldrb	r3, [r4, #6]
  112dc0:	e0665005 	rsb	r5, r6, r5
  112dc4:	e3130002 	tst	r3, #2
  112dc8:	1a000009 	bne	112df4 <f_lseek+0xe8>
  112dcc:	e3510001 	cmp	r1, #1
  112dd0:	9a000002 	bls	112de0 <f_lseek+0xd4>
  112dd4:	e5903014 	ldr	r3, [r0, #20]
  112dd8:	e1530001 	cmp	r3, r1
  112ddc:	8a000026 	bhi	112e7c <f_lseek+0x170>
  112de0:	e3a00002 	mov	r0, #2
  112de4:	e5c40007 	strb	r0, [r4, #7]
  112de8:	e8bd87f0 	pop	{r4, r5, r6, r7, r8, r9, sl, pc}
  112dec:	e1a00005 	mov	r0, r5
  112df0:	e8bd87f0 	pop	{r4, r5, r6, r7, r8, r9, sl, pc}
  112df4:	ebfffb12 	bl	111a44 <create_chain>
  112df8:	e2501000 	subs	r1, r0, #0
  112dfc:	0a000060 	beq	112f84 <f_lseek+0x278>
  112e00:	e3710001 	cmn	r1, #1
  112e04:	0a000051 	beq	112f50 <f_lseek+0x244>
  112e08:	e3510001 	cmp	r1, #1
  112e0c:	9afffff3 	bls	112de0 <f_lseek+0xd4>
  112e10:	e5940000 	ldr	r0, [r4]
  112e14:	e5903014 	ldr	r3, [r0, #20]
  112e18:	e1510003 	cmp	r1, r3
  112e1c:	2affffef 	bcs	112de0 <f_lseek+0xd4>
  112e20:	e5943008 	ldr	r3, [r4, #8]
  112e24:	e1560005 	cmp	r6, r5
  112e28:	e5841014 	str	r1, [r4, #20]
  112e2c:	e0863003 	add	r3, r6, r3
  112e30:	e5843008 	str	r3, [r4, #8]
  112e34:	3affffe0 	bcc	112dbc <f_lseek+0xb0>
  112e38:	e7e80055 	ubfx	r0, r5, #0, #9
  112e3c:	e0833005 	add	r3, r3, r5
  112e40:	e3500000 	cmp	r0, #0
  112e44:	e5843008 	str	r3, [r4, #8]
  112e48:	0a00004b 	beq	112f7c <f_lseek+0x270>
  112e4c:	e5940000 	ldr	r0, [r4]
  112e50:	e2412002 	sub	r2, r1, #2
  112e54:	e5901014 	ldr	r1, [r0, #20]
  112e58:	e2411002 	sub	r1, r1, #2
  112e5c:	e1520001 	cmp	r2, r1
  112e60:	2affffde 	bcs	112de0 <f_lseek+0xd4>
  112e64:	e5d01002 	ldrb	r1, [r0, #2]
  112e68:	e5900028 	ldr	r0, [r0, #40]	; 0x28
  112e6c:	e0320291 	mlas	r2, r1, r2, r0
  112e70:	108254a5 	addne	r5, r2, r5, lsr #9
  112e74:	1a000005 	bne	112e90 <f_lseek+0x184>
  112e78:	eaffffd8 	b	112de0 <f_lseek+0xd4>
  112e7c:	ebfff9e4 	bl	111614 <get_fat.part.6>
  112e80:	e1a01000 	mov	r1, r0
  112e84:	eaffffdd 	b	112e00 <f_lseek+0xf4>
  112e88:	e5943008 	ldr	r3, [r4, #8]
  112e8c:	e1a05001 	mov	r5, r1
  112e90:	e7e82053 	ubfx	r2, r3, #0, #9
  112e94:	e3520000 	cmp	r2, #0
  112e98:	0a000035 	beq	112f74 <f_lseek+0x268>
  112e9c:	e5942018 	ldr	r2, [r4, #24]
  112ea0:	e1520005 	cmp	r2, r5
  112ea4:	0a000032 	beq	112f74 <f_lseek+0x268>
  112ea8:	e5d43006 	ldrb	r3, [r4, #6]
  112eac:	e3130040 	tst	r3, #64	; 0x40
  112eb0:	02846040 	addeq	r6, r4, #64	; 0x40
  112eb4:	0a00000a 	beq	112ee4 <f_lseek+0x1d8>
  112eb8:	e5940000 	ldr	r0, [r4]
  112ebc:	e2846040 	add	r6, r4, #64	; 0x40
  112ec0:	e1a01006 	mov	r1, r6
  112ec4:	e3a03001 	mov	r3, #1
  112ec8:	e5d00001 	ldrb	r0, [r0, #1]
  112ecc:	eb000463 	bl	114060 <disk_write>
  112ed0:	e3500000 	cmp	r0, #0
  112ed4:	1a00001d 	bne	112f50 <f_lseek+0x244>
  112ed8:	e5d43006 	ldrb	r3, [r4, #6]
  112edc:	e3c33040 	bic	r3, r3, #64	; 0x40
  112ee0:	e5c43006 	strb	r3, [r4, #6]
  112ee4:	e5940000 	ldr	r0, [r4]
  112ee8:	e1a01006 	mov	r1, r6
  112eec:	e3a03001 	mov	r3, #1
  112ef0:	e1a02005 	mov	r2, r5
  112ef4:	e5d00001 	ldrb	r0, [r0, #1]
  112ef8:	eb00041d 	bl	113f74 <disk_read>
  112efc:	e3500000 	cmp	r0, #0
  112f00:	1a000012 	bne	112f50 <f_lseek+0x244>
  112f04:	e5943008 	ldr	r3, [r4, #8]
  112f08:	e594200c 	ldr	r2, [r4, #12]
  112f0c:	e5845018 	str	r5, [r4, #24]
  112f10:	e1520003 	cmp	r2, r3
  112f14:	2a00001d 	bcs	112f90 <f_lseek+0x284>
  112f18:	e5d42006 	ldrb	r2, [r4, #6]
  112f1c:	e3a00000 	mov	r0, #0
  112f20:	e584300c 	str	r3, [r4, #12]
  112f24:	e3823020 	orr	r3, r2, #32
  112f28:	e5c43006 	strb	r3, [r4, #6]
  112f2c:	e8bd87f0 	pop	{r4, r5, r6, r7, r8, r9, sl, pc}
  112f30:	e1a00008 	mov	r0, r8
  112f34:	ebfffac2 	bl	111a44 <create_chain>
  112f38:	e3500001 	cmp	r0, #1
  112f3c:	e1a01000 	mov	r1, r0
  112f40:	0affffa6 	beq	112de0 <f_lseek+0xd4>
  112f44:	e3700001 	cmn	r0, #1
  112f48:	15840010 	strne	r0, [r4, #16]
  112f4c:	1affff94 	bne	112da4 <f_lseek+0x98>
  112f50:	e3a00001 	mov	r0, #1
  112f54:	e5c40007 	strb	r0, [r4, #7]
  112f58:	e8bd87f0 	pop	{r4, r5, r6, r7, r8, r9, sl, pc}
  112f5c:	e2663000 	rsb	r3, r6, #0
  112f60:	e5941014 	ldr	r1, [r4, #20]
  112f64:	e0077003 	and	r7, r7, r3
  112f68:	e5847008 	str	r7, [r4, #8]
  112f6c:	e0675005 	rsb	r5, r7, r5
  112f70:	eaffff8c 	b	112da8 <f_lseek+0x9c>
  112f74:	e594200c 	ldr	r2, [r4, #12]
  112f78:	eaffffe4 	b	112f10 <f_lseek+0x204>
  112f7c:	e1a05000 	mov	r5, r0
  112f80:	eaffffc2 	b	112e90 <f_lseek+0x184>
  112f84:	e1a05006 	mov	r5, r6
  112f88:	e5943008 	ldr	r3, [r4, #8]
  112f8c:	eaffffa9 	b	112e38 <f_lseek+0x12c>
  112f90:	e3a00000 	mov	r0, #0
  112f94:	e8bd87f0 	pop	{r4, r5, r6, r7, r8, r9, sl, pc}

00112f98 <f_opendir>:
  112f98:	e3500000 	cmp	r0, #0
  112f9c:	e92d4010 	push	{r4, lr}
  112fa0:	e24dd018 	sub	sp, sp, #24
  112fa4:	e58d1004 	str	r1, [sp, #4]
  112fa8:	0a00000a 	beq	112fd8 <f_opendir+0x40>
  112fac:	e1a04000 	mov	r4, r0
  112fb0:	e3a02000 	mov	r2, #0
  112fb4:	e28d1004 	add	r1, sp, #4
  112fb8:	e28d0008 	add	r0, sp, #8
  112fbc:	ebfff85b 	bl	111130 <find_volume>
  112fc0:	e3500000 	cmp	r0, #0
  112fc4:	0a000006 	beq	112fe4 <f_opendir+0x4c>
  112fc8:	e3a03000 	mov	r3, #0
  112fcc:	e5843000 	str	r3, [r4]
  112fd0:	e28dd018 	add	sp, sp, #24
  112fd4:	e8bd8010 	pop	{r4, pc}
  112fd8:	e3a00009 	mov	r0, #9
  112fdc:	e28dd018 	add	sp, sp, #24
  112fe0:	e8bd8010 	pop	{r4, pc}
  112fe4:	e59d3008 	ldr	r3, [sp, #8]
  112fe8:	e28d200c 	add	r2, sp, #12
  112fec:	e5842018 	str	r2, [r4, #24]
  112ff0:	e1a00004 	mov	r0, r4
  112ff4:	e59d1004 	ldr	r1, [sp, #4]
  112ff8:	e5843000 	str	r3, [r4]
  112ffc:	ebfffb6f 	bl	111dc0 <follow_path>
  113000:	e3500000 	cmp	r0, #0
  113004:	1a00001a 	bne	113074 <f_opendir+0xdc>
  113008:	e5943014 	ldr	r3, [r4, #20]
  11300c:	e3530000 	cmp	r3, #0
  113010:	0a00001b 	beq	113084 <f_opendir+0xec>
  113014:	e5d3200b 	ldrb	r2, [r3, #11]
  113018:	e3120010 	tst	r2, #16
  11301c:	0a000016 	beq	11307c <f_opendir+0xe4>
  113020:	e59d1008 	ldr	r1, [sp, #8]
  113024:	e5d3001b 	ldrb	r0, [r3, #27]
  113028:	e5d3201a 	ldrb	r2, [r3, #26]
  11302c:	e5d1c000 	ldrb	ip, [r1]
  113030:	e35c0003 	cmp	ip, #3
  113034:	e1822400 	orr	r2, r2, r0, lsl #8
  113038:	05d30015 	ldrbeq	r0, [r3, #21]
  11303c:	05d33014 	ldrbeq	r3, [r3, #20]
  113040:	01833400 	orreq	r3, r3, r0, lsl #8
  113044:	01822803 	orreq	r2, r2, r3, lsl #16
  113048:	e5842008 	str	r2, [r4, #8]
  11304c:	e1d130b6 	ldrh	r3, [r1, #6]
  113050:	e1a00004 	mov	r0, r4
  113054:	e3a01000 	mov	r1, #0
  113058:	e1c430b4 	strh	r3, [r4, #4]
  11305c:	ebfff9ae 	bl	11171c <dir_sdi>
  113060:	e3500004 	cmp	r0, #4
  113064:	0a000004 	beq	11307c <f_opendir+0xe4>
  113068:	e3500000 	cmp	r0, #0
  11306c:	0affffd7 	beq	112fd0 <f_opendir+0x38>
  113070:	eaffffd4 	b	112fc8 <f_opendir+0x30>
  113074:	e3500004 	cmp	r0, #4
  113078:	1affffd2 	bne	112fc8 <f_opendir+0x30>
  11307c:	e3a00005 	mov	r0, #5
  113080:	eaffffd0 	b	112fc8 <f_opendir+0x30>
  113084:	e59d1008 	ldr	r1, [sp, #8]
  113088:	eaffffef 	b	11304c <f_opendir+0xb4>

0011308c <f_closedir>:
  11308c:	e92d4010 	push	{r4, lr}
  113090:	e1a04000 	mov	r4, r0
  113094:	ebfff736 	bl	110d74 <validate>
  113098:	e3500000 	cmp	r0, #0
  11309c:	05840000 	streq	r0, [r4]
  1130a0:	e8bd8010 	pop	{r4, pc}

001130a4 <f_readdir>:
  1130a4:	e92d4070 	push	{r4, r5, r6, lr}
  1130a8:	e24dd010 	sub	sp, sp, #16
  1130ac:	e1a06001 	mov	r6, r1
  1130b0:	e1a05000 	mov	r5, r0
  1130b4:	ebfff72e 	bl	110d74 <validate>
  1130b8:	e2504000 	subs	r4, r0, #0
  1130bc:	1a00000a 	bne	1130ec <f_readdir+0x48>
  1130c0:	e3560000 	cmp	r6, #0
  1130c4:	0a000018 	beq	11312c <f_readdir+0x88>
  1130c8:	e28d3004 	add	r3, sp, #4
  1130cc:	e1a00005 	mov	r0, r5
  1130d0:	e5853018 	str	r3, [r5, #24]
  1130d4:	ebfffc22 	bl	112164 <dir_read.constprop.11>
  1130d8:	e3500004 	cmp	r0, #4
  1130dc:	0a000005 	beq	1130f8 <f_readdir+0x54>
  1130e0:	e3500000 	cmp	r0, #0
  1130e4:	0a000014 	beq	11313c <f_readdir+0x98>
  1130e8:	e1a04000 	mov	r4, r0
  1130ec:	e1a00004 	mov	r0, r4
  1130f0:	e28dd010 	add	sp, sp, #16
  1130f4:	e8bd8070 	pop	{r4, r5, r6, pc}
  1130f8:	e1a00004 	mov	r0, r4
  1130fc:	e5854010 	str	r4, [r5, #16]
  113100:	e1a02006 	mov	r2, r6
  113104:	e2851014 	add	r1, r5, #20
  113108:	ebfff72e 	bl	110dc8 <get_fileinfo.isra.1>
  11310c:	e3a01000 	mov	r1, #0
  113110:	e1a00005 	mov	r0, r5
  113114:	ebfffaab 	bl	111bc8 <dir_next>
  113118:	e3500004 	cmp	r0, #4
  11311c:	03a03000 	moveq	r3, #0
  113120:	05853010 	streq	r3, [r5, #16]
  113124:	1affffef 	bne	1130e8 <f_readdir+0x44>
  113128:	eaffffef 	b	1130ec <f_readdir+0x48>
  11312c:	e1a01004 	mov	r1, r4
  113130:	e1a00005 	mov	r0, r5
  113134:	ebfff978 	bl	11171c <dir_sdi>
  113138:	eaffffea 	b	1130e8 <f_readdir+0x44>
  11313c:	e5950010 	ldr	r0, [r5, #16]
  113140:	eaffffee 	b	113100 <f_readdir+0x5c>

00113144 <f_stat>:
  113144:	e92d4030 	push	{r4, r5, lr}
  113148:	e3a03000 	mov	r3, #0
  11314c:	e24dd034 	sub	sp, sp, #52	; 0x34
  113150:	e1a05001 	mov	r5, r1
  113154:	e1a02003 	mov	r2, r3
  113158:	e28d1004 	add	r1, sp, #4
  11315c:	e58d0004 	str	r0, [sp, #4]
  113160:	e28d0014 	add	r0, sp, #20
  113164:	e58d3014 	str	r3, [sp, #20]
  113168:	e58d3018 	str	r3, [sp, #24]
  11316c:	e58d301c 	str	r3, [sp, #28]
  113170:	e58d3020 	str	r3, [sp, #32]
  113174:	e58d3024 	str	r3, [sp, #36]	; 0x24
  113178:	e58d3028 	str	r3, [sp, #40]	; 0x28
  11317c:	e58d302c 	str	r3, [sp, #44]	; 0x2c
  113180:	ebfff7ea 	bl	111130 <find_volume>
  113184:	e2504000 	subs	r4, r0, #0
  113188:	0a000002 	beq	113198 <f_stat+0x54>
  11318c:	e1a00004 	mov	r0, r4
  113190:	e28dd034 	add	sp, sp, #52	; 0x34
  113194:	e8bd8030 	pop	{r4, r5, pc}
  113198:	e28d3008 	add	r3, sp, #8
  11319c:	e28d0014 	add	r0, sp, #20
  1131a0:	e59d1004 	ldr	r1, [sp, #4]
  1131a4:	e58d302c 	str	r3, [sp, #44]	; 0x2c
  1131a8:	ebfffb04 	bl	111dc0 <follow_path>
  1131ac:	e2504000 	subs	r4, r0, #0
  1131b0:	1afffff5 	bne	11318c <f_stat+0x48>
  1131b4:	e59d3028 	ldr	r3, [sp, #40]	; 0x28
  1131b8:	e3530000 	cmp	r3, #0
  1131bc:	03a04006 	moveq	r4, #6
  1131c0:	0afffff1 	beq	11318c <f_stat+0x48>
  1131c4:	e3550000 	cmp	r5, #0
  1131c8:	0affffef 	beq	11318c <f_stat+0x48>
  1131cc:	e59d0024 	ldr	r0, [sp, #36]	; 0x24
  1131d0:	e1a02005 	mov	r2, r5
  1131d4:	e28d1028 	add	r1, sp, #40	; 0x28
  1131d8:	ebfff6fa 	bl	110dc8 <get_fileinfo.isra.1>
  1131dc:	e1a00004 	mov	r0, r4
  1131e0:	e28dd034 	add	sp, sp, #52	; 0x34
  1131e4:	e8bd8030 	pop	{r4, r5, pc}

001131e8 <f_getfree>:
  1131e8:	e92d47f0 	push	{r4, r5, r6, r7, r8, r9, sl, lr}
  1131ec:	e24dd008 	sub	sp, sp, #8
  1131f0:	e1a04002 	mov	r4, r2
  1131f4:	e28d3008 	add	r3, sp, #8
  1131f8:	e1a07001 	mov	r7, r1
  1131fc:	e3a02000 	mov	r2, #0
  113200:	e5230004 	str	r0, [r3, #-4]!
  113204:	e1a00004 	mov	r0, r4
  113208:	e1a01003 	mov	r1, r3
  11320c:	ebfff7c7 	bl	111130 <find_volume>
  113210:	e2506000 	subs	r6, r0, #0
  113214:	e5945000 	ldr	r5, [r4]
  113218:	1a000037 	bne	1132fc <f_getfree+0x114>
  11321c:	e5954014 	ldr	r4, [r5, #20]
  113220:	e5953010 	ldr	r3, [r5, #16]
  113224:	e2442002 	sub	r2, r4, #2
  113228:	e1530002 	cmp	r3, r2
  11322c:	95873000 	strls	r3, [r7]
  113230:	9a000031 	bls	1132fc <f_getfree+0x114>
  113234:	e5d59000 	ldrb	r9, [r5]
  113238:	e3590001 	cmp	r9, #1
  11323c:	0a000031 	beq	113308 <f_getfree+0x120>
  113240:	e595a020 	ldr	sl, [r5, #32]
  113244:	e1a03006 	mov	r3, r6
  113248:	e1a00006 	mov	r0, r6
  11324c:	e1a08006 	mov	r8, r6
  113250:	ea000010 	b	113298 <f_getfree+0xb0>
  113254:	e3590002 	cmp	r9, #2
  113258:	0a00001a 	beq	1132c8 <f_getfree+0xe0>
  11325c:	e5d3c002 	ldrb	ip, [r3, #2]
  113260:	e2400004 	sub	r0, r0, #4
  113264:	e5d32003 	ldrb	r2, [r3, #3]
  113268:	e2833004 	add	r3, r3, #4
  11326c:	e5531004 	ldrb	r1, [r3, #-4]
  113270:	e553e003 	ldrb	lr, [r3, #-3]
  113274:	e1a0c80c 	lsl	ip, ip, #16
  113278:	e18c2c02 	orr	r2, ip, r2, lsl #24
  11327c:	e1822001 	orr	r2, r2, r1
  113280:	e182240e 	orr	r2, r2, lr, lsl #8
  113284:	e3c2220f 	bic	r2, r2, #-268435456	; 0xf0000000
  113288:	e3520000 	cmp	r2, #0
  11328c:	02888001 	addeq	r8, r8, #1
  113290:	e2544001 	subs	r4, r4, #1
  113294:	0a000013 	beq	1132e8 <f_getfree+0x100>
  113298:	e3500000 	cmp	r0, #0
  11329c:	1affffec 	bne	113254 <f_getfree+0x6c>
  1132a0:	e1a0100a 	mov	r1, sl
  1132a4:	e1a00005 	mov	r0, r5
  1132a8:	ebfff75b 	bl	11101c <move_window>
  1132ac:	e3500000 	cmp	r0, #0
  1132b0:	e28aa001 	add	sl, sl, #1
  1132b4:	1a000028 	bne	11335c <f_getfree+0x174>
  1132b8:	e3590002 	cmp	r9, #2
  1132bc:	e2853040 	add	r3, r5, #64	; 0x40
  1132c0:	e3a00c02 	mov	r0, #512	; 0x200
  1132c4:	1affffe4 	bne	11325c <f_getfree+0x74>
  1132c8:	e5d31001 	ldrb	r1, [r3, #1]
  1132cc:	e2400002 	sub	r0, r0, #2
  1132d0:	e5d32000 	ldrb	r2, [r3]
  1132d4:	e2833002 	add	r3, r3, #2
  1132d8:	e1922401 	orrs	r2, r2, r1, lsl #8
  1132dc:	02888001 	addeq	r8, r8, #1
  1132e0:	e2544001 	subs	r4, r4, #1
  1132e4:	1affffeb 	bne	113298 <f_getfree+0xb0>
  1132e8:	e5d53005 	ldrb	r3, [r5, #5]
  1132ec:	e5858010 	str	r8, [r5, #16]
  1132f0:	e3833001 	orr	r3, r3, #1
  1132f4:	e5c53005 	strb	r3, [r5, #5]
  1132f8:	e5878000 	str	r8, [r7]
  1132fc:	e1a00006 	mov	r0, r6
  113300:	e28dd008 	add	sp, sp, #8
  113304:	e8bd87f0 	pop	{r4, r5, r6, r7, r8, r9, sl, pc}
  113308:	e3a09002 	mov	r9, #2
  11330c:	e1a08006 	mov	r8, r6
  113310:	e1540009 	cmp	r4, r9
  113314:	e1a01009 	mov	r1, r9
  113318:	e1a00005 	mov	r0, r5
  11331c:	e2899001 	add	r9, r9, #1
  113320:	9a00000b 	bls	113354 <f_getfree+0x16c>
  113324:	ebfff8ba 	bl	111614 <get_fat.part.6>
  113328:	e3700001 	cmn	r0, #1
  11332c:	0a00000c 	beq	113364 <f_getfree+0x17c>
  113330:	e3500001 	cmp	r0, #1
  113334:	0a000006 	beq	113354 <f_getfree+0x16c>
  113338:	e5954014 	ldr	r4, [r5, #20]
  11333c:	e3500000 	cmp	r0, #0
  113340:	02888001 	addeq	r8, r8, #1
  113344:	e1590004 	cmp	r9, r4
  113348:	2affffe6 	bcs	1132e8 <f_getfree+0x100>
  11334c:	e3590001 	cmp	r9, #1
  113350:	8affffee 	bhi	113310 <f_getfree+0x128>
  113354:	e3a06002 	mov	r6, #2
  113358:	eaffffe2 	b	1132e8 <f_getfree+0x100>
  11335c:	e1a06000 	mov	r6, r0
  113360:	eaffffe0 	b	1132e8 <f_getfree+0x100>
  113364:	e3a06001 	mov	r6, #1
  113368:	eaffffde 	b	1132e8 <f_getfree+0x100>

0011336c <f_truncate>:
  11336c:	e92d4070 	push	{r4, r5, r6, lr}
  113370:	e1a04000 	mov	r4, r0
  113374:	ebfff67e 	bl	110d74 <validate>
  113378:	e2505000 	subs	r5, r0, #0
  11337c:	1a000003 	bne	113390 <f_truncate+0x24>
  113380:	e5d43007 	ldrb	r3, [r4, #7]
  113384:	e3530000 	cmp	r3, #0
  113388:	11a05003 	movne	r5, r3
  11338c:	0a000001 	beq	113398 <f_truncate+0x2c>
  113390:	e1a00005 	mov	r0, r5
  113394:	e8bd8070 	pop	{r4, r5, r6, pc}
  113398:	e5d43006 	ldrb	r3, [r4, #6]
  11339c:	e3130002 	tst	r3, #2
  1133a0:	03a05007 	moveq	r5, #7
  1133a4:	0afffff9 	beq	113390 <f_truncate+0x24>
  1133a8:	e5942008 	ldr	r2, [r4, #8]
  1133ac:	e594100c 	ldr	r1, [r4, #12]
  1133b0:	e1510002 	cmp	r1, r2
  1133b4:	9afffff5 	bls	113390 <f_truncate+0x24>
  1133b8:	e3520000 	cmp	r2, #0
  1133bc:	e3833020 	orr	r3, r3, #32
  1133c0:	e5c43006 	strb	r3, [r4, #6]
  1133c4:	e584200c 	str	r2, [r4, #12]
  1133c8:	1a00001a 	bne	113438 <f_truncate+0xcc>
  1133cc:	e5941010 	ldr	r1, [r4, #16]
  1133d0:	e5940000 	ldr	r0, [r4]
  1133d4:	e3510001 	cmp	r1, #1
  1133d8:	9a000002 	bls	1133e8 <f_truncate+0x7c>
  1133dc:	e5903014 	ldr	r3, [r0, #20]
  1133e0:	e1510003 	cmp	r1, r3
  1133e4:	3a000022 	bcc	113474 <f_truncate+0x108>
  1133e8:	e3a00002 	mov	r0, #2
  1133ec:	e3a03000 	mov	r3, #0
  1133f0:	e5843010 	str	r3, [r4, #16]
  1133f4:	e3500000 	cmp	r0, #0
  1133f8:	1a00001b 	bne	11346c <f_truncate+0x100>
  1133fc:	e5d43006 	ldrb	r3, [r4, #6]
  113400:	e3130040 	tst	r3, #64	; 0x40
  113404:	0affffe1 	beq	113390 <f_truncate+0x24>
  113408:	e5940000 	ldr	r0, [r4]
  11340c:	e3a03001 	mov	r3, #1
  113410:	e5942018 	ldr	r2, [r4, #24]
  113414:	e2841040 	add	r1, r4, #64	; 0x40
  113418:	e5d00001 	ldrb	r0, [r0, #1]
  11341c:	eb00030f 	bl	114060 <disk_write>
  113420:	e3500000 	cmp	r0, #0
  113424:	1a00000e 	bne	113464 <f_truncate+0xf8>
  113428:	e5d43006 	ldrb	r3, [r4, #6]
  11342c:	e3c33040 	bic	r3, r3, #64	; 0x40
  113430:	e5c43006 	strb	r3, [r4, #6]
  113434:	eaffffd5 	b	113390 <f_truncate+0x24>
  113438:	e5941014 	ldr	r1, [r4, #20]
  11343c:	e5940000 	ldr	r0, [r4]
  113440:	e3510001 	cmp	r1, #1
  113444:	9a000002 	bls	113454 <f_truncate+0xe8>
  113448:	e5903014 	ldr	r3, [r0, #20]
  11344c:	e1530001 	cmp	r3, r1
  113450:	8a000009 	bhi	11347c <f_truncate+0x110>
  113454:	e3a05002 	mov	r5, #2
  113458:	e5c45007 	strb	r5, [r4, #7]
  11345c:	e1a00005 	mov	r0, r5
  113460:	e8bd8070 	pop	{r4, r5, r6, pc}
  113464:	e3a05001 	mov	r5, #1
  113468:	eafffffa 	b	113458 <f_truncate+0xec>
  11346c:	e1a05000 	mov	r5, r0
  113470:	eafffff8 	b	113458 <f_truncate+0xec>
  113474:	ebfffb11 	bl	1120c0 <remove_chain.part.10>
  113478:	eaffffdb 	b	1133ec <f_truncate+0x80>
  11347c:	ebfff864 	bl	111614 <get_fat.part.6>
  113480:	e3700001 	cmn	r0, #1
  113484:	e1a06000 	mov	r6, r0
  113488:	0afffff5 	beq	113464 <f_truncate+0xf8>
  11348c:	e3500001 	cmp	r0, #1
  113490:	0affffef 	beq	113454 <f_truncate+0xe8>
  113494:	e5940000 	ldr	r0, [r4]
  113498:	e5903014 	ldr	r3, [r0, #20]
  11349c:	e1530006 	cmp	r3, r6
  1134a0:	9affffd5 	bls	1133fc <f_truncate+0x90>
  1134a4:	e5941014 	ldr	r1, [r4, #20]
  1134a8:	e1530001 	cmp	r3, r1
  1134ac:	83510001 	cmphi	r1, #1
  1134b0:	9affffe7 	bls	113454 <f_truncate+0xe8>
  1134b4:	e3e0220f 	mvn	r2, #-268435456	; 0xf0000000
  1134b8:	ebfff900 	bl	1118c0 <put_fat.part.8>
  1134bc:	e3500000 	cmp	r0, #0
  1134c0:	1affffe9 	bne	11346c <f_truncate+0x100>
  1134c4:	e3560001 	cmp	r6, #1
  1134c8:	e5940000 	ldr	r0, [r4]
  1134cc:	9affffe0 	bls	113454 <f_truncate+0xe8>
  1134d0:	e5903014 	ldr	r3, [r0, #20]
  1134d4:	e1530006 	cmp	r3, r6
  1134d8:	9affffdd 	bls	113454 <f_truncate+0xe8>
  1134dc:	e1a01006 	mov	r1, r6
  1134e0:	ebfffaf6 	bl	1120c0 <remove_chain.part.10>
  1134e4:	eaffffc2 	b	1133f4 <f_truncate+0x88>

001134e8 <f_unlink>:
  1134e8:	e92d4010 	push	{r4, lr}
  1134ec:	e24dd050 	sub	sp, sp, #80	; 0x50
  1134f0:	e3a03000 	mov	r3, #0
  1134f4:	e58d0004 	str	r0, [sp, #4]
  1134f8:	e3a02001 	mov	r2, #1
  1134fc:	e28d0018 	add	r0, sp, #24
  113500:	e28d1004 	add	r1, sp, #4
  113504:	e58d3018 	str	r3, [sp, #24]
  113508:	e58d301c 	str	r3, [sp, #28]
  11350c:	e58d3020 	str	r3, [sp, #32]
  113510:	e58d3024 	str	r3, [sp, #36]	; 0x24
  113514:	e58d3028 	str	r3, [sp, #40]	; 0x28
  113518:	e58d302c 	str	r3, [sp, #44]	; 0x2c
  11351c:	e58d3030 	str	r3, [sp, #48]	; 0x30
  113520:	e58d3034 	str	r3, [sp, #52]	; 0x34
  113524:	e58d3038 	str	r3, [sp, #56]	; 0x38
  113528:	e58d303c 	str	r3, [sp, #60]	; 0x3c
  11352c:	e58d3040 	str	r3, [sp, #64]	; 0x40
  113530:	e58d3044 	str	r3, [sp, #68]	; 0x44
  113534:	e58d3048 	str	r3, [sp, #72]	; 0x48
  113538:	e58d304c 	str	r3, [sp, #76]	; 0x4c
  11353c:	ebfff6fb 	bl	111130 <find_volume>
  113540:	e3500000 	cmp	r0, #0
  113544:	0a000001 	beq	113550 <f_unlink+0x68>
  113548:	e28dd050 	add	sp, sp, #80	; 0x50
  11354c:	e8bd8010 	pop	{r4, pc}
  113550:	e28d300c 	add	r3, sp, #12
  113554:	e59d1004 	ldr	r1, [sp, #4]
  113558:	e28d0018 	add	r0, sp, #24
  11355c:	e58d3030 	str	r3, [sp, #48]	; 0x30
  113560:	ebfffa16 	bl	111dc0 <follow_path>
  113564:	e3500000 	cmp	r0, #0
  113568:	1afffff6 	bne	113548 <f_unlink+0x60>
  11356c:	e59d302c 	ldr	r3, [sp, #44]	; 0x2c
  113570:	e3530000 	cmp	r3, #0
  113574:	0a00003d 	beq	113670 <f_unlink+0x188>
  113578:	e5d3200b 	ldrb	r2, [r3, #11]
  11357c:	e3120001 	tst	r2, #1
  113580:	03a00000 	moveq	r0, #0
  113584:	13a00007 	movne	r0, #7
  113588:	e59d1018 	ldr	r1, [sp, #24]
  11358c:	e5d3201a 	ldrb	r2, [r3, #26]
  113590:	e5d3401b 	ldrb	r4, [r3, #27]
  113594:	e5d11000 	ldrb	r1, [r1]
  113598:	e3510003 	cmp	r1, #3
  11359c:	e1824404 	orr	r4, r2, r4, lsl #8
  1135a0:	05d31015 	ldrbeq	r1, [r3, #21]
  1135a4:	05d32014 	ldrbeq	r2, [r3, #20]
  1135a8:	01822401 	orreq	r2, r2, r1, lsl #8
  1135ac:	01844802 	orreq	r4, r4, r2, lsl #16
  1135b0:	e3500000 	cmp	r0, #0
  1135b4:	1affffe3 	bne	113548 <f_unlink+0x60>
  1135b8:	e5d3300b 	ldrb	r3, [r3, #11]
  1135bc:	e3130010 	tst	r3, #16
  1135c0:	0a000015 	beq	11361c <f_unlink+0x134>
  1135c4:	e3540001 	cmp	r4, #1
  1135c8:	9a00001f 	bls	11364c <f_unlink+0x164>
  1135cc:	e28d2017 	add	r2, sp, #23
  1135d0:	e28d3034 	add	r3, sp, #52	; 0x34
  1135d4:	e5f20001 	ldrb	r0, [r2, #1]!
  1135d8:	e28d1050 	add	r1, sp, #80	; 0x50
  1135dc:	e4c30001 	strb	r0, [r3], #1
  1135e0:	e1530001 	cmp	r3, r1
  1135e4:	1afffffa 	bne	1135d4 <f_unlink+0xec>
  1135e8:	e3a01002 	mov	r1, #2
  1135ec:	e28d0034 	add	r0, sp, #52	; 0x34
  1135f0:	e58d403c 	str	r4, [sp, #60]	; 0x3c
  1135f4:	ebfff848 	bl	11171c <dir_sdi>
  1135f8:	e3500000 	cmp	r0, #0
  1135fc:	1affffd1 	bne	113548 <f_unlink+0x60>
  113600:	e28d0034 	add	r0, sp, #52	; 0x34
  113604:	ebfffad6 	bl	112164 <dir_read.constprop.11>
  113608:	e3500000 	cmp	r0, #0
  11360c:	03a00007 	moveq	r0, #7
  113610:	0affffcc 	beq	113548 <f_unlink+0x60>
  113614:	e3500004 	cmp	r0, #4
  113618:	1affffca 	bne	113548 <f_unlink+0x60>
  11361c:	e28d0018 	add	r0, sp, #24
  113620:	ebfff88e 	bl	111860 <dir_remove>
  113624:	e3500000 	cmp	r0, #0
  113628:	1affffc6 	bne	113548 <f_unlink+0x60>
  11362c:	e3540000 	cmp	r4, #0
  113630:	0a00000b 	beq	113664 <f_unlink+0x17c>
  113634:	e3540001 	cmp	r4, #1
  113638:	e59d0018 	ldr	r0, [sp, #24]
  11363c:	9a000002 	bls	11364c <f_unlink+0x164>
  113640:	e5903014 	ldr	r3, [r0, #20]
  113644:	e1530004 	cmp	r3, r4
  113648:	8a000001 	bhi	113654 <f_unlink+0x16c>
  11364c:	e3a00002 	mov	r0, #2
  113650:	eaffffbc 	b	113548 <f_unlink+0x60>
  113654:	e1a01004 	mov	r1, r4
  113658:	ebfffa98 	bl	1120c0 <remove_chain.part.10>
  11365c:	e3500000 	cmp	r0, #0
  113660:	1affffb8 	bne	113548 <f_unlink+0x60>
  113664:	e59d0018 	ldr	r0, [sp, #24]
  113668:	ebfff624 	bl	110f00 <sync_fs>
  11366c:	eaffffb5 	b	113548 <f_unlink+0x60>
  113670:	e3a00006 	mov	r0, #6
  113674:	eaffffc3 	b	113588 <f_unlink+0xa0>

00113678 <f_mkdir>:
  113678:	e92d4ff0 	push	{r4, r5, r6, r7, r8, r9, sl, fp, lr}
  11367c:	e3a03000 	mov	r3, #0
  113680:	e24dd05c 	sub	sp, sp, #92	; 0x5c
  113684:	e58d303c 	str	r3, [sp, #60]	; 0x3c
  113688:	e58d3040 	str	r3, [sp, #64]	; 0x40
  11368c:	e58d3044 	str	r3, [sp, #68]	; 0x44
  113690:	e58d3048 	str	r3, [sp, #72]	; 0x48
  113694:	e58d304c 	str	r3, [sp, #76]	; 0x4c
  113698:	e58d3050 	str	r3, [sp, #80]	; 0x50
  11369c:	e58d3054 	str	r3, [sp, #84]	; 0x54
  1136a0:	e58d002c 	str	r0, [sp, #44]	; 0x2c
  1136a4:	eb00026a 	bl	114054 <get_fattime>
  1136a8:	e3a02001 	mov	r2, #1
  1136ac:	e1a06000 	mov	r6, r0
  1136b0:	e28d102c 	add	r1, sp, #44	; 0x2c
  1136b4:	e28d003c 	add	r0, sp, #60	; 0x3c
  1136b8:	ebfff69c 	bl	111130 <find_volume>
  1136bc:	e3500000 	cmp	r0, #0
  1136c0:	e1a02000 	mov	r2, r0
  1136c4:	0a000002 	beq	1136d4 <f_mkdir+0x5c>
  1136c8:	e1a00002 	mov	r0, r2
  1136cc:	e28dd05c 	add	sp, sp, #92	; 0x5c
  1136d0:	e8bd8ff0 	pop	{r4, r5, r6, r7, r8, r9, sl, fp, pc}
  1136d4:	e28d3030 	add	r3, sp, #48	; 0x30
  1136d8:	e1a04000 	mov	r4, r0
  1136dc:	e59d102c 	ldr	r1, [sp, #44]	; 0x2c
  1136e0:	e28d003c 	add	r0, sp, #60	; 0x3c
  1136e4:	e58d3054 	str	r3, [sp, #84]	; 0x54
  1136e8:	ebfff9b4 	bl	111dc0 <follow_path>
  1136ec:	e2502000 	subs	r2, r0, #0
  1136f0:	03a02008 	moveq	r2, #8
  1136f4:	0afffff3 	beq	1136c8 <f_mkdir+0x50>
  1136f8:	e3520004 	cmp	r2, #4
  1136fc:	1afffff1 	bne	1136c8 <f_mkdir+0x50>
  113700:	e1a01004 	mov	r1, r4
  113704:	e59d003c 	ldr	r0, [sp, #60]	; 0x3c
  113708:	ebfff8cd 	bl	111a44 <create_chain>
  11370c:	e250a000 	subs	sl, r0, #0
  113710:	0a000070 	beq	1138d8 <f_mkdir+0x260>
  113714:	e35a0001 	cmp	sl, #1
  113718:	03a02002 	moveq	r2, #2
  11371c:	0a00006e 	beq	1138dc <f_mkdir+0x264>
  113720:	e37a0001 	cmn	sl, #1
  113724:	03a02001 	moveq	r2, #1
  113728:	0a00006b 	beq	1138dc <f_mkdir+0x264>
  11372c:	e59d103c 	ldr	r1, [sp, #60]	; 0x3c
  113730:	e5d13004 	ldrb	r3, [r1, #4]
  113734:	e3530000 	cmp	r3, #0
  113738:	1a00009c 	bne	1139b0 <f_mkdir+0x338>
  11373c:	e5913014 	ldr	r3, [r1, #20]
  113740:	e24a2002 	sub	r2, sl, #2
  113744:	e2819040 	add	r9, r1, #64	; 0x40
  113748:	e2814d09 	add	r4, r1, #576	; 0x240
  11374c:	e2433002 	sub	r3, r3, #2
  113750:	e1520003 	cmp	r2, r3
  113754:	35913028 	ldrcc	r3, [r1, #40]	; 0x28
  113758:	23a05000 	movcs	r5, #0
  11375c:	35d15002 	ldrbcc	r5, [r1, #2]
  113760:	30253295 	mlacc	r5, r5, r2, r3
  113764:	e1a03009 	mov	r3, r9
  113768:	e3a02000 	mov	r2, #0
  11376c:	e4c32001 	strb	r2, [r3], #1
  113770:	e1530004 	cmp	r3, r4
  113774:	1afffffc 	bne	11376c <f_mkdir+0xf4>
  113778:	e281004b 	add	r0, r1, #75	; 0x4b
  11377c:	e1a03009 	mov	r3, r9
  113780:	e3a02020 	mov	r2, #32
  113784:	e4c32001 	strb	r2, [r3], #1
  113788:	e1530000 	cmp	r3, r0
  11378c:	1afffffc 	bne	113784 <f_mkdir+0x10c>
  113790:	e6ef007a 	uxtb	r0, sl
  113794:	e6ef2076 	uxtb	r2, r6
  113798:	e1a0bc26 	lsr	fp, r6, #24
  11379c:	e58d901c 	str	r9, [sp, #28]
  1137a0:	e1a08000 	mov	r8, r0
  1137a4:	e58d000c 	str	r0, [sp, #12]
  1137a8:	e1a00c2a 	lsr	r0, sl, #24
  1137ac:	e1a07002 	mov	r7, r2
  1137b0:	e3a0302e 	mov	r3, #46	; 0x2e
  1137b4:	e5c17056 	strb	r7, [r1, #86]	; 0x56
  1137b8:	e58d0004 	str	r0, [sp, #4]
  1137bc:	e7e7c85a 	ubfx	ip, sl, #16, #8
  1137c0:	e5dd7004 	ldrb	r7, [sp, #4]
  1137c4:	e3a00010 	mov	r0, #16
  1137c8:	e58d3008 	str	r3, [sp, #8]
  1137cc:	e281e080 	add	lr, r1, #128	; 0x80
  1137d0:	e5c13040 	strb	r3, [r1, #64]	; 0x40
  1137d4:	e2813060 	add	r3, r1, #96	; 0x60
  1137d8:	e58d3028 	str	r3, [sp, #40]	; 0x28
  1137dc:	e7e73456 	ubfx	r3, r6, #8, #8
  1137e0:	e58d2010 	str	r2, [sp, #16]
  1137e4:	e7e76856 	ubfx	r6, r6, #16, #8
  1137e8:	e7e7245a 	ubfx	r2, sl, #8, #8
  1137ec:	e58d3014 	str	r3, [sp, #20]
  1137f0:	e58d2020 	str	r2, [sp, #32]
  1137f4:	e58dc024 	str	ip, [sp, #36]	; 0x24
  1137f8:	e5c13057 	strb	r3, [r1, #87]	; 0x57
  1137fc:	e5c1205b 	strb	r2, [r1, #91]	; 0x5b
  113800:	e3a0202e 	mov	r2, #46	; 0x2e
  113804:	e5c1c054 	strb	ip, [r1, #84]	; 0x54
  113808:	e1a0c009 	mov	ip, r9
  11380c:	e58d6018 	str	r6, [sp, #24]
  113810:	e5c1b059 	strb	fp, [r1, #89]	; 0x59
  113814:	e5c1805a 	strb	r8, [r1, #90]	; 0x5a
  113818:	e5c17055 	strb	r7, [r1, #85]	; 0x55
  11381c:	e5c1004b 	strb	r0, [r1, #75]	; 0x4b
  113820:	e5c16058 	strb	r6, [r1, #88]	; 0x58
  113824:	e59d3028 	ldr	r3, [sp, #40]	; 0x28
  113828:	ea000000 	b	113830 <f_mkdir+0x1b8>
  11382c:	e5fc2001 	ldrb	r2, [ip, #1]!
  113830:	e4c32001 	strb	r2, [r3], #1
  113834:	e153000e 	cmp	r3, lr
  113838:	1afffffb 	bne	11382c <f_mkdir+0x1b4>
  11383c:	e59d003c 	ldr	r0, [sp, #60]	; 0x3c
  113840:	e3a0302e 	mov	r3, #46	; 0x2e
  113844:	e5c13061 	strb	r3, [r1, #97]	; 0x61
  113848:	e59d3044 	ldr	r3, [sp, #68]	; 0x44
  11384c:	e5d02000 	ldrb	r2, [r0]
  113850:	e3520003 	cmp	r2, #3
  113854:	0a00004d 	beq	113990 <f_mkdir+0x318>
  113858:	e6efe073 	uxtb	lr, r3
  11385c:	e7e7c453 	ubfx	ip, r3, #8, #8
  113860:	e7e72853 	ubfx	r2, r3, #16, #8
  113864:	e1a03c23 	lsr	r3, r3, #24
  113868:	e5c1e07a 	strb	lr, [r1, #122]	; 0x7a
  11386c:	e5c1c07b 	strb	ip, [r1, #123]	; 0x7b
  113870:	e5c12074 	strb	r2, [r1, #116]	; 0x74
  113874:	e5c13075 	strb	r3, [r1, #117]	; 0x75
  113878:	e5d03002 	ldrb	r3, [r0, #2]
  11387c:	e3530000 	cmp	r3, #0
  113880:	0a000025 	beq	11391c <f_mkdir+0x2a4>
  113884:	e2431001 	sub	r1, r3, #1
  113888:	e3a08001 	mov	r8, #1
  11388c:	e6ef1071 	uxtb	r1, r1
  113890:	e3a07000 	mov	r7, #0
  113894:	e0811008 	add	r1, r1, r8
  113898:	e0816005 	add	r6, r1, r5
  11389c:	e59d303c 	ldr	r3, [sp, #60]	; 0x3c
  1138a0:	e580502c 	str	r5, [r0, #44]	; 0x2c
  1138a4:	e2855001 	add	r5, r5, #1
  1138a8:	e5c38004 	strb	r8, [r3, #4]
  1138ac:	e5d03004 	ldrb	r3, [r0, #4]
  1138b0:	e3530000 	cmp	r3, #0
  1138b4:	1a000013 	bne	113908 <f_mkdir+0x290>
  1138b8:	e1a03009 	mov	r3, r9
  1138bc:	e4c37001 	strb	r7, [r3], #1
  1138c0:	e1540003 	cmp	r4, r3
  1138c4:	1afffffc 	bne	1138bc <f_mkdir+0x244>
  1138c8:	e1550006 	cmp	r5, r6
  1138cc:	0a000012 	beq	11391c <f_mkdir+0x2a4>
  1138d0:	e59d003c 	ldr	r0, [sp, #60]	; 0x3c
  1138d4:	eafffff0 	b	11389c <f_mkdir+0x224>
  1138d8:	e3a02007 	mov	r2, #7
  1138dc:	e35a0001 	cmp	sl, #1
  1138e0:	e59d003c 	ldr	r0, [sp, #60]	; 0x3c
  1138e4:	9affff77 	bls	1136c8 <f_mkdir+0x50>
  1138e8:	e5903014 	ldr	r3, [r0, #20]
  1138ec:	e15a0003 	cmp	sl, r3
  1138f0:	2affff74 	bcs	1136c8 <f_mkdir+0x50>
  1138f4:	e1a0100a 	mov	r1, sl
  1138f8:	e58d2004 	str	r2, [sp, #4]
  1138fc:	ebfff9ef 	bl	1120c0 <remove_chain.part.10>
  113900:	e59d2004 	ldr	r2, [sp, #4]
  113904:	eaffff6f 	b	1136c8 <f_mkdir+0x50>
  113908:	ebfff559 	bl	110e74 <sync_window.part.3>
  11390c:	e3500000 	cmp	r0, #0
  113910:	0affffe8 	beq	1138b8 <f_mkdir+0x240>
  113914:	e1a02000 	mov	r2, r0
  113918:	eaffffef 	b	1138dc <f_mkdir+0x264>
  11391c:	e28d003c 	add	r0, sp, #60	; 0x3c
  113920:	ebfffa3d 	bl	11221c <dir_register>
  113924:	e2502000 	subs	r2, r0, #0
  113928:	1affffeb 	bne	1138dc <f_mkdir+0x264>
  11392c:	e59d3050 	ldr	r3, [sp, #80]	; 0x50
  113930:	e3a0c010 	mov	ip, #16
  113934:	e5dde018 	ldrb	lr, [sp, #24]
  113938:	e3a01001 	mov	r1, #1
  11393c:	e5dd0010 	ldrb	r0, [sp, #16]
  113940:	e59d203c 	ldr	r2, [sp, #60]	; 0x3c
  113944:	e5c3e018 	strb	lr, [r3, #24]
  113948:	e5dde00c 	ldrb	lr, [sp, #12]
  11394c:	e5c30016 	strb	r0, [r3, #22]
  113950:	e5dd0014 	ldrb	r0, [sp, #20]
  113954:	e5c3e01a 	strb	lr, [r3, #26]
  113958:	e5dde020 	ldrb	lr, [sp, #32]
  11395c:	e5c30017 	strb	r0, [r3, #23]
  113960:	e1a00002 	mov	r0, r2
  113964:	e5c3b019 	strb	fp, [r3, #25]
  113968:	e5c3e01b 	strb	lr, [r3, #27]
  11396c:	e5dde024 	ldrb	lr, [sp, #36]	; 0x24
  113970:	e5c3c00b 	strb	ip, [r3, #11]
  113974:	e5c3e014 	strb	lr, [r3, #20]
  113978:	e5dde004 	ldrb	lr, [sp, #4]
  11397c:	e5c3e015 	strb	lr, [r3, #21]
  113980:	e5c21004 	strb	r1, [r2, #4]
  113984:	ebfff55d 	bl	110f00 <sync_fs>
  113988:	e1a02000 	mov	r2, r0
  11398c:	eaffff4d 	b	1136c8 <f_mkdir+0x50>
  113990:	e5902024 	ldr	r2, [r0, #36]	; 0x24
  113994:	e1520003 	cmp	r2, r3
  113998:	1affffae 	bne	113858 <f_mkdir+0x1e0>
  11399c:	e3a03000 	mov	r3, #0
  1139a0:	e1a02003 	mov	r2, r3
  1139a4:	e1a0c003 	mov	ip, r3
  1139a8:	e1a0e003 	mov	lr, r3
  1139ac:	eaffffad 	b	113868 <f_mkdir+0x1f0>
  1139b0:	e1a00001 	mov	r0, r1
  1139b4:	ebfff52e 	bl	110e74 <sync_window.part.3>
  1139b8:	e2502000 	subs	r2, r0, #0
  1139bc:	1affffc6 	bne	1138dc <f_mkdir+0x264>
  1139c0:	e59d103c 	ldr	r1, [sp, #60]	; 0x3c
  1139c4:	eaffff5c 	b	11373c <f_mkdir+0xc4>

001139c8 <f_chmod>:
  1139c8:	e92d4030 	push	{r4, r5, lr}
  1139cc:	e24dd034 	sub	sp, sp, #52	; 0x34
  1139d0:	e3a03000 	mov	r3, #0
  1139d4:	e58d0004 	str	r0, [sp, #4]
  1139d8:	e1a04001 	mov	r4, r1
  1139dc:	e1a05002 	mov	r5, r2
  1139e0:	e28d0014 	add	r0, sp, #20
  1139e4:	e3a02001 	mov	r2, #1
  1139e8:	e28d1004 	add	r1, sp, #4
  1139ec:	e58d3014 	str	r3, [sp, #20]
  1139f0:	e58d3018 	str	r3, [sp, #24]
  1139f4:	e58d301c 	str	r3, [sp, #28]
  1139f8:	e58d3020 	str	r3, [sp, #32]
  1139fc:	e58d3024 	str	r3, [sp, #36]	; 0x24
  113a00:	e58d3028 	str	r3, [sp, #40]	; 0x28
  113a04:	e58d302c 	str	r3, [sp, #44]	; 0x2c
  113a08:	ebfff5c8 	bl	111130 <find_volume>
  113a0c:	e3500000 	cmp	r0, #0
  113a10:	0a000001 	beq	113a1c <f_chmod+0x54>
  113a14:	e28dd034 	add	sp, sp, #52	; 0x34
  113a18:	e8bd8030 	pop	{r4, r5, pc}
  113a1c:	e28d3008 	add	r3, sp, #8
  113a20:	e28d0014 	add	r0, sp, #20
  113a24:	e59d1004 	ldr	r1, [sp, #4]
  113a28:	e58d302c 	str	r3, [sp, #44]	; 0x2c
  113a2c:	ebfff8e3 	bl	111dc0 <follow_path>
  113a30:	e3500000 	cmp	r0, #0
  113a34:	1afffff6 	bne	113a14 <f_chmod+0x4c>
  113a38:	e59d3028 	ldr	r3, [sp, #40]	; 0x28
  113a3c:	e3530000 	cmp	r3, #0
  113a40:	03a00006 	moveq	r0, #6
  113a44:	0afffff2 	beq	113a14 <f_chmod+0x4c>
  113a48:	e5d3200b 	ldrb	r2, [r3, #11]
  113a4c:	e2055027 	and	r5, r5, #39	; 0x27
  113a50:	e59d1014 	ldr	r1, [sp, #20]
  113a54:	e0044005 	and	r4, r4, r5
  113a58:	e3a0c001 	mov	ip, #1
  113a5c:	e1c25005 	bic	r5, r2, r5
  113a60:	e1854004 	orr	r4, r5, r4
  113a64:	e1a00001 	mov	r0, r1
  113a68:	e5c3400b 	strb	r4, [r3, #11]
  113a6c:	e5c1c004 	strb	ip, [r1, #4]
  113a70:	ebfff522 	bl	110f00 <sync_fs>
  113a74:	e28dd034 	add	sp, sp, #52	; 0x34
  113a78:	e8bd8030 	pop	{r4, r5, pc}

00113a7c <f_utime>:
  113a7c:	e92d4010 	push	{r4, lr}
  113a80:	e24dd030 	sub	sp, sp, #48	; 0x30
  113a84:	e3a03000 	mov	r3, #0
  113a88:	e58d0004 	str	r0, [sp, #4]
  113a8c:	e1a04001 	mov	r4, r1
  113a90:	e28d0014 	add	r0, sp, #20
  113a94:	e3a02001 	mov	r2, #1
  113a98:	e28d1004 	add	r1, sp, #4
  113a9c:	e58d3014 	str	r3, [sp, #20]
  113aa0:	e58d3018 	str	r3, [sp, #24]
  113aa4:	e58d301c 	str	r3, [sp, #28]
  113aa8:	e58d3020 	str	r3, [sp, #32]
  113aac:	e58d3024 	str	r3, [sp, #36]	; 0x24
  113ab0:	e58d3028 	str	r3, [sp, #40]	; 0x28
  113ab4:	e58d302c 	str	r3, [sp, #44]	; 0x2c
  113ab8:	ebfff59c 	bl	111130 <find_volume>
  113abc:	e3500000 	cmp	r0, #0
  113ac0:	0a000001 	beq	113acc <f_utime+0x50>
  113ac4:	e28dd030 	add	sp, sp, #48	; 0x30
  113ac8:	e8bd8010 	pop	{r4, pc}
  113acc:	e28d3008 	add	r3, sp, #8
  113ad0:	e28d0014 	add	r0, sp, #20
  113ad4:	e59d1004 	ldr	r1, [sp, #4]
  113ad8:	e58d302c 	str	r3, [sp, #44]	; 0x2c
  113adc:	ebfff8b7 	bl	111dc0 <follow_path>
  113ae0:	e3500000 	cmp	r0, #0
  113ae4:	1afffff6 	bne	113ac4 <f_utime+0x48>
  113ae8:	e59d3028 	ldr	r3, [sp, #40]	; 0x28
  113aec:	e3530000 	cmp	r3, #0
  113af0:	03a00006 	moveq	r0, #6
  113af4:	0afffff2 	beq	113ac4 <f_utime+0x48>
  113af8:	e1d420b6 	ldrh	r2, [r4, #6]
  113afc:	e3a0c001 	mov	ip, #1
  113b00:	e59d1014 	ldr	r1, [sp, #20]
  113b04:	e5c32016 	strb	r2, [r3, #22]
  113b08:	e1d420b6 	ldrh	r2, [r4, #6]
  113b0c:	e1a00001 	mov	r0, r1
  113b10:	e1a02422 	lsr	r2, r2, #8
  113b14:	e5c32017 	strb	r2, [r3, #23]
  113b18:	e1d420b4 	ldrh	r2, [r4, #4]
  113b1c:	e5c32018 	strb	r2, [r3, #24]
  113b20:	e1d420b4 	ldrh	r2, [r4, #4]
  113b24:	e1a02422 	lsr	r2, r2, #8
  113b28:	e5c32019 	strb	r2, [r3, #25]
  113b2c:	e5c1c004 	strb	ip, [r1, #4]
  113b30:	ebfff4f2 	bl	110f00 <sync_fs>
  113b34:	e28dd030 	add	sp, sp, #48	; 0x30
  113b38:	e8bd8010 	pop	{r4, pc}

00113b3c <f_rename>:
  113b3c:	e52de004 	push	{lr}		; (str lr, [sp, #-4]!)
  113b40:	e24dd06c 	sub	sp, sp, #108	; 0x6c
  113b44:	e3a03000 	mov	r3, #0
  113b48:	e58d0004 	str	r0, [sp, #4]
  113b4c:	e3a02001 	mov	r2, #1
  113b50:	e28d0030 	add	r0, sp, #48	; 0x30
  113b54:	e58d1000 	str	r1, [sp]
  113b58:	e28d1004 	add	r1, sp, #4
  113b5c:	e58d3030 	str	r3, [sp, #48]	; 0x30
  113b60:	e58d3034 	str	r3, [sp, #52]	; 0x34
  113b64:	e58d3038 	str	r3, [sp, #56]	; 0x38
  113b68:	e58d303c 	str	r3, [sp, #60]	; 0x3c
  113b6c:	e58d3040 	str	r3, [sp, #64]	; 0x40
  113b70:	e58d3044 	str	r3, [sp, #68]	; 0x44
  113b74:	e58d3048 	str	r3, [sp, #72]	; 0x48
  113b78:	e58d304c 	str	r3, [sp, #76]	; 0x4c
  113b7c:	e58d3050 	str	r3, [sp, #80]	; 0x50
  113b80:	e58d3054 	str	r3, [sp, #84]	; 0x54
  113b84:	e58d3058 	str	r3, [sp, #88]	; 0x58
  113b88:	e58d305c 	str	r3, [sp, #92]	; 0x5c
  113b8c:	e58d3060 	str	r3, [sp, #96]	; 0x60
  113b90:	e58d3064 	str	r3, [sp, #100]	; 0x64
  113b94:	e58d3018 	str	r3, [sp, #24]
  113b98:	e58d301c 	str	r3, [sp, #28]
  113b9c:	e58d3020 	str	r3, [sp, #32]
  113ba0:	e58d3024 	str	r3, [sp, #36]	; 0x24
  113ba4:	e58d3028 	str	r3, [sp, #40]	; 0x28
  113ba8:	e5cd302c 	strb	r3, [sp, #44]	; 0x2c
  113bac:	ebfff55f 	bl	111130 <find_volume>
  113bb0:	e3500000 	cmp	r0, #0
  113bb4:	0a000001 	beq	113bc0 <f_rename+0x84>
  113bb8:	e28dd06c 	add	sp, sp, #108	; 0x6c
  113bbc:	e49df004 	pop	{pc}		; (ldr pc, [sp], #4)
  113bc0:	e59d3030 	ldr	r3, [sp, #48]	; 0x30
  113bc4:	e28d200c 	add	r2, sp, #12
  113bc8:	e59d1004 	ldr	r1, [sp, #4]
  113bcc:	e28d0030 	add	r0, sp, #48	; 0x30
  113bd0:	e58d2048 	str	r2, [sp, #72]	; 0x48
  113bd4:	e58d304c 	str	r3, [sp, #76]	; 0x4c
  113bd8:	ebfff878 	bl	111dc0 <follow_path>
  113bdc:	e3500000 	cmp	r0, #0
  113be0:	1afffff4 	bne	113bb8 <f_rename+0x7c>
  113be4:	e59d2044 	ldr	r2, [sp, #68]	; 0x44
  113be8:	e3520000 	cmp	r2, #0
  113bec:	03a00004 	moveq	r0, #4
  113bf0:	0afffff0 	beq	113bb8 <f_rename+0x7c>
  113bf4:	e282200a 	add	r2, r2, #10
  113bf8:	e28d3018 	add	r3, sp, #24
  113bfc:	e28d002d 	add	r0, sp, #45	; 0x2d
  113c00:	e5f21001 	ldrb	r1, [r2, #1]!
  113c04:	e4c31001 	strb	r1, [r3], #1
  113c08:	e1530000 	cmp	r3, r0
  113c0c:	1afffffb 	bne	113c00 <f_rename+0xc4>
  113c10:	e28d202f 	add	r2, sp, #47	; 0x2f
  113c14:	e28d304c 	add	r3, sp, #76	; 0x4c
  113c18:	e5f21001 	ldrb	r1, [r2, #1]!
  113c1c:	e4c31001 	strb	r1, [r3], #1
  113c20:	e28d1068 	add	r1, sp, #104	; 0x68
  113c24:	e1530001 	cmp	r3, r1
  113c28:	1afffffa 	bne	113c18 <f_rename+0xdc>
  113c2c:	e1a0000d 	mov	r0, sp
  113c30:	ebfff430 	bl	110cf8 <get_ldnumber>
  113c34:	e3500000 	cmp	r0, #0
  113c38:	b3a0000b 	movlt	r0, #11
  113c3c:	baffffdd 	blt	113bb8 <f_rename+0x7c>
  113c40:	e59d1000 	ldr	r1, [sp]
  113c44:	e28d004c 	add	r0, sp, #76	; 0x4c
  113c48:	ebfff85c 	bl	111dc0 <follow_path>
  113c4c:	e3500000 	cmp	r0, #0
  113c50:	03a00008 	moveq	r0, #8
  113c54:	0affffd7 	beq	113bb8 <f_rename+0x7c>
  113c58:	e3500004 	cmp	r0, #4
  113c5c:	1affffd5 	bne	113bb8 <f_rename+0x7c>
  113c60:	e28d004c 	add	r0, sp, #76	; 0x4c
  113c64:	ebfff96c 	bl	11221c <dir_register>
  113c68:	e3500000 	cmp	r0, #0
  113c6c:	1affffd1 	bne	113bb8 <f_rename+0x7c>
  113c70:	e59dc060 	ldr	ip, [sp, #96]	; 0x60
  113c74:	e28d2019 	add	r2, sp, #25
  113c78:	e28c300d 	add	r3, ip, #13
  113c7c:	e28c0020 	add	r0, ip, #32
  113c80:	e5f21001 	ldrb	r1, [r2, #1]!
  113c84:	e4c31001 	strb	r1, [r3], #1
  113c88:	e1530000 	cmp	r3, r0
  113c8c:	1afffffb 	bne	113c80 <f_rename+0x144>
  113c90:	e5dd3018 	ldrb	r3, [sp, #24]
  113c94:	e3a02001 	mov	r2, #1
  113c98:	e59d0030 	ldr	r0, [sp, #48]	; 0x30
  113c9c:	e3833020 	orr	r3, r3, #32
  113ca0:	e5cc300b 	strb	r3, [ip, #11]
  113ca4:	e5c02004 	strb	r2, [r0, #4]
  113ca8:	e59d2038 	ldr	r2, [sp, #56]	; 0x38
  113cac:	e59d3054 	ldr	r3, [sp, #84]	; 0x54
  113cb0:	e1520003 	cmp	r2, r3
  113cb4:	0a00001b 	beq	113d28 <f_rename+0x1ec>
  113cb8:	e5dc300b 	ldrb	r3, [ip, #11]
  113cbc:	e3130010 	tst	r3, #16
  113cc0:	0a000018 	beq	113d28 <f_rename+0x1ec>
  113cc4:	e5dc201b 	ldrb	r2, [ip, #27]
  113cc8:	e5d01000 	ldrb	r1, [r0]
  113ccc:	e5dc301a 	ldrb	r3, [ip, #26]
  113cd0:	e3510003 	cmp	r1, #3
  113cd4:	05dc1015 	ldrbeq	r1, [ip, #21]
  113cd8:	e1833402 	orr	r3, r3, r2, lsl #8
  113cdc:	05dc2014 	ldrbeq	r2, [ip, #20]
  113ce0:	01822401 	orreq	r2, r2, r1, lsl #8
  113ce4:	01833802 	orreq	r3, r3, r2, lsl #16
  113ce8:	e5902014 	ldr	r2, [r0, #20]
  113cec:	e2433002 	sub	r3, r3, #2
  113cf0:	e2422002 	sub	r2, r2, #2
  113cf4:	e1530002 	cmp	r3, r2
  113cf8:	2a000011 	bcs	113d44 <f_rename+0x208>
  113cfc:	e5d02002 	ldrb	r2, [r0, #2]
  113d00:	e5901028 	ldr	r1, [r0, #40]	; 0x28
  113d04:	e0311392 	mlas	r1, r2, r3, r1
  113d08:	0a00000d 	beq	113d44 <f_rename+0x208>
  113d0c:	ebfff4c2 	bl	11101c <move_window>
  113d10:	e3500000 	cmp	r0, #0
  113d14:	e59d3030 	ldr	r3, [sp, #48]	; 0x30
  113d18:	1affffa6 	bne	113bb8 <f_rename+0x7c>
  113d1c:	e5d32061 	ldrb	r2, [r3, #97]	; 0x61
  113d20:	e352002e 	cmp	r2, #46	; 0x2e
  113d24:	0a000008 	beq	113d4c <f_rename+0x210>
  113d28:	e28d0030 	add	r0, sp, #48	; 0x30
  113d2c:	ebfff6cb 	bl	111860 <dir_remove>
  113d30:	e3500000 	cmp	r0, #0
  113d34:	1affff9f 	bne	113bb8 <f_rename+0x7c>
  113d38:	e59d0030 	ldr	r0, [sp, #48]	; 0x30
  113d3c:	ebfff46f 	bl	110f00 <sync_fs>
  113d40:	eaffff9c 	b	113bb8 <f_rename+0x7c>
  113d44:	e3a00002 	mov	r0, #2
  113d48:	eaffff9a 	b	113bb8 <f_rename+0x7c>
  113d4c:	e5d32000 	ldrb	r2, [r3]
  113d50:	e3520003 	cmp	r2, #3
  113d54:	0a00000a 	beq	113d84 <f_rename+0x248>
  113d58:	e59d0054 	ldr	r0, [sp, #84]	; 0x54
  113d5c:	e1a0e420 	lsr	lr, r0, #8
  113d60:	e1a0c820 	lsr	ip, r0, #16
  113d64:	e1a01c20 	lsr	r1, r0, #24
  113d68:	e5c3007a 	strb	r0, [r3, #122]	; 0x7a
  113d6c:	e3a02001 	mov	r2, #1
  113d70:	e5c3e07b 	strb	lr, [r3, #123]	; 0x7b
  113d74:	e5c3c074 	strb	ip, [r3, #116]	; 0x74
  113d78:	e5c31075 	strb	r1, [r3, #117]	; 0x75
  113d7c:	e5c32004 	strb	r2, [r3, #4]
  113d80:	eaffffe8 	b	113d28 <f_rename+0x1ec>
  113d84:	e59d1054 	ldr	r1, [sp, #84]	; 0x54
  113d88:	e5932024 	ldr	r2, [r3, #36]	; 0x24
  113d8c:	e1510002 	cmp	r1, r2
  113d90:	1afffff0 	bne	113d58 <f_rename+0x21c>
  113d94:	eafffff0 	b	113d5c <f_rename+0x220>

00113d98 <disk_status>:
  113d98:	e92d41f0 	push	{r4, r5, r6, r7, r8, lr}
  113d9c:	e1a04100 	lsl	r4, r0, #2
  113da0:	e3005360 	movw	r5, #864	; 0x360
  113da4:	e0643200 	rsb	r3, r4, r0, lsl #4
  113da8:	e3405012 	movt	r5, #18
  113dac:	e1a07000 	mov	r7, r0
  113db0:	e5d56000 	ldrb	r6, [r5]
  113db4:	e0603003 	rsb	r3, r0, r3
  113db8:	e0853283 	add	r3, r5, r3, lsl #5
  113dbc:	e5938024 	ldr	r8, [r3, #36]	; 0x24
  113dc0:	e3580000 	cmp	r8, #0
  113dc4:	0a000022 	beq	113e54 <disk_status+0xbc>
  113dc8:	e59502e0 	ldr	r0, [r5, #736]	; 0x2e0
  113dcc:	e0854004 	add	r4, r5, r4
  113dd0:	e3007360 	movw	r7, #864	; 0x360
  113dd4:	e3407012 	movt	r7, #18
  113dd8:	e2800024 	add	r0, r0, #36	; 0x24
  113ddc:	ebffbe05 	bl	1035f8 <Xil_In32>
  113de0:	e59432f0 	ldr	r3, [r4, #752]	; 0x2f0
  113de4:	e3530101 	cmp	r3, #1073741824	; 0x40000000
  113de8:	0a000016 	beq	113e48 <disk_status+0xb0>
  113dec:	e59732e4 	ldr	r3, [r7, #740]	; 0x2e4
  113df0:	e3530000 	cmp	r3, #0
  113df4:	0a00000c 	beq	113e2c <disk_status+0x94>
  113df8:	e3100801 	tst	r0, #65536	; 0x10000
  113dfc:	03a04f7d 	moveq	r4, #500	; 0x1f4
  113e00:	0a000002 	beq	113e10 <disk_status+0x78>
  113e04:	ea000008 	b	113e2c <disk_status+0x94>
  113e08:	e2544001 	subs	r4, r4, #1
  113e0c:	0a000027 	beq	113eb0 <disk_status+0x118>
  113e10:	e3020710 	movw	r0, #10000	; 0x2710
  113e14:	eb000948 	bl	11633c <usleep>
  113e18:	e59502e0 	ldr	r0, [r5, #736]	; 0x2e0
  113e1c:	e2800024 	add	r0, r0, #36	; 0x24
  113e20:	ebffbdf4 	bl	1035f8 <Xil_In32>
  113e24:	e3100801 	tst	r0, #65536	; 0x10000
  113e28:	0afffff6 	beq	113e08 <disk_status+0x70>
  113e2c:	e59532e8 	ldr	r3, [r5, #744]	; 0x2e8
  113e30:	e3530000 	cmp	r3, #0
  113e34:	0a000003 	beq	113e48 <disk_status+0xb0>
  113e38:	e3100702 	tst	r0, #524288	; 0x80000
  113e3c:	020600fd 	andeq	r0, r6, #253	; 0xfd
  113e40:	03800004 	orreq	r0, r0, #4
  113e44:	0a000000 	beq	113e4c <disk_status+0xb4>
  113e48:	e20600f9 	and	r0, r6, #249	; 0xf9
  113e4c:	e5c50000 	strb	r0, [r5]
  113e50:	e8bd81f0 	pop	{r4, r5, r6, r7, r8, pc}
  113e54:	e3a02000 	mov	r2, #0
  113e58:	e3a000fe 	mov	r0, #254	; 0xfe
  113e5c:	e3a03001 	mov	r3, #1
  113e60:	e34e2010 	movt	r2, #57360	; 0xe010
  113e64:	e34e0010 	movt	r0, #57360	; 0xe010
  113e68:	e58532e4 	str	r3, [r5, #740]	; 0x2e4
  113e6c:	e58532e8 	str	r3, [r5, #744]	; 0x2e8
  113e70:	e0857007 	add	r7, r5, r7
  113e74:	e58522e0 	str	r2, [r5, #736]	; 0x2e0
  113e78:	ebffbddc 	bl	1035f0 <Xil_In16>
  113e7c:	e6ef0070 	uxtb	r0, r0
  113e80:	e3500002 	cmp	r0, #2
  113e84:	e5c702ec 	strb	r0, [r7, #748]	; 0x2ec
  113e88:	10853004 	addne	r3, r5, r4
  113e8c:	158382f0 	strne	r8, [r3, #752]	; 0x2f0
  113e90:	1affffcc 	bne	113dc8 <disk_status+0x30>
  113e94:	e59502e0 	ldr	r0, [r5, #736]	; 0x2e0
  113e98:	e2800040 	add	r0, r0, #64	; 0x40
  113e9c:	ebffbdd5 	bl	1035f8 <Xil_In32>
  113ea0:	e0853004 	add	r3, r5, r4
  113ea4:	e2000103 	and	r0, r0, #-1073741824	; 0xc0000000
  113ea8:	e58302f0 	str	r0, [r3, #752]	; 0x2f0
  113eac:	eaffffc5 	b	113dc8 <disk_status+0x30>
  113eb0:	e3a00003 	mov	r0, #3
  113eb4:	eaffffe4 	b	113e4c <disk_status+0xb4>

00113eb8 <disk_initialize>:
  113eb8:	e92d41f0 	push	{r4, r5, r6, r7, r8, lr}
  113ebc:	e1a06000 	mov	r6, r0
  113ec0:	ebffffb4 	bl	113d98 <disk_status>
  113ec4:	e3100002 	tst	r0, #2
  113ec8:	e1a04000 	mov	r4, r0
  113ecc:	1a00001f 	bne	113f50 <disk_initialize+0x98>
  113ed0:	e3005360 	movw	r5, #864	; 0x360
  113ed4:	e3405012 	movt	r5, #18
  113ed8:	e59532e4 	ldr	r3, [r5, #740]	; 0x2e4
  113edc:	e3530000 	cmp	r3, #0
  113ee0:	0a000005 	beq	113efc <disk_initialize+0x44>
  113ee4:	e59502e0 	ldr	r0, [r5, #736]	; 0x2e0
  113ee8:	e2800024 	add	r0, r0, #36	; 0x24
  113eec:	ebffbdc1 	bl	1035f8 <Xil_In32>
  113ef0:	e2000807 	and	r0, r0, #458752	; 0x70000
  113ef4:	e3500807 	cmp	r0, #458752	; 0x70000
  113ef8:	1afffff9 	bne	113ee4 <disk_initialize+0x2c>
  113efc:	e1a00006 	mov	r0, r6
  113f00:	eb0008f4 	bl	1162d8 <XSdPs_LookupConfig>
  113f04:	e2501000 	subs	r1, r0, #0
  113f08:	0a00000d 	beq	113f44 <disk_initialize+0x8c>
  113f0c:	e1a03206 	lsl	r3, r6, #4
  113f10:	e3007360 	movw	r7, #864	; 0x360
  113f14:	e3407012 	movt	r7, #18
  113f18:	e5912004 	ldr	r2, [r1, #4]
  113f1c:	e0433106 	sub	r3, r3, r6, lsl #2
  113f20:	e287c020 	add	ip, r7, #32
  113f24:	e3a00001 	mov	r0, #1
  113f28:	e0666003 	rsb	r6, r6, r3
  113f2c:	e5c50000 	strb	r0, [r5]
  113f30:	e08c6286 	add	r6, ip, r6, lsl #5
  113f34:	e1a00006 	mov	r0, r6
  113f38:	eb00006c 	bl	1140f0 <XSdPs_CfgInitialize>
  113f3c:	e3500000 	cmp	r0, #0
  113f40:	0a000003 	beq	113f54 <disk_initialize+0x9c>
  113f44:	e3844001 	orr	r4, r4, #1
  113f48:	e6ef0074 	uxtb	r0, r4
  113f4c:	e8bd81f0 	pop	{r4, r5, r6, r7, r8, pc}
  113f50:	e8bd81f0 	pop	{r4, r5, r6, r7, r8, pc}
  113f54:	e1a00006 	mov	r0, r6
  113f58:	eb0003b2 	bl	114e28 <XSdPs_CardInitialize>
  113f5c:	e3500000 	cmp	r0, #0
  113f60:	1afffff7 	bne	113f44 <disk_initialize+0x8c>
  113f64:	e20440fe 	and	r4, r4, #254	; 0xfe
  113f68:	e5c74000 	strb	r4, [r7]
  113f6c:	e1a00004 	mov	r0, r4
  113f70:	e8bd81f0 	pop	{r4, r5, r6, r7, r8, pc}

00113f74 <disk_read>:
  113f74:	e92d41f0 	push	{r4, r5, r6, r7, r8, lr}
  113f78:	e1a07001 	mov	r7, r1
  113f7c:	e1a06002 	mov	r6, r2
  113f80:	e1a04003 	mov	r4, r3
  113f84:	e1a05000 	mov	r5, r0
  113f88:	ebffff82 	bl	113d98 <disk_status>
  113f8c:	e3100001 	tst	r0, #1
  113f90:	0a000001 	beq	113f9c <disk_read+0x28>
  113f94:	e3a00003 	mov	r0, #3
  113f98:	e8bd81f0 	pop	{r4, r5, r6, r7, r8, pc}
  113f9c:	e3540000 	cmp	r4, #0
  113fa0:	1a000001 	bne	113fac <disk_read+0x38>
  113fa4:	e3a00004 	mov	r0, #4
  113fa8:	e8bd81f0 	pop	{r4, r5, r6, r7, r8, pc}
  113fac:	e1a0c105 	lsl	ip, r5, #2
  113fb0:	e1a03205 	lsl	r3, r5, #4
  113fb4:	e59f0044 	ldr	r0, [pc, #68]	; 114000 <disk_read+0x8c>
  113fb8:	e06c1003 	rsb	r1, ip, r3
  113fbc:	e3002360 	movw	r2, #864	; 0x360
  113fc0:	e0651001 	rsb	r1, r5, r1
  113fc4:	e3402012 	movt	r2, #18
  113fc8:	e0822281 	add	r2, r2, r1, lsl #5
  113fcc:	e06c3003 	rsb	r3, ip, r3
  113fd0:	e0655003 	rsb	r5, r5, r3
  113fd4:	e5922040 	ldr	r2, [r2, #64]	; 0x40
  113fd8:	e1a03007 	mov	r3, r7
  113fdc:	e0800285 	add	r0, r0, r5, lsl #5
  113fe0:	e3520000 	cmp	r2, #0
  113fe4:	e1a02004 	mov	r2, r4
  113fe8:	01a06486 	lsleq	r6, r6, #9
  113fec:	e1a01006 	mov	r1, r6
  113ff0:	eb000273 	bl	1149c4 <XSdPs_ReadPolled>
  113ff4:	e2900000 	adds	r0, r0, #0
  113ff8:	13a00001 	movne	r0, #1
  113ffc:	e8bd81f0 	pop	{r4, r5, r6, r7, r8, pc}
  114000:	00120380 	.word	0x00120380

00114004 <disk_ioctl>:
  114004:	e92d4070 	push	{r4, r5, r6, lr}
  114008:	e1a04001 	mov	r4, r1
  11400c:	e1a05002 	mov	r5, r2
  114010:	ebffff60 	bl	113d98 <disk_status>
  114014:	e2100001 	ands	r0, r0, #1
  114018:	0a000001 	beq	114024 <disk_ioctl+0x20>
  11401c:	e3a00003 	mov	r0, #3
  114020:	e8bd8070 	pop	{r4, r5, r6, pc}
  114024:	e3540001 	cmp	r4, #1
  114028:	0a000005 	beq	114044 <disk_ioctl+0x40>
  11402c:	38bd8070 	popcc	{r4, r5, r6, pc}
  114030:	e3540003 	cmp	r4, #3
  114034:	1a000004 	bne	11404c <disk_ioctl+0x48>
  114038:	e3a03080 	mov	r3, #128	; 0x80
  11403c:	e5853000 	str	r3, [r5]
  114040:	e8bd8070 	pop	{r4, r5, r6, pc}
  114044:	e1a00004 	mov	r0, r4
  114048:	e8bd8070 	pop	{r4, r5, r6, pc}
  11404c:	e3a00004 	mov	r0, #4
  114050:	e8bd8070 	pop	{r4, r5, r6, pc}

00114054 <get_fattime>:
  114054:	e3a00000 	mov	r0, #0
  114058:	e3430c21 	movt	r0, #15393	; 0x3c21
  11405c:	e12fff1e 	bx	lr

00114060 <disk_write>:
  114060:	e92d41f0 	push	{r4, r5, r6, r7, r8, lr}
  114064:	e1a07001 	mov	r7, r1
  114068:	e1a06002 	mov	r6, r2
  11406c:	e1a04003 	mov	r4, r3
  114070:	e1a05000 	mov	r5, r0
  114074:	ebffff47 	bl	113d98 <disk_status>
  114078:	e3100001 	tst	r0, #1
  11407c:	0a000001 	beq	114088 <disk_write+0x28>
  114080:	e3a00003 	mov	r0, #3
  114084:	e8bd81f0 	pop	{r4, r5, r6, r7, r8, pc}
  114088:	e3540000 	cmp	r4, #0
  11408c:	1a000001 	bne	114098 <disk_write+0x38>
  114090:	e3a00004 	mov	r0, #4
  114094:	e8bd81f0 	pop	{r4, r5, r6, r7, r8, pc}
  114098:	e1a0c105 	lsl	ip, r5, #2
  11409c:	e1a03205 	lsl	r3, r5, #4
  1140a0:	e59f0044 	ldr	r0, [pc, #68]	; 1140ec <disk_write+0x8c>
  1140a4:	e06c1003 	rsb	r1, ip, r3
  1140a8:	e3002360 	movw	r2, #864	; 0x360
  1140ac:	e0651001 	rsb	r1, r5, r1
  1140b0:	e3402012 	movt	r2, #18
  1140b4:	e0822281 	add	r2, r2, r1, lsl #5
  1140b8:	e06c3003 	rsb	r3, ip, r3
  1140bc:	e0655003 	rsb	r5, r5, r3
  1140c0:	e5922040 	ldr	r2, [r2, #64]	; 0x40
  1140c4:	e1a03007 	mov	r3, r7
  1140c8:	e0800285 	add	r0, r0, r5, lsl #5
  1140cc:	e3520000 	cmp	r2, #0
  1140d0:	e1a02004 	mov	r2, r4
  1140d4:	01a06486 	lsleq	r6, r6, #9
  1140d8:	e1a01006 	mov	r1, r6
  1140dc:	eb000286 	bl	114afc <XSdPs_WritePolled>
  1140e0:	e2900000 	adds	r0, r0, #0
  1140e4:	13a00001 	movne	r0, #1
  1140e8:	e8bd81f0 	pop	{r4, r5, r6, r7, r8, pc}
  1140ec:	00120380 	.word	0x00120380

001140f0 <XSdPs_CfgInitialize>:
  1140f0:	e92d41f0 	push	{r4, r5, r6, r7, r8, lr}
  1140f4:	e2504000 	subs	r4, r0, #0
  1140f8:	0a000067 	beq	11429c <XSdPs_CfgInitialize+0x1ac>
  1140fc:	e3510000 	cmp	r1, #0
  114100:	e3006aec 	movw	r6, #2796	; 0xaec
  114104:	e1a05001 	mov	r5, r1
  114108:	e3406012 	movt	r6, #18
  11410c:	e3a01000 	mov	r1, #0
  114110:	e5861000 	str	r1, [r6]
  114114:	0a000058 	beq	11427c <XSdPs_CfgInitialize+0x18c>
  114118:	e595e00c 	ldr	lr, [r5, #12]
  11411c:	e3013111 	movw	r3, #4369	; 0x1111
  114120:	e595c010 	ldr	ip, [r5, #16]
  114124:	e7df3813 	bfi	r3, r3, #16, #16
  114128:	e1d570b0 	ldrh	r7, [r5]
  11412c:	e2820029 	add	r0, r2, #41	; 0x29
  114130:	e5956008 	ldr	r6, [r5, #8]
  114134:	e5842004 	str	r2, [r4, #4]
  114138:	e5843014 	str	r3, [r4, #20]
  11413c:	e584e00c 	str	lr, [r4, #12]
  114140:	e584c010 	str	ip, [r4, #16]
  114144:	e1c470b0 	strh	r7, [r4]
  114148:	e5846008 	str	r6, [r4, #8]
  11414c:	ebffbd2b 	bl	103600 <Xil_Out8>
  114150:	e3a00001 	mov	r0, #1
  114154:	eb000866 	bl	1162f4 <sleep>
  114158:	e5940004 	ldr	r0, [r4, #4]
  11415c:	e3a01001 	mov	r1, #1
  114160:	e280002f 	add	r0, r0, #47	; 0x2f
  114164:	ebffbd25 	bl	103600 <Xil_Out8>
  114168:	e5940004 	ldr	r0, [r4, #4]
  11416c:	e280002f 	add	r0, r0, #47	; 0x2f
  114170:	ebffbd1c 	bl	1035e8 <Xil_In8>
  114174:	e3100001 	tst	r0, #1
  114178:	1afffffa 	bne	114168 <XSdPs_CfgInitialize+0x78>
  11417c:	e5940004 	ldr	r0, [r4, #4]
  114180:	e28000fe 	add	r0, r0, #254	; 0xfe
  114184:	ebffbd19 	bl	1035f0 <Xil_In16>
  114188:	e5943004 	ldr	r3, [r4, #4]
  11418c:	e5c40026 	strb	r0, [r4, #38]	; 0x26
  114190:	e2830040 	add	r0, r3, #64	; 0x40
  114194:	ebffbd17 	bl	1035f8 <Xil_In32>
  114198:	e5943004 	ldr	r3, [r4, #4]
  11419c:	e3a0100f 	mov	r1, #15
  1141a0:	e5840018 	str	r0, [r4, #24]
  1141a4:	e2830029 	add	r0, r3, #41	; 0x29
  1141a8:	ebffbd14 	bl	103600 <Xil_Out8>
  1141ac:	e3a01d6a 	mov	r1, #6784	; 0x1a80
  1141b0:	e1a00004 	mov	r0, r4
  1141b4:	e3401006 	movt	r1, #6
  1141b8:	eb000624 	bl	115a50 <XSdPs_Change_ClkFreq>
  1141bc:	e3500000 	cmp	r0, #0
  1141c0:	1a000027 	bne	114264 <XSdPs_CfgInitialize+0x174>
  1141c4:	e5943018 	ldr	r3, [r4, #24]
  1141c8:	e3130401 	tst	r3, #16777216	; 0x1000000
  1141cc:	13a0100f 	movne	r1, #15
  1141d0:	1a000002 	bne	1141e0 <XSdPs_CfgInitialize+0xf0>
  1141d4:	e3130402 	tst	r3, #33554432	; 0x2000000
  1141d8:	13a0100d 	movne	r1, #13
  1141dc:	0a000022 	beq	11426c <XSdPs_CfgInitialize+0x17c>
  1141e0:	e5940004 	ldr	r0, [r4, #4]
  1141e4:	e2800029 	add	r0, r0, #41	; 0x29
  1141e8:	ebffbd04 	bl	103600 <Xil_Out8>
  1141ec:	e5940004 	ldr	r0, [r4, #4]
  1141f0:	e3a01010 	mov	r1, #16
  1141f4:	e2800028 	add	r0, r0, #40	; 0x28
  1141f8:	ebffbd00 	bl	103600 <Xil_Out8>
  1141fc:	e5940004 	ldr	r0, [r4, #4]
  114200:	e30f1eff 	movw	r1, #65279	; 0xfeff
  114204:	e2800034 	add	r0, r0, #52	; 0x34
  114208:	ebffbcfe 	bl	103608 <Xil_Out16>
  11420c:	e5940004 	ldr	r0, [r4, #4]
  114210:	e30f13ff 	movw	r1, #62463	; 0xf3ff
  114214:	e2800036 	add	r0, r0, #54	; 0x36
  114218:	ebffbcfa 	bl	103608 <Xil_Out16>
  11421c:	e5940004 	ldr	r0, [r4, #4]
  114220:	e3a01000 	mov	r1, #0
  114224:	e2800038 	add	r0, r0, #56	; 0x38
  114228:	ebffbcf6 	bl	103608 <Xil_Out16>
  11422c:	e5940004 	ldr	r0, [r4, #4]
  114230:	e3a01000 	mov	r1, #0
  114234:	e280003a 	add	r0, r0, #58	; 0x3a
  114238:	ebffbcf2 	bl	103608 <Xil_Out16>
  11423c:	e5940004 	ldr	r0, [r4, #4]
  114240:	e3a01013 	mov	r1, #19
  114244:	e280000c 	add	r0, r0, #12
  114248:	ebffbcee 	bl	103608 <Xil_Out16>
  11424c:	e5940004 	ldr	r0, [r4, #4]
  114250:	e3a01c02 	mov	r1, #512	; 0x200
  114254:	e2800004 	add	r0, r0, #4
  114258:	ebffbcea 	bl	103608 <Xil_Out16>
  11425c:	e3a00000 	mov	r0, #0
  114260:	e8bd81f0 	pop	{r4, r5, r6, r7, r8, pc}
  114264:	e3a00001 	mov	r0, #1
  114268:	e8bd81f0 	pop	{r4, r5, r6, r7, r8, pc}
  11426c:	e3130301 	tst	r3, #67108864	; 0x4000000
  114270:	13a0100b 	movne	r1, #11
  114274:	03a01001 	moveq	r1, #1
  114278:	eaffffd8 	b	1141e0 <XSdPs_CfgInitialize+0xf0>
  11427c:	e30702d0 	movw	r0, #29392	; 0x72d0
  114280:	e3a010a5 	mov	r1, #165	; 0xa5
  114284:	e3400011 	movt	r0, #17
  114288:	ebffba34 	bl	102b60 <Xil_Assert>
  11428c:	e3a03001 	mov	r3, #1
  114290:	e1a00005 	mov	r0, r5
  114294:	e5863000 	str	r3, [r6]
  114298:	e8bd81f0 	pop	{r4, r5, r6, r7, r8, pc}
  11429c:	e30702d0 	movw	r0, #29392	; 0x72d0
  1142a0:	e3a010a4 	mov	r1, #164	; 0xa4
  1142a4:	e3400011 	movt	r0, #17
  1142a8:	ebffba2c 	bl	102b60 <Xil_Assert>
  1142ac:	e3003aec 	movw	r3, #2796	; 0xaec
  1142b0:	e3a02001 	mov	r2, #1
  1142b4:	e3403012 	movt	r3, #18
  1142b8:	e1a00004 	mov	r0, r4
  1142bc:	e5832000 	str	r2, [r3]
  1142c0:	e8bd81f0 	pop	{r4, r5, r6, r7, r8, pc}

001142c4 <XSdPs_FrameCmd>:
  1142c4:	e3510c12 	cmp	r1, #4608	; 0x1200
  1142c8:	0a000042 	beq	1143d8 <XSdPs_FrameCmd+0x114>
  1142cc:	8a000010 	bhi	114314 <XSdPs_FrameCmd+0x50>
  1142d0:	e3510b02 	cmp	r1, #2048	; 0x800
  1142d4:	0a000042 	beq	1143e4 <XSdPs_FrameCmd+0x120>
  1142d8:	8a00001d 	bhi	114354 <XSdPs_FrameCmd+0x90>
  1142dc:	e3510c03 	cmp	r1, #768	; 0x300
  1142e0:	0300131b 	movweq	r1, #795	; 0x31b
  1142e4:	0a000008 	beq	11430c <XSdPs_FrameCmd+0x48>
  1142e8:	9a000024 	bls	114380 <XSdPs_FrameCmd+0xbc>
  1142ec:	e3510c06 	cmp	r1, #1536	; 0x600
  1142f0:	0a000042 	beq	114400 <XSdPs_FrameCmd+0x13c>
  1142f4:	e3510c07 	cmp	r1, #1792	; 0x700
  1142f8:	0300171a 	movweq	r1, #1818	; 0x71a
  1142fc:	0a000002 	beq	11430c <XSdPs_FrameCmd+0x48>
  114300:	e300351b 	movw	r3, #1307	; 0x51b
  114304:	e3510c05 	cmp	r1, #1280	; 0x500
  114308:	01a01003 	moveq	r1, r3
  11430c:	e1a00001 	mov	r0, r1
  114310:	e12fff1e 	bx	lr
  114314:	e3510c37 	cmp	r1, #14080	; 0x3700
  114318:	0a000015 	beq	114374 <XSdPs_FrameCmd+0xb0>
  11431c:	9a000024 	bls	1143b4 <XSdPs_FrameCmd+0xf0>
  114320:	e3510c97 	cmp	r1, #38656	; 0x9700
  114324:	0a00002b 	beq	1143d8 <XSdPs_FrameCmd+0x114>
  114328:	9a00001b 	bls	11439c <XSdPs_FrameCmd+0xd8>
  11432c:	e3510caa 	cmp	r1, #43520	; 0xaa00
  114330:	030a1a1a 	movweq	r1, #43546	; 0xaa1a
  114334:	0afffff4 	beq	11430c <XSdPs_FrameCmd+0x48>
  114338:	e3510cb3 	cmp	r1, #45824	; 0xb300
  11433c:	030b133a 	movweq	r1, #45882	; 0xb33a
  114340:	0afffff1 	beq	11430c <XSdPs_FrameCmd+0x48>
  114344:	e30a3902 	movw	r3, #43266	; 0xa902
  114348:	e3510ca9 	cmp	r1, #43264	; 0xa900
  11434c:	01a01003 	moveq	r1, r3
  114350:	eaffffed 	b	11430c <XSdPs_FrameCmd+0x48>
  114354:	e3510c0b 	cmp	r1, #2816	; 0xb00
  114358:	0a000005 	beq	114374 <XSdPs_FrameCmd+0xb0>
  11435c:	8a00002e 	bhi	11441c <XSdPs_FrameCmd+0x158>
  114360:	e3510c09 	cmp	r1, #2304	; 0x900
  114364:	03001909 	movweq	r1, #2313	; 0x909
  114368:	0affffe7 	beq	11430c <XSdPs_FrameCmd+0x48>
  11436c:	e3510c0a 	cmp	r1, #2560	; 0xa00
  114370:	1affffe5 	bne	11430c <XSdPs_FrameCmd+0x48>
  114374:	e381101a 	orr	r1, r1, #26
  114378:	e1a00001 	mov	r0, r1
  11437c:	e12fff1e 	bx	lr
  114380:	e3510c01 	cmp	r1, #256	; 0x100
  114384:	03001102 	movweq	r1, #258	; 0x102
  114388:	0affffdf 	beq	11430c <XSdPs_FrameCmd+0x48>
  11438c:	e3003209 	movw	r3, #521	; 0x209
  114390:	e3510c02 	cmp	r1, #512	; 0x200
  114394:	01a01003 	moveq	r1, r3
  114398:	eaffffdb 	b	11430c <XSdPs_FrameCmd+0x48>
  11439c:	e3510c86 	cmp	r1, #34304	; 0x8600
  1143a0:	0308161a 	movweq	r1, #34330	; 0x861a
  1143a4:	0affffd8 	beq	11430c <XSdPs_FrameCmd+0x48>
  1143a8:	e3510c8d 	cmp	r1, #36096	; 0x8d00
  1143ac:	0afffff0 	beq	114374 <XSdPs_FrameCmd+0xb0>
  1143b0:	eaffffd5 	b	11430c <XSdPs_FrameCmd+0x48>
  1143b4:	e3510c17 	cmp	r1, #5888	; 0x1700
  1143b8:	0a000006 	beq	1143d8 <XSdPs_FrameCmd+0x114>
  1143bc:	9a00001d 	bls	114438 <XSdPs_FrameCmd+0x174>
  1143c0:	e3510c19 	cmp	r1, #6400	; 0x1900
  1143c4:	0a000003 	beq	1143d8 <XSdPs_FrameCmd+0x114>
  1143c8:	e3510b0d 	cmp	r1, #13312	; 0x3400
  1143cc:	0affffe8 	beq	114374 <XSdPs_FrameCmd+0xb0>
  1143d0:	e3510b06 	cmp	r1, #6144	; 0x1800
  1143d4:	1affffcc 	bne	11430c <XSdPs_FrameCmd+0x48>
  1143d8:	e381103a 	orr	r1, r1, #58	; 0x3a
  1143dc:	e1a00001 	mov	r0, r1
  1143e0:	e12fff1e 	bx	lr
  1143e4:	e5d01024 	ldrb	r1, [r0, #36]	; 0x24
  1143e8:	e300381a 	movw	r3, #2074	; 0x81a
  1143ec:	e300283a 	movw	r2, #2106	; 0x83a
  1143f0:	e3510001 	cmp	r1, #1
  1143f4:	01a01003 	moveq	r1, r3
  1143f8:	11a01002 	movne	r1, r2
  1143fc:	eaffffc2 	b	11430c <XSdPs_FrameCmd+0x48>
  114400:	e5d01024 	ldrb	r1, [r0, #36]	; 0x24
  114404:	e300363a 	movw	r3, #1594	; 0x63a
  114408:	e300261b 	movw	r2, #1563	; 0x61b
  11440c:	e3510001 	cmp	r1, #1
  114410:	01a01003 	moveq	r1, r3
  114414:	11a01002 	movne	r1, r2
  114418:	eaffffbb 	b	11430c <XSdPs_FrameCmd+0x48>
  11441c:	e3510a01 	cmp	r1, #4096	; 0x1000
  114420:	0affffd3 	beq	114374 <XSdPs_FrameCmd+0xb0>
  114424:	e3510c11 	cmp	r1, #4352	; 0x1100
  114428:	0affffea 	beq	1143d8 <XSdPs_FrameCmd+0x114>
  11442c:	e3510b03 	cmp	r1, #3072	; 0xc00
  114430:	1affffb5 	bne	11430c <XSdPs_FrameCmd+0x48>
  114434:	eaffffce 	b	114374 <XSdPs_FrameCmd+0xb0>
  114438:	e3510c13 	cmp	r1, #4864	; 0x1300
  11443c:	0affffe5 	beq	1143d8 <XSdPs_FrameCmd+0x114>
  114440:	e3510c15 	cmp	r1, #5376	; 0x1500
  114444:	0affffe3 	beq	1143d8 <XSdPs_FrameCmd+0x114>
  114448:	eaffffaf 	b	11430c <XSdPs_FrameCmd+0x48>

0011444c <XSdPs_CmdTransfer>:
  11444c:	e92d47f0 	push	{r4, r5, r6, r7, r8, r9, sl, lr}
  114450:	e2504000 	subs	r4, r0, #0
  114454:	0a00005c 	beq	1145cc <XSdPs_CmdTransfer+0x180>
  114458:	e594c014 	ldr	ip, [r4, #20]
  11445c:	e3010111 	movw	r0, #4369	; 0x1111
  114460:	e3410111 	movt	r0, #4369	; 0x1111
  114464:	e3006aec 	movw	r6, #2796	; 0xaec
  114468:	e3406012 	movt	r6, #18
  11446c:	e3a05000 	mov	r5, #0
  114470:	e15c0000 	cmp	ip, r0
  114474:	e5865000 	str	r5, [r6]
  114478:	0a000007 	beq	11449c <XSdPs_CmdTransfer+0x50>
  11447c:	e30702d0 	movw	r0, #29392	; 0x72d0
  114480:	e300138a 	movw	r1, #906	; 0x38a
  114484:	e3400011 	movt	r0, #17
  114488:	ebffb9b4 	bl	102b60 <Xil_Assert>
  11448c:	e3a03001 	mov	r3, #1
  114490:	e1a00005 	mov	r0, r5
  114494:	e5863000 	str	r3, [r6]
  114498:	e8bd87f0 	pop	{r4, r5, r6, r7, r8, r9, sl, pc}
  11449c:	e5940004 	ldr	r0, [r4, #4]
  1144a0:	e1a07001 	mov	r7, r1
  1144a4:	e1a08002 	mov	r8, r2
  1144a8:	e1a09003 	mov	r9, r3
  1144ac:	e2800024 	add	r0, r0, #36	; 0x24
  1144b0:	ebffbc50 	bl	1035f8 <Xil_In32>
  1144b4:	e3100001 	tst	r0, #1
  1144b8:	0a000001 	beq	1144c4 <XSdPs_CmdTransfer+0x78>
  1144bc:	e3a00001 	mov	r0, #1
  1144c0:	e8bd87f0 	pop	{r4, r5, r6, r7, r8, r9, sl, pc}
  1144c4:	e5940004 	ldr	r0, [r4, #4]
  1144c8:	e6ff1079 	uxth	r1, r9
  1144cc:	e2476c13 	sub	r6, r7, #4864	; 0x1300
  1144d0:	e2800006 	add	r0, r0, #6
  1144d4:	ebffbc4b 	bl	103608 <Xil_Out16>
  1144d8:	e5940004 	ldr	r0, [r4, #4]
  1144dc:	e3a0100e 	mov	r1, #14
  1144e0:	e280002e 	add	r0, r0, #46	; 0x2e
  1144e4:	ebffbc45 	bl	103600 <Xil_Out8>
  1144e8:	e5940004 	ldr	r0, [r4, #4]
  1144ec:	e1a01008 	mov	r1, r8
  1144f0:	e2800008 	add	r0, r0, #8
  1144f4:	ebffbc45 	bl	103610 <Xil_Out32>
  1144f8:	e5940004 	ldr	r0, [r4, #4]
  1144fc:	e30f1fff 	movw	r1, #65535	; 0xffff
  114500:	e2800030 	add	r0, r0, #48	; 0x30
  114504:	ebffbc3f 	bl	103608 <Xil_Out16>
  114508:	e5940004 	ldr	r0, [r4, #4]
  11450c:	e30f13ff 	movw	r1, #62463	; 0xf3ff
  114510:	e2800032 	add	r0, r0, #50	; 0x32
  114514:	ebffbc3b 	bl	103608 <Xil_Out16>
  114518:	e1a01007 	mov	r1, r7
  11451c:	e1a00004 	mov	r0, r4
  114520:	ebffff67 	bl	1142c4 <XSdPs_FrameCmd>
  114524:	e3d66c02 	bics	r6, r6, #512	; 0x200
  114528:	e1a05000 	mov	r5, r0
  11452c:	e7ed7050 	ubfx	r7, r0, #0, #14
  114530:	0a000004 	beq	114548 <XSdPs_CmdTransfer+0xfc>
  114534:	e5940004 	ldr	r0, [r4, #4]
  114538:	e2800024 	add	r0, r0, #36	; 0x24
  11453c:	ebffbc2d 	bl	1035f8 <Xil_In32>
  114540:	e3100002 	tst	r0, #2
  114544:	1a00001d 	bne	1145c0 <XSdPs_CmdTransfer+0x174>
  114548:	e5940004 	ldr	r0, [r4, #4]
  11454c:	e1a01007 	mov	r1, r7
  114550:	e280000e 	add	r0, r0, #14
  114554:	ebffbc2b 	bl	103608 <Xil_Out16>
  114558:	ea000003 	b	11456c <XSdPs_CmdTransfer+0x120>
  11455c:	e3150902 	tst	r5, #32768	; 0x8000
  114560:	1a000023 	bne	1145f4 <XSdPs_CmdTransfer+0x1a8>
  114564:	e3150001 	tst	r5, #1
  114568:	1a00000e 	bne	1145a8 <XSdPs_CmdTransfer+0x15c>
  11456c:	e5940004 	ldr	r0, [r4, #4]
  114570:	e2800030 	add	r0, r0, #48	; 0x30
  114574:	ebffbc1d 	bl	1035f0 <Xil_In16>
  114578:	e3560000 	cmp	r6, #0
  11457c:	e1a05000 	mov	r5, r0
  114580:	1afffff5 	bne	11455c <XSdPs_CmdTransfer+0x110>
  114584:	e5940004 	ldr	r0, [r4, #4]
  114588:	e2800030 	add	r0, r0, #48	; 0x30
  11458c:	ebffbc17 	bl	1035f0 <Xil_In16>
  114590:	e3100020 	tst	r0, #32
  114594:	0afffff0 	beq	11455c <XSdPs_CmdTransfer+0x110>
  114598:	e5940004 	ldr	r0, [r4, #4]
  11459c:	e3a01020 	mov	r1, #32
  1145a0:	e2800030 	add	r0, r0, #48	; 0x30
  1145a4:	ebffbc17 	bl	103608 <Xil_Out16>
  1145a8:	e5940004 	ldr	r0, [r4, #4]
  1145ac:	e3a01001 	mov	r1, #1
  1145b0:	e2800030 	add	r0, r0, #48	; 0x30
  1145b4:	ebffbc13 	bl	103608 <Xil_Out16>
  1145b8:	e3a00000 	mov	r0, #0
  1145bc:	e8bd87f0 	pop	{r4, r5, r6, r7, r8, r9, sl, pc}
  1145c0:	e3150020 	tst	r5, #32
  1145c4:	1affffbc 	bne	1144bc <XSdPs_CmdTransfer+0x70>
  1145c8:	eaffffde 	b	114548 <XSdPs_CmdTransfer+0xfc>
  1145cc:	e30702d0 	movw	r0, #29392	; 0x72d0
  1145d0:	e3001389 	movw	r1, #905	; 0x389
  1145d4:	e3400011 	movt	r0, #17
  1145d8:	ebffb960 	bl	102b60 <Xil_Assert>
  1145dc:	e3003aec 	movw	r3, #2796	; 0xaec
  1145e0:	e3a02001 	mov	r2, #1
  1145e4:	e3403012 	movt	r3, #18
  1145e8:	e1a00004 	mov	r0, r4
  1145ec:	e5832000 	str	r2, [r3]
  1145f0:	e8bd87f0 	pop	{r4, r5, r6, r7, r8, r9, sl, pc}
  1145f4:	e5940004 	ldr	r0, [r4, #4]
  1145f8:	e2800032 	add	r0, r0, #50	; 0x32
  1145fc:	ebffbbfb 	bl	1035f0 <Xil_In16>
  114600:	e5943004 	ldr	r3, [r4, #4]
  114604:	e3d02001 	bics	r2, r0, #1
  114608:	11a04000 	movne	r4, r0
  11460c:	03a04002 	moveq	r4, #2
  114610:	e30f13ff 	movw	r1, #62463	; 0xf3ff
  114614:	e2830032 	add	r0, r3, #50	; 0x32
  114618:	ebffbbfa 	bl	103608 <Xil_Out16>
  11461c:	e1a00004 	mov	r0, r4
  114620:	e8bd87f0 	pop	{r4, r5, r6, r7, r8, r9, sl, pc}

00114624 <XSdPs_SdCardInitialize>:
  114624:	e92d4070 	push	{r4, r5, r6, lr}
  114628:	e2504000 	subs	r4, r0, #0
  11462c:	0a000093 	beq	114880 <XSdPs_SdCardInitialize+0x25c>
  114630:	e5941014 	ldr	r1, [r4, #20]
  114634:	e3013111 	movw	r3, #4369	; 0x1111
  114638:	e3413111 	movt	r3, #4369	; 0x1111
  11463c:	e3005aec 	movw	r5, #2796	; 0xaec
  114640:	e3405012 	movt	r5, #18
  114644:	e3a02000 	mov	r2, #0
  114648:	e1510003 	cmp	r1, r3
  11464c:	e5852000 	str	r2, [r5]
  114650:	1a00000f 	bne	114694 <XSdPs_SdCardInitialize+0x70>
  114654:	e5d43026 	ldrb	r3, [r4, #38]	; 0x26
  114658:	e3530002 	cmp	r3, #2
  11465c:	0a000015 	beq	1146b8 <XSdPs_SdCardInitialize+0x94>
  114660:	e594300c 	ldr	r3, [r4, #12]
  114664:	e3530000 	cmp	r3, #0
  114668:	1a000019 	bne	1146d4 <XSdPs_SdCardInitialize+0xb0>
  11466c:	e3a03000 	mov	r3, #0
  114670:	e1a00004 	mov	r0, r4
  114674:	e1a02003 	mov	r2, r3
  114678:	e1a01003 	mov	r1, r3
  11467c:	ebffff72 	bl	11444c <XSdPs_CmdTransfer>
  114680:	e2503000 	subs	r3, r0, #0
  114684:	0a000018 	beq	1146ec <XSdPs_SdCardInitialize+0xc8>
  114688:	e3a06001 	mov	r6, #1
  11468c:	e1a00006 	mov	r0, r6
  114690:	e8bd8070 	pop	{r4, r5, r6, pc}
  114694:	e30702d0 	movw	r0, #29392	; 0x72d0
  114698:	e3a01f4f 	mov	r1, #316	; 0x13c
  11469c:	e3400011 	movt	r0, #17
  1146a0:	e1a06002 	mov	r6, r2
  1146a4:	ebffb92d 	bl	102b60 <Xil_Assert>
  1146a8:	e3a03001 	mov	r3, #1
  1146ac:	e1a00006 	mov	r0, r6
  1146b0:	e5853000 	str	r3, [r5]
  1146b4:	e8bd8070 	pop	{r4, r5, r6, pc}
  1146b8:	e5943018 	ldr	r3, [r4, #24]
  1146bc:	e2033103 	and	r3, r3, #-1073741824	; 0xc0000000
  1146c0:	e3530101 	cmp	r3, #1073741824	; 0x40000000
  1146c4:	0affffe8 	beq	11466c <XSdPs_SdCardInitialize+0x48>
  1146c8:	e594300c 	ldr	r3, [r4, #12]
  1146cc:	e3530000 	cmp	r3, #0
  1146d0:	0affffe5 	beq	11466c <XSdPs_SdCardInitialize+0x48>
  1146d4:	e5940004 	ldr	r0, [r4, #4]
  1146d8:	e2800024 	add	r0, r0, #36	; 0x24
  1146dc:	ebffbbc5 	bl	1035f8 <Xil_In32>
  1146e0:	e3100801 	tst	r0, #65536	; 0x10000
  1146e4:	1affffe0 	bne	11466c <XSdPs_SdCardInitialize+0x48>
  1146e8:	eaffffe6 	b	114688 <XSdPs_SdCardInitialize+0x64>
  1146ec:	e30021aa 	movw	r2, #426	; 0x1aa
  1146f0:	e3a01b02 	mov	r1, #2048	; 0x800
  1146f4:	e1a00004 	mov	r0, r4
  1146f8:	ebffff53 	bl	11444c <XSdPs_CmdTransfer>
  1146fc:	e3d06002 	bics	r6, r0, #2
  114700:	1affffe0 	bne	114688 <XSdPs_SdCardInitialize+0x64>
  114704:	e3500002 	cmp	r0, #2
  114708:	0a000069 	beq	1148b4 <XSdPs_SdCardInitialize+0x290>
  11470c:	e5940004 	ldr	r0, [r4, #4]
  114710:	e2800010 	add	r0, r0, #16
  114714:	ebffbbb7 	bl	1035f8 <Xil_In32>
  114718:	e30031aa 	movw	r3, #426	; 0x1aa
  11471c:	e1500003 	cmp	r0, r3
  114720:	13a03001 	movne	r3, #1
  114724:	15c43025 	strbne	r3, [r4, #37]	; 0x25
  114728:	0a00005e 	beq	1148a8 <XSdPs_SdCardInitialize+0x284>
  11472c:	e3a03000 	mov	r3, #0
  114730:	e3a01c37 	mov	r1, #14080	; 0x3700
  114734:	e1a02003 	mov	r2, r3
  114738:	e1a00004 	mov	r0, r4
  11473c:	ebffff42 	bl	11444c <XSdPs_CmdTransfer>
  114740:	e3a02902 	mov	r2, #32768	; 0x8000
  114744:	e2503000 	subs	r3, r0, #0
  114748:	e1a0c002 	mov	ip, r2
  11474c:	e3a01ca9 	mov	r1, #43264	; 0xa900
  114750:	e34420ff 	movt	r2, #16639	; 0x40ff
  114754:	e344c1ff 	movt	ip, #16895	; 0x41ff
  114758:	e1a00004 	mov	r0, r4
  11475c:	1affffc9 	bne	114688 <XSdPs_SdCardInitialize+0x64>
  114760:	e5d4e026 	ldrb	lr, [r4, #38]	; 0x26
  114764:	e35e0002 	cmp	lr, #2
  114768:	01a0200c 	moveq	r2, ip
  11476c:	ebffff36 	bl	11444c <XSdPs_CmdTransfer>
  114770:	e3500000 	cmp	r0, #0
  114774:	1affffc3 	bne	114688 <XSdPs_SdCardInitialize+0x64>
  114778:	e5940004 	ldr	r0, [r4, #4]
  11477c:	e2800010 	add	r0, r0, #16
  114780:	ebffbb9c 	bl	1035f8 <Xil_In32>
  114784:	e3500000 	cmp	r0, #0
  114788:	aaffffe7 	bge	11472c <XSdPs_SdCardInitialize+0x108>
  11478c:	e3100101 	tst	r0, #1073741824	; 0x40000000
  114790:	e3a01c02 	mov	r1, #512	; 0x200
  114794:	13a03001 	movne	r3, #1
  114798:	e1a00004 	mov	r0, r4
  11479c:	15843020 	strne	r3, [r4, #32]
  1147a0:	e3a03000 	mov	r3, #0
  1147a4:	e1a02003 	mov	r2, r3
  1147a8:	ebffff27 	bl	11444c <XSdPs_CmdTransfer>
  1147ac:	e3500000 	cmp	r0, #0
  1147b0:	1affffb4 	bne	114688 <XSdPs_SdCardInitialize+0x64>
  1147b4:	e5940004 	ldr	r0, [r4, #4]
  1147b8:	e2800010 	add	r0, r0, #16
  1147bc:	ebffbb8b 	bl	1035f0 <Xil_In16>
  1147c0:	e5943004 	ldr	r3, [r4, #4]
  1147c4:	e5840030 	str	r0, [r4, #48]	; 0x30
  1147c8:	e2830014 	add	r0, r3, #20
  1147cc:	ebffbb87 	bl	1035f0 <Xil_In16>
  1147d0:	e5943004 	ldr	r3, [r4, #4]
  1147d4:	e5840034 	str	r0, [r4, #52]	; 0x34
  1147d8:	e2830018 	add	r0, r3, #24
  1147dc:	ebffbb83 	bl	1035f0 <Xil_In16>
  1147e0:	e5943004 	ldr	r3, [r4, #4]
  1147e4:	e5840038 	str	r0, [r4, #56]	; 0x38
  1147e8:	e283001c 	add	r0, r3, #28
  1147ec:	ebffbb7f 	bl	1035f0 <Xil_In16>
  1147f0:	e584003c 	str	r0, [r4, #60]	; 0x3c
  1147f4:	e3a03000 	mov	r3, #0
  1147f8:	e3a01c03 	mov	r1, #768	; 0x300
  1147fc:	e1a02003 	mov	r2, r3
  114800:	e1a00004 	mov	r0, r4
  114804:	ebffff10 	bl	11444c <XSdPs_CmdTransfer>
  114808:	e2505000 	subs	r5, r0, #0
  11480c:	1affff9d 	bne	114688 <XSdPs_SdCardInitialize+0x64>
  114810:	e5940004 	ldr	r0, [r4, #4]
  114814:	e2800010 	add	r0, r0, #16
  114818:	ebffbb76 	bl	1035f8 <Xil_In32>
  11481c:	e1a00820 	lsr	r0, r0, #16
  114820:	e1a00800 	lsl	r0, r0, #16
  114824:	e3500000 	cmp	r0, #0
  114828:	e5840040 	str	r0, [r4, #64]	; 0x40
  11482c:	0afffff0 	beq	1147f4 <XSdPs_SdCardInitialize+0x1d0>
  114830:	e1a02000 	mov	r2, r0
  114834:	e1a03005 	mov	r3, r5
  114838:	e3a01c09 	mov	r1, #2304	; 0x900
  11483c:	e1a00004 	mov	r0, r4
  114840:	ebffff01 	bl	11444c <XSdPs_CmdTransfer>
  114844:	e3500000 	cmp	r0, #0
  114848:	1affff8e 	bne	114688 <XSdPs_SdCardInitialize+0x64>
  11484c:	e5940004 	ldr	r0, [r4, #4]
  114850:	e2800010 	add	r0, r0, #16
  114854:	ebffbb67 	bl	1035f8 <Xil_In32>
  114858:	e5940004 	ldr	r0, [r4, #4]
  11485c:	e2800014 	add	r0, r0, #20
  114860:	ebffbb64 	bl	1035f8 <Xil_In32>
  114864:	e5940004 	ldr	r0, [r4, #4]
  114868:	e2800018 	add	r0, r0, #24
  11486c:	ebffbb61 	bl	1035f8 <Xil_In32>
  114870:	e5940004 	ldr	r0, [r4, #4]
  114874:	e280001c 	add	r0, r0, #28
  114878:	ebffbb5e 	bl	1035f8 <Xil_In32>
  11487c:	eaffff82 	b	11468c <XSdPs_SdCardInitialize+0x68>
  114880:	e30702d0 	movw	r0, #29392	; 0x72d0
  114884:	e300113b 	movw	r1, #315	; 0x13b
  114888:	e3400011 	movt	r0, #17
  11488c:	e1a06004 	mov	r6, r4
  114890:	ebffb8b2 	bl	102b60 <Xil_Assert>
  114894:	e3003aec 	movw	r3, #2796	; 0xaec
  114898:	e3a02001 	mov	r2, #1
  11489c:	e3403012 	movt	r3, #18
  1148a0:	e5832000 	str	r2, [r3]
  1148a4:	eaffff78 	b	11468c <XSdPs_SdCardInitialize+0x68>
  1148a8:	e3a03002 	mov	r3, #2
  1148ac:	e5c43025 	strb	r3, [r4, #37]	; 0x25
  1148b0:	eaffff9d 	b	11472c <XSdPs_SdCardInitialize+0x108>
  1148b4:	e5943004 	ldr	r3, [r4, #4]
  1148b8:	e1a01000 	mov	r1, r0
  1148bc:	e283002f 	add	r0, r3, #47	; 0x2f
  1148c0:	ebffbb4e 	bl	103600 <Xil_Out8>
  1148c4:	e5940004 	ldr	r0, [r4, #4]
  1148c8:	e280002f 	add	r0, r0, #47	; 0x2f
  1148cc:	ebffbb45 	bl	1035e8 <Xil_In8>
  1148d0:	e3100002 	tst	r0, #2
  1148d4:	1afffffa 	bne	1148c4 <XSdPs_SdCardInitialize+0x2a0>
  1148d8:	eaffff8b 	b	11470c <XSdPs_SdCardInitialize+0xe8>

001148dc <XSdPs_Select_Card>:
  1148dc:	e92d4010 	push	{r4, lr}
  1148e0:	e3a03000 	mov	r3, #0
  1148e4:	e5902040 	ldr	r2, [r0, #64]	; 0x40
  1148e8:	e3a01c07 	mov	r1, #1792	; 0x700
  1148ec:	ebfffed6 	bl	11444c <XSdPs_CmdTransfer>
  1148f0:	e2900000 	adds	r0, r0, #0
  1148f4:	13a00001 	movne	r0, #1
  1148f8:	e8bd8010 	pop	{r4, pc}

001148fc <XSdPs_SetupADMA2DescTbl>:
  1148fc:	e92d41f0 	push	{r4, r5, r6, r7, r8, lr}
  114900:	e1a06000 	mov	r6, r0
  114904:	e5900004 	ldr	r0, [r0, #4]
  114908:	e1a07001 	mov	r7, r1
  11490c:	e1a08002 	mov	r8, r2
  114910:	e2800004 	add	r0, r0, #4
  114914:	ebffbb35 	bl	1035f0 <Xil_In16>
  114918:	e7eb0050 	ubfx	r0, r0, #0, #12
  11491c:	e0030097 	mul	r3, r7, r0
  114920:	e3530801 	cmp	r3, #65536	; 0x10000
  114924:	2a000011 	bcs	114970 <XSdPs_SetupADMA2DescTbl+0x74>
  114928:	e3a01000 	mov	r1, #0
  11492c:	e1a02001 	mov	r2, r1
  114930:	e1670780 	smulbb	r7, r0, r7
  114934:	e0863182 	add	r3, r6, r2, lsl #3
  114938:	e0888001 	add	r8, r8, r1
  11493c:	e3a02023 	mov	r2, #35	; 0x23
  114940:	e1c376b2 	strh	r7, [r3, #98]	; 0x62
  114944:	e2864060 	add	r4, r6, #96	; 0x60
  114948:	e5838064 	str	r8, [r3, #100]	; 0x64
  11494c:	e1a01004 	mov	r1, r4
  114950:	e1c326b0 	strh	r2, [r3, #96]	; 0x60
  114954:	e5960004 	ldr	r0, [r6, #4]
  114958:	e2800058 	add	r0, r0, #88	; 0x58
  11495c:	ebffbb2b 	bl	103610 <Xil_Out32>
  114960:	e1a00004 	mov	r0, r4
  114964:	e3a01c01 	mov	r1, #256	; 0x100
  114968:	e8bd41f0 	pop	{r4, r5, r6, r7, r8, lr}
  11496c:	eaffb899 	b	102bd8 <Xil_DCacheFlushRange>
  114970:	e6ff2073 	uxth	r2, r3
  114974:	e1a03823 	lsr	r3, r3, #16
  114978:	e3520000 	cmp	r2, #0
  11497c:	12833001 	addne	r3, r3, #1
  114980:	e2532001 	subs	r2, r3, #1
  114984:	0affffe7 	beq	114928 <XSdPs_SetupADMA2DescTbl+0x2c>
  114988:	e243e21e 	sub	lr, r3, #-536870911	; 0xe0000001
  11498c:	e1a0c008 	mov	ip, r8
  114990:	e086e18e 	add	lr, r6, lr, lsl #3
  114994:	e1a03006 	mov	r3, r6
  114998:	e3a05021 	mov	r5, #33	; 0x21
  11499c:	e3a04000 	mov	r4, #0
  1149a0:	e583c064 	str	ip, [r3, #100]	; 0x64
  1149a4:	e2833008 	add	r3, r3, #8
  1149a8:	e1c355b8 	strh	r5, [r3, #88]	; 0x58
  1149ac:	e28cc801 	add	ip, ip, #65536	; 0x10000
  1149b0:	e1c345ba 	strh	r4, [r3, #90]	; 0x5a
  1149b4:	e153000e 	cmp	r3, lr
  1149b8:	1afffff8 	bne	1149a0 <XSdPs_SetupADMA2DescTbl+0xa4>
  1149bc:	e1a01802 	lsl	r1, r2, #16
  1149c0:	eaffffda 	b	114930 <XSdPs_SetupADMA2DescTbl+0x34>

001149c4 <XSdPs_ReadPolled>:
  1149c4:	e92d41f0 	push	{r4, r5, r6, r7, r8, lr}
  1149c8:	e1a04000 	mov	r4, r0
  1149cc:	e5d00026 	ldrb	r0, [r0, #38]	; 0x26
  1149d0:	e1a07001 	mov	r7, r1
  1149d4:	e1a05002 	mov	r5, r2
  1149d8:	e1a06003 	mov	r6, r3
  1149dc:	e3500002 	cmp	r0, #2
  1149e0:	0a00002f 	beq	114aa4 <XSdPs_ReadPolled+0xe0>
  1149e4:	e594300c 	ldr	r3, [r4, #12]
  1149e8:	e3530000 	cmp	r3, #0
  1149ec:	1a000033 	bne	114ac0 <XSdPs_ReadPolled+0xfc>
  1149f0:	e5940004 	ldr	r0, [r4, #4]
  1149f4:	e2800004 	add	r0, r0, #4
  1149f8:	ebffbafe 	bl	1035f8 <Xil_In32>
  1149fc:	e3500c02 	cmp	r0, #512	; 0x200
  114a00:	0a000004 	beq	114a18 <XSdPs_ReadPolled+0x54>
  114a04:	e3a01c02 	mov	r1, #512	; 0x200
  114a08:	e1a00004 	mov	r0, r4
  114a0c:	eb0002bc 	bl	115504 <XSdPs_SetBlkSize>
  114a10:	e3500000 	cmp	r0, #0
  114a14:	1a000011 	bne	114a60 <XSdPs_ReadPolled+0x9c>
  114a18:	e1a02006 	mov	r2, r6
  114a1c:	e1a01005 	mov	r1, r5
  114a20:	e1a00004 	mov	r0, r4
  114a24:	ebffffb4 	bl	1148fc <XSdPs_SetupADMA2DescTbl>
  114a28:	e5940004 	ldr	r0, [r4, #4]
  114a2c:	e3a01037 	mov	r1, #55	; 0x37
  114a30:	e280000c 	add	r0, r0, #12
  114a34:	ebffbaf3 	bl	103608 <Xil_Out16>
  114a38:	e1a01485 	lsl	r1, r5, #9
  114a3c:	e1a00006 	mov	r0, r6
  114a40:	ebffba48 	bl	103368 <Xil_DCacheInvalidateRange>
  114a44:	e1a03005 	mov	r3, r5
  114a48:	e1a02007 	mov	r2, r7
  114a4c:	e3a01c12 	mov	r1, #4608	; 0x1200
  114a50:	e1a00004 	mov	r0, r4
  114a54:	ebfffe7c 	bl	11444c <XSdPs_CmdTransfer>
  114a58:	e2505000 	subs	r5, r0, #0
  114a5c:	0a000004 	beq	114a74 <XSdPs_ReadPolled+0xb0>
  114a60:	e3a05001 	mov	r5, #1
  114a64:	e1a00005 	mov	r0, r5
  114a68:	e8bd81f0 	pop	{r4, r5, r6, r7, r8, pc}
  114a6c:	e3100002 	tst	r0, #2
  114a70:	1a000018 	bne	114ad8 <XSdPs_ReadPolled+0x114>
  114a74:	e5940004 	ldr	r0, [r4, #4]
  114a78:	e2800030 	add	r0, r0, #48	; 0x30
  114a7c:	ebffbadb 	bl	1035f0 <Xil_In16>
  114a80:	e3100902 	tst	r0, #32768	; 0x8000
  114a84:	0afffff8 	beq	114a6c <XSdPs_ReadPolled+0xa8>
  114a88:	e5940004 	ldr	r0, [r4, #4]
  114a8c:	e30f13ff 	movw	r1, #62463	; 0xf3ff
  114a90:	e3a05001 	mov	r5, #1
  114a94:	e2800032 	add	r0, r0, #50	; 0x32
  114a98:	ebffbada 	bl	103608 <Xil_Out16>
  114a9c:	e1a00005 	mov	r0, r5
  114aa0:	e8bd81f0 	pop	{r4, r5, r6, r7, r8, pc}
  114aa4:	e5943018 	ldr	r3, [r4, #24]
  114aa8:	e2033103 	and	r3, r3, #-1073741824	; 0xc0000000
  114aac:	e3530101 	cmp	r3, #1073741824	; 0x40000000
  114ab0:	0affffce 	beq	1149f0 <XSdPs_ReadPolled+0x2c>
  114ab4:	e594300c 	ldr	r3, [r4, #12]
  114ab8:	e3530000 	cmp	r3, #0
  114abc:	0affffcb 	beq	1149f0 <XSdPs_ReadPolled+0x2c>
  114ac0:	e5940004 	ldr	r0, [r4, #4]
  114ac4:	e2800024 	add	r0, r0, #36	; 0x24
  114ac8:	ebffbaca 	bl	1035f8 <Xil_In32>
  114acc:	e3100801 	tst	r0, #65536	; 0x10000
  114ad0:	1affffc6 	bne	1149f0 <XSdPs_ReadPolled+0x2c>
  114ad4:	eaffffe1 	b	114a60 <XSdPs_ReadPolled+0x9c>
  114ad8:	e5940004 	ldr	r0, [r4, #4]
  114adc:	e3a01002 	mov	r1, #2
  114ae0:	e2800030 	add	r0, r0, #48	; 0x30
  114ae4:	ebffbac7 	bl	103608 <Xil_Out16>
  114ae8:	e5940004 	ldr	r0, [r4, #4]
  114aec:	e2800010 	add	r0, r0, #16
  114af0:	ebffbac0 	bl	1035f8 <Xil_In32>
  114af4:	e1a00005 	mov	r0, r5
  114af8:	e8bd81f0 	pop	{r4, r5, r6, r7, r8, pc}

00114afc <XSdPs_WritePolled>:
  114afc:	e92d41f0 	push	{r4, r5, r6, r7, r8, lr}
  114b00:	e1a04000 	mov	r4, r0
  114b04:	e5d00026 	ldrb	r0, [r0, #38]	; 0x26
  114b08:	e1a07001 	mov	r7, r1
  114b0c:	e1a05002 	mov	r5, r2
  114b10:	e1a06003 	mov	r6, r3
  114b14:	e3500002 	cmp	r0, #2
  114b18:	0a00002f 	beq	114bdc <XSdPs_WritePolled+0xe0>
  114b1c:	e594300c 	ldr	r3, [r4, #12]
  114b20:	e3530000 	cmp	r3, #0
  114b24:	1a000033 	bne	114bf8 <XSdPs_WritePolled+0xfc>
  114b28:	e5940004 	ldr	r0, [r4, #4]
  114b2c:	e2800004 	add	r0, r0, #4
  114b30:	ebffbab0 	bl	1035f8 <Xil_In32>
  114b34:	e3500c02 	cmp	r0, #512	; 0x200
  114b38:	0a000004 	beq	114b50 <XSdPs_WritePolled+0x54>
  114b3c:	e3a01c02 	mov	r1, #512	; 0x200
  114b40:	e1a00004 	mov	r0, r4
  114b44:	eb00026e 	bl	115504 <XSdPs_SetBlkSize>
  114b48:	e3500000 	cmp	r0, #0
  114b4c:	1a000011 	bne	114b98 <XSdPs_WritePolled+0x9c>
  114b50:	e1a02006 	mov	r2, r6
  114b54:	e1a01005 	mov	r1, r5
  114b58:	e1a00004 	mov	r0, r4
  114b5c:	ebffff66 	bl	1148fc <XSdPs_SetupADMA2DescTbl>
  114b60:	e1a01485 	lsl	r1, r5, #9
  114b64:	e1a00006 	mov	r0, r6
  114b68:	ebffb81a 	bl	102bd8 <Xil_DCacheFlushRange>
  114b6c:	e5940004 	ldr	r0, [r4, #4]
  114b70:	e3a01027 	mov	r1, #39	; 0x27
  114b74:	e280000c 	add	r0, r0, #12
  114b78:	ebffbaa2 	bl	103608 <Xil_Out16>
  114b7c:	e1a03005 	mov	r3, r5
  114b80:	e1a02007 	mov	r2, r7
  114b84:	e3a01c19 	mov	r1, #6400	; 0x1900
  114b88:	e1a00004 	mov	r0, r4
  114b8c:	ebfffe2e 	bl	11444c <XSdPs_CmdTransfer>
  114b90:	e2505000 	subs	r5, r0, #0
  114b94:	0a000004 	beq	114bac <XSdPs_WritePolled+0xb0>
  114b98:	e3a05001 	mov	r5, #1
  114b9c:	e1a00005 	mov	r0, r5
  114ba0:	e8bd81f0 	pop	{r4, r5, r6, r7, r8, pc}
  114ba4:	e3100002 	tst	r0, #2
  114ba8:	1a000018 	bne	114c10 <XSdPs_WritePolled+0x114>
  114bac:	e5940004 	ldr	r0, [r4, #4]
  114bb0:	e2800030 	add	r0, r0, #48	; 0x30
  114bb4:	ebffba8d 	bl	1035f0 <Xil_In16>
  114bb8:	e3100902 	tst	r0, #32768	; 0x8000
  114bbc:	0afffff8 	beq	114ba4 <XSdPs_WritePolled+0xa8>
  114bc0:	e5940004 	ldr	r0, [r4, #4]
  114bc4:	e30f13ff 	movw	r1, #62463	; 0xf3ff
  114bc8:	e3a05001 	mov	r5, #1
  114bcc:	e2800032 	add	r0, r0, #50	; 0x32
  114bd0:	ebffba8c 	bl	103608 <Xil_Out16>
  114bd4:	e1a00005 	mov	r0, r5
  114bd8:	e8bd81f0 	pop	{r4, r5, r6, r7, r8, pc}
  114bdc:	e5943018 	ldr	r3, [r4, #24]
  114be0:	e2033103 	and	r3, r3, #-1073741824	; 0xc0000000
  114be4:	e3530101 	cmp	r3, #1073741824	; 0x40000000
  114be8:	0affffce 	beq	114b28 <XSdPs_WritePolled+0x2c>
  114bec:	e594300c 	ldr	r3, [r4, #12]
  114bf0:	e3530000 	cmp	r3, #0
  114bf4:	0affffcb 	beq	114b28 <XSdPs_WritePolled+0x2c>
  114bf8:	e5940004 	ldr	r0, [r4, #4]
  114bfc:	e2800024 	add	r0, r0, #36	; 0x24
  114c00:	ebffba7c 	bl	1035f8 <Xil_In32>
  114c04:	e3100801 	tst	r0, #65536	; 0x10000
  114c08:	1affffc6 	bne	114b28 <XSdPs_WritePolled+0x2c>
  114c0c:	eaffffe1 	b	114b98 <XSdPs_WritePolled+0x9c>
  114c10:	e5940004 	ldr	r0, [r4, #4]
  114c14:	e3a01002 	mov	r1, #2
  114c18:	e2800030 	add	r0, r0, #48	; 0x30
  114c1c:	ebffba79 	bl	103608 <Xil_Out16>
  114c20:	e1a00005 	mov	r0, r5
  114c24:	e8bd81f0 	pop	{r4, r5, r6, r7, r8, pc}

00114c28 <XSdPs_MmcCardInitialize>:
  114c28:	e92d4070 	push	{r4, r5, r6, lr}
  114c2c:	e2504000 	subs	r4, r0, #0
  114c30:	0a000072 	beq	114e00 <XSdPs_MmcCardInitialize+0x1d8>
  114c34:	e5942014 	ldr	r2, [r4, #20]
  114c38:	e3013111 	movw	r3, #4369	; 0x1111
  114c3c:	e3413111 	movt	r3, #4369	; 0x1111
  114c40:	e3006aec 	movw	r6, #2796	; 0xaec
  114c44:	e3406012 	movt	r6, #18
  114c48:	e3a05000 	mov	r5, #0
  114c4c:	e1520003 	cmp	r2, r3
  114c50:	e5865000 	str	r5, [r6]
  114c54:	1a000054 	bne	114dac <XSdPs_MmcCardInitialize+0x184>
  114c58:	e5d43026 	ldrb	r3, [r4, #38]	; 0x26
  114c5c:	e3530002 	cmp	r3, #2
  114c60:	0a000059 	beq	114dcc <XSdPs_MmcCardInitialize+0x1a4>
  114c64:	e594300c 	ldr	r3, [r4, #12]
  114c68:	e3530000 	cmp	r3, #0
  114c6c:	1a00005d 	bne	114de8 <XSdPs_MmcCardInitialize+0x1c0>
  114c70:	e3a03000 	mov	r3, #0
  114c74:	e1a00004 	mov	r0, r4
  114c78:	e1a02003 	mov	r2, r3
  114c7c:	e1a01003 	mov	r1, r3
  114c80:	ebfffdf1 	bl	11444c <XSdPs_CmdTransfer>
  114c84:	e3500000 	cmp	r0, #0
  114c88:	0a000001 	beq	114c94 <XSdPs_MmcCardInitialize+0x6c>
  114c8c:	e3a00001 	mov	r0, #1
  114c90:	e8bd8070 	pop	{r4, r5, r6, pc}
  114c94:	e3a02902 	mov	r2, #32768	; 0x8000
  114c98:	e3a03000 	mov	r3, #0
  114c9c:	e34420ff 	movt	r2, #16639	; 0x40ff
  114ca0:	e3a01c01 	mov	r1, #256	; 0x100
  114ca4:	e1a00004 	mov	r0, r4
  114ca8:	ebfffde7 	bl	11444c <XSdPs_CmdTransfer>
  114cac:	e3500000 	cmp	r0, #0
  114cb0:	1afffff5 	bne	114c8c <XSdPs_MmcCardInitialize+0x64>
  114cb4:	e5940004 	ldr	r0, [r4, #4]
  114cb8:	e2800010 	add	r0, r0, #16
  114cbc:	ebffba4d 	bl	1035f8 <Xil_In32>
  114cc0:	e3500000 	cmp	r0, #0
  114cc4:	aafffff2 	bge	114c94 <XSdPs_MmcCardInitialize+0x6c>
  114cc8:	e3100101 	tst	r0, #1073741824	; 0x40000000
  114ccc:	e3a01c02 	mov	r1, #512	; 0x200
  114cd0:	13a03001 	movne	r3, #1
  114cd4:	e1a00004 	mov	r0, r4
  114cd8:	15843020 	strne	r3, [r4, #32]
  114cdc:	e3a03000 	mov	r3, #0
  114ce0:	e1a02003 	mov	r2, r3
  114ce4:	ebfffdd8 	bl	11444c <XSdPs_CmdTransfer>
  114ce8:	e2505000 	subs	r5, r0, #0
  114cec:	1affffe6 	bne	114c8c <XSdPs_MmcCardInitialize+0x64>
  114cf0:	e5940004 	ldr	r0, [r4, #4]
  114cf4:	e2800010 	add	r0, r0, #16
  114cf8:	ebffba3c 	bl	1035f0 <Xil_In16>
  114cfc:	e5943004 	ldr	r3, [r4, #4]
  114d00:	e5840030 	str	r0, [r4, #48]	; 0x30
  114d04:	e2830014 	add	r0, r3, #20
  114d08:	ebffba38 	bl	1035f0 <Xil_In16>
  114d0c:	e5943004 	ldr	r3, [r4, #4]
  114d10:	e5840034 	str	r0, [r4, #52]	; 0x34
  114d14:	e2830018 	add	r0, r3, #24
  114d18:	ebffba34 	bl	1035f0 <Xil_In16>
  114d1c:	e5943004 	ldr	r3, [r4, #4]
  114d20:	e5840038 	str	r0, [r4, #56]	; 0x38
  114d24:	e283001c 	add	r0, r3, #28
  114d28:	ebffba30 	bl	1035f0 <Xil_In16>
  114d2c:	e3a02000 	mov	r2, #0
  114d30:	e584003c 	str	r0, [r4, #60]	; 0x3c
  114d34:	e3412234 	movt	r2, #4660	; 0x1234
  114d38:	e1a03005 	mov	r3, r5
  114d3c:	e5842040 	str	r2, [r4, #64]	; 0x40
  114d40:	e3a01c03 	mov	r1, #768	; 0x300
  114d44:	e1a00004 	mov	r0, r4
  114d48:	ebfffdbf 	bl	11444c <XSdPs_CmdTransfer>
  114d4c:	e2503000 	subs	r3, r0, #0
  114d50:	1affffcd 	bne	114c8c <XSdPs_MmcCardInitialize+0x64>
  114d54:	e5942040 	ldr	r2, [r4, #64]	; 0x40
  114d58:	e3a01c09 	mov	r1, #2304	; 0x900
  114d5c:	e1a00004 	mov	r0, r4
  114d60:	ebfffdb9 	bl	11444c <XSdPs_CmdTransfer>
  114d64:	e2505000 	subs	r5, r0, #0
  114d68:	1affffc7 	bne	114c8c <XSdPs_MmcCardInitialize+0x64>
  114d6c:	e5940004 	ldr	r0, [r4, #4]
  114d70:	e2800010 	add	r0, r0, #16
  114d74:	ebffba1f 	bl	1035f8 <Xil_In32>
  114d78:	e5940004 	ldr	r0, [r4, #4]
  114d7c:	e2800014 	add	r0, r0, #20
  114d80:	ebffba1c 	bl	1035f8 <Xil_In32>
  114d84:	e5940004 	ldr	r0, [r4, #4]
  114d88:	e2800018 	add	r0, r0, #24
  114d8c:	ebffba19 	bl	1035f8 <Xil_In32>
  114d90:	e5940004 	ldr	r0, [r4, #4]
  114d94:	e280001c 	add	r0, r0, #28
  114d98:	ebffba16 	bl	1035f8 <Xil_In32>
  114d9c:	e7e33950 	ubfx	r3, r0, #18, #4
  114da0:	e1a00005 	mov	r0, r5
  114da4:	e5c43025 	strb	r3, [r4, #37]	; 0x25
  114da8:	e8bd8070 	pop	{r4, r5, r6, pc}
  114dac:	e30702d0 	movw	r0, #29392	; 0x72d0
  114db0:	e3001586 	movw	r1, #1414	; 0x586
  114db4:	e3400011 	movt	r0, #17
  114db8:	ebffb768 	bl	102b60 <Xil_Assert>
  114dbc:	e3a03001 	mov	r3, #1
  114dc0:	e1a00005 	mov	r0, r5
  114dc4:	e5863000 	str	r3, [r6]
  114dc8:	e8bd8070 	pop	{r4, r5, r6, pc}
  114dcc:	e5943018 	ldr	r3, [r4, #24]
  114dd0:	e2033103 	and	r3, r3, #-1073741824	; 0xc0000000
  114dd4:	e3530101 	cmp	r3, #1073741824	; 0x40000000
  114dd8:	0affffa4 	beq	114c70 <XSdPs_MmcCardInitialize+0x48>
  114ddc:	e594300c 	ldr	r3, [r4, #12]
  114de0:	e3530000 	cmp	r3, #0
  114de4:	0affffa1 	beq	114c70 <XSdPs_MmcCardInitialize+0x48>
  114de8:	e5940004 	ldr	r0, [r4, #4]
  114dec:	e2800024 	add	r0, r0, #36	; 0x24
  114df0:	ebffba00 	bl	1035f8 <Xil_In32>
  114df4:	e3100801 	tst	r0, #65536	; 0x10000
  114df8:	1affff9c 	bne	114c70 <XSdPs_MmcCardInitialize+0x48>
  114dfc:	eaffffa2 	b	114c8c <XSdPs_MmcCardInitialize+0x64>
  114e00:	e30702d0 	movw	r0, #29392	; 0x72d0
  114e04:	e3001585 	movw	r1, #1413	; 0x585
  114e08:	e3400011 	movt	r0, #17
  114e0c:	ebffb753 	bl	102b60 <Xil_Assert>
  114e10:	e3003aec 	movw	r3, #2796	; 0xaec
  114e14:	e3a02001 	mov	r2, #1
  114e18:	e3403012 	movt	r3, #18
  114e1c:	e1a00004 	mov	r0, r4
  114e20:	e5832000 	str	r2, [r3]
  114e24:	e8bd8070 	pop	{r4, r5, r6, pc}

00114e28 <XSdPs_CardInitialize>:
  114e28:	e92d4070 	push	{r4, r5, r6, lr}
  114e2c:	e3a04000 	mov	r4, #0
  114e30:	e24dd048 	sub	sp, sp, #72	; 0x48
  114e34:	e1a05000 	mov	r5, r0
  114e38:	e1a01004 	mov	r1, r4
  114e3c:	e28d0008 	add	r0, sp, #8
  114e40:	e3a02040 	mov	r2, #64	; 0x40
  114e44:	e58d4000 	str	r4, [sp]
  114e48:	e58d4004 	str	r4, [sp, #4]
  114e4c:	ebffdc95 	bl	10c0a8 <memset>
  114e50:	e1550004 	cmp	r5, r4
  114e54:	0a00006c 	beq	11500c <XSdPs_CardInitialize+0x1e4>
  114e58:	e5952014 	ldr	r2, [r5, #20]
  114e5c:	e3013111 	movw	r3, #4369	; 0x1111
  114e60:	e3413111 	movt	r3, #4369	; 0x1111
  114e64:	e3006aec 	movw	r6, #2796	; 0xaec
  114e68:	e3406012 	movt	r6, #18
  114e6c:	e1520003 	cmp	r2, r3
  114e70:	e5864000 	str	r4, [r6]
  114e74:	1a00001b 	bne	114ee8 <XSdPs_CardInitialize+0xc0>
  114e78:	e5d51026 	ldrb	r1, [r5, #38]	; 0x26
  114e7c:	e3a02d6a 	mov	r2, #6784	; 0x1a80
  114e80:	e3a03001 	mov	r3, #1
  114e84:	e3402006 	movt	r2, #6
  114e88:	e5c5402c 	strb	r4, [r5, #44]	; 0x2c
  114e8c:	e3510002 	cmp	r1, #2
  114e90:	e5852028 	str	r2, [r5, #40]	; 0x28
  114e94:	e5c53027 	strb	r3, [r5, #39]	; 0x27
  114e98:	e5c53024 	strb	r3, [r5, #36]	; 0x24
  114e9c:	1a000005 	bne	114eb8 <XSdPs_CardInitialize+0x90>
  114ea0:	e5953018 	ldr	r3, [r5, #24]
  114ea4:	e2033103 	and	r3, r3, #-1073741824	; 0xc0000000
  114ea8:	e3530101 	cmp	r3, #1073741824	; 0x40000000
  114eac:	03a03005 	moveq	r3, #5
  114eb0:	05c53024 	strbeq	r3, [r5, #36]	; 0x24
  114eb4:	0a000038 	beq	114f9c <XSdPs_CardInitialize+0x174>
  114eb8:	e3020710 	movw	r0, #10000	; 0x2710
  114ebc:	eb00051e 	bl	11633c <usleep>
  114ec0:	e3a03000 	mov	r3, #0
  114ec4:	e1a00005 	mov	r0, r5
  114ec8:	e1a02003 	mov	r2, r3
  114ecc:	e1a01003 	mov	r1, r3
  114ed0:	ebfffd5d 	bl	11444c <XSdPs_CmdTransfer>
  114ed4:	e2503000 	subs	r3, r0, #0
  114ed8:	0a00000b 	beq	114f0c <XSdPs_CardInitialize+0xe4>
  114edc:	e3a00001 	mov	r0, #1
  114ee0:	e28dd048 	add	sp, sp, #72	; 0x48
  114ee4:	e8bd8070 	pop	{r4, r5, r6, pc}
  114ee8:	e30702d0 	movw	r0, #29392	; 0x72d0
  114eec:	e3001207 	movw	r1, #519	; 0x207
  114ef0:	e3400011 	movt	r0, #17
  114ef4:	ebffb719 	bl	102b60 <Xil_Assert>
  114ef8:	e3a03001 	mov	r3, #1
  114efc:	e1a00004 	mov	r0, r4
  114f00:	e5863000 	str	r3, [r6]
  114f04:	e28dd048 	add	sp, sp, #72	; 0x48
  114f08:	e8bd8070 	pop	{r4, r5, r6, pc}
  114f0c:	e3a02902 	mov	r2, #32768	; 0x8000
  114f10:	e3a01c01 	mov	r1, #256	; 0x100
  114f14:	e34420ff 	movt	r2, #16639	; 0x40ff
  114f18:	e1a00005 	mov	r0, r5
  114f1c:	ebfffd4a 	bl	11444c <XSdPs_CmdTransfer>
  114f20:	e3500000 	cmp	r0, #0
  114f24:	e5950004 	ldr	r0, [r5, #4]
  114f28:	13a03001 	movne	r3, #1
  114f2c:	03a03002 	moveq	r3, #2
  114f30:	e5c53024 	strb	r3, [r5, #36]	; 0x24
  114f34:	e30f1fff 	movw	r1, #65535	; 0xffff
  114f38:	e2800030 	add	r0, r0, #48	; 0x30
  114f3c:	ebffb9b1 	bl	103608 <Xil_Out16>
  114f40:	e5950004 	ldr	r0, [r5, #4]
  114f44:	e30f13ff 	movw	r1, #62463	; 0xf3ff
  114f48:	e2800032 	add	r0, r0, #50	; 0x32
  114f4c:	ebffb9ad 	bl	103608 <Xil_Out16>
  114f50:	e5950004 	ldr	r0, [r5, #4]
  114f54:	e3a01002 	mov	r1, #2
  114f58:	e280002f 	add	r0, r0, #47	; 0x2f
  114f5c:	ebffb9a7 	bl	103600 <Xil_Out8>
  114f60:	e5950004 	ldr	r0, [r5, #4]
  114f64:	e280002f 	add	r0, r0, #47	; 0x2f
  114f68:	ebffb99e 	bl	1035e8 <Xil_In8>
  114f6c:	e3100002 	tst	r0, #2
  114f70:	1afffffa 	bne	114f60 <XSdPs_CardInitialize+0x138>
  114f74:	e5d53024 	ldrb	r3, [r5, #36]	; 0x24
  114f78:	e2432001 	sub	r2, r3, #1
  114f7c:	e3530005 	cmp	r3, #5
  114f80:	13520001 	cmpne	r2, #1
  114f84:	8affffd4 	bhi	114edc <XSdPs_CardInitialize+0xb4>
  114f88:	e3530001 	cmp	r3, #1
  114f8c:	0a000028 	beq	115034 <XSdPs_CardInitialize+0x20c>
  114f90:	e3530002 	cmp	r3, #2
  114f94:	13530005 	cmpne	r3, #5
  114f98:	1affffcf 	bne	114edc <XSdPs_CardInitialize+0xb4>
  114f9c:	e1a00005 	mov	r0, r5
  114fa0:	ebffff20 	bl	114c28 <XSdPs_MmcCardInitialize>
  114fa4:	e3500000 	cmp	r0, #0
  114fa8:	1affffcb 	bne	114edc <XSdPs_CardInitialize+0xb4>
  114fac:	e30b1a80 	movw	r1, #47744	; 0xba80
  114fb0:	e1a00005 	mov	r0, r5
  114fb4:	e340118c 	movt	r1, #396	; 0x18c
  114fb8:	e5851028 	str	r1, [r5, #40]	; 0x28
  114fbc:	eb0002a3 	bl	115a50 <XSdPs_Change_ClkFreq>
  114fc0:	e3500000 	cmp	r0, #0
  114fc4:	1affffc4 	bne	114edc <XSdPs_CardInitialize+0xb4>
  114fc8:	e1a00005 	mov	r0, r5
  114fcc:	ebfffe42 	bl	1148dc <XSdPs_Select_Card>
  114fd0:	e3500000 	cmp	r0, #0
  114fd4:	1affffc0 	bne	114edc <XSdPs_CardInitialize+0xb4>
  114fd8:	e5d53024 	ldrb	r3, [r5, #36]	; 0x24
  114fdc:	e3530001 	cmp	r3, #1
  114fe0:	0a000046 	beq	115100 <XSdPs_CardInitialize+0x2d8>
  114fe4:	e3530002 	cmp	r3, #2
  114fe8:	0a000023 	beq	11507c <XSdPs_CardInitialize+0x254>
  114fec:	e3530005 	cmp	r3, #5
  114ff0:	0a000064 	beq	115188 <XSdPs_CardInitialize+0x360>
  114ff4:	e1a00005 	mov	r0, r5
  114ff8:	e3a01c02 	mov	r1, #512	; 0x200
  114ffc:	eb000140 	bl	115504 <XSdPs_SetBlkSize>
  115000:	e2900000 	adds	r0, r0, #0
  115004:	13a00001 	movne	r0, #1
  115008:	eaffffb4 	b	114ee0 <XSdPs_CardInitialize+0xb8>
  11500c:	e30702d0 	movw	r0, #29392	; 0x72d0
  115010:	e3001206 	movw	r1, #518	; 0x206
  115014:	e3400011 	movt	r0, #17
  115018:	ebffb6d0 	bl	102b60 <Xil_Assert>
  11501c:	e3003aec 	movw	r3, #2796	; 0xaec
  115020:	e3a02001 	mov	r2, #1
  115024:	e3403012 	movt	r3, #18
  115028:	e1a00005 	mov	r0, r5
  11502c:	e5832000 	str	r2, [r3]
  115030:	eaffffaa 	b	114ee0 <XSdPs_CardInitialize+0xb8>
  115034:	e1a00005 	mov	r0, r5
  115038:	ebfffd79 	bl	114624 <XSdPs_SdCardInitialize>
  11503c:	e3500000 	cmp	r0, #0
  115040:	1affffa5 	bne	114edc <XSdPs_CardInitialize+0xb4>
  115044:	e5d53026 	ldrb	r3, [r5, #38]	; 0x26
  115048:	e1a00005 	mov	r0, r5
  11504c:	e3530002 	cmp	r3, #2
  115050:	13073840 	movwne	r3, #30784	; 0x7840
  115054:	030e1ac0 	movweq	r1, #60096	; 0xeac0
  115058:	1340317d 	movtne	r3, #381	; 0x17d
  11505c:	03401121 	movteq	r1, #289	; 0x121
  115060:	05851028 	streq	r1, [r5, #40]	; 0x28
  115064:	11a01003 	movne	r1, r3
  115068:	15853028 	strne	r3, [r5, #40]	; 0x28
  11506c:	eb000277 	bl	115a50 <XSdPs_Change_ClkFreq>
  115070:	e3500000 	cmp	r0, #0
  115074:	1affff98 	bne	114edc <XSdPs_CardInitialize+0xb4>
  115078:	eaffffd2 	b	114fc8 <XSdPs_CardInitialize+0x1a0>
  11507c:	e5d53025 	ldrb	r3, [r5, #37]	; 0x25
  115080:	e3530003 	cmp	r3, #3
  115084:	9affffda 	bls	114ff4 <XSdPs_CardInitialize+0x1cc>
  115088:	e5d53026 	ldrb	r3, [r5, #38]	; 0x26
  11508c:	e3530001 	cmp	r3, #1
  115090:	1affffd7 	bne	114ff4 <XSdPs_CardInitialize+0x1cc>
  115094:	e1a00005 	mov	r0, r5
  115098:	eb0001ad 	bl	115754 <XSdPs_Change_BusWidth>
  11509c:	e3500000 	cmp	r0, #0
  1150a0:	1affff8d 	bne	114edc <XSdPs_CardInitialize+0xb4>
  1150a4:	e3004660 	movw	r4, #1632	; 0x660
  1150a8:	e1a00005 	mov	r0, r5
  1150ac:	e3404012 	movt	r4, #18
  1150b0:	e1a01004 	mov	r1, r4
  1150b4:	eb0003a7 	bl	115f58 <XSdPs_Get_Mmc_ExtCsd>
  1150b8:	e3500000 	cmp	r0, #0
  1150bc:	1affff86 	bne	114edc <XSdPs_CardInitialize+0xb4>
  1150c0:	e5d430c4 	ldrb	r3, [r4, #196]	; 0xc4
  1150c4:	e3130002 	tst	r3, #2
  1150c8:	0affffc9 	beq	114ff4 <XSdPs_CardInitialize+0x1cc>
  1150cc:	e1a00005 	mov	r0, r5
  1150d0:	eb0002cc 	bl	115c08 <XSdPs_Change_BusSpeed>
  1150d4:	e3500000 	cmp	r0, #0
  1150d8:	1affff7f 	bne	114edc <XSdPs_CardInitialize+0xb4>
  1150dc:	e1a01004 	mov	r1, r4
  1150e0:	e1a00005 	mov	r0, r5
  1150e4:	eb00039b 	bl	115f58 <XSdPs_Get_Mmc_ExtCsd>
  1150e8:	e3500000 	cmp	r0, #0
  1150ec:	1affff7a 	bne	114edc <XSdPs_CardInitialize+0xb4>
  1150f0:	e5d430b9 	ldrb	r3, [r4, #185]	; 0xb9
  1150f4:	e3530001 	cmp	r3, #1
  1150f8:	1affff77 	bne	114edc <XSdPs_CardInitialize+0xb4>
  1150fc:	eaffffbc 	b	114ff4 <XSdPs_CardInitialize+0x1cc>
  115100:	e1a00005 	mov	r0, r5
  115104:	eb000366 	bl	115ea4 <XSdPs_Pullup>
  115108:	e3500000 	cmp	r0, #0
  11510c:	1affff72 	bne	114edc <XSdPs_CardInitialize+0xb4>
  115110:	e1a0100d 	mov	r1, sp
  115114:	e1a00005 	mov	r0, r5
  115118:	eb000130 	bl	1155e0 <XSdPs_Get_BusWidth>
  11511c:	e3500000 	cmp	r0, #0
  115120:	1affff6d 	bne	114edc <XSdPs_CardInitialize+0xb4>
  115124:	e5dd3001 	ldrb	r3, [sp, #1]
  115128:	e3130004 	tst	r3, #4
  11512c:	1a000030 	bne	1151f4 <XSdPs_CardInitialize+0x3cc>
  115130:	e5d5302c 	ldrb	r3, [r5, #44]	; 0x2c
  115134:	e3530000 	cmp	r3, #0
  115138:	0a000002 	beq	115148 <XSdPs_CardInitialize+0x320>
  11513c:	e5d53027 	ldrb	r3, [r5, #39]	; 0x27
  115140:	e3530002 	cmp	r3, #2
  115144:	0a00002f 	beq	115208 <XSdPs_CardInitialize+0x3e0>
  115148:	e5dd3000 	ldrb	r3, [sp]
  11514c:	e3530000 	cmp	r3, #0
  115150:	0affffa7 	beq	114ff4 <XSdPs_CardInitialize+0x1cc>
  115154:	e28d1008 	add	r1, sp, #8
  115158:	e1a00005 	mov	r0, r5
  11515c:	eb0001e4 	bl	1158f4 <XSdPs_Get_BusSpeed>
  115160:	e3500000 	cmp	r0, #0
  115164:	1affff5c 	bne	114edc <XSdPs_CardInitialize+0xb4>
  115168:	e5dd3015 	ldrb	r3, [sp, #21]
  11516c:	e3130002 	tst	r3, #2
  115170:	0affff9f 	beq	114ff4 <XSdPs_CardInitialize+0x1cc>
  115174:	e1a00005 	mov	r0, r5
  115178:	eb0002a2 	bl	115c08 <XSdPs_Change_BusSpeed>
  11517c:	e3500000 	cmp	r0, #0
  115180:	1affff55 	bne	114edc <XSdPs_CardInitialize+0xb4>
  115184:	eaffff9a 	b	114ff4 <XSdPs_CardInitialize+0x1cc>
  115188:	e1a00005 	mov	r0, r5
  11518c:	eb000170 	bl	115754 <XSdPs_Change_BusWidth>
  115190:	e3500000 	cmp	r0, #0
  115194:	1affff50 	bne	114edc <XSdPs_CardInitialize+0xb4>
  115198:	e3004660 	movw	r4, #1632	; 0x660
  11519c:	e1a00005 	mov	r0, r5
  1151a0:	e3404012 	movt	r4, #18
  1151a4:	e1a01004 	mov	r1, r4
  1151a8:	eb00036a 	bl	115f58 <XSdPs_Get_Mmc_ExtCsd>
  1151ac:	e3500000 	cmp	r0, #0
  1151b0:	1affff49 	bne	114edc <XSdPs_CardInitialize+0xb4>
  1151b4:	e5d430c4 	ldrb	r3, [r4, #196]	; 0xc4
  1151b8:	e3130030 	tst	r3, #48	; 0x30
  1151bc:	0affff8c 	beq	114ff4 <XSdPs_CardInitialize+0x1cc>
  1151c0:	e1a00005 	mov	r0, r5
  1151c4:	eb00028f 	bl	115c08 <XSdPs_Change_BusSpeed>
  1151c8:	e3500000 	cmp	r0, #0
  1151cc:	1affff42 	bne	114edc <XSdPs_CardInitialize+0xb4>
  1151d0:	e1a01004 	mov	r1, r4
  1151d4:	e1a00005 	mov	r0, r5
  1151d8:	eb00035e 	bl	115f58 <XSdPs_Get_Mmc_ExtCsd>
  1151dc:	e3500000 	cmp	r0, #0
  1151e0:	1affff3d 	bne	114edc <XSdPs_CardInitialize+0xb4>
  1151e4:	e5d430b9 	ldrb	r3, [r4, #185]	; 0xb9
  1151e8:	e3530002 	cmp	r3, #2
  1151ec:	1affff3a 	bne	114edc <XSdPs_CardInitialize+0xb4>
  1151f0:	eaffff7f 	b	114ff4 <XSdPs_CardInitialize+0x1cc>
  1151f4:	e1a00005 	mov	r0, r5
  1151f8:	eb000155 	bl	115754 <XSdPs_Change_BusWidth>
  1151fc:	e3500000 	cmp	r0, #0
  115200:	1affff35 	bne	114edc <XSdPs_CardInitialize+0xb4>
  115204:	eaffffc9 	b	115130 <XSdPs_CardInitialize+0x308>
  115208:	e3a01003 	mov	r1, #3
  11520c:	e1a00005 	mov	r0, r5
  115210:	eb0003a7 	bl	1160b4 <XSdPs_Uhs_ModeInit>
  115214:	e3500000 	cmp	r0, #0
  115218:	1affff2f 	bne	114edc <XSdPs_CardInitialize+0xb4>
  11521c:	eaffff74 	b	114ff4 <XSdPs_CardInitialize+0x1cc>

00115220 <XSdPs_DllReset.isra.0>:
  115220:	e92d4070 	push	{r4, r5, r6, lr}
  115224:	e1a05000 	mov	r5, r0
  115228:	e5910000 	ldr	r0, [r1]
  11522c:	e1a04001 	mov	r4, r1
  115230:	e280002c 	add	r0, r0, #44	; 0x2c
  115234:	ebffb8ed 	bl	1035f0 <Xil_In16>
  115238:	e5943000 	ldr	r3, [r4]
  11523c:	e30f1ffb 	movw	r1, #65531	; 0xfffb
  115240:	e0011000 	and	r1, r1, r0
  115244:	e283002c 	add	r0, r3, #44	; 0x2c
  115248:	ebffb8ee 	bl	103608 <Xil_Out16>
  11524c:	e3a00fd6 	mov	r0, #856	; 0x358
  115250:	e34f0800 	movt	r0, #63488	; 0xf800
  115254:	ebffb8e7 	bl	1035f8 <Xil_In32>
  115258:	e1d530b0 	ldrh	r3, [r5]
  11525c:	e3530000 	cmp	r3, #0
  115260:	03801004 	orreq	r1, r0, #4
  115264:	13801701 	orrne	r1, r0, #262144	; 0x40000
  115268:	e3a00fd6 	mov	r0, #856	; 0x358
  11526c:	e34f0800 	movt	r0, #63488	; 0xf800
  115270:	ebffb8e6 	bl	103610 <Xil_Out32>
  115274:	e3a00002 	mov	r0, #2
  115278:	eb00042f 	bl	11633c <usleep>
  11527c:	e3a00fd6 	mov	r0, #856	; 0x358
  115280:	e34f0800 	movt	r0, #63488	; 0xf800
  115284:	ebffb8db 	bl	1035f8 <Xil_In32>
  115288:	e1d530b0 	ldrh	r3, [r5]
  11528c:	e3530000 	cmp	r3, #0
  115290:	03c01004 	biceq	r1, r0, #4
  115294:	13c01701 	bicne	r1, r0, #262144	; 0x40000
  115298:	e3a00fd6 	mov	r0, #856	; 0x358
  11529c:	e34f0800 	movt	r0, #63488	; 0xf800
  1152a0:	ebffb8da 	bl	103610 <Xil_Out32>
  1152a4:	e5940000 	ldr	r0, [r4]
  1152a8:	e280002c 	add	r0, r0, #44	; 0x2c
  1152ac:	ebffb8cf 	bl	1035f0 <Xil_In16>
  1152b0:	e3100002 	tst	r0, #2
  1152b4:	0afffffa 	beq	1152a4 <XSdPs_DllReset.isra.0+0x84>
  1152b8:	e5940000 	ldr	r0, [r4]
  1152bc:	e280002c 	add	r0, r0, #44	; 0x2c
  1152c0:	ebffb8ca 	bl	1035f0 <Xil_In16>
  1152c4:	e5943000 	ldr	r3, [r4]
  1152c8:	e3801004 	orr	r1, r0, #4
  1152cc:	e6ff1071 	uxth	r1, r1
  1152d0:	e8bd4070 	pop	{r4, r5, r6, lr}
  1152d4:	e283002c 	add	r0, r3, #44	; 0x2c
  1152d8:	eaffb8ca 	b	103608 <Xil_Out16>

001152dc <XSdPs_Execute_Tuning>:
  1152dc:	e92d4070 	push	{r4, r5, r6, lr}
  1152e0:	e2505000 	subs	r5, r0, #0
  1152e4:	0a00004a 	beq	115414 <XSdPs_Execute_Tuning+0x138>
  1152e8:	e5952014 	ldr	r2, [r5, #20]
  1152ec:	e3013111 	movw	r3, #4369	; 0x1111
  1152f0:	e3413111 	movt	r3, #4369	; 0x1111
  1152f4:	e3006aec 	movw	r6, #2796	; 0xaec
  1152f8:	e3406012 	movt	r6, #18
  1152fc:	e3a04000 	mov	r4, #0
  115300:	e1520003 	cmp	r2, r3
  115304:	e5864000 	str	r4, [r6]
  115308:	1a00002f 	bne	1153cc <XSdPs_Execute_Tuning+0xf0>
  11530c:	e5d53027 	ldrb	r3, [r5, #39]	; 0x27
  115310:	e1a06005 	mov	r6, r5
  115314:	e5950004 	ldr	r0, [r5, #4]
  115318:	e3a04028 	mov	r4, #40	; 0x28
  11531c:	e3530003 	cmp	r3, #3
  115320:	13a01040 	movne	r1, #64	; 0x40
  115324:	03a01080 	moveq	r1, #128	; 0x80
  115328:	e2800004 	add	r0, r0, #4
  11532c:	ebffb8b5 	bl	103608 <Xil_Out16>
  115330:	e5950004 	ldr	r0, [r5, #4]
  115334:	e3a01010 	mov	r1, #16
  115338:	e280000c 	add	r0, r0, #12
  11533c:	ebffb8b1 	bl	103608 <Xil_Out16>
  115340:	e5950004 	ldr	r0, [r5, #4]
  115344:	e280003e 	add	r0, r0, #62	; 0x3e
  115348:	ebffb8a8 	bl	1035f0 <Xil_In16>
  11534c:	e5b63004 	ldr	r3, [r6, #4]!
  115350:	e3801040 	orr	r1, r0, #64	; 0x40
  115354:	e6ff1071 	uxth	r1, r1
  115358:	e283003e 	add	r0, r3, #62	; 0x3e
  11535c:	ebffb8a9 	bl	103608 <Xil_Out16>
  115360:	e3a00001 	mov	r0, #1
  115364:	eb0003f4 	bl	11633c <usleep>
  115368:	e1a01006 	mov	r1, r6
  11536c:	e1a00005 	mov	r0, r5
  115370:	ebffffaa 	bl	115220 <XSdPs_DllReset.isra.0>
  115374:	ea000007 	b	115398 <XSdPs_Execute_Tuning+0xbc>
  115378:	e5950004 	ldr	r0, [r5, #4]
  11537c:	e280003e 	add	r0, r0, #62	; 0x3e
  115380:	ebffb89a 	bl	1035f0 <Xil_In16>
  115384:	e3100040 	tst	r0, #64	; 0x40
  115388:	e2443001 	sub	r3, r4, #1
  11538c:	0a000016 	beq	1153ec <XSdPs_Execute_Tuning+0x110>
  115390:	e21340ff 	ands	r4, r3, #255	; 0xff
  115394:	0a000014 	beq	1153ec <XSdPs_Execute_Tuning+0x110>
  115398:	e5d5c024 	ldrb	ip, [r5, #36]	; 0x24
  11539c:	e3a03001 	mov	r3, #1
  1153a0:	e3a01c15 	mov	r1, #5376	; 0x1500
  1153a4:	e3a02000 	mov	r2, #0
  1153a8:	e1a00005 	mov	r0, r5
  1153ac:	e15c0003 	cmp	ip, r3
  1153b0:	01a0300c 	moveq	r3, ip
  1153b4:	03a01c13 	moveq	r1, #4864	; 0x1300
  1153b8:	ebfffc23 	bl	11444c <XSdPs_CmdTransfer>
  1153bc:	e3500000 	cmp	r0, #0
  1153c0:	0affffec 	beq	115378 <XSdPs_Execute_Tuning+0x9c>
  1153c4:	e3a00001 	mov	r0, #1
  1153c8:	e8bd8070 	pop	{r4, r5, r6, pc}
  1153cc:	e30702d8 	movw	r0, #29400	; 0x72d8
  1153d0:	e3a01e41 	mov	r1, #1040	; 0x410
  1153d4:	e3400011 	movt	r0, #17
  1153d8:	ebffb5e0 	bl	102b60 <Xil_Assert>
  1153dc:	e3a03001 	mov	r3, #1
  1153e0:	e1a00004 	mov	r0, r4
  1153e4:	e5863000 	str	r3, [r6]
  1153e8:	e8bd8070 	pop	{r4, r5, r6, pc}
  1153ec:	e5950004 	ldr	r0, [r5, #4]
  1153f0:	e280003e 	add	r0, r0, #62	; 0x3e
  1153f4:	ebffb87d 	bl	1035f0 <Xil_In16>
  1153f8:	e3100080 	tst	r0, #128	; 0x80
  1153fc:	0afffff0 	beq	1153c4 <XSdPs_Execute_Tuning+0xe8>
  115400:	e1a00005 	mov	r0, r5
  115404:	e1a01006 	mov	r1, r6
  115408:	ebffff84 	bl	115220 <XSdPs_DllReset.isra.0>
  11540c:	e3a00000 	mov	r0, #0
  115410:	e8bd8070 	pop	{r4, r5, r6, pc}
  115414:	e30702d8 	movw	r0, #29400	; 0x72d8
  115418:	e300140f 	movw	r1, #1039	; 0x40f
  11541c:	e3400011 	movt	r0, #17
  115420:	ebffb5ce 	bl	102b60 <Xil_Assert>
  115424:	e3003aec 	movw	r3, #2796	; 0xaec
  115428:	e3a02001 	mov	r2, #1
  11542c:	e3403012 	movt	r3, #18
  115430:	e1a00005 	mov	r0, r5
  115434:	e5832000 	str	r2, [r3]
  115438:	e8bd8070 	pop	{r4, r5, r6, pc}

0011543c <XSdPs_SetTapDelay.part.3>:
  11543c:	e92d4070 	push	{r4, r5, r6, lr}
  115440:	e1a05000 	mov	r5, r0
  115444:	e3a00fd6 	mov	r0, #856	; 0x358
  115448:	e34f0800 	movt	r0, #63488	; 0xf800
  11544c:	ebffb869 	bl	1035f8 <Xil_In32>
  115450:	e1a04000 	mov	r4, r0
  115454:	e3a00fd6 	mov	r0, #856	; 0x358
  115458:	e3841004 	orr	r1, r4, #4
  11545c:	e34f0800 	movt	r0, #63488	; 0xf800
  115460:	ebffb86a 	bl	103610 <Xil_Out32>
  115464:	e5952028 	ldr	r2, [r5, #40]	; 0x28
  115468:	e3a03cc2 	mov	r3, #49664	; 0xc200
  11546c:	e3403beb 	movt	r3, #3051	; 0xbeb
  115470:	e1520003 	cmp	r2, r3
  115474:	0a000004 	beq	11548c <XSdPs_SetTapDelay.part.3+0x50>
  115478:	e3a00fd6 	mov	r0, #856	; 0x358
  11547c:	e3c41004 	bic	r1, r4, #4
  115480:	e34f0800 	movt	r0, #63488	; 0xf800
  115484:	e8bd4070 	pop	{r4, r5, r6, lr}
  115488:	eaffb860 	b	103610 <Xil_Out32>
  11548c:	e3a00fc5 	mov	r0, #788	; 0x314
  115490:	e34f0800 	movt	r0, #63488	; 0xf800
  115494:	ebffb857 	bl	1035f8 <Xil_In32>
  115498:	e1a05000 	mov	r5, r0
  11549c:	e3a00fc5 	mov	r0, #788	; 0x314
  1154a0:	e3851c02 	orr	r1, r5, #512	; 0x200
  1154a4:	e34f0800 	movt	r0, #63488	; 0xf800
  1154a8:	ebffb858 	bl	103610 <Xil_Out32>
  1154ac:	e3a00fc5 	mov	r0, #788	; 0x314
  1154b0:	e3851c03 	orr	r1, r5, #768	; 0x300
  1154b4:	e34f0800 	movt	r0, #63488	; 0xf800
  1154b8:	ebffb854 	bl	103610 <Xil_Out32>
  1154bc:	e3c51c02 	bic	r1, r5, #512	; 0x200
  1154c0:	e3a00fc5 	mov	r0, #788	; 0x314
  1154c4:	e3811c01 	orr	r1, r1, #256	; 0x100
  1154c8:	e34f0800 	movt	r0, #63488	; 0xf800
  1154cc:	ebffb84f 	bl	103610 <Xil_Out32>
  1154d0:	e3a00fc6 	mov	r0, #792	; 0x318
  1154d4:	e34f0800 	movt	r0, #63488	; 0xf800
  1154d8:	ebffb846 	bl	1035f8 <Xil_In32>
  1154dc:	e1a05000 	mov	r5, r0
  1154e0:	e3a00fc6 	mov	r0, #792	; 0x318
  1154e4:	e3851040 	orr	r1, r5, #64	; 0x40
  1154e8:	e34f0800 	movt	r0, #63488	; 0xf800
  1154ec:	ebffb847 	bl	103610 <Xil_Out32>
  1154f0:	e3a00fc6 	mov	r0, #792	; 0x318
  1154f4:	e3851043 	orr	r1, r5, #67	; 0x43
  1154f8:	e34f0800 	movt	r0, #63488	; 0xf800
  1154fc:	ebffb843 	bl	103610 <Xil_Out32>
  115500:	eaffffdc 	b	115478 <XSdPs_SetTapDelay.part.3+0x3c>

00115504 <XSdPs_SetBlkSize>:
  115504:	e92d41f0 	push	{r4, r5, r6, r7, r8, lr}
  115508:	e2506000 	subs	r6, r0, #0
  11550c:	0a000029 	beq	1155b8 <XSdPs_SetBlkSize+0xb4>
  115510:	e5960014 	ldr	r0, [r6, #20]
  115514:	e3013111 	movw	r3, #4369	; 0x1111
  115518:	e3413111 	movt	r3, #4369	; 0x1111
  11551c:	e3005aec 	movw	r5, #2796	; 0xaec
  115520:	e3405012 	movt	r5, #18
  115524:	e3a04000 	mov	r4, #0
  115528:	e1500003 	cmp	r0, r3
  11552c:	e5854000 	str	r4, [r5]
  115530:	0a000007 	beq	115554 <XSdPs_SetBlkSize+0x50>
  115534:	e30702d8 	movw	r0, #29400	; 0x72d8
  115538:	e3a01073 	mov	r1, #115	; 0x73
  11553c:	e3400011 	movt	r0, #17
  115540:	ebffb586 	bl	102b60 <Xil_Assert>
  115544:	e3a03001 	mov	r3, #1
  115548:	e1a00004 	mov	r0, r4
  11554c:	e5853000 	str	r3, [r5]
  115550:	e8bd81f0 	pop	{r4, r5, r6, r7, r8, pc}
  115554:	e5960004 	ldr	r0, [r6, #4]
  115558:	e1a07001 	mov	r7, r1
  11555c:	e2800024 	add	r0, r0, #36	; 0x24
  115560:	ebffb824 	bl	1035f8 <Xil_In32>
  115564:	e3003303 	movw	r3, #771	; 0x303
  115568:	e0033000 	and	r3, r3, r0
  11556c:	e3530000 	cmp	r3, #0
  115570:	0a000001 	beq	11557c <XSdPs_SetBlkSize+0x78>
  115574:	e3a00001 	mov	r0, #1
  115578:	e8bd81f0 	pop	{r4, r5, r6, r7, r8, pc}
  11557c:	e1a02007 	mov	r2, r7
  115580:	e3a01a01 	mov	r1, #4096	; 0x1000
  115584:	e1a00006 	mov	r0, r6
  115588:	ebfffbaf 	bl	11444c <XSdPs_CmdTransfer>
  11558c:	e2505000 	subs	r5, r0, #0
  115590:	1afffff7 	bne	115574 <XSdPs_SetBlkSize+0x70>
  115594:	e5960004 	ldr	r0, [r6, #4]
  115598:	e2800010 	add	r0, r0, #16
  11559c:	ebffb815 	bl	1035f8 <Xil_In32>
  1155a0:	e5960004 	ldr	r0, [r6, #4]
  1155a4:	e7eb1057 	ubfx	r1, r7, #0, #12
  1155a8:	e2800004 	add	r0, r0, #4
  1155ac:	ebffb815 	bl	103608 <Xil_Out16>
  1155b0:	e1a00005 	mov	r0, r5
  1155b4:	e8bd81f0 	pop	{r4, r5, r6, r7, r8, pc}
  1155b8:	e30702d8 	movw	r0, #29400	; 0x72d8
  1155bc:	e3a01072 	mov	r1, #114	; 0x72
  1155c0:	e3400011 	movt	r0, #17
  1155c4:	ebffb565 	bl	102b60 <Xil_Assert>
  1155c8:	e3003aec 	movw	r3, #2796	; 0xaec
  1155cc:	e3a02001 	mov	r2, #1
  1155d0:	e3403012 	movt	r3, #18
  1155d4:	e1a00006 	mov	r0, r6
  1155d8:	e5832000 	str	r2, [r3]
  1155dc:	e8bd81f0 	pop	{r4, r5, r6, r7, r8, pc}

001155e0 <XSdPs_Get_BusWidth>:
  1155e0:	e92d41f0 	push	{r4, r5, r6, r7, r8, lr}
  1155e4:	e2506000 	subs	r6, r0, #0
  1155e8:	0a000046 	beq	115708 <XSdPs_Get_BusWidth+0x128>
  1155ec:	e5962014 	ldr	r2, [r6, #20]
  1155f0:	e3013111 	movw	r3, #4369	; 0x1111
  1155f4:	e3413111 	movt	r3, #4369	; 0x1111
  1155f8:	e3005aec 	movw	r5, #2796	; 0xaec
  1155fc:	e3405012 	movt	r5, #18
  115600:	e3a04000 	mov	r4, #0
  115604:	e1520003 	cmp	r2, r3
  115608:	e5854000 	str	r4, [r5]
  11560c:	1a00000f 	bne	115650 <XSdPs_Get_BusWidth+0x70>
  115610:	e1a07001 	mov	r7, r1
  115614:	e1a03004 	mov	r3, r4
  115618:	e241c001 	sub	ip, r1, #1
  11561c:	e281e007 	add	lr, r1, #7
  115620:	e5ec3001 	strb	r3, [ip, #1]!
  115624:	e15c000e 	cmp	ip, lr
  115628:	1afffffc 	bne	115620 <XSdPs_Get_BusWidth+0x40>
  11562c:	e3a03000 	mov	r3, #0
  115630:	e5962040 	ldr	r2, [r6, #64]	; 0x40
  115634:	e3a01c37 	mov	r1, #14080	; 0x3700
  115638:	e1a00006 	mov	r0, r6
  11563c:	ebfffb82 	bl	11444c <XSdPs_CmdTransfer>
  115640:	e2504000 	subs	r4, r0, #0
  115644:	0a000009 	beq	115670 <XSdPs_Get_BusWidth+0x90>
  115648:	e3a00001 	mov	r0, #1
  11564c:	e8bd81f0 	pop	{r4, r5, r6, r7, r8, pc}
  115650:	e30702d8 	movw	r0, #29400	; 0x72d8
  115654:	e3a010ae 	mov	r1, #174	; 0xae
  115658:	e3400011 	movt	r0, #17
  11565c:	ebffb53f 	bl	102b60 <Xil_Assert>
  115660:	e3a03001 	mov	r3, #1
  115664:	e1a00004 	mov	r0, r4
  115668:	e5853000 	str	r3, [r5]
  11566c:	e8bd81f0 	pop	{r4, r5, r6, r7, r8, pc}
  115670:	e5960004 	ldr	r0, [r6, #4]
  115674:	e3a01008 	mov	r1, #8
  115678:	e2800004 	add	r0, r0, #4
  11567c:	ebffb7e1 	bl	103608 <Xil_Out16>
  115680:	e1a02007 	mov	r2, r7
  115684:	e3a01001 	mov	r1, #1
  115688:	e1a00006 	mov	r0, r6
  11568c:	ebfffc9a 	bl	1148fc <XSdPs_SetupADMA2DescTbl>
  115690:	e5960004 	ldr	r0, [r6, #4]
  115694:	e3a01011 	mov	r1, #17
  115698:	e280000c 	add	r0, r0, #12
  11569c:	ebffb7d9 	bl	103608 <Xil_Out16>
  1156a0:	e1a00007 	mov	r0, r7
  1156a4:	e3a01008 	mov	r1, #8
  1156a8:	ebffb72e 	bl	103368 <Xil_DCacheInvalidateRange>
  1156ac:	e1a02004 	mov	r2, r4
  1156b0:	e3a03001 	mov	r3, #1
  1156b4:	e3a01cb3 	mov	r1, #45824	; 0xb300
  1156b8:	e1a00006 	mov	r0, r6
  1156bc:	ebfffb62 	bl	11444c <XSdPs_CmdTransfer>
  1156c0:	e3500000 	cmp	r0, #0
  1156c4:	1affffdf 	bne	115648 <XSdPs_Get_BusWidth+0x68>
  1156c8:	ea000001 	b	1156d4 <XSdPs_Get_BusWidth+0xf4>
  1156cc:	e3100002 	tst	r0, #2
  1156d0:	1a000016 	bne	115730 <XSdPs_Get_BusWidth+0x150>
  1156d4:	e5960004 	ldr	r0, [r6, #4]
  1156d8:	e2800030 	add	r0, r0, #48	; 0x30
  1156dc:	ebffb7c3 	bl	1035f0 <Xil_In16>
  1156e0:	e3c02c7f 	bic	r2, r0, #32512	; 0x7f00
  1156e4:	e3c220ff 	bic	r2, r2, #255	; 0xff
  1156e8:	e6ff5072 	uxth	r5, r2
  1156ec:	e3550000 	cmp	r5, #0
  1156f0:	0afffff5 	beq	1156cc <XSdPs_Get_BusWidth+0xec>
  1156f4:	e5960004 	ldr	r0, [r6, #4]
  1156f8:	e30f13ff 	movw	r1, #62463	; 0xf3ff
  1156fc:	e2800032 	add	r0, r0, #50	; 0x32
  115700:	ebffb7c0 	bl	103608 <Xil_Out16>
  115704:	eaffffcf 	b	115648 <XSdPs_Get_BusWidth+0x68>
  115708:	e30702d8 	movw	r0, #29400	; 0x72d8
  11570c:	e3a010ad 	mov	r1, #173	; 0xad
  115710:	e3400011 	movt	r0, #17
  115714:	ebffb511 	bl	102b60 <Xil_Assert>
  115718:	e3003aec 	movw	r3, #2796	; 0xaec
  11571c:	e3a02001 	mov	r2, #1
  115720:	e3403012 	movt	r3, #18
  115724:	e1a00006 	mov	r0, r6
  115728:	e5832000 	str	r2, [r3]
  11572c:	e8bd81f0 	pop	{r4, r5, r6, r7, r8, pc}
  115730:	e5960004 	ldr	r0, [r6, #4]
  115734:	e3a01002 	mov	r1, #2
  115738:	e2800030 	add	r0, r0, #48	; 0x30
  11573c:	ebffb7b1 	bl	103608 <Xil_Out16>
  115740:	e5960004 	ldr	r0, [r6, #4]
  115744:	e2800010 	add	r0, r0, #16
  115748:	ebffb7aa 	bl	1035f8 <Xil_In32>
  11574c:	e1a00005 	mov	r0, r5
  115750:	e8bd81f0 	pop	{r4, r5, r6, r7, r8, pc}

00115754 <XSdPs_Change_BusWidth>:
  115754:	e92d4070 	push	{r4, r5, r6, lr}
  115758:	e2504000 	subs	r4, r0, #0
  11575c:	0a00005a 	beq	1158cc <XSdPs_Change_BusWidth+0x178>
  115760:	e5942014 	ldr	r2, [r4, #20]
  115764:	e3013111 	movw	r3, #4369	; 0x1111
  115768:	e3413111 	movt	r3, #4369	; 0x1111
  11576c:	e3006aec 	movw	r6, #2796	; 0xaec
  115770:	e3406012 	movt	r6, #18
  115774:	e3a05000 	mov	r5, #0
  115778:	e1520003 	cmp	r2, r3
  11577c:	e5865000 	str	r5, [r6]
  115780:	1a000025 	bne	11581c <XSdPs_Change_BusWidth+0xc8>
  115784:	e5d43024 	ldrb	r3, [r4, #36]	; 0x24
  115788:	e3530001 	cmp	r3, #1
  11578c:	0a00002a 	beq	11583c <XSdPs_Change_BusWidth+0xe8>
  115790:	e5943024 	ldr	r3, [r4, #36]	; 0x24
  115794:	e3a02005 	mov	r2, #5
  115798:	e3402002 	movt	r2, #2
  11579c:	e3a01c06 	mov	r1, #1536	; 0x600
  1157a0:	e1a00004 	mov	r0, r4
  1157a4:	e3c334ff 	bic	r3, r3, #-16777216	; 0xff000000
  1157a8:	e3c33cff 	bic	r3, r3, #65280	; 0xff00
  1157ac:	e1530002 	cmp	r3, r2
  1157b0:	03a03003 	moveq	r3, #3
  1157b4:	13a03002 	movne	r3, #2
  1157b8:	03a02c02 	moveq	r2, #512	; 0x200
  1157bc:	13a02c01 	movne	r2, #256	; 0x100
  1157c0:	05c43027 	strbeq	r3, [r4, #39]	; 0x27
  1157c4:	034023b7 	movteq	r2, #951	; 0x3b7
  1157c8:	15c43027 	strbne	r3, [r4, #39]	; 0x27
  1157cc:	134023b7 	movtne	r2, #951	; 0x3b7
  1157d0:	e3a03000 	mov	r3, #0
  1157d4:	ebfffb1c 	bl	11444c <XSdPs_CmdTransfer>
  1157d8:	e3500000 	cmp	r0, #0
  1157dc:	0a000003 	beq	1157f0 <XSdPs_Change_BusWidth+0x9c>
  1157e0:	e3a00001 	mov	r0, #1
  1157e4:	e8bd8070 	pop	{r4, r5, r6, pc}
  1157e8:	e3100002 	tst	r0, #2
  1157ec:	1a000020 	bne	115874 <XSdPs_Change_BusWidth+0x120>
  1157f0:	e5940004 	ldr	r0, [r4, #4]
  1157f4:	e2800030 	add	r0, r0, #48	; 0x30
  1157f8:	ebffb77c 	bl	1035f0 <Xil_In16>
  1157fc:	e3100902 	tst	r0, #32768	; 0x8000
  115800:	0afffff8 	beq	1157e8 <XSdPs_Change_BusWidth+0x94>
  115804:	e5940004 	ldr	r0, [r4, #4]
  115808:	e30f13ff 	movw	r1, #62463	; 0xf3ff
  11580c:	e2800032 	add	r0, r0, #50	; 0x32
  115810:	ebffb77c 	bl	103608 <Xil_Out16>
  115814:	e3a00001 	mov	r0, #1
  115818:	e8bd8070 	pop	{r4, r5, r6, pc}
  11581c:	e30702d8 	movw	r0, #29400	; 0x72d8
  115820:	e3001107 	movw	r1, #263	; 0x107
  115824:	e3400011 	movt	r0, #17
  115828:	ebffb4cc 	bl	102b60 <Xil_Assert>
  11582c:	e3a03001 	mov	r3, #1
  115830:	e1a00005 	mov	r0, r5
  115834:	e5863000 	str	r3, [r6]
  115838:	e8bd8070 	pop	{r4, r5, r6, pc}
  11583c:	e1a03005 	mov	r3, r5
  115840:	e5942040 	ldr	r2, [r4, #64]	; 0x40
  115844:	e3a01c37 	mov	r1, #14080	; 0x3700
  115848:	ebfffaff 	bl	11444c <XSdPs_CmdTransfer>
  11584c:	e2503000 	subs	r3, r0, #0
  115850:	1affffe2 	bne	1157e0 <XSdPs_Change_BusWidth+0x8c>
  115854:	e3a02002 	mov	r2, #2
  115858:	e3a01c86 	mov	r1, #34304	; 0x8600
  11585c:	e5c42027 	strb	r2, [r4, #39]	; 0x27
  115860:	e1a00004 	mov	r0, r4
  115864:	ebfffaf8 	bl	11444c <XSdPs_CmdTransfer>
  115868:	e3500000 	cmp	r0, #0
  11586c:	1affffdb 	bne	1157e0 <XSdPs_Change_BusWidth+0x8c>
  115870:	ea000003 	b	115884 <XSdPs_Change_BusWidth+0x130>
  115874:	e5940004 	ldr	r0, [r4, #4]
  115878:	e3a01002 	mov	r1, #2
  11587c:	e2800030 	add	r0, r0, #48	; 0x30
  115880:	ebffb760 	bl	103608 <Xil_Out16>
  115884:	e3a00ffa 	mov	r0, #1000	; 0x3e8
  115888:	eb0002ab 	bl	11633c <usleep>
  11588c:	e5940004 	ldr	r0, [r4, #4]
  115890:	e2800028 	add	r0, r0, #40	; 0x28
  115894:	ebffb753 	bl	1035e8 <Xil_In8>
  115898:	e5d43027 	ldrb	r3, [r4, #39]	; 0x27
  11589c:	e3530003 	cmp	r3, #3
  1158a0:	03801020 	orreq	r1, r0, #32
  1158a4:	13801002 	orrne	r1, r0, #2
  1158a8:	e5940004 	ldr	r0, [r4, #4]
  1158ac:	e6ef1071 	uxtb	r1, r1
  1158b0:	e2800028 	add	r0, r0, #40	; 0x28
  1158b4:	ebffb751 	bl	103600 <Xil_Out8>
  1158b8:	e5940004 	ldr	r0, [r4, #4]
  1158bc:	e2800010 	add	r0, r0, #16
  1158c0:	ebffb74c 	bl	1035f8 <Xil_In32>
  1158c4:	e3a00000 	mov	r0, #0
  1158c8:	e8bd8070 	pop	{r4, r5, r6, pc}
  1158cc:	e30702d8 	movw	r0, #29400	; 0x72d8
  1158d0:	e3001106 	movw	r1, #262	; 0x106
  1158d4:	e3400011 	movt	r0, #17
  1158d8:	ebffb4a0 	bl	102b60 <Xil_Assert>
  1158dc:	e3003aec 	movw	r3, #2796	; 0xaec
  1158e0:	e3a02001 	mov	r2, #1
  1158e4:	e3403012 	movt	r3, #18
  1158e8:	e1a00004 	mov	r0, r4
  1158ec:	e5832000 	str	r2, [r3]
  1158f0:	e8bd8070 	pop	{r4, r5, r6, pc}

001158f4 <XSdPs_Get_BusSpeed>:
  1158f4:	e92d41f0 	push	{r4, r5, r6, r7, r8, lr}
  1158f8:	e2505000 	subs	r5, r0, #0
  1158fc:	0a000049 	beq	115a28 <XSdPs_Get_BusSpeed+0x134>
  115900:	e5952014 	ldr	r2, [r5, #20]
  115904:	e3013111 	movw	r3, #4369	; 0x1111
  115908:	e3413111 	movt	r3, #4369	; 0x1111
  11590c:	e3006aec 	movw	r6, #2796	; 0xaec
  115910:	e3406012 	movt	r6, #18
  115914:	e3a04000 	mov	r4, #0
  115918:	e1520003 	cmp	r2, r3
  11591c:	e5864000 	str	r4, [r6]
  115920:	1a00002f 	bne	1159e4 <XSdPs_Get_BusSpeed+0xf0>
  115924:	e1a07001 	mov	r7, r1
  115928:	e1a0c004 	mov	ip, r4
  11592c:	e2413001 	sub	r3, r1, #1
  115930:	e281e03f 	add	lr, r1, #63	; 0x3f
  115934:	e5e3c001 	strb	ip, [r3, #1]!
  115938:	e153000e 	cmp	r3, lr
  11593c:	1afffffc 	bne	115934 <XSdPs_Get_BusSpeed+0x40>
  115940:	e5950004 	ldr	r0, [r5, #4]
  115944:	e3a01040 	mov	r1, #64	; 0x40
  115948:	e2800004 	add	r0, r0, #4
  11594c:	ebffb72d 	bl	103608 <Xil_Out16>
  115950:	e1a02007 	mov	r2, r7
  115954:	e3a01001 	mov	r1, #1
  115958:	e1a00005 	mov	r0, r5
  11595c:	ebfffbe6 	bl	1148fc <XSdPs_SetupADMA2DescTbl>
  115960:	e5950004 	ldr	r0, [r5, #4]
  115964:	e3a01011 	mov	r1, #17
  115968:	e280000c 	add	r0, r0, #12
  11596c:	ebffb725 	bl	103608 <Xil_Out16>
  115970:	e1a00007 	mov	r0, r7
  115974:	e3a01040 	mov	r1, #64	; 0x40
  115978:	ebffb67a 	bl	103368 <Xil_DCacheInvalidateRange>
  11597c:	e30f2ff0 	movw	r2, #65520	; 0xfff0
  115980:	e3a03001 	mov	r3, #1
  115984:	e34020ff 	movt	r2, #255	; 0xff
  115988:	e3a01c06 	mov	r1, #1536	; 0x600
  11598c:	e1a00005 	mov	r0, r5
  115990:	ebfffaad 	bl	11444c <XSdPs_CmdTransfer>
  115994:	e3500000 	cmp	r0, #0
  115998:	0a000003 	beq	1159ac <XSdPs_Get_BusSpeed+0xb8>
  11599c:	e3a00001 	mov	r0, #1
  1159a0:	e8bd81f0 	pop	{r4, r5, r6, r7, r8, pc}
  1159a4:	e3100002 	tst	r0, #2
  1159a8:	1a000015 	bne	115a04 <XSdPs_Get_BusSpeed+0x110>
  1159ac:	e5950004 	ldr	r0, [r5, #4]
  1159b0:	e2800030 	add	r0, r0, #48	; 0x30
  1159b4:	ebffb70d 	bl	1035f0 <Xil_In16>
  1159b8:	e3c03c7f 	bic	r3, r0, #32512	; 0x7f00
  1159bc:	e3c330ff 	bic	r3, r3, #255	; 0xff
  1159c0:	e6ff4073 	uxth	r4, r3
  1159c4:	e3540000 	cmp	r4, #0
  1159c8:	0afffff5 	beq	1159a4 <XSdPs_Get_BusSpeed+0xb0>
  1159cc:	e5950004 	ldr	r0, [r5, #4]
  1159d0:	e30f13ff 	movw	r1, #62463	; 0xf3ff
  1159d4:	e2800032 	add	r0, r0, #50	; 0x32
  1159d8:	ebffb70a 	bl	103608 <Xil_Out16>
  1159dc:	e3a00001 	mov	r0, #1
  1159e0:	e8bd81f0 	pop	{r4, r5, r6, r7, r8, pc}
  1159e4:	e30702d8 	movw	r0, #29400	; 0x72d8
  1159e8:	e3001185 	movw	r1, #389	; 0x185
  1159ec:	e3400011 	movt	r0, #17
  1159f0:	ebffb45a 	bl	102b60 <Xil_Assert>
  1159f4:	e3a03001 	mov	r3, #1
  1159f8:	e1a00004 	mov	r0, r4
  1159fc:	e5863000 	str	r3, [r6]
  115a00:	e8bd81f0 	pop	{r4, r5, r6, r7, r8, pc}
  115a04:	e5950004 	ldr	r0, [r5, #4]
  115a08:	e3a01002 	mov	r1, #2
  115a0c:	e2800030 	add	r0, r0, #48	; 0x30
  115a10:	ebffb6fc 	bl	103608 <Xil_Out16>
  115a14:	e5950004 	ldr	r0, [r5, #4]
  115a18:	e2800010 	add	r0, r0, #16
  115a1c:	ebffb6f5 	bl	1035f8 <Xil_In32>
  115a20:	e1a00004 	mov	r0, r4
  115a24:	e8bd81f0 	pop	{r4, r5, r6, r7, r8, pc}
  115a28:	e30702d8 	movw	r0, #29400	; 0x72d8
  115a2c:	e3a01f61 	mov	r1, #388	; 0x184
  115a30:	e3400011 	movt	r0, #17
  115a34:	ebffb449 	bl	102b60 <Xil_Assert>
  115a38:	e3003aec 	movw	r3, #2796	; 0xaec
  115a3c:	e3a02001 	mov	r2, #1
  115a40:	e3403012 	movt	r3, #18
  115a44:	e1a00005 	mov	r0, r5
  115a48:	e5832000 	str	r2, [r3]
  115a4c:	e8bd81f0 	pop	{r4, r5, r6, r7, r8, pc}

00115a50 <XSdPs_Change_ClkFreq>:
  115a50:	e92d41f0 	push	{r4, r5, r6, r7, r8, lr}
  115a54:	e2506000 	subs	r6, r0, #0
  115a58:	0a000060 	beq	115be0 <XSdPs_Change_ClkFreq+0x190>
  115a5c:	e5962014 	ldr	r2, [r6, #20]
  115a60:	e3013111 	movw	r3, #4369	; 0x1111
  115a64:	e3413111 	movt	r3, #4369	; 0x1111
  115a68:	e3005aec 	movw	r5, #2796	; 0xaec
  115a6c:	e3405012 	movt	r5, #18
  115a70:	e3a04000 	mov	r4, #0
  115a74:	e1520003 	cmp	r2, r3
  115a78:	e5854000 	str	r4, [r5]
  115a7c:	0a000007 	beq	115aa0 <XSdPs_Change_ClkFreq+0x50>
  115a80:	e30702d8 	movw	r0, #29400	; 0x72d8
  115a84:	e30012a5 	movw	r1, #677	; 0x2a5
  115a88:	e3400011 	movt	r0, #17
  115a8c:	ebffb433 	bl	102b60 <Xil_Assert>
  115a90:	e3a03001 	mov	r3, #1
  115a94:	e1a00004 	mov	r0, r4
  115a98:	e5853000 	str	r3, [r5]
  115a9c:	e8bd81f0 	pop	{r4, r5, r6, r7, r8, pc}
  115aa0:	e5960004 	ldr	r0, [r6, #4]
  115aa4:	e1a07001 	mov	r7, r1
  115aa8:	e280002c 	add	r0, r0, #44	; 0x2c
  115aac:	ebffb6cf 	bl	1035f0 <Xil_In16>
  115ab0:	e5963004 	ldr	r3, [r6, #4]
  115ab4:	e30f1ffa 	movw	r1, #65530	; 0xfffa
  115ab8:	e0011000 	and	r1, r1, r0
  115abc:	e283002c 	add	r0, r3, #44	; 0x2c
  115ac0:	ebffb6d0 	bl	103608 <Xil_Out16>
  115ac4:	e5d63026 	ldrb	r3, [r6, #38]	; 0x26
  115ac8:	e3530002 	cmp	r3, #2
  115acc:	0a000027 	beq	115b70 <XSdPs_Change_ClkFreq+0x120>
  115ad0:	e5968008 	ldr	r8, [r6, #8]
  115ad4:	e3a05009 	mov	r5, #9
  115ad8:	e3a04001 	mov	r4, #1
  115adc:	e1a01004 	mov	r1, r4
  115ae0:	e1a00008 	mov	r0, r8
  115ae4:	ebffb8fb 	bl	103ed8 <__aeabi_uidiv>
  115ae8:	e1570000 	cmp	r7, r0
  115aec:	e1a03084 	lsl	r3, r4, #1
  115af0:	2a000004 	bcs	115b08 <XSdPs_Change_ClkFreq+0xb8>
  115af4:	e2555001 	subs	r5, r5, #1
  115af8:	e6ff4073 	uxth	r4, r3
  115afc:	1afffff6 	bne	115adc <XSdPs_Change_ClkFreq+0x8c>
  115b00:	e3a00001 	mov	r0, #1
  115b04:	e8bd81f0 	pop	{r4, r5, r6, r7, r8, pc}
  115b08:	e5960004 	ldr	r0, [r6, #4]
  115b0c:	e1a040a4 	lsr	r4, r4, #1
  115b10:	e280002c 	add	r0, r0, #44	; 0x2c
  115b14:	ebffb6b5 	bl	1035f0 <Xil_In16>
  115b18:	e6ef1070 	uxtb	r1, r0
  115b1c:	e5960004 	ldr	r0, [r6, #4]
  115b20:	e3811001 	orr	r1, r1, #1
  115b24:	e1811404 	orr	r1, r1, r4, lsl #8
  115b28:	e280002c 	add	r0, r0, #44	; 0x2c
  115b2c:	e6ff1071 	uxth	r1, r1
  115b30:	ebffb6b4 	bl	103608 <Xil_Out16>
  115b34:	e5960004 	ldr	r0, [r6, #4]
  115b38:	e280002c 	add	r0, r0, #44	; 0x2c
  115b3c:	ebffb6ab 	bl	1035f0 <Xil_In16>
  115b40:	e3100002 	tst	r0, #2
  115b44:	0afffffa 	beq	115b34 <XSdPs_Change_ClkFreq+0xe4>
  115b48:	e5960004 	ldr	r0, [r6, #4]
  115b4c:	e280002c 	add	r0, r0, #44	; 0x2c
  115b50:	ebffb6a6 	bl	1035f0 <Xil_In16>
  115b54:	e5963004 	ldr	r3, [r6, #4]
  115b58:	e3801004 	orr	r1, r0, #4
  115b5c:	e6ff1071 	uxth	r1, r1
  115b60:	e283002c 	add	r0, r3, #44	; 0x2c
  115b64:	ebffb6a7 	bl	103608 <Xil_Out16>
  115b68:	e3a00000 	mov	r0, #0
  115b6c:	e8bd81f0 	pop	{r4, r5, r6, r7, r8, pc}
  115b70:	e5965008 	ldr	r5, [r6, #8]
  115b74:	e3a04001 	mov	r4, #1
  115b78:	e30087ff 	movw	r8, #2047	; 0x7ff
  115b7c:	ea000001 	b	115b88 <XSdPs_Change_ClkFreq+0x138>
  115b80:	e1540008 	cmp	r4, r8
  115b84:	0affffdd 	beq	115b00 <XSdPs_Change_ClkFreq+0xb0>
  115b88:	e1a01004 	mov	r1, r4
  115b8c:	e1a00005 	mov	r0, r5
  115b90:	ebffb8d0 	bl	103ed8 <__aeabi_uidiv>
  115b94:	e1570000 	cmp	r7, r0
  115b98:	e6ff3074 	uxth	r3, r4
  115b9c:	e2844001 	add	r4, r4, #1
  115ba0:	3afffff6 	bcc	115b80 <XSdPs_Change_ClkFreq+0x130>
  115ba4:	e5960004 	ldr	r0, [r6, #4]
  115ba8:	e1a040a3 	lsr	r4, r3, #1
  115bac:	e280002c 	add	r0, r0, #44	; 0x2c
  115bb0:	ebffb68e 	bl	1035f0 <Xil_In16>
  115bb4:	e200003f 	and	r0, r0, #63	; 0x3f
  115bb8:	e1a01124 	lsr	r1, r4, #2
  115bbc:	e3803001 	orr	r3, r0, #1
  115bc0:	e5960004 	ldr	r0, [r6, #4]
  115bc4:	e1833404 	orr	r3, r3, r4, lsl #8
  115bc8:	e20110c0 	and	r1, r1, #192	; 0xc0
  115bcc:	e6ff3073 	uxth	r3, r3
  115bd0:	e280002c 	add	r0, r0, #44	; 0x2c
  115bd4:	e1831001 	orr	r1, r3, r1
  115bd8:	ebffb68a 	bl	103608 <Xil_Out16>
  115bdc:	eaffffd4 	b	115b34 <XSdPs_Change_ClkFreq+0xe4>
  115be0:	e30702d8 	movw	r0, #29400	; 0x72d8
  115be4:	e3a01fa9 	mov	r1, #676	; 0x2a4
  115be8:	e3400011 	movt	r0, #17
  115bec:	ebffb3db 	bl	102b60 <Xil_Assert>
  115bf0:	e3003aec 	movw	r3, #2796	; 0xaec
  115bf4:	e3a02001 	mov	r2, #1
  115bf8:	e3403012 	movt	r3, #18
  115bfc:	e1a00006 	mov	r0, r6
  115c00:	e5832000 	str	r2, [r3]
  115c04:	e8bd81f0 	pop	{r4, r5, r6, r7, r8, pc}

00115c08 <XSdPs_Change_BusSpeed>:
  115c08:	e92d4070 	push	{r4, r5, r6, lr}
  115c0c:	e2504000 	subs	r4, r0, #0
  115c10:	e24dd040 	sub	sp, sp, #64	; 0x40
  115c14:	0a00007d 	beq	115e10 <XSdPs_Change_BusSpeed+0x208>
  115c18:	e5942014 	ldr	r2, [r4, #20]
  115c1c:	e3013111 	movw	r3, #4369	; 0x1111
  115c20:	e3413111 	movt	r3, #4369	; 0x1111
  115c24:	e3006aec 	movw	r6, #2796	; 0xaec
  115c28:	e3406012 	movt	r6, #18
  115c2c:	e3a05000 	mov	r5, #0
  115c30:	e1520003 	cmp	r2, r3
  115c34:	e5865000 	str	r5, [r6]
  115c38:	1a00001a 	bne	115ca8 <XSdPs_Change_BusSpeed+0xa0>
  115c3c:	e5d46024 	ldrb	r6, [r4, #36]	; 0x24
  115c40:	e3560001 	cmp	r6, #1
  115c44:	0a000020 	beq	115ccc <XSdPs_Change_BusSpeed+0xc4>
  115c48:	e3560002 	cmp	r6, #2
  115c4c:	0a00003e 	beq	115d4c <XSdPs_Change_BusSpeed+0x144>
  115c50:	e3a02c02 	mov	r2, #512	; 0x200
  115c54:	e1a03005 	mov	r3, r5
  115c58:	e34023b9 	movt	r2, #953	; 0x3b9
  115c5c:	e3a01c06 	mov	r1, #1536	; 0x600
  115c60:	ebfff9f9 	bl	11444c <XSdPs_CmdTransfer>
  115c64:	e3500000 	cmp	r0, #0
  115c68:	0a000004 	beq	115c80 <XSdPs_Change_BusSpeed+0x78>
  115c6c:	e3a00001 	mov	r0, #1
  115c70:	e28dd040 	add	sp, sp, #64	; 0x40
  115c74:	e8bd8070 	pop	{r4, r5, r6, pc}
  115c78:	e3100002 	tst	r0, #2
  115c7c:	1a000042 	bne	115d8c <XSdPs_Change_BusSpeed+0x184>
  115c80:	e5940004 	ldr	r0, [r4, #4]
  115c84:	e2800030 	add	r0, r0, #48	; 0x30
  115c88:	ebffb658 	bl	1035f0 <Xil_In16>
  115c8c:	e3100902 	tst	r0, #32768	; 0x8000
  115c90:	0afffff8 	beq	115c78 <XSdPs_Change_BusSpeed+0x70>
  115c94:	e5940004 	ldr	r0, [r4, #4]
  115c98:	e30f13ff 	movw	r1, #62463	; 0xf3ff
  115c9c:	e2800032 	add	r0, r0, #50	; 0x32
  115ca0:	ebffb658 	bl	103608 <Xil_Out16>
  115ca4:	eafffff0 	b	115c6c <XSdPs_Change_BusSpeed+0x64>
  115ca8:	e30702d8 	movw	r0, #29400	; 0x72d8
  115cac:	e30011da 	movw	r1, #474	; 0x1da
  115cb0:	e3400011 	movt	r0, #17
  115cb4:	ebffb3a9 	bl	102b60 <Xil_Assert>
  115cb8:	e3a03001 	mov	r3, #1
  115cbc:	e1a00005 	mov	r0, r5
  115cc0:	e5863000 	str	r3, [r6]
  115cc4:	e28dd040 	add	sp, sp, #64	; 0x40
  115cc8:	e8bd8070 	pop	{r4, r5, r6, pc}
  115ccc:	e5940004 	ldr	r0, [r4, #4]
  115cd0:	e3a01040 	mov	r1, #64	; 0x40
  115cd4:	e2800004 	add	r0, r0, #4
  115cd8:	ebffb64a 	bl	103608 <Xil_Out16>
  115cdc:	e1a0200d 	mov	r2, sp
  115ce0:	e1a01006 	mov	r1, r6
  115ce4:	e1a00004 	mov	r0, r4
  115ce8:	ebfffb03 	bl	1148fc <XSdPs_SetupADMA2DescTbl>
  115cec:	e1a0000d 	mov	r0, sp
  115cf0:	e3a01040 	mov	r1, #64	; 0x40
  115cf4:	ebffb3b7 	bl	102bd8 <Xil_DCacheFlushRange>
  115cf8:	e5940004 	ldr	r0, [r4, #4]
  115cfc:	e3a01011 	mov	r1, #17
  115d00:	e280000c 	add	r0, r0, #12
  115d04:	ebffb63f 	bl	103608 <Xil_Out16>
  115d08:	e30f2ff1 	movw	r2, #65521	; 0xfff1
  115d0c:	e1a03006 	mov	r3, r6
  115d10:	e3a01c06 	mov	r1, #1536	; 0x600
  115d14:	e34820ff 	movt	r2, #33023	; 0x80ff
  115d18:	e1a00004 	mov	r0, r4
  115d1c:	ebfff9ca 	bl	11444c <XSdPs_CmdTransfer>
  115d20:	e3500000 	cmp	r0, #0
  115d24:	1affffd0 	bne	115c6c <XSdPs_Change_BusSpeed+0x64>
  115d28:	ea000001 	b	115d34 <XSdPs_Change_BusSpeed+0x12c>
  115d2c:	e3100002 	tst	r0, #2
  115d30:	1a00004c 	bne	115e68 <XSdPs_Change_BusSpeed+0x260>
  115d34:	e5940004 	ldr	r0, [r4, #4]
  115d38:	e2800030 	add	r0, r0, #48	; 0x30
  115d3c:	ebffb62b 	bl	1035f0 <Xil_In16>
  115d40:	e3100902 	tst	r0, #32768	; 0x8000
  115d44:	0afffff8 	beq	115d2c <XSdPs_Change_BusSpeed+0x124>
  115d48:	eaffffd1 	b	115c94 <XSdPs_Change_BusSpeed+0x8c>
  115d4c:	e3a02c01 	mov	r2, #256	; 0x100
  115d50:	e1a03005 	mov	r3, r5
  115d54:	e34023b9 	movt	r2, #953	; 0x3b9
  115d58:	e3a01c06 	mov	r1, #1536	; 0x600
  115d5c:	ebfff9ba 	bl	11444c <XSdPs_CmdTransfer>
  115d60:	e3500000 	cmp	r0, #0
  115d64:	1affffc0 	bne	115c6c <XSdPs_Change_BusSpeed+0x64>
  115d68:	ea000001 	b	115d74 <XSdPs_Change_BusSpeed+0x16c>
  115d6c:	e3100002 	tst	r0, #2
  115d70:	1a000030 	bne	115e38 <XSdPs_Change_BusSpeed+0x230>
  115d74:	e5940004 	ldr	r0, [r4, #4]
  115d78:	e2800030 	add	r0, r0, #48	; 0x30
  115d7c:	ebffb61b 	bl	1035f0 <Xil_In16>
  115d80:	e3100902 	tst	r0, #32768	; 0x8000
  115d84:	0afffff8 	beq	115d6c <XSdPs_Change_BusSpeed+0x164>
  115d88:	eaffffc1 	b	115c94 <XSdPs_Change_BusSpeed+0x8c>
  115d8c:	e5940004 	ldr	r0, [r4, #4]
  115d90:	e3a01002 	mov	r1, #2
  115d94:	e2800030 	add	r0, r0, #48	; 0x30
  115d98:	ebffb61a 	bl	103608 <Xil_Out16>
  115d9c:	e3a01cc2 	mov	r1, #49664	; 0xc200
  115da0:	e1a00004 	mov	r0, r4
  115da4:	e3401beb 	movt	r1, #3051	; 0xbeb
  115da8:	e5841028 	str	r1, [r4, #40]	; 0x28
  115dac:	ebffff27 	bl	115a50 <XSdPs_Change_ClkFreq>
  115db0:	e3500000 	cmp	r0, #0
  115db4:	1affffac 	bne	115c6c <XSdPs_Change_BusSpeed+0x64>
  115db8:	e1a00004 	mov	r0, r4
  115dbc:	ebfffd46 	bl	1152dc <XSdPs_Execute_Tuning>
  115dc0:	e3500000 	cmp	r0, #0
  115dc4:	1affffa8 	bne	115c6c <XSdPs_Change_BusSpeed+0x64>
  115dc8:	e1d430b0 	ldrh	r3, [r4]
  115dcc:	e3530000 	cmp	r3, #0
  115dd0:	0a000030 	beq	115e98 <XSdPs_Change_BusSpeed+0x290>
  115dd4:	e3a00ffa 	mov	r0, #1000	; 0x3e8
  115dd8:	eb000157 	bl	11633c <usleep>
  115ddc:	e5940004 	ldr	r0, [r4, #4]
  115de0:	e2800028 	add	r0, r0, #40	; 0x28
  115de4:	ebffb5ff 	bl	1035e8 <Xil_In8>
  115de8:	e5943004 	ldr	r3, [r4, #4]
  115dec:	e3801004 	orr	r1, r0, #4
  115df0:	e6ef1071 	uxtb	r1, r1
  115df4:	e2830028 	add	r0, r3, #40	; 0x28
  115df8:	ebffb600 	bl	103600 <Xil_Out8>
  115dfc:	e5940004 	ldr	r0, [r4, #4]
  115e00:	e2800010 	add	r0, r0, #16
  115e04:	ebffb5fb 	bl	1035f8 <Xil_In32>
  115e08:	e3a00000 	mov	r0, #0
  115e0c:	eaffff97 	b	115c70 <XSdPs_Change_BusSpeed+0x68>
  115e10:	e30702d8 	movw	r0, #29400	; 0x72d8
  115e14:	e30011d9 	movw	r1, #473	; 0x1d9
  115e18:	e3400011 	movt	r0, #17
  115e1c:	ebffb34f 	bl	102b60 <Xil_Assert>
  115e20:	e3003aec 	movw	r3, #2796	; 0xaec
  115e24:	e3a02001 	mov	r2, #1
  115e28:	e3403012 	movt	r3, #18
  115e2c:	e1a00004 	mov	r0, r4
  115e30:	e5832000 	str	r2, [r3]
  115e34:	eaffff8d 	b	115c70 <XSdPs_Change_BusSpeed+0x68>
  115e38:	e5940004 	ldr	r0, [r4, #4]
  115e3c:	e3a01002 	mov	r1, #2
  115e40:	e2800030 	add	r0, r0, #48	; 0x30
  115e44:	ebffb5ef 	bl	103608 <Xil_Out16>
  115e48:	e3a01c75 	mov	r1, #29952	; 0x7500
  115e4c:	e1a00004 	mov	r0, r4
  115e50:	e3401319 	movt	r1, #793	; 0x319
  115e54:	e5841028 	str	r1, [r4, #40]	; 0x28
  115e58:	ebfffefc 	bl	115a50 <XSdPs_Change_ClkFreq>
  115e5c:	e3500000 	cmp	r0, #0
  115e60:	1affff81 	bne	115c6c <XSdPs_Change_BusSpeed+0x64>
  115e64:	eaffffda 	b	115dd4 <XSdPs_Change_BusSpeed+0x1cc>
  115e68:	e5940004 	ldr	r0, [r4, #4]
  115e6c:	e3a01002 	mov	r1, #2
  115e70:	e2800030 	add	r0, r0, #48	; 0x30
  115e74:	ebffb5e3 	bl	103608 <Xil_Out16>
  115e78:	e30f1080 	movw	r1, #61568	; 0xf080
  115e7c:	e1a00004 	mov	r0, r4
  115e80:	e34012fa 	movt	r1, #762	; 0x2fa
  115e84:	e5841028 	str	r1, [r4, #40]	; 0x28
  115e88:	ebfffef0 	bl	115a50 <XSdPs_Change_ClkFreq>
  115e8c:	e3500000 	cmp	r0, #0
  115e90:	1affff75 	bne	115c6c <XSdPs_Change_BusSpeed+0x64>
  115e94:	eaffffce 	b	115dd4 <XSdPs_Change_BusSpeed+0x1cc>
  115e98:	e1a00004 	mov	r0, r4
  115e9c:	ebfffd66 	bl	11543c <XSdPs_SetTapDelay.part.3>
  115ea0:	eaffffcb 	b	115dd4 <XSdPs_Change_BusSpeed+0x1cc>

00115ea4 <XSdPs_Pullup>:
  115ea4:	e92d4070 	push	{r4, r5, r6, lr}
  115ea8:	e2506000 	subs	r6, r0, #0
  115eac:	0a00001f 	beq	115f30 <XSdPs_Pullup+0x8c>
  115eb0:	e5963014 	ldr	r3, [r6, #20]
  115eb4:	e3012111 	movw	r2, #4369	; 0x1111
  115eb8:	e3412111 	movt	r2, #4369	; 0x1111
  115ebc:	e3005aec 	movw	r5, #2796	; 0xaec
  115ec0:	e3405012 	movt	r5, #18
  115ec4:	e3a04000 	mov	r4, #0
  115ec8:	e1530002 	cmp	r3, r2
  115ecc:	e5854000 	str	r4, [r5]
  115ed0:	0a000007 	beq	115ef4 <XSdPs_Pullup+0x50>
  115ed4:	e30702d8 	movw	r0, #29400	; 0x72d8
  115ed8:	e3a01fc5 	mov	r1, #788	; 0x314
  115edc:	e3400011 	movt	r0, #17
  115ee0:	ebffb31e 	bl	102b60 <Xil_Assert>
  115ee4:	e3a03001 	mov	r3, #1
  115ee8:	e1a00004 	mov	r0, r4
  115eec:	e5853000 	str	r3, [r5]
  115ef0:	e8bd8070 	pop	{r4, r5, r6, pc}
  115ef4:	e1a03004 	mov	r3, r4
  115ef8:	e5962040 	ldr	r2, [r6, #64]	; 0x40
  115efc:	e3a01c37 	mov	r1, #14080	; 0x3700
  115f00:	ebfff951 	bl	11444c <XSdPs_CmdTransfer>
  115f04:	e2503000 	subs	r3, r0, #0
  115f08:	0a000001 	beq	115f14 <XSdPs_Pullup+0x70>
  115f0c:	e3a00001 	mov	r0, #1
  115f10:	e8bd8070 	pop	{r4, r5, r6, pc}
  115f14:	e1a00006 	mov	r0, r6
  115f18:	e1a02003 	mov	r2, r3
  115f1c:	e3a01caa 	mov	r1, #43520	; 0xaa00
  115f20:	ebfff949 	bl	11444c <XSdPs_CmdTransfer>
  115f24:	e2900000 	adds	r0, r0, #0
  115f28:	13a00001 	movne	r0, #1
  115f2c:	e8bd8070 	pop	{r4, r5, r6, pc}
  115f30:	e30702d8 	movw	r0, #29400	; 0x72d8
  115f34:	e3001313 	movw	r1, #787	; 0x313
  115f38:	e3400011 	movt	r0, #17
  115f3c:	ebffb307 	bl	102b60 <Xil_Assert>
  115f40:	e3003aec 	movw	r3, #2796	; 0xaec
  115f44:	e3a02001 	mov	r2, #1
  115f48:	e3403012 	movt	r3, #18
  115f4c:	e1a00006 	mov	r0, r6
  115f50:	e5832000 	str	r2, [r3]
  115f54:	e8bd8070 	pop	{r4, r5, r6, pc}

00115f58 <XSdPs_Get_Mmc_ExtCsd>:
  115f58:	e92d41f0 	push	{r4, r5, r6, r7, r8, lr}
  115f5c:	e2505000 	subs	r5, r0, #0
  115f60:	0a000049 	beq	11608c <XSdPs_Get_Mmc_ExtCsd+0x134>
  115f64:	e5952014 	ldr	r2, [r5, #20]
  115f68:	e3013111 	movw	r3, #4369	; 0x1111
  115f6c:	e3413111 	movt	r3, #4369	; 0x1111
  115f70:	e3006aec 	movw	r6, #2796	; 0xaec
  115f74:	e3406012 	movt	r6, #18
  115f78:	e3a04000 	mov	r4, #0
  115f7c:	e1520003 	cmp	r2, r3
  115f80:	e5864000 	str	r4, [r6]
  115f84:	1a00002f 	bne	116048 <XSdPs_Get_Mmc_ExtCsd+0xf0>
  115f88:	e281ef7f 	add	lr, r1, #508	; 0x1fc
  115f8c:	e1a07001 	mov	r7, r1
  115f90:	e1a0c004 	mov	ip, r4
  115f94:	e28ee003 	add	lr, lr, #3
  115f98:	e2413001 	sub	r3, r1, #1
  115f9c:	e5e3c001 	strb	ip, [r3, #1]!
  115fa0:	e153000e 	cmp	r3, lr
  115fa4:	1afffffc 	bne	115f9c <XSdPs_Get_Mmc_ExtCsd+0x44>
  115fa8:	e5950004 	ldr	r0, [r5, #4]
  115fac:	e3a01c02 	mov	r1, #512	; 0x200
  115fb0:	e2800004 	add	r0, r0, #4
  115fb4:	ebffb593 	bl	103608 <Xil_Out16>
  115fb8:	e1a02007 	mov	r2, r7
  115fbc:	e3a01001 	mov	r1, #1
  115fc0:	e1a00005 	mov	r0, r5
  115fc4:	ebfffa4c 	bl	1148fc <XSdPs_SetupADMA2DescTbl>
  115fc8:	e1a00007 	mov	r0, r7
  115fcc:	e3a01c02 	mov	r1, #512	; 0x200
  115fd0:	ebffb4e4 	bl	103368 <Xil_DCacheInvalidateRange>
  115fd4:	e5950004 	ldr	r0, [r5, #4]
  115fd8:	e3a01011 	mov	r1, #17
  115fdc:	e280000c 	add	r0, r0, #12
  115fe0:	ebffb588 	bl	103608 <Xil_Out16>
  115fe4:	e3a03001 	mov	r3, #1
  115fe8:	e3a02000 	mov	r2, #0
  115fec:	e3a01b02 	mov	r1, #2048	; 0x800
  115ff0:	e1a00005 	mov	r0, r5
  115ff4:	ebfff914 	bl	11444c <XSdPs_CmdTransfer>
  115ff8:	e3500000 	cmp	r0, #0
  115ffc:	0a000003 	beq	116010 <XSdPs_Get_Mmc_ExtCsd+0xb8>
  116000:	e3a00001 	mov	r0, #1
  116004:	e8bd81f0 	pop	{r4, r5, r6, r7, r8, pc}
  116008:	e3100002 	tst	r0, #2
  11600c:	1a000015 	bne	116068 <XSdPs_Get_Mmc_ExtCsd+0x110>
  116010:	e5950004 	ldr	r0, [r5, #4]
  116014:	e2800030 	add	r0, r0, #48	; 0x30
  116018:	ebffb574 	bl	1035f0 <Xil_In16>
  11601c:	e3c03c7f 	bic	r3, r0, #32512	; 0x7f00
  116020:	e3c330ff 	bic	r3, r3, #255	; 0xff
  116024:	e6ff4073 	uxth	r4, r3
  116028:	e3540000 	cmp	r4, #0
  11602c:	0afffff5 	beq	116008 <XSdPs_Get_Mmc_ExtCsd+0xb0>
  116030:	e5950004 	ldr	r0, [r5, #4]
  116034:	e30f13ff 	movw	r1, #62463	; 0xf3ff
  116038:	e2800032 	add	r0, r0, #50	; 0x32
  11603c:	ebffb571 	bl	103608 <Xil_Out16>
  116040:	e3a00001 	mov	r0, #1
  116044:	e8bd81f0 	pop	{r4, r5, r6, r7, r8, pc}
  116048:	e30702d8 	movw	r0, #29400	; 0x72d8
  11604c:	e3a01fd1 	mov	r1, #836	; 0x344
  116050:	e3400011 	movt	r0, #17
  116054:	ebffb2c1 	bl	102b60 <Xil_Assert>
  116058:	e3a03001 	mov	r3, #1
  11605c:	e1a00004 	mov	r0, r4
  116060:	e5863000 	str	r3, [r6]
  116064:	e8bd81f0 	pop	{r4, r5, r6, r7, r8, pc}
  116068:	e5950004 	ldr	r0, [r5, #4]
  11606c:	e3a01002 	mov	r1, #2
  116070:	e2800030 	add	r0, r0, #48	; 0x30
  116074:	ebffb563 	bl	103608 <Xil_Out16>
  116078:	e5950004 	ldr	r0, [r5, #4]
  11607c:	e2800010 	add	r0, r0, #16
  116080:	ebffb55c 	bl	1035f8 <Xil_In32>
  116084:	e1a00004 	mov	r0, r4
  116088:	e8bd81f0 	pop	{r4, r5, r6, r7, r8, pc}
  11608c:	e30702d8 	movw	r0, #29400	; 0x72d8
  116090:	e3001343 	movw	r1, #835	; 0x343
  116094:	e3400011 	movt	r0, #17
  116098:	ebffb2b0 	bl	102b60 <Xil_Assert>
  11609c:	e3003aec 	movw	r3, #2796	; 0xaec
  1160a0:	e3a02001 	mov	r2, #1
  1160a4:	e3403012 	movt	r3, #18
  1160a8:	e1a00005 	mov	r0, r5
  1160ac:	e5832000 	str	r2, [r3]
  1160b0:	e8bd81f0 	pop	{r4, r5, r6, r7, r8, pc}

001160b4 <XSdPs_Uhs_ModeInit>:
  1160b4:	e92d40f0 	push	{r4, r5, r6, r7, lr}
  1160b8:	e2504000 	subs	r4, r0, #0
  1160bc:	e24dd044 	sub	sp, sp, #68	; 0x44
  1160c0:	0a000076 	beq	1162a0 <XSdPs_Uhs_ModeInit+0x1ec>
  1160c4:	e5942014 	ldr	r2, [r4, #20]
  1160c8:	e3013111 	movw	r3, #4369	; 0x1111
  1160cc:	e3413111 	movt	r3, #4369	; 0x1111
  1160d0:	e3006aec 	movw	r6, #2796	; 0xaec
  1160d4:	e3406012 	movt	r6, #18
  1160d8:	e3a05000 	mov	r5, #0
  1160dc:	e1520003 	cmp	r2, r3
  1160e0:	e5865000 	str	r5, [r6]
  1160e4:	0a000008 	beq	11610c <XSdPs_Uhs_ModeInit+0x58>
  1160e8:	e30702d8 	movw	r0, #29400	; 0x72d8
  1160ec:	e300139b 	movw	r1, #923	; 0x39b
  1160f0:	e3400011 	movt	r0, #17
  1160f4:	ebffb299 	bl	102b60 <Xil_Assert>
  1160f8:	e1a00005 	mov	r0, r5
  1160fc:	e3a03001 	mov	r3, #1
  116100:	e5863000 	str	r3, [r6]
  116104:	e28dd044 	add	sp, sp, #68	; 0x44
  116108:	e8bd80f0 	pop	{r4, r5, r6, r7, pc}
  11610c:	e5940004 	ldr	r0, [r4, #4]
  116110:	e1a07001 	mov	r7, r1
  116114:	e3a01040 	mov	r1, #64	; 0x40
  116118:	e2800004 	add	r0, r0, #4
  11611c:	ebffb539 	bl	103608 <Xil_Out16>
  116120:	e1a0200d 	mov	r2, sp
  116124:	e3a01001 	mov	r1, #1
  116128:	e1a00004 	mov	r0, r4
  11612c:	ebfff9f2 	bl	1148fc <XSdPs_SetupADMA2DescTbl>
  116130:	e1a0000d 	mov	r0, sp
  116134:	e3a01040 	mov	r1, #64	; 0x40
  116138:	ebffb2a6 	bl	102bd8 <Xil_DCacheFlushRange>
  11613c:	e5940004 	ldr	r0, [r4, #4]
  116140:	e3a01011 	mov	r1, #17
  116144:	e280000c 	add	r0, r0, #12
  116148:	ebffb52e 	bl	103608 <Xil_Out16>
  11614c:	e3570004 	cmp	r7, #4
  116150:	979ff107 	ldrls	pc, [pc, r7, lsl #2]
  116154:	ea00000f 	b	116198 <XSdPs_Uhs_ModeInit+0xe4>
  116158:	001161f0 	.word	0x001161f0
  11615c:	001161d8 	.word	0x001161d8
  116160:	00116220 	.word	0x00116220
  116164:	00116208 	.word	0x00116208
  116168:	0011616c 	.word	0x0011616c
  11616c:	e30f2ff4 	movw	r2, #65524	; 0xfff4
  116170:	e30f3080 	movw	r3, #61568	; 0xf080
  116174:	e34820ff 	movt	r2, #33023	; 0x80ff
  116178:	e34032fa 	movt	r3, #762	; 0x2fa
  11617c:	e5843028 	str	r3, [r4, #40]	; 0x28
  116180:	e3a03001 	mov	r3, #1
  116184:	e3a01c06 	mov	r1, #1536	; 0x600
  116188:	e1a00004 	mov	r0, r4
  11618c:	ebfff8ae 	bl	11444c <XSdPs_CmdTransfer>
  116190:	e3500000 	cmp	r0, #0
  116194:	0a000004 	beq	1161ac <XSdPs_Uhs_ModeInit+0xf8>
  116198:	e3a00001 	mov	r0, #1
  11619c:	e28dd044 	add	sp, sp, #68	; 0x44
  1161a0:	e8bd80f0 	pop	{r4, r5, r6, r7, pc}
  1161a4:	e3100002 	tst	r0, #2
  1161a8:	1a000022 	bne	116238 <XSdPs_Uhs_ModeInit+0x184>
  1161ac:	e5940004 	ldr	r0, [r4, #4]
  1161b0:	e2800030 	add	r0, r0, #48	; 0x30
  1161b4:	ebffb50d 	bl	1035f0 <Xil_In16>
  1161b8:	e3100902 	tst	r0, #32768	; 0x8000
  1161bc:	0afffff8 	beq	1161a4 <XSdPs_Uhs_ModeInit+0xf0>
  1161c0:	e5940004 	ldr	r0, [r4, #4]
  1161c4:	e30f13ff 	movw	r1, #62463	; 0xf3ff
  1161c8:	e2800032 	add	r0, r0, #50	; 0x32
  1161cc:	ebffb50d 	bl	103608 <Xil_Out16>
  1161d0:	e3a00001 	mov	r0, #1
  1161d4:	eaffffca 	b	116104 <XSdPs_Uhs_ModeInit+0x50>
  1161d8:	e30f3080 	movw	r3, #61568	; 0xf080
  1161dc:	e30f2ff1 	movw	r2, #65521	; 0xfff1
  1161e0:	e34032fa 	movt	r3, #762	; 0x2fa
  1161e4:	e34820ff 	movt	r2, #33023	; 0x80ff
  1161e8:	e5843028 	str	r3, [r4, #40]	; 0x28
  1161ec:	eaffffe3 	b	116180 <XSdPs_Uhs_ModeInit+0xcc>
  1161f0:	e3073840 	movw	r3, #30784	; 0x7840
  1161f4:	e30f2ff0 	movw	r2, #65520	; 0xfff0
  1161f8:	e340317d 	movt	r3, #381	; 0x17d
  1161fc:	e34820ff 	movt	r2, #33023	; 0x80ff
  116200:	e5843028 	str	r3, [r4, #40]	; 0x28
  116204:	eaffffdd 	b	116180 <XSdPs_Uhs_ModeInit+0xcc>
  116208:	e3a03b35 	mov	r3, #54272	; 0xd400
  11620c:	e30f2ff3 	movw	r2, #65523	; 0xfff3
  116210:	e3403c65 	movt	r3, #3173	; 0xc65
  116214:	e34820ff 	movt	r2, #33023	; 0x80ff
  116218:	e5843028 	str	r3, [r4, #40]	; 0x28
  11621c:	eaffffd7 	b	116180 <XSdPs_Uhs_ModeInit+0xcc>
  116220:	e3a03ce1 	mov	r3, #57600	; 0xe100
  116224:	e30f2ff2 	movw	r2, #65522	; 0xfff2
  116228:	e34035f5 	movt	r3, #1525	; 0x5f5
  11622c:	e34820ff 	movt	r2, #33023	; 0x80ff
  116230:	e5843028 	str	r3, [r4, #40]	; 0x28
  116234:	eaffffd1 	b	116180 <XSdPs_Uhs_ModeInit+0xcc>
  116238:	e5940004 	ldr	r0, [r4, #4]
  11623c:	e3a01002 	mov	r1, #2
  116240:	e2800030 	add	r0, r0, #48	; 0x30
  116244:	ebffb4ef 	bl	103608 <Xil_Out16>
  116248:	e5940004 	ldr	r0, [r4, #4]
  11624c:	e280003e 	add	r0, r0, #62	; 0x3e
  116250:	ebffb4e6 	bl	1035f0 <Xil_In16>
  116254:	e5943004 	ldr	r3, [r4, #4]
  116258:	e30f1ff8 	movw	r1, #65528	; 0xfff8
  11625c:	e0011000 	and	r1, r1, r0
  116260:	e1811007 	orr	r1, r1, r7
  116264:	e283003e 	add	r0, r3, #62	; 0x3e
  116268:	ebffb4e6 	bl	103608 <Xil_Out16>
  11626c:	e5941028 	ldr	r1, [r4, #40]	; 0x28
  116270:	e1a00004 	mov	r0, r4
  116274:	ebfffdf5 	bl	115a50 <XSdPs_Change_ClkFreq>
  116278:	e3500000 	cmp	r0, #0
  11627c:	1affffc5 	bne	116198 <XSdPs_Uhs_ModeInit+0xe4>
  116280:	e2477003 	sub	r7, r7, #3
  116284:	e3570001 	cmp	r7, #1
  116288:	8affff9d 	bhi	116104 <XSdPs_Uhs_ModeInit+0x50>
  11628c:	e1a00004 	mov	r0, r4
  116290:	ebfffc11 	bl	1152dc <XSdPs_Execute_Tuning>
  116294:	e2900000 	adds	r0, r0, #0
  116298:	13a00001 	movne	r0, #1
  11629c:	eaffff98 	b	116104 <XSdPs_Uhs_ModeInit+0x50>
  1162a0:	e30702d8 	movw	r0, #29400	; 0x72d8
  1162a4:	e300139a 	movw	r1, #922	; 0x39a
  1162a8:	e3400011 	movt	r0, #17
  1162ac:	ebffb22b 	bl	102b60 <Xil_Assert>
  1162b0:	e3003aec 	movw	r3, #2796	; 0xaec
  1162b4:	e3a02001 	mov	r2, #1
  1162b8:	e3403012 	movt	r3, #18
  1162bc:	e1a00004 	mov	r0, r4
  1162c0:	e5832000 	str	r2, [r3]
  1162c4:	eaffff8e 	b	116104 <XSdPs_Uhs_ModeInit+0x50>

001162c8 <XSdPs_SetTapDelay>:
  1162c8:	e1d030b0 	ldrh	r3, [r0]
  1162cc:	e3530000 	cmp	r3, #0
  1162d0:	112fff1e 	bxne	lr
  1162d4:	eafffc58 	b	11543c <XSdPs_SetTapDelay.part.3>

001162d8 <XSdPs_LookupConfig>:
  1162d8:	e3083350 	movw	r3, #33616	; 0x8350
  1162dc:	e3403011 	movt	r3, #17
  1162e0:	e1d320b0 	ldrh	r2, [r3]
  1162e4:	e1520000 	cmp	r2, r0
  1162e8:	01a00003 	moveq	r0, r3
  1162ec:	13a00000 	movne	r0, #0
  1162f0:	e12fff1e 	bx	lr

001162f4 <sleep>:
  1162f4:	e92d4070 	push	{r4, r5, r6, lr}
  1162f8:	e24dd008 	sub	sp, sp, #8
  1162fc:	e1a06000 	mov	r6, r0
  116300:	e1a0000d 	mov	r0, sp
  116304:	ebffb691 	bl	103d50 <XTime_GetTime>
  116308:	e1cd40d0 	ldrd	r4, [sp]
  11630c:	e3a03d6d 	mov	r3, #6976	; 0x1b40
  116310:	e341335f 	movt	r3, #4959	; 0x135f
  116314:	e0a54693 	umlal	r4, r5, r3, r6
  116318:	e1a0000d 	mov	r0, sp
  11631c:	ebffb68b 	bl	103d50 <XTime_GetTime>
  116320:	e1cd20d0 	ldrd	r2, [sp]
  116324:	e1550003 	cmp	r5, r3
  116328:	01540002 	cmpeq	r4, r2
  11632c:	8afffff9 	bhi	116318 <sleep+0x24>
  116330:	e3a00000 	mov	r0, #0
  116334:	e28dd008 	add	sp, sp, #8
  116338:	e8bd8070 	pop	{r4, r5, r6, pc}

0011633c <usleep>:
  11633c:	e92d4070 	push	{r4, r5, r6, lr}
  116340:	e24dd008 	sub	sp, sp, #8
  116344:	e1a06000 	mov	r6, r0
  116348:	e1a0000d 	mov	r0, sp
  11634c:	ebffb67f 	bl	103d50 <XTime_GetTime>
  116350:	e1cd40d0 	ldrd	r4, [sp]
  116354:	e3003145 	movw	r3, #325	; 0x145
  116358:	e0a54693 	umlal	r4, r5, r3, r6
  11635c:	e1a0000d 	mov	r0, sp
  116360:	ebffb67a 	bl	103d50 <XTime_GetTime>
  116364:	e1cd20d0 	ldrd	r2, [sp]
  116368:	e1550003 	cmp	r5, r3
  11636c:	01540002 	cmpeq	r4, r2
  116370:	8afffff9 	bhi	11635c <usleep+0x20>
  116374:	e3a00000 	mov	r0, #0
  116378:	e28dd008 	add	sp, sp, #8
  11637c:	e8bd8070 	pop	{r4, r5, r6, pc}

00116380 <main>:



int main()
{
	char * const in_file[] = { "isin1.bin\0", "icos1.bin\0", "iatan1.bin\0", "imod1.bin\0","isin2.bin\0", "icos2.bin\0", "iatan2.bin\0", "imod2.bin\0","isin3.bin\0", "icos3.bin\0", "iatan3.bin\0", "imod3.bin\0" };
  116380:	e59fc2c8 	ldr	ip, [pc, #712]	; 116650 <main+0x2d0>
volatile int FpgaProgrammed=FALSE;



int main()
{
  116384:	e92d4ff0 	push	{r4, r5, r6, r7, r8, r9, sl, fp, lr}
  116388:	e24dd074 	sub	sp, sp, #116	; 0x74
	char * const in_file[] = { "isin1.bin\0", "icos1.bin\0", "iatan1.bin\0", "imod1.bin\0","isin2.bin\0", "icos2.bin\0", "iatan2.bin\0", "imod2.bin\0","isin3.bin\0", "icos3.bin\0", "iatan3.bin\0", "imod3.bin\0" };
  11638c:	e28de010 	add	lr, sp, #16
  116390:	e8bc000f 	ldm	ip!, {r0, r1, r2, r3}
  116394:	e8ae000f 	stmia	lr!, {r0, r1, r2, r3}
  116398:	e8bc000f 	ldm	ip!, {r0, r1, r2, r3}
  11639c:	e8ae000f 	stmia	lr!, {r0, r1, r2, r3}
  1163a0:	e89c000f 	ldm	ip, {r0, r1, r2, r3}
	char * const out_file[] = { "osin1.bin\0", "ocos1.bin\0", "oatan1.bin\0", "omod1.bin\0","osin2.bin\0", "ocos2.bin\0", "oatan2.bin\0", "omod2.bin\0","osin3.bin\0", "ocos3.bin\0", "oatan3.bin\0", "omod3.bin\0" };
  1163a4:	e28cc010 	add	ip, ip, #16



int main()
{
	char * const in_file[] = { "isin1.bin\0", "icos1.bin\0", "iatan1.bin\0", "imod1.bin\0","isin2.bin\0", "icos2.bin\0", "iatan2.bin\0", "imod2.bin\0","isin3.bin\0", "icos3.bin\0", "iatan3.bin\0", "imod3.bin\0" };
  1163a8:	e88e000f 	stm	lr, {r0, r1, r2, r3}
	char * const out_file[] = { "osin1.bin\0", "ocos1.bin\0", "oatan1.bin\0", "omod1.bin\0","osin2.bin\0", "ocos2.bin\0", "oatan2.bin\0", "omod2.bin\0","osin3.bin\0", "ocos3.bin\0", "oatan3.bin\0", "omod3.bin\0" };
  1163ac:	e28de040 	add	lr, sp, #64	; 0x40
  1163b0:	e8bc000f 	ldm	ip!, {r0, r1, r2, r3}
  1163b4:	e8ae000f 	stmia	lr!, {r0, r1, r2, r3}
  1163b8:	e8bc000f 	ldm	ip!, {r0, r1, r2, r3}
  1163bc:	e8ae000f 	stmia	lr!, {r0, r1, r2, r3}
  1163c0:	e89c000f 	ldm	ip, {r0, r1, r2, r3}
  1163c4:	e88e000f 	stm	lr, {r0, r1, r2, r3}
	int lk;
	int dpr_index;
	int funct_index;


    init_platform();
  1163c8:	ebffa943 	bl	1008dc <init_platform>
    Xil_DCacheDisable();
  1163cc:	ebffb3c9 	bl	1032f8 <Xil_DCacheDisable>
    Xil_ICacheDisable();
  1163d0:	ebffb3cf 	bl	103314 <Xil_ICacheDisable>
    print("Hello World\n\r");
  1163d4:	e59f0278 	ldr	r0, [pc, #632]	; 116654 <main+0x2d4>
  1163d8:	ebffb19a 	bl	102a48 <print>


//**** Memory Allocation ***///
	char *par_bitstream_1b = (char *)malloc(300000);
  1163dc:	e59f0274 	ldr	r0, [pc, #628]	; 116658 <main+0x2d8>
  1163e0:	ebffb781 	bl	1041ec <malloc>
	if (par_bitstream_1b==NULL ){
  1163e4:	e2509000 	subs	r9, r0, #0
  1163e8:	1a000002 	bne	1163f8 <main+0x78>
		xil_printf("Failed to allocate memory for par_bitstream_1 buffer");
  1163ec:	e59f0268 	ldr	r0, [pc, #616]	; 11665c <main+0x2dc>
  1163f0:	ebffb522 	bl	103880 <xil_printf>
  1163f4:	ea000002 	b	116404 <main+0x84>
	} else {
		xil_printf("Successfully allocated memory for par_bitstream_1 buffer 0x%08x \r\n",  par_bitstream_1b);
  1163f8:	e1a01009 	mov	r1, r9
  1163fc:	e59f025c 	ldr	r0, [pc, #604]	; 116660 <main+0x2e0>
  116400:	ebffb51e 	bl	103880 <xil_printf>
	}
	char *par_bitstream_2b = (char *)malloc(300000);
  116404:	e59f024c 	ldr	r0, [pc, #588]	; 116658 <main+0x2d8>
  116408:	ebffb777 	bl	1041ec <malloc>
	if (par_bitstream_2b==NULL ){
  11640c:	e2508000 	subs	r8, r0, #0
  116410:	1a000002 	bne	116420 <main+0xa0>
		xil_printf("Failed to allocate memory for par_bitstream_2 buffer");
  116414:	e59f0248 	ldr	r0, [pc, #584]	; 116664 <main+0x2e4>
  116418:	ebffb518 	bl	103880 <xil_printf>
  11641c:	ea000002 	b	11642c <main+0xac>
	} else {
		xil_printf("Successfully allocated memory for par_bitstream_2 buffer 0x%08x \r\n",  par_bitstream_2b);
  116420:	e1a01008 	mov	r1, r8
  116424:	e59f023c 	ldr	r0, [pc, #572]	; 116668 <main+0x2e8>
  116428:	ebffb514 	bl	103880 <xil_printf>
	}
	char *par_bitstream_3b = (char *)malloc(300000);
  11642c:	e59f0224 	ldr	r0, [pc, #548]	; 116658 <main+0x2d8>
  116430:	ebffb76d 	bl	1041ec <malloc>
	if (par_bitstream_3b==NULL ){
  116434:	e2507000 	subs	r7, r0, #0
  116438:	1a000002 	bne	116448 <main+0xc8>
		xil_printf("Failed to allocate memory for par_bitstream_3 buffer");
  11643c:	e59f0228 	ldr	r0, [pc, #552]	; 11666c <main+0x2ec>
  116440:	ebffb50e 	bl	103880 <xil_printf>
  116444:	ea000002 	b	116454 <main+0xd4>
	} else {
		xil_printf("Successfully allocated memory for par_bitstream_3 buffer 0x%08x \r\n",  par_bitstream_3b);
  116448:	e1a01007 	mov	r1, r7
  11644c:	e59f021c 	ldr	r0, [pc, #540]	; 116670 <main+0x2f0>
  116450:	ebffb50a 	bl	103880 <xil_printf>
	}
	u32 *input_vec = (char *)malloc(sizeof(u32)*200);
  116454:	e3a00e32 	mov	r0, #800	; 0x320
  116458:	ebffb763 	bl	1041ec <malloc>
	if (input_vec==NULL){
  11645c:	e2506000 	subs	r6, r0, #0
  116460:	1a000002 	bne	116470 <main+0xf0>
		xil_printf("Failed to allocate memory for input_vec buffer");
  116464:	e59f0208 	ldr	r0, [pc, #520]	; 116674 <main+0x2f4>
  116468:	ebffb504 	bl	103880 <xil_printf>
  11646c:	ea000002 	b	11647c <main+0xfc>
	} else {
		xil_printf("Successfully allocated memory for input_vec buffer 0x%08x \r\n",  input_vec);
  116470:	e1a01006 	mov	r1, r6
  116474:	e59f01fc 	ldr	r0, [pc, #508]	; 116678 <main+0x2f8>
  116478:	ebffb500 	bl	103880 <xil_printf>
	}
	u32 *output_vec = (char *)malloc(sizeof(u32)*200);
  11647c:	e3a00e32 	mov	r0, #800	; 0x320
  116480:	ebffb759 	bl	1041ec <malloc>
	if (output_vec==NULL){
  116484:	e2505000 	subs	r5, r0, #0
  116488:	1a000002 	bne	116498 <main+0x118>
		xil_printf("Failed to allocate memory for input_vec buffer");
  11648c:	e59f01e0 	ldr	r0, [pc, #480]	; 116674 <main+0x2f4>
  116490:	ebffb4fa 	bl	103880 <xil_printf>
  116494:	ea000002 	b	1164a4 <main+0x124>
	} else {
		xil_printf("Successfully allocated memory for output_vec buffer 0x%08x \r\n",  output_vec);
  116498:	e1a01005 	mov	r1, r5
  11649c:	e59f01d8 	ldr	r0, [pc, #472]	; 11667c <main+0x2fc>
  1164a0:	ebffb4f6 	bl	103880 <xil_printf>
	}
	//**** End Memory Allocation ***///


	//**** Drive Mount ***///
	myres= f_mount(&FatFs, "0:/", 1);
  1164a4:	e3a02001 	mov	r2, #1
  1164a8:	e59f11d0 	ldr	r1, [pc, #464]	; 116680 <main+0x300>
  1164ac:	e59f01d0 	ldr	r0, [pc, #464]	; 116684 <main+0x304>
  1164b0:	ebffefa2 	bl	112340 <f_mount>
	 if (myres == FR_OK)  {
  1164b4:	e3500000 	cmp	r0, #0
		 xil_printf("Drive was mounted successfully \r\n");
  1164b8:	059f01c8 	ldreq	r0, [pc, #456]	; 116688 <main+0x308>
	 }else{
		 xil_printf("Fail to mount driver\r\n");
  1164bc:	159f01c8 	ldrne	r0, [pc, #456]	; 11668c <main+0x30c>
  1164c0:	ebffb4ee 	bl	103880 <xil_printf>
	 }
	 //**** Partial bistreamst -->> RAM ***///
    ReadBitstream( filename1,  par_bitstream_1b, 0);
  1164c4:	e3a02000 	mov	r2, #0
  1164c8:	e1a01009 	mov	r1, r9
  1164cc:	e59f01bc 	ldr	r0, [pc, #444]	; 116690 <main+0x310>
  1164d0:	ebffa951 	bl	100a1c <ReadBitstream>
    ReadBitstream( filename2,  par_bitstream_2b, 0);
  1164d4:	e3a02000 	mov	r2, #0
  1164d8:	e1a01008 	mov	r1, r8
  1164dc:	e59f01b0 	ldr	r0, [pc, #432]	; 116694 <main+0x314>
  1164e0:	ebffa94d 	bl	100a1c <ReadBitstream>
    ReadBitstream( filename3,  par_bitstream_3b, 0);
  1164e4:	e3a02000 	mov	r2, #0
  1164e8:	e1a01007 	mov	r1, r7
  1164ec:	e59f01a4 	ldr	r0, [pc, #420]	; 116698 <main+0x318>
  1164f0:	ebffa949 	bl	100a1c <ReadBitstream>
    /**** Generic Interrupt Controller Intialization ***///
    Status = ScuGic_initialization(INTC_DEVICE_ID);
  1164f4:	e3a00000 	mov	r0, #0
  1164f8:	ebffa97b 	bl	100aec <ScuGic_initialization>
    if(Status!=XST_SUCCESS){
  1164fc:	e3500000 	cmp	r0, #0
  116500:	0a000003 	beq	116514 <main+0x194>
    	xil_printf("GIC Example Test Failed \r\n");
  116504:	e59f0190 	ldr	r0, [pc, #400]	; 11669c <main+0x31c>
  116508:	ebffb4dc 	bl	103880 <xil_printf>
    	return XST_FAILURE;
  11650c:	e3a00001 	mov	r0, #1
  116510:	ea00004c 	b	116648 <main+0x2c8>
    	}
    xil_printf("GIC Successfully Configuration\r\n");
  116514:	e59f0184 	ldr	r0, [pc, #388]	; 1166a0 <main+0x320>
    /**** DPR with random partial ***///
    Do_DPR2(3, par_bitstream_1b, par_bitstream_2b, par_bitstream_3b);

    /**** MAIN TESTING LOOP (3 partials, 4 function/ivector(200) for each) ***///
 for (dpr_index=1; dpr_index<4; dpr_index++){
  116518:	e3a0a001 	mov	sl, #1
    Status = ScuGic_initialization(INTC_DEVICE_ID);
    if(Status!=XST_SUCCESS){
    	xil_printf("GIC Example Test Failed \r\n");
    	return XST_FAILURE;
    	}
    xil_printf("GIC Successfully Configuration\r\n");
  11651c:	ebffb4d7 	bl	103880 <xil_printf>
    /**** DPR with random partial ***///
    Do_DPR2(3, par_bitstream_1b, par_bitstream_2b, par_bitstream_3b);
  116520:	e1a03007 	mov	r3, r7
  116524:	e1a02008 	mov	r2, r8
  116528:	e1a01009 	mov	r1, r9
  11652c:	e3a00003 	mov	r0, #3
  116530:	ebffaa2b 	bl	100de4 <Do_DPR2>

    /**** MAIN TESTING LOOP (3 partials, 4 function/ivector(200) for each) ***///
 for (dpr_index=1; dpr_index<4; dpr_index++){
	 Do_DPR2(dpr_index, par_bitstream_1b, par_bitstream_2b, par_bitstream_3b);
  116534:	e1a03007 	mov	r3, r7
  116538:	e1a02008 	mov	r2, r8
  11653c:	e1a01009 	mov	r1, r9
  116540:	e1a0000a 	mov	r0, sl
  116544:	ebffaa26 	bl	100de4 <Do_DPR2>

	 for (funct_index=1; funct_index<5; funct_index++){
  116548:	e3a04001 	mov	r4, #1
  11654c:	e1a0320a 	lsl	r3, sl, #4
  116550:	e58d300c 	str	r3, [sp, #12]
  116554:	e59d300c 	ldr	r3, [sp, #12]
		 read_inputs(input_vec,in_file[dpr_index*4 +funct_index-5] );
  116558:	e1a00006 	mov	r0, r6
  11655c:	e083b104 	add	fp, r3, r4, lsl #2
  116560:	e28d3010 	add	r3, sp, #16
  116564:	e083300b 	add	r3, r3, fp
  116568:	e5131014 	ldr	r1, [r3, #-20]	; 0xffffffec
  11656c:	ebffa8a2 	bl	1007fc <read_inputs>
		 if (funct_index==1){
  116570:	e3540001 	cmp	r4, #1
  116574:	1a000007 	bne	116598 <main+0x218>
		     cordic_highlevel(1, input_vec , output_vec, 200, SCALING_P0_25, DFX_1_P0_25  );
  116578:	e59f2124 	ldr	r2, [pc, #292]	; 1166a4 <main+0x324>
  11657c:	e3a03402 	mov	r3, #33554432	; 0x2000000
  116580:	e1a01006 	mov	r1, r6
  116584:	e1a00004 	mov	r0, r4
  116588:	e88d000c 	stm	sp, {r2, r3}
  11658c:	e3a030c8 	mov	r3, #200	; 0xc8
  116590:	e1a02005 	mov	r2, r5
  116594:	ea000009 	b	1165c0 <main+0x240>
		 } else if (funct_index==2) {
  116598:	e3540002 	cmp	r4, #2
  11659c:	1a000009 	bne	1165c8 <main+0x248>
		 	cordic_highlevel(1, input_vec , output_vec, 200, SCALING_P0_18, DFX_1_P0_18  );
  1165a0:	e3a03701 	mov	r3, #262144	; 0x40000
  1165a4:	e58d3004 	str	r3, [sp, #4]
  1165a8:	e59f30f8 	ldr	r3, [pc, #248]	; 1166a8 <main+0x328>
  1165ac:	e58d3000 	str	r3, [sp]
  1165b0:	e1a02005 	mov	r2, r5
  1165b4:	e3a030c8 	mov	r3, #200	; 0xc8
  1165b8:	e1a01006 	mov	r1, r6
  1165bc:	e3a00001 	mov	r0, #1
  1165c0:	ebffa7f7 	bl	1005a4 <cordic_highlevel>
  1165c4:	ea000006 	b	1165e4 <main+0x264>
		 } else if (funct_index==3){
  1165c8:	e3540003 	cmp	r4, #3
		 	cordic_highlevel(1, input_vec , output_vec, 200, SCALING_P0_12, DFX_1_P0_12  );
  1165cc:	03a03a01 	moveq	r3, #4096	; 0x1000
  1165d0:	058d3004 	streq	r3, [sp, #4]
  1165d4:	030034db 	movweq	r3, #1243	; 0x4db
		 read_inputs(input_vec,in_file[dpr_index*4 +funct_index-5] );
		 if (funct_index==1){
		     cordic_highlevel(1, input_vec , output_vec, 200, SCALING_P0_25, DFX_1_P0_25  );
		 } else if (funct_index==2) {
		 	cordic_highlevel(1, input_vec , output_vec, 200, SCALING_P0_18, DFX_1_P0_18  );
		 } else if (funct_index==3){
  1165d8:	0afffff3 	beq	1165ac <main+0x22c>
		 	cordic_highlevel(1, input_vec , output_vec, 200, SCALING_P0_12, DFX_1_P0_12  );
		 } else {
			xil_printf("Error not a valid configuration \r\n");
  1165dc:	e59f00c8 	ldr	r0, [pc, #200]	; 1166ac <main+0x32c>
  1165e0:	ebffb4a6 	bl	103880 <xil_printf>
  1165e4:	e28d3070 	add	r3, sp, #112	; 0x70
		 }
		 Write_outfile(output_vec,out_file[dpr_index*4 +funct_index-5]);
  1165e8:	e1a00005 	mov	r0, r5
  1165ec:	e083b00b 	add	fp, r3, fp

    /**** MAIN TESTING LOOP (3 partials, 4 function/ivector(200) for each) ***///
 for (dpr_index=1; dpr_index<4; dpr_index++){
	 Do_DPR2(dpr_index, par_bitstream_1b, par_bitstream_2b, par_bitstream_3b);

	 for (funct_index=1; funct_index<5; funct_index++){
  1165f0:	e2844001 	add	r4, r4, #1
		 } else if (funct_index==3){
		 	cordic_highlevel(1, input_vec , output_vec, 200, SCALING_P0_12, DFX_1_P0_12  );
		 } else {
			xil_printf("Error not a valid configuration \r\n");
		 }
		 Write_outfile(output_vec,out_file[dpr_index*4 +funct_index-5]);
  1165f4:	e51b1044 	ldr	r1, [fp, #-68]	; 0xffffffbc
  1165f8:	ebffa857 	bl	10075c <Write_outfile>

    /**** MAIN TESTING LOOP (3 partials, 4 function/ivector(200) for each) ***///
 for (dpr_index=1; dpr_index<4; dpr_index++){
	 Do_DPR2(dpr_index, par_bitstream_1b, par_bitstream_2b, par_bitstream_3b);

	 for (funct_index=1; funct_index<5; funct_index++){
  1165fc:	e3540005 	cmp	r4, #5
  116600:	1affffd3 	bne	116554 <main+0x1d4>
    xil_printf("GIC Successfully Configuration\r\n");
    /**** DPR with random partial ***///
    Do_DPR2(3, par_bitstream_1b, par_bitstream_2b, par_bitstream_3b);

    /**** MAIN TESTING LOOP (3 partials, 4 function/ivector(200) for each) ***///
 for (dpr_index=1; dpr_index<4; dpr_index++){
  116604:	e28aa001 	add	sl, sl, #1
  116608:	e35a0004 	cmp	sl, #4
  11660c:	1affffc8 	bne	116534 <main+0x1b4>
		 Write_outfile(output_vec,out_file[dpr_index*4 +funct_index-5]);
	 }
 }


    free(par_bitstream_1b);
  116610:	e1a00009 	mov	r0, r9
  116614:	ebffb6f9 	bl	104200 <free>
    free(par_bitstream_2b);
  116618:	e1a00008 	mov	r0, r8
  11661c:	ebffb6f7 	bl	104200 <free>
    free(par_bitstream_3b);
  116620:	e1a00007 	mov	r0, r7
  116624:	ebffb6f5 	bl	104200 <free>
    free(input_vec);
  116628:	e1a00006 	mov	r0, r6
  11662c:	ebffb6f3 	bl	104200 <free>
    free(output_vec);
  116630:	e1a00005 	mov	r0, r5
  116634:	ebffb6f1 	bl	104200 <free>
    xil_printf("goodbye \r\n");
  116638:	e59f0070 	ldr	r0, [pc, #112]	; 1166b0 <main+0x330>
  11663c:	ebffb48f 	bl	103880 <xil_printf>
    cleanup_platform();
  116640:	ebffa8a6 	bl	1008e0 <cleanup_platform>
    return 0;
  116644:	e3a00000 	mov	r0, #0
}
  116648:	e28dd074 	add	sp, sp, #116	; 0x74
  11664c:	e8bd8ff0 	pop	{r4, r5, r6, r7, r8, r9, sl, fp, pc}
  116650:	00116700 	.word	0x00116700
  116654:	00116c59 	.word	0x00116c59
  116658:	000493e0 	.word	0x000493e0
  11665c:	00116c67 	.word	0x00116c67
  116660:	00116c9c 	.word	0x00116c9c
  116664:	00116cdf 	.word	0x00116cdf
  116668:	00116d14 	.word	0x00116d14
  11666c:	00116d57 	.word	0x00116d57
  116670:	00116d8c 	.word	0x00116d8c
  116674:	00116dcf 	.word	0x00116dcf
  116678:	00116dfe 	.word	0x00116dfe
  11667c:	00116e3b 	.word	0x00116e3b
  116680:	00116e79 	.word	0x00116e79
  116684:	00120880 	.word	0x00120880
  116688:	00116e7d 	.word	0x00116e7d
  11668c:	00116e9f 	.word	0x00116e9f
  116690:	001172ec 	.word	0x001172ec
  116694:	001172fa 	.word	0x001172fa
  116698:	00117308 	.word	0x00117308
  11669c:	00116eb6 	.word	0x00116eb6
  1166a0:	00116ed1 	.word	0x00116ed1
  1166a4:	009b74ed 	.word	0x009b74ed
  1166a8:	000136e9 	.word	0x000136e9
  1166ac:	00116ef2 	.word	0x00116ef2
  1166b0:	00116f15 	.word	0x00116f15

001166b4 <register_fini>:
  1166b4:	e3003000 	movw	r3, #0
  1166b8:	e3403000 	movt	r3, #0
  1166bc:	e3530000 	cmp	r3, #0
  1166c0:	012fff1e 	bxeq	lr
  1166c4:	e3040134 	movw	r0, #16692	; 0x4134
  1166c8:	e3400010 	movt	r0, #16
  1166cc:	eaffc607 	b	107ef0 <atexit>

Disassembly of section .init:

001166d0 <_init>:
  1166d0:	e1a0c00d 	mov	ip, sp
  1166d4:	e92ddff8 	push	{r3, r4, r5, r6, r7, r8, r9, sl, fp, ip, lr, pc}
  1166d8:	e24cb004 	sub	fp, ip, #4
  1166dc:	e24bd028 	sub	sp, fp, #40	; 0x28
  1166e0:	e89d6ff0 	ldm	sp, {r4, r5, r6, r7, r8, r9, sl, fp, sp, lr}
  1166e4:	e12fff1e 	bx	lr

Disassembly of section .fini:

001166e8 <_fini>:
  1166e8:	e1a0c00d 	mov	ip, sp
  1166ec:	e92ddff8 	push	{r3, r4, r5, r6, r7, r8, r9, sl, fp, ip, lr, pc}
  1166f0:	e24cb004 	sub	fp, ip, #4
  1166f4:	e24bd028 	sub	sp, fp, #40	; 0x28
  1166f8:	e89d6ff0 	ldm	sp, {r4, r5, r6, r7, r8, r9, sl, fp, sp, lr}
  1166fc:	e12fff1e 	bx	lr
